
EegTire.elf:     file format elf32-littlearm
architecture: arm, flags 0x00000112:
EXEC_P, HAS_SYMS, D_PAGED
start address 0x000033e5


Disassembly of section .text:

00000000 <__isr_vector>:
       0:	10008000 	.word	0x10008000
       4:	000033e5 	.word	0x000033e5
       8:	00003419 	.word	0x00003419
       c:	000024db 	.word	0x000024db
      10:	000024dd 	.word	0x000024dd
      14:	000024df 	.word	0x000024df
      18:	000024e1 	.word	0x000024e1
	...
      2c:	00003423 	.word	0x00003423
      30:	000024e3 	.word	0x000024e3
      34:	00000000 	.word	0x00000000
      38:	00003427 	.word	0x00003427
      3c:	00003429 	.word	0x00003429
      40:	0000342d 	.word	0x0000342d
      44:	0000342f 	.word	0x0000342f
      48:	00003431 	.word	0x00003431
      4c:	00003433 	.word	0x00003433
      50:	00003435 	.word	0x00003435
      54:	000024e5 	.word	0x000024e5
      58:	000024e7 	.word	0x000024e7
      5c:	000024e9 	.word	0x000024e9
      60:	000024eb 	.word	0x000024eb
      64:	0000343f 	.word	0x0000343f
      68:	00003441 	.word	0x00003441
      6c:	00003443 	.word	0x00003443
      70:	00003445 	.word	0x00003445
      74:	00003447 	.word	0x00003447
      78:	00003449 	.word	0x00003449
      7c:	0000344b 	.word	0x0000344b
      80:	0000344d 	.word	0x0000344d
      84:	0000344f 	.word	0x0000344f
      88:	00003451 	.word	0x00003451
      8c:	00003453 	.word	0x00003453
      90:	00003455 	.word	0x00003455
      94:	00003457 	.word	0x00003457
      98:	00003459 	.word	0x00003459
      9c:	0000345b 	.word	0x0000345b
      a0:	0000345d 	.word	0x0000345d
      a4:	0000345f 	.word	0x0000345f
      a8:	00003461 	.word	0x00003461
      ac:	00003463 	.word	0x00003463
      b0:	00003465 	.word	0x00003465
      b4:	00003467 	.word	0x00003467
      b8:	00003469 	.word	0x00003469
      bc:	0000346b 	.word	0x0000346b
      c0:	0000346d 	.word	0x0000346d
      c4:	0000346f 	.word	0x0000346f
      c8:	00003471 	.word	0x00003471

000000cc <__do_global_dtors_aux>:
      cc:	b510      	push	{r4, lr}
      ce:	4c05      	ldr	r4, [pc, #20]	; (e4 <__do_global_dtors_aux+0x18>)
      d0:	7823      	ldrb	r3, [r4, #0]
      d2:	b933      	cbnz	r3, e2 <__do_global_dtors_aux+0x16>
      d4:	4b04      	ldr	r3, [pc, #16]	; (e8 <__do_global_dtors_aux+0x1c>)
      d6:	b113      	cbz	r3, de <__do_global_dtors_aux+0x12>
      d8:	4804      	ldr	r0, [pc, #16]	; (ec <__do_global_dtors_aux+0x20>)
      da:	f3af 8000 	nop.w
      de:	2301      	movs	r3, #1
      e0:	7023      	strb	r3, [r4, #0]
      e2:	bd10      	pop	{r4, pc}
      e4:	10000210 	.word	0x10000210
      e8:	00000000 	.word	0x00000000
      ec:	0000ca88 	.word	0x0000ca88

000000f0 <frame_dummy>:
      f0:	b508      	push	{r3, lr}
      f2:	4b06      	ldr	r3, [pc, #24]	; (10c <frame_dummy+0x1c>)
      f4:	b11b      	cbz	r3, fe <frame_dummy+0xe>
      f6:	4806      	ldr	r0, [pc, #24]	; (110 <frame_dummy+0x20>)
      f8:	4906      	ldr	r1, [pc, #24]	; (114 <frame_dummy+0x24>)
      fa:	f3af 8000 	nop.w
      fe:	4806      	ldr	r0, [pc, #24]	; (118 <frame_dummy+0x28>)
     100:	6803      	ldr	r3, [r0, #0]
     102:	b113      	cbz	r3, 10a <frame_dummy+0x1a>
     104:	4b05      	ldr	r3, [pc, #20]	; (11c <frame_dummy+0x2c>)
     106:	b103      	cbz	r3, 10a <frame_dummy+0x1a>
     108:	4798      	blx	r3
     10a:	bd08      	pop	{r3, pc}
     10c:	00000000 	.word	0x00000000
     110:	0000ca88 	.word	0x0000ca88
     114:	10000214 	.word	0x10000214
     118:	1000020c 	.word	0x1000020c
     11c:	00000000 	.word	0x00000000

00000120 <NVIC_EnableIRQ>:
     120:	b480      	push	{r7}
     122:	b083      	sub	sp, #12
     124:	af00      	add	r7, sp, #0
     126:	4603      	mov	r3, r0
     128:	71fb      	strb	r3, [r7, #7]
     12a:	4b08      	ldr	r3, [pc, #32]	; (14c <NVIC_EnableIRQ+0x2c>)
     12c:	f997 2007 	ldrsb.w	r2, [r7, #7]
     130:	0952      	lsrs	r2, r2, #5
     132:	79f9      	ldrb	r1, [r7, #7]
     134:	f001 011f 	and.w	r1, r1, #31
     138:	2001      	movs	r0, #1
     13a:	fa00 f101 	lsl.w	r1, r0, r1
     13e:	f843 1022 	str.w	r1, [r3, r2, lsl #2]
     142:	370c      	adds	r7, #12
     144:	46bd      	mov	sp, r7
     146:	f85d 7b04 	ldr.w	r7, [sp], #4
     14a:	4770      	bx	lr
     14c:	e000e100 	.word	0xe000e100

00000150 <NVIC_DisableIRQ>:
     150:	b480      	push	{r7}
     152:	b083      	sub	sp, #12
     154:	af00      	add	r7, sp, #0
     156:	4603      	mov	r3, r0
     158:	71fb      	strb	r3, [r7, #7]
     15a:	4b09      	ldr	r3, [pc, #36]	; (180 <NVIC_DisableIRQ+0x30>)
     15c:	f997 2007 	ldrsb.w	r2, [r7, #7]
     160:	0952      	lsrs	r2, r2, #5
     162:	79f9      	ldrb	r1, [r7, #7]
     164:	f001 011f 	and.w	r1, r1, #31
     168:	2001      	movs	r0, #1
     16a:	fa00 f101 	lsl.w	r1, r0, r1
     16e:	3220      	adds	r2, #32
     170:	f843 1022 	str.w	r1, [r3, r2, lsl #2]
     174:	370c      	adds	r7, #12
     176:	46bd      	mov	sp, r7
     178:	f85d 7b04 	ldr.w	r7, [sp], #4
     17c:	4770      	bx	lr
     17e:	bf00      	nop
     180:	e000e100 	.word	0xe000e100

00000184 <gpio_write>:
     184:	b480      	push	{r7}
     186:	b083      	sub	sp, #12
     188:	af00      	add	r7, sp, #0
     18a:	6078      	str	r0, [r7, #4]
     18c:	6039      	str	r1, [r7, #0]
     18e:	683b      	ldr	r3, [r7, #0]
     190:	2b00      	cmp	r3, #0
     192:	d005      	beq.n	1a0 <gpio_write+0x1c>
     194:	687b      	ldr	r3, [r7, #4]
     196:	68db      	ldr	r3, [r3, #12]
     198:	687a      	ldr	r2, [r7, #4]
     19a:	6852      	ldr	r2, [r2, #4]
     19c:	601a      	str	r2, [r3, #0]
     19e:	e004      	b.n	1aa <gpio_write+0x26>
     1a0:	687b      	ldr	r3, [r7, #4]
     1a2:	691b      	ldr	r3, [r3, #16]
     1a4:	687a      	ldr	r2, [r7, #4]
     1a6:	6852      	ldr	r2, [r2, #4]
     1a8:	601a      	str	r2, [r3, #0]
     1aa:	370c      	adds	r7, #12
     1ac:	46bd      	mov	sp, r7
     1ae:	f85d 7b04 	ldr.w	r7, [sp], #4
     1b2:	4770      	bx	lr

000001b4 <_ZN4mbed10DigitalOutC1E7PinName>:
     1b4:	b580      	push	{r7, lr}
     1b6:	b082      	sub	sp, #8
     1b8:	af00      	add	r7, sp, #0
     1ba:	6078      	str	r0, [r7, #4]
     1bc:	6039      	str	r1, [r7, #0]
     1be:	687b      	ldr	r3, [r7, #4]
     1c0:	4618      	mov	r0, r3
     1c2:	6839      	ldr	r1, [r7, #0]
     1c4:	2201      	movs	r2, #1
     1c6:	f003 fb25 	bl	3814 <gpio_init>
     1ca:	687b      	ldr	r3, [r7, #4]
     1cc:	4618      	mov	r0, r3
     1ce:	3708      	adds	r7, #8
     1d0:	46bd      	mov	sp, r7
     1d2:	bd80      	pop	{r7, pc}

000001d4 <_ZN4mbed10DigitalOut5writeEi>:
     1d4:	b580      	push	{r7, lr}
     1d6:	b082      	sub	sp, #8
     1d8:	af00      	add	r7, sp, #0
     1da:	6078      	str	r0, [r7, #4]
     1dc:	6039      	str	r1, [r7, #0]
     1de:	687b      	ldr	r3, [r7, #4]
     1e0:	4618      	mov	r0, r3
     1e2:	6839      	ldr	r1, [r7, #0]
     1e4:	f7ff ffce 	bl	184 <gpio_write>
     1e8:	3708      	adds	r7, #8
     1ea:	46bd      	mov	sp, r7
     1ec:	bd80      	pop	{r7, pc}
     1ee:	bf00      	nop

000001f0 <_ZN4mbed10DigitalOutaSEi>:
     1f0:	b580      	push	{r7, lr}
     1f2:	b082      	sub	sp, #8
     1f4:	af00      	add	r7, sp, #0
     1f6:	6078      	str	r0, [r7, #4]
     1f8:	6039      	str	r1, [r7, #0]
     1fa:	6878      	ldr	r0, [r7, #4]
     1fc:	6839      	ldr	r1, [r7, #0]
     1fe:	f7ff ffe9 	bl	1d4 <_ZN4mbed10DigitalOut5writeEi>
     202:	687b      	ldr	r3, [r7, #4]
     204:	4618      	mov	r0, r3
     206:	3708      	adds	r7, #8
     208:	46bd      	mov	sp, r7
     20a:	bd80      	pop	{r7, pc}

0000020c <_ZN4mbed8AnalogInC1E7PinName>:
     20c:	b580      	push	{r7, lr}
     20e:	b082      	sub	sp, #8
     210:	af00      	add	r7, sp, #0
     212:	6078      	str	r0, [r7, #4]
     214:	6039      	str	r1, [r7, #0]
     216:	687b      	ldr	r3, [r7, #4]
     218:	4618      	mov	r0, r3
     21a:	6839      	ldr	r1, [r7, #0]
     21c:	f003 f9c4 	bl	35a8 <analogin_init>
     220:	687b      	ldr	r3, [r7, #4]
     222:	4618      	mov	r0, r3
     224:	3708      	adds	r7, #8
     226:	46bd      	mov	sp, r7
     228:	bd80      	pop	{r7, pc}
     22a:	bf00      	nop

0000022c <_ZN4mbed8AnalogIn4readEv>:
     22c:	b580      	push	{r7, lr}
     22e:	b082      	sub	sp, #8
     230:	af00      	add	r7, sp, #0
     232:	6078      	str	r0, [r7, #4]
     234:	687b      	ldr	r3, [r7, #4]
     236:	4618      	mov	r0, r3
     238:	f003 f9fe 	bl	3638 <analogin_read>
     23c:	4603      	mov	r3, r0
     23e:	4618      	mov	r0, r3
     240:	3708      	adds	r7, #8
     242:	46bd      	mov	sp, r7
     244:	bd80      	pop	{r7, pc}
     246:	bf00      	nop

00000248 <_ZN4mbed8AnalogIncvfEv>:
     248:	b580      	push	{r7, lr}
     24a:	b082      	sub	sp, #8
     24c:	af00      	add	r7, sp, #0
     24e:	6078      	str	r0, [r7, #4]
     250:	6878      	ldr	r0, [r7, #4]
     252:	f7ff ffeb 	bl	22c <_ZN4mbed8AnalogIn4readEv>
     256:	4603      	mov	r3, r0
     258:	4618      	mov	r0, r3
     25a:	3708      	adds	r7, #8
     25c:	46bd      	mov	sp, r7
     25e:	bd80      	pop	{r7, pc}

00000260 <_ZN4mbed9AnalogOutC1E7PinName>:
     260:	b580      	push	{r7, lr}
     262:	b082      	sub	sp, #8
     264:	af00      	add	r7, sp, #0
     266:	6078      	str	r0, [r7, #4]
     268:	6039      	str	r1, [r7, #0]
     26a:	687b      	ldr	r3, [r7, #4]
     26c:	4618      	mov	r0, r3
     26e:	6839      	ldr	r1, [r7, #0]
     270:	f003 fa60 	bl	3734 <analogout_init>
     274:	687b      	ldr	r3, [r7, #4]
     276:	4618      	mov	r0, r3
     278:	3708      	adds	r7, #8
     27a:	46bd      	mov	sp, r7
     27c:	bd80      	pop	{r7, pc}
     27e:	bf00      	nop

00000280 <_ZN4mbed9AnalogOut5writeEf>:
     280:	b580      	push	{r7, lr}
     282:	b082      	sub	sp, #8
     284:	af00      	add	r7, sp, #0
     286:	6078      	str	r0, [r7, #4]
     288:	6039      	str	r1, [r7, #0]
     28a:	687b      	ldr	r3, [r7, #4]
     28c:	4618      	mov	r0, r3
     28e:	6839      	ldr	r1, [r7, #0]
     290:	f003 fa72 	bl	3778 <analogout_write>
     294:	3708      	adds	r7, #8
     296:	46bd      	mov	sp, r7
     298:	bd80      	pop	{r7, pc}
     29a:	bf00      	nop

0000029c <_ZN4mbed9AnalogOutaSEf>:
     29c:	b580      	push	{r7, lr}
     29e:	b082      	sub	sp, #8
     2a0:	af00      	add	r7, sp, #0
     2a2:	6078      	str	r0, [r7, #4]
     2a4:	6039      	str	r1, [r7, #0]
     2a6:	6878      	ldr	r0, [r7, #4]
     2a8:	6839      	ldr	r1, [r7, #0]
     2aa:	f7ff ffe9 	bl	280 <_ZN4mbed9AnalogOut5writeEf>
     2ae:	687b      	ldr	r3, [r7, #4]
     2b0:	4618      	mov	r0, r3
     2b2:	3708      	adds	r7, #8
     2b4:	46bd      	mov	sp, r7
     2b6:	bd80      	pop	{r7, pc}

000002b8 <_Z4pushf>:
     2b8:	b580      	push	{r7, lr}
     2ba:	b082      	sub	sp, #8
     2bc:	af00      	add	r7, sp, #0
     2be:	6078      	str	r0, [r7, #4]
     2c0:	4808      	ldr	r0, [pc, #32]	; (2e4 <_Z4pushf+0x2c>)
     2c2:	2100      	movs	r1, #0
     2c4:	f7ff ff94 	bl	1f0 <_ZN4mbed10DigitalOutaSEi>
     2c8:	4807      	ldr	r0, [pc, #28]	; (2e8 <_Z4pushf+0x30>)
     2ca:	2100      	movs	r1, #0
     2cc:	f7ff ff90 	bl	1f0 <_ZN4mbed10DigitalOutaSEi>
     2d0:	4806      	ldr	r0, [pc, #24]	; (2ec <_Z4pushf+0x34>)
     2d2:	f003 fbb1 	bl	3a38 <wait>
     2d6:	4806      	ldr	r0, [pc, #24]	; (2f0 <_Z4pushf+0x38>)
     2d8:	6879      	ldr	r1, [r7, #4]
     2da:	f7ff ffdf 	bl	29c <_ZN4mbed9AnalogOutaSEf>
     2de:	3708      	adds	r7, #8
     2e0:	46bd      	mov	sp, r7
     2e2:	bd80      	pop	{r7, pc}
     2e4:	100002a4 	.word	0x100002a4
     2e8:	1000028c 	.word	0x1000028c
     2ec:	3ca3d70a 	.word	0x3ca3d70a
     2f0:	10000284 	.word	0x10000284

000002f4 <_Z4turnf>:
     2f4:	b580      	push	{r7, lr}
     2f6:	b082      	sub	sp, #8
     2f8:	af00      	add	r7, sp, #0
     2fa:	6078      	str	r0, [r7, #4]
     2fc:	4808      	ldr	r0, [pc, #32]	; (320 <_Z4turnf+0x2c>)
     2fe:	2100      	movs	r1, #0
     300:	f7ff ff76 	bl	1f0 <_ZN4mbed10DigitalOutaSEi>
     304:	4807      	ldr	r0, [pc, #28]	; (324 <_Z4turnf+0x30>)
     306:	2100      	movs	r1, #0
     308:	f7ff ff72 	bl	1f0 <_ZN4mbed10DigitalOutaSEi>
     30c:	4806      	ldr	r0, [pc, #24]	; (328 <_Z4turnf+0x34>)
     30e:	f003 fb93 	bl	3a38 <wait>
     312:	4806      	ldr	r0, [pc, #24]	; (32c <_Z4turnf+0x38>)
     314:	6879      	ldr	r1, [r7, #4]
     316:	f7ff ffc1 	bl	29c <_ZN4mbed9AnalogOutaSEf>
     31a:	3708      	adds	r7, #8
     31c:	46bd      	mov	sp, r7
     31e:	bd80      	pop	{r7, pc}
     320:	100002a4 	.word	0x100002a4
     324:	1000028c 	.word	0x1000028c
     328:	3ca3d70a 	.word	0x3ca3d70a
     32c:	10000284 	.word	0x10000284

00000330 <_Z5_stopv>:
     330:	b580      	push	{r7, lr}
     332:	af00      	add	r7, sp, #0
     334:	4808      	ldr	r0, [pc, #32]	; (358 <_Z5_stopv+0x28>)
     336:	2100      	movs	r1, #0
     338:	f7ff ff5a 	bl	1f0 <_ZN4mbed10DigitalOutaSEi>
     33c:	4807      	ldr	r0, [pc, #28]	; (35c <_Z5_stopv+0x2c>)
     33e:	f003 fb7b 	bl	3a38 <wait>
     342:	4807      	ldr	r0, [pc, #28]	; (360 <_Z5_stopv+0x30>)
     344:	2100      	movs	r1, #0
     346:	f7ff ff53 	bl	1f0 <_ZN4mbed10DigitalOutaSEi>
     34a:	4806      	ldr	r0, [pc, #24]	; (364 <_Z5_stopv+0x34>)
     34c:	f04f 0100 	mov.w	r1, #0
     350:	f7ff ffa4 	bl	29c <_ZN4mbed9AnalogOutaSEf>
     354:	bd80      	pop	{r7, pc}
     356:	bf00      	nop
     358:	100002a4 	.word	0x100002a4
     35c:	3d23d70a 	.word	0x3d23d70a
     360:	1000028c 	.word	0x1000028c
     364:	10000284 	.word	0x10000284

00000368 <_Z6_breakv>:
     368:	b580      	push	{r7, lr}
     36a:	af00      	add	r7, sp, #0
     36c:	4808      	ldr	r0, [pc, #32]	; (390 <_Z6_breakv+0x28>)
     36e:	2100      	movs	r1, #0
     370:	f7ff ff3e 	bl	1f0 <_ZN4mbed10DigitalOutaSEi>
     374:	4807      	ldr	r0, [pc, #28]	; (394 <_Z6_breakv+0x2c>)
     376:	f04f 0100 	mov.w	r1, #0
     37a:	f7ff ff8f 	bl	29c <_ZN4mbed9AnalogOutaSEf>
     37e:	4806      	ldr	r0, [pc, #24]	; (398 <_Z6_breakv+0x30>)
     380:	f003 fb5a 	bl	3a38 <wait>
     384:	4805      	ldr	r0, [pc, #20]	; (39c <_Z6_breakv+0x34>)
     386:	2101      	movs	r1, #1
     388:	f7ff ff32 	bl	1f0 <_ZN4mbed10DigitalOutaSEi>
     38c:	bd80      	pop	{r7, pc}
     38e:	bf00      	nop
     390:	1000028c 	.word	0x1000028c
     394:	10000284 	.word	0x10000284
     398:	3ca3d70a 	.word	0x3ca3d70a
     39c:	100002a4 	.word	0x100002a4

000003a0 <_Z4pullf>:
     3a0:	b580      	push	{r7, lr}
     3a2:	b082      	sub	sp, #8
     3a4:	af00      	add	r7, sp, #0
     3a6:	6078      	str	r0, [r7, #4]
     3a8:	4808      	ldr	r0, [pc, #32]	; (3cc <_Z4pullf+0x2c>)
     3aa:	2100      	movs	r1, #0
     3ac:	f7ff ff20 	bl	1f0 <_ZN4mbed10DigitalOutaSEi>
     3b0:	4807      	ldr	r0, [pc, #28]	; (3d0 <_Z4pullf+0x30>)
     3b2:	2101      	movs	r1, #1
     3b4:	f7ff ff1c 	bl	1f0 <_ZN4mbed10DigitalOutaSEi>
     3b8:	4806      	ldr	r0, [pc, #24]	; (3d4 <_Z4pullf+0x34>)
     3ba:	f003 fb3d 	bl	3a38 <wait>
     3be:	4806      	ldr	r0, [pc, #24]	; (3d8 <_Z4pullf+0x38>)
     3c0:	6879      	ldr	r1, [r7, #4]
     3c2:	f7ff ff6b 	bl	29c <_ZN4mbed9AnalogOutaSEf>
     3c6:	3708      	adds	r7, #8
     3c8:	46bd      	mov	sp, r7
     3ca:	bd80      	pop	{r7, pc}
     3cc:	100002a4 	.word	0x100002a4
     3d0:	1000028c 	.word	0x1000028c
     3d4:	3d23d70a 	.word	0x3d23d70a
     3d8:	10000284 	.word	0x10000284

000003dc <_Z9send_linev>:
     3dc:	b580      	push	{r7, lr}
     3de:	b082      	sub	sp, #8
     3e0:	af00      	add	r7, sp, #0
     3e2:	2300      	movs	r3, #0
     3e4:	607b      	str	r3, [r7, #4]
     3e6:	2006      	movs	r0, #6
     3e8:	f7ff feb2 	bl	150 <NVIC_DisableIRQ>
     3ec:	4b48      	ldr	r3, [pc, #288]	; (510 <CFSR_BUS_IMPRECISE_BIT+0x110>)
     3ee:	681a      	ldr	r2, [r3, #0]
     3f0:	4b48      	ldr	r3, [pc, #288]	; (514 <CFSR_BUS_IMPRECISE_BIT+0x114>)
     3f2:	681b      	ldr	r3, [r3, #0]
     3f4:	429a      	cmp	r2, r3
     3f6:	bf14      	ite	ne
     3f8:	2300      	movne	r3, #0
     3fa:	2301      	moveq	r3, #1
     3fc:	70fb      	strb	r3, [r7, #3]
     3fe:	e04f      	b.n	4a0 <CFSR_BUS_IMPRECISE_BIT+0xa0>
     400:	4b43      	ldr	r3, [pc, #268]	; (510 <CFSR_BUS_IMPRECISE_BIT+0x110>)
     402:	681b      	ldr	r3, [r3, #0]
     404:	1c59      	adds	r1, r3, #1
     406:	4b44      	ldr	r3, [pc, #272]	; (518 <CFSR_BUS_IMPRECISE_BIT+0x118>)
     408:	fb81 2303 	smull	r2, r3, r1, r3
     40c:	440b      	add	r3, r1
     40e:	11da      	asrs	r2, r3, #7
     410:	17cb      	asrs	r3, r1, #31
     412:	1ad2      	subs	r2, r2, r3
     414:	4613      	mov	r3, r2
     416:	021b      	lsls	r3, r3, #8
     418:	1a9b      	subs	r3, r3, r2
     41a:	1aca      	subs	r2, r1, r3
     41c:	4b3d      	ldr	r3, [pc, #244]	; (514 <CFSR_BUS_IMPRECISE_BIT+0x114>)
     41e:	681b      	ldr	r3, [r3, #0]
     420:	429a      	cmp	r2, r3
     422:	bf14      	ite	ne
     424:	2300      	movne	r3, #0
     426:	2301      	moveq	r3, #1
     428:	b2db      	uxtb	r3, r3
     42a:	2b00      	cmp	r3, #0
     42c:	d01d      	beq.n	46a <CFSR_BUS_IMPRECISE_BIT+0x6a>
     42e:	2006      	movs	r0, #6
     430:	f7ff fe76 	bl	120 <NVIC_EnableIRQ>
     434:	bf00      	nop
     436:	4b36      	ldr	r3, [pc, #216]	; (510 <CFSR_BUS_IMPRECISE_BIT+0x110>)
     438:	681b      	ldr	r3, [r3, #0]
     43a:	1c59      	adds	r1, r3, #1
     43c:	4b36      	ldr	r3, [pc, #216]	; (518 <CFSR_BUS_IMPRECISE_BIT+0x118>)
     43e:	fb81 2303 	smull	r2, r3, r1, r3
     442:	440b      	add	r3, r1
     444:	11da      	asrs	r2, r3, #7
     446:	17cb      	asrs	r3, r1, #31
     448:	1ad2      	subs	r2, r2, r3
     44a:	4613      	mov	r3, r2
     44c:	021b      	lsls	r3, r3, #8
     44e:	1a9b      	subs	r3, r3, r2
     450:	1aca      	subs	r2, r1, r3
     452:	4b30      	ldr	r3, [pc, #192]	; (514 <CFSR_BUS_IMPRECISE_BIT+0x114>)
     454:	681b      	ldr	r3, [r3, #0]
     456:	429a      	cmp	r2, r3
     458:	bf14      	ite	ne
     45a:	2300      	movne	r3, #0
     45c:	2301      	moveq	r3, #1
     45e:	b2db      	uxtb	r3, r3
     460:	2b00      	cmp	r3, #0
     462:	d1e8      	bne.n	436 <CFSR_BUS_IMPRECISE_BIT+0x36>
     464:	2006      	movs	r0, #6
     466:	f7ff fe73 	bl	150 <NVIC_DisableIRQ>
     46a:	4b29      	ldr	r3, [pc, #164]	; (510 <CFSR_BUS_IMPRECISE_BIT+0x110>)
     46c:	681b      	ldr	r3, [r3, #0]
     46e:	492b      	ldr	r1, [pc, #172]	; (51c <CFSR_BUS_IMPRECISE_BIT+0x11c>)
     470:	687a      	ldr	r2, [r7, #4]
     472:	440a      	add	r2, r1
     474:	7811      	ldrb	r1, [r2, #0]
     476:	4a2a      	ldr	r2, [pc, #168]	; (520 <CFSR_BUS_IMPRECISE_BIT+0x120>)
     478:	54d1      	strb	r1, [r2, r3]
     47a:	687b      	ldr	r3, [r7, #4]
     47c:	3301      	adds	r3, #1
     47e:	607b      	str	r3, [r7, #4]
     480:	4b23      	ldr	r3, [pc, #140]	; (510 <CFSR_BUS_IMPRECISE_BIT+0x110>)
     482:	681b      	ldr	r3, [r3, #0]
     484:	1c59      	adds	r1, r3, #1
     486:	4b24      	ldr	r3, [pc, #144]	; (518 <CFSR_BUS_IMPRECISE_BIT+0x118>)
     488:	fb81 2303 	smull	r2, r3, r1, r3
     48c:	440b      	add	r3, r1
     48e:	11da      	asrs	r2, r3, #7
     490:	17cb      	asrs	r3, r1, #31
     492:	1ad2      	subs	r2, r2, r3
     494:	4613      	mov	r3, r2
     496:	021b      	lsls	r3, r3, #8
     498:	1a9b      	subs	r3, r3, r2
     49a:	1aca      	subs	r2, r1, r3
     49c:	4b1c      	ldr	r3, [pc, #112]	; (510 <CFSR_BUS_IMPRECISE_BIT+0x110>)
     49e:	601a      	str	r2, [r3, #0]
     4a0:	687b      	ldr	r3, [r7, #4]
     4a2:	2b00      	cmp	r3, #0
     4a4:	d0ac      	beq.n	400 <CFSR_BUS_IMPRECISE_BIT>
     4a6:	687b      	ldr	r3, [r7, #4]
     4a8:	3b01      	subs	r3, #1
     4aa:	4a1c      	ldr	r2, [pc, #112]	; (51c <CFSR_BUS_IMPRECISE_BIT+0x11c>)
     4ac:	5cd3      	ldrb	r3, [r2, r3]
     4ae:	2b0a      	cmp	r3, #10
     4b0:	d1a6      	bne.n	400 <CFSR_BUS_IMPRECISE_BIT>
     4b2:	481c      	ldr	r0, [pc, #112]	; (524 <CFSR_BUS_IMPRECISE_BIT+0x124>)
     4b4:	f003 fb1c 	bl	3af0 <_ZN4mbed6Serial9writeableEv>
     4b8:	4603      	mov	r3, r0
     4ba:	2b00      	cmp	r3, #0
     4bc:	d004      	beq.n	4c8 <CFSR_BUS_IMPRECISE_BIT+0xc8>
     4be:	78fb      	ldrb	r3, [r7, #3]
     4c0:	2b00      	cmp	r3, #0
     4c2:	d001      	beq.n	4c8 <CFSR_BUS_IMPRECISE_BIT+0xc8>
     4c4:	2301      	movs	r3, #1
     4c6:	e000      	b.n	4ca <CFSR_BUS_IMPRECISE_BIT+0xca>
     4c8:	2300      	movs	r3, #0
     4ca:	2b00      	cmp	r3, #0
     4cc:	d019      	beq.n	502 <CFSR_BUS_IMPRECISE_BIT+0x102>
     4ce:	4b11      	ldr	r3, [pc, #68]	; (514 <CFSR_BUS_IMPRECISE_BIT+0x114>)
     4d0:	681b      	ldr	r3, [r3, #0]
     4d2:	4a13      	ldr	r2, [pc, #76]	; (520 <CFSR_BUS_IMPRECISE_BIT+0x120>)
     4d4:	5cd3      	ldrb	r3, [r2, r3]
     4d6:	70bb      	strb	r3, [r7, #2]
     4d8:	4b0e      	ldr	r3, [pc, #56]	; (514 <CFSR_BUS_IMPRECISE_BIT+0x114>)
     4da:	681b      	ldr	r3, [r3, #0]
     4dc:	1c59      	adds	r1, r3, #1
     4de:	4b0e      	ldr	r3, [pc, #56]	; (518 <CFSR_BUS_IMPRECISE_BIT+0x118>)
     4e0:	fb81 2303 	smull	r2, r3, r1, r3
     4e4:	440b      	add	r3, r1
     4e6:	11da      	asrs	r2, r3, #7
     4e8:	17cb      	asrs	r3, r1, #31
     4ea:	1ad2      	subs	r2, r2, r3
     4ec:	4613      	mov	r3, r2
     4ee:	021b      	lsls	r3, r3, #8
     4f0:	1a9b      	subs	r3, r3, r2
     4f2:	1aca      	subs	r2, r1, r3
     4f4:	4b07      	ldr	r3, [pc, #28]	; (514 <CFSR_BUS_IMPRECISE_BIT+0x114>)
     4f6:	601a      	str	r2, [r3, #0]
     4f8:	78bb      	ldrb	r3, [r7, #2]
     4fa:	480a      	ldr	r0, [pc, #40]	; (524 <CFSR_BUS_IMPRECISE_BIT+0x124>)
     4fc:	4619      	mov	r1, r3
     4fe:	f003 fd71 	bl	3fe4 <_ZN4mbed6Stream4putcEi>
     502:	2006      	movs	r0, #6
     504:	f7ff fe0c 	bl	120 <NVIC_EnableIRQ>
     508:	bf00      	nop
     50a:	3708      	adds	r7, #8
     50c:	46bd      	mov	sp, r7
     50e:	bd80      	pop	{r7, pc}
     510:	100004ec 	.word	0x100004ec
     514:	100004f0 	.word	0x100004f0
     518:	80808081 	.word	0x80808081
     51c:	100004fc 	.word	0x100004fc
     520:	100002ec 	.word	0x100002ec
     524:	1000022c 	.word	0x1000022c

00000528 <_Z9read_linev>:
     528:	b580      	push	{r7, lr}
     52a:	b082      	sub	sp, #8
     52c:	af00      	add	r7, sp, #0
     52e:	2300      	movs	r3, #0
     530:	607b      	str	r3, [r7, #4]
     532:	2006      	movs	r0, #6
     534:	f7ff fe0c 	bl	150 <NVIC_DisableIRQ>
     538:	e037      	b.n	5aa <_Z9read_linev+0x82>
     53a:	4b26      	ldr	r3, [pc, #152]	; (5d4 <_Z9read_linev+0xac>)
     53c:	681a      	ldr	r2, [r3, #0]
     53e:	4b26      	ldr	r3, [pc, #152]	; (5d8 <_Z9read_linev+0xb0>)
     540:	681b      	ldr	r3, [r3, #0]
     542:	429a      	cmp	r2, r3
     544:	bf14      	ite	ne
     546:	2300      	movne	r3, #0
     548:	2301      	moveq	r3, #1
     54a:	b2db      	uxtb	r3, r3
     54c:	2b00      	cmp	r3, #0
     54e:	d011      	beq.n	574 <_Z9read_linev+0x4c>
     550:	2006      	movs	r0, #6
     552:	f7ff fde5 	bl	120 <NVIC_EnableIRQ>
     556:	bf00      	nop
     558:	4b1e      	ldr	r3, [pc, #120]	; (5d4 <_Z9read_linev+0xac>)
     55a:	681a      	ldr	r2, [r3, #0]
     55c:	4b1e      	ldr	r3, [pc, #120]	; (5d8 <_Z9read_linev+0xb0>)
     55e:	681b      	ldr	r3, [r3, #0]
     560:	429a      	cmp	r2, r3
     562:	bf14      	ite	ne
     564:	2300      	movne	r3, #0
     566:	2301      	moveq	r3, #1
     568:	b2db      	uxtb	r3, r3
     56a:	2b00      	cmp	r3, #0
     56c:	d1f4      	bne.n	558 <_Z9read_linev+0x30>
     56e:	2006      	movs	r0, #6
     570:	f7ff fdee 	bl	150 <NVIC_DisableIRQ>
     574:	4b18      	ldr	r3, [pc, #96]	; (5d8 <_Z9read_linev+0xb0>)
     576:	681b      	ldr	r3, [r3, #0]
     578:	4a18      	ldr	r2, [pc, #96]	; (5dc <_Z9read_linev+0xb4>)
     57a:	5cd2      	ldrb	r2, [r2, r3]
     57c:	4918      	ldr	r1, [pc, #96]	; (5e0 <_Z9read_linev+0xb8>)
     57e:	687b      	ldr	r3, [r7, #4]
     580:	440b      	add	r3, r1
     582:	701a      	strb	r2, [r3, #0]
     584:	687b      	ldr	r3, [r7, #4]
     586:	3301      	adds	r3, #1
     588:	607b      	str	r3, [r7, #4]
     58a:	4b13      	ldr	r3, [pc, #76]	; (5d8 <_Z9read_linev+0xb0>)
     58c:	681b      	ldr	r3, [r3, #0]
     58e:	1c59      	adds	r1, r3, #1
     590:	4b14      	ldr	r3, [pc, #80]	; (5e4 <_Z9read_linev+0xbc>)
     592:	fb81 2303 	smull	r2, r3, r1, r3
     596:	440b      	add	r3, r1
     598:	11da      	asrs	r2, r3, #7
     59a:	17cb      	asrs	r3, r1, #31
     59c:	1ad2      	subs	r2, r2, r3
     59e:	4613      	mov	r3, r2
     5a0:	021b      	lsls	r3, r3, #8
     5a2:	1a9b      	subs	r3, r3, r2
     5a4:	1aca      	subs	r2, r1, r3
     5a6:	4b0c      	ldr	r3, [pc, #48]	; (5d8 <_Z9read_linev+0xb0>)
     5a8:	601a      	str	r2, [r3, #0]
     5aa:	687b      	ldr	r3, [r7, #4]
     5ac:	2b00      	cmp	r3, #0
     5ae:	d0c4      	beq.n	53a <_Z9read_linev+0x12>
     5b0:	687b      	ldr	r3, [r7, #4]
     5b2:	3b01      	subs	r3, #1
     5b4:	4a0a      	ldr	r2, [pc, #40]	; (5e0 <_Z9read_linev+0xb8>)
     5b6:	5cd3      	ldrb	r3, [r2, r3]
     5b8:	2b0d      	cmp	r3, #13
     5ba:	d1be      	bne.n	53a <_Z9read_linev+0x12>
     5bc:	2006      	movs	r0, #6
     5be:	f7ff fdaf 	bl	120 <NVIC_EnableIRQ>
     5c2:	687b      	ldr	r3, [r7, #4]
     5c4:	3b01      	subs	r3, #1
     5c6:	4a06      	ldr	r2, [pc, #24]	; (5e0 <_Z9read_linev+0xb8>)
     5c8:	2100      	movs	r1, #0
     5ca:	54d1      	strb	r1, [r2, r3]
     5cc:	bf00      	nop
     5ce:	3708      	adds	r7, #8
     5d0:	46bd      	mov	sp, r7
     5d2:	bd80      	pop	{r7, pc}
     5d4:	100004f4 	.word	0x100004f4
     5d8:	100004f8 	.word	0x100004f8
     5dc:	100003ec 	.word	0x100003ec
     5e0:	1000054c 	.word	0x1000054c
     5e4:	80808081 	.word	0x80808081

000005e8 <_Z12Rx_interruptv>:
     5e8:	b598      	push	{r3, r4, r7, lr}
     5ea:	af00      	add	r7, sp, #0
     5ec:	4820      	ldr	r0, [pc, #128]	; (670 <_Z12Rx_interruptv+0x88>)
     5ee:	2101      	movs	r1, #1
     5f0:	f7ff fdfe 	bl	1f0 <_ZN4mbed10DigitalOutaSEi>
     5f4:	e018      	b.n	628 <_Z12Rx_interruptv+0x40>
     5f6:	4b1f      	ldr	r3, [pc, #124]	; (674 <_Z12Rx_interruptv+0x8c>)
     5f8:	681c      	ldr	r4, [r3, #0]
     5fa:	481f      	ldr	r0, [pc, #124]	; (678 <_Z12Rx_interruptv+0x90>)
     5fc:	f003 fcfe 	bl	3ffc <_ZN4mbed6Stream4getcEv>
     600:	4603      	mov	r3, r0
     602:	b2da      	uxtb	r2, r3
     604:	4b1d      	ldr	r3, [pc, #116]	; (67c <_Z12Rx_interruptv+0x94>)
     606:	551a      	strb	r2, [r3, r4]
     608:	4b1a      	ldr	r3, [pc, #104]	; (674 <_Z12Rx_interruptv+0x8c>)
     60a:	681b      	ldr	r3, [r3, #0]
     60c:	1c59      	adds	r1, r3, #1
     60e:	4b1c      	ldr	r3, [pc, #112]	; (680 <_Z12Rx_interruptv+0x98>)
     610:	fb81 2303 	smull	r2, r3, r1, r3
     614:	440b      	add	r3, r1
     616:	11da      	asrs	r2, r3, #7
     618:	17cb      	asrs	r3, r1, #31
     61a:	1ad2      	subs	r2, r2, r3
     61c:	4613      	mov	r3, r2
     61e:	021b      	lsls	r3, r3, #8
     620:	1a9b      	subs	r3, r3, r2
     622:	1aca      	subs	r2, r1, r3
     624:	4b13      	ldr	r3, [pc, #76]	; (674 <_Z12Rx_interruptv+0x8c>)
     626:	601a      	str	r2, [r3, #0]
     628:	4813      	ldr	r0, [pc, #76]	; (678 <_Z12Rx_interruptv+0x90>)
     62a:	f003 fa5d 	bl	3ae8 <_ZN4mbed6Serial8readableEv>
     62e:	4603      	mov	r3, r0
     630:	2b00      	cmp	r3, #0
     632:	d013      	beq.n	65c <_Z12Rx_interruptv+0x74>
     634:	4b0f      	ldr	r3, [pc, #60]	; (674 <_Z12Rx_interruptv+0x8c>)
     636:	681b      	ldr	r3, [r3, #0]
     638:	1c59      	adds	r1, r3, #1
     63a:	4b11      	ldr	r3, [pc, #68]	; (680 <_Z12Rx_interruptv+0x98>)
     63c:	fb81 2303 	smull	r2, r3, r1, r3
     640:	440b      	add	r3, r1
     642:	11da      	asrs	r2, r3, #7
     644:	17cb      	asrs	r3, r1, #31
     646:	1ad2      	subs	r2, r2, r3
     648:	4613      	mov	r3, r2
     64a:	021b      	lsls	r3, r3, #8
     64c:	1a9b      	subs	r3, r3, r2
     64e:	1aca      	subs	r2, r1, r3
     650:	4b0c      	ldr	r3, [pc, #48]	; (684 <_Z12Rx_interruptv+0x9c>)
     652:	681b      	ldr	r3, [r3, #0]
     654:	429a      	cmp	r2, r3
     656:	d001      	beq.n	65c <_Z12Rx_interruptv+0x74>
     658:	2301      	movs	r3, #1
     65a:	e000      	b.n	65e <_Z12Rx_interruptv+0x76>
     65c:	2300      	movs	r3, #0
     65e:	2b00      	cmp	r3, #0
     660:	d1c9      	bne.n	5f6 <_Z12Rx_interruptv+0xe>
     662:	4803      	ldr	r0, [pc, #12]	; (670 <_Z12Rx_interruptv+0x88>)
     664:	2100      	movs	r1, #0
     666:	f7ff fdc3 	bl	1f0 <_ZN4mbed10DigitalOutaSEi>
     66a:	bf00      	nop
     66c:	bd98      	pop	{r3, r4, r7, pc}
     66e:	bf00      	nop
     670:	100002bc 	.word	0x100002bc
     674:	100004f4 	.word	0x100004f4
     678:	1000022c 	.word	0x1000022c
     67c:	100003ec 	.word	0x100003ec
     680:	80808081 	.word	0x80808081
     684:	100004f8 	.word	0x100004f8

00000688 <_Z12Tx_interruptv>:
     688:	b580      	push	{r7, lr}
     68a:	af00      	add	r7, sp, #0
     68c:	4819      	ldr	r0, [pc, #100]	; (6f4 <_Z12Tx_interruptv+0x6c>)
     68e:	2101      	movs	r1, #1
     690:	f7ff fdae 	bl	1f0 <_ZN4mbed10DigitalOutaSEi>
     694:	e017      	b.n	6c6 <_Z12Tx_interruptv+0x3e>
     696:	4b18      	ldr	r3, [pc, #96]	; (6f8 <_Z12Tx_interruptv+0x70>)
     698:	681b      	ldr	r3, [r3, #0]
     69a:	4a18      	ldr	r2, [pc, #96]	; (6fc <_Z12Tx_interruptv+0x74>)
     69c:	5cd3      	ldrb	r3, [r2, r3]
     69e:	4818      	ldr	r0, [pc, #96]	; (700 <_Z12Tx_interruptv+0x78>)
     6a0:	4619      	mov	r1, r3
     6a2:	f003 fc9f 	bl	3fe4 <_ZN4mbed6Stream4putcEi>
     6a6:	4b14      	ldr	r3, [pc, #80]	; (6f8 <_Z12Tx_interruptv+0x70>)
     6a8:	681b      	ldr	r3, [r3, #0]
     6aa:	1c59      	adds	r1, r3, #1
     6ac:	4b15      	ldr	r3, [pc, #84]	; (704 <_Z12Tx_interruptv+0x7c>)
     6ae:	fb81 2303 	smull	r2, r3, r1, r3
     6b2:	440b      	add	r3, r1
     6b4:	11da      	asrs	r2, r3, #7
     6b6:	17cb      	asrs	r3, r1, #31
     6b8:	1ad2      	subs	r2, r2, r3
     6ba:	4613      	mov	r3, r2
     6bc:	021b      	lsls	r3, r3, #8
     6be:	1a9b      	subs	r3, r3, r2
     6c0:	1aca      	subs	r2, r1, r3
     6c2:	4b0d      	ldr	r3, [pc, #52]	; (6f8 <_Z12Tx_interruptv+0x70>)
     6c4:	601a      	str	r2, [r3, #0]
     6c6:	480e      	ldr	r0, [pc, #56]	; (700 <_Z12Tx_interruptv+0x78>)
     6c8:	f003 fa12 	bl	3af0 <_ZN4mbed6Serial9writeableEv>
     6cc:	4603      	mov	r3, r0
     6ce:	2b00      	cmp	r3, #0
     6d0:	d007      	beq.n	6e2 <_Z12Tx_interruptv+0x5a>
     6d2:	4b0d      	ldr	r3, [pc, #52]	; (708 <_Z12Tx_interruptv+0x80>)
     6d4:	681a      	ldr	r2, [r3, #0]
     6d6:	4b08      	ldr	r3, [pc, #32]	; (6f8 <_Z12Tx_interruptv+0x70>)
     6d8:	681b      	ldr	r3, [r3, #0]
     6da:	429a      	cmp	r2, r3
     6dc:	d001      	beq.n	6e2 <_Z12Tx_interruptv+0x5a>
     6de:	2301      	movs	r3, #1
     6e0:	e000      	b.n	6e4 <_Z12Tx_interruptv+0x5c>
     6e2:	2300      	movs	r3, #0
     6e4:	2b00      	cmp	r3, #0
     6e6:	d1d6      	bne.n	696 <_Z12Tx_interruptv+0xe>
     6e8:	4802      	ldr	r0, [pc, #8]	; (6f4 <_Z12Tx_interruptv+0x6c>)
     6ea:	2100      	movs	r1, #0
     6ec:	f7ff fd80 	bl	1f0 <_ZN4mbed10DigitalOutaSEi>
     6f0:	bf00      	nop
     6f2:	bd80      	pop	{r7, pc}
     6f4:	100002d4 	.word	0x100002d4
     6f8:	100004f0 	.word	0x100004f0
     6fc:	100002ec 	.word	0x100002ec
     700:	1000022c 	.word	0x1000022c
     704:	80808081 	.word	0x80808081
     708:	100004ec 	.word	0x100004ec

0000070c <_Z21init_serial_interruptv>:
     70c:	b580      	push	{r7, lr}
     70e:	af00      	add	r7, sp, #0
     710:	4807      	ldr	r0, [pc, #28]	; (730 <_Z21init_serial_interruptv+0x24>)
     712:	f44f 5116 	mov.w	r1, #9600	; 0x2580
     716:	f003 f9e3 	bl	3ae0 <_ZN4mbed6Serial4baudEi>
     71a:	4805      	ldr	r0, [pc, #20]	; (730 <_Z21init_serial_interruptv+0x24>)
     71c:	4905      	ldr	r1, [pc, #20]	; (734 <_Z21init_serial_interruptv+0x28>)
     71e:	2200      	movs	r2, #0
     720:	f003 f9ea 	bl	3af8 <_ZN4mbed6Serial6attachEPFvvENS0_7IrqTypeE>
     724:	4802      	ldr	r0, [pc, #8]	; (730 <_Z21init_serial_interruptv+0x24>)
     726:	4904      	ldr	r1, [pc, #16]	; (738 <_Z21init_serial_interruptv+0x2c>)
     728:	2201      	movs	r2, #1
     72a:	f003 f9e5 	bl	3af8 <_ZN4mbed6Serial6attachEPFvvENS0_7IrqTypeE>
     72e:	bd80      	pop	{r7, pc}
     730:	1000022c 	.word	0x1000022c
     734:	000005e9 	.word	0x000005e9
     738:	00000689 	.word	0x00000689

0000073c <_Z13parse_commandPc>:
     73c:	b480      	push	{r7}
     73e:	b083      	sub	sp, #12
     740:	af00      	add	r7, sp, #0
     742:	6078      	str	r0, [r7, #4]
     744:	687b      	ldr	r3, [r7, #4]
     746:	781b      	ldrb	r3, [r3, #0]
     748:	2b77      	cmp	r3, #119	; 0x77
     74a:	d101      	bne.n	750 <_Z13parse_commandPc+0x14>
     74c:	2300      	movs	r3, #0
     74e:	e01d      	b.n	78c <_Z13parse_commandPc+0x50>
     750:	687b      	ldr	r3, [r7, #4]
     752:	781b      	ldrb	r3, [r3, #0]
     754:	2b78      	cmp	r3, #120	; 0x78
     756:	d101      	bne.n	75c <_Z13parse_commandPc+0x20>
     758:	2301      	movs	r3, #1
     75a:	e017      	b.n	78c <_Z13parse_commandPc+0x50>
     75c:	687b      	ldr	r3, [r7, #4]
     75e:	781b      	ldrb	r3, [r3, #0]
     760:	2b64      	cmp	r3, #100	; 0x64
     762:	d101      	bne.n	768 <_Z13parse_commandPc+0x2c>
     764:	2302      	movs	r3, #2
     766:	e011      	b.n	78c <_Z13parse_commandPc+0x50>
     768:	687b      	ldr	r3, [r7, #4]
     76a:	781b      	ldrb	r3, [r3, #0]
     76c:	2b61      	cmp	r3, #97	; 0x61
     76e:	d101      	bne.n	774 <_Z13parse_commandPc+0x38>
     770:	2303      	movs	r3, #3
     772:	e00b      	b.n	78c <_Z13parse_commandPc+0x50>
     774:	687b      	ldr	r3, [r7, #4]
     776:	781b      	ldrb	r3, [r3, #0]
     778:	2b73      	cmp	r3, #115	; 0x73
     77a:	d101      	bne.n	780 <_Z13parse_commandPc+0x44>
     77c:	2304      	movs	r3, #4
     77e:	e005      	b.n	78c <_Z13parse_commandPc+0x50>
     780:	687b      	ldr	r3, [r7, #4]
     782:	781b      	ldrb	r3, [r3, #0]
     784:	2b62      	cmp	r3, #98	; 0x62
     786:	d101      	bne.n	78c <_Z13parse_commandPc+0x50>
     788:	2305      	movs	r3, #5
     78a:	e7ff      	b.n	78c <_Z13parse_commandPc+0x50>
     78c:	4618      	mov	r0, r3
     78e:	370c      	adds	r7, #12
     790:	46bd      	mov	sp, r7
     792:	f85d 7b04 	ldr.w	r7, [sp], #4
     796:	4770      	bx	lr

00000798 <_Z10parse_argsPc>:
     798:	b480      	push	{r7}
     79a:	b087      	sub	sp, #28
     79c:	af00      	add	r7, sp, #0
     79e:	6078      	str	r0, [r7, #4]
     7a0:	687b      	ldr	r3, [r7, #4]
     7a2:	3302      	adds	r3, #2
     7a4:	617b      	str	r3, [r7, #20]
     7a6:	2300      	movs	r3, #0
     7a8:	613b      	str	r3, [r7, #16]
     7aa:	697b      	ldr	r3, [r7, #20]
     7ac:	781b      	ldrb	r3, [r3, #0]
     7ae:	73fb      	strb	r3, [r7, #15]
     7b0:	7bfb      	ldrb	r3, [r7, #15]
     7b2:	2b39      	cmp	r3, #57	; 0x39
     7b4:	d802      	bhi.n	7bc <_Z10parse_argsPc+0x24>
     7b6:	7bfb      	ldrb	r3, [r7, #15]
     7b8:	3b30      	subs	r3, #48	; 0x30
     7ba:	613b      	str	r3, [r7, #16]
     7bc:	697b      	ldr	r3, [r7, #20]
     7be:	3301      	adds	r3, #1
     7c0:	617b      	str	r3, [r7, #20]
     7c2:	e00c      	b.n	7de <_Z10parse_argsPc+0x46>
     7c4:	693a      	ldr	r2, [r7, #16]
     7c6:	4613      	mov	r3, r2
     7c8:	009b      	lsls	r3, r3, #2
     7ca:	4413      	add	r3, r2
     7cc:	005b      	lsls	r3, r3, #1
     7ce:	461a      	mov	r2, r3
     7d0:	697b      	ldr	r3, [r7, #20]
     7d2:	1c59      	adds	r1, r3, #1
     7d4:	6179      	str	r1, [r7, #20]
     7d6:	781b      	ldrb	r3, [r3, #0]
     7d8:	3b30      	subs	r3, #48	; 0x30
     7da:	4413      	add	r3, r2
     7dc:	613b      	str	r3, [r7, #16]
     7de:	697b      	ldr	r3, [r7, #20]
     7e0:	781b      	ldrb	r3, [r3, #0]
     7e2:	2b2f      	cmp	r3, #47	; 0x2f
     7e4:	d903      	bls.n	7ee <_Z10parse_argsPc+0x56>
     7e6:	697b      	ldr	r3, [r7, #20]
     7e8:	781b      	ldrb	r3, [r3, #0]
     7ea:	2b39      	cmp	r3, #57	; 0x39
     7ec:	d9ea      	bls.n	7c4 <_Z10parse_argsPc+0x2c>
     7ee:	693b      	ldr	r3, [r7, #16]
     7f0:	4618      	mov	r0, r3
     7f2:	371c      	adds	r7, #28
     7f4:	46bd      	mov	sp, r7
     7f6:	f85d 7b04 	ldr.w	r7, [sp], #4
     7fa:	4770      	bx	lr
     7fc:	0000      	movs	r0, r0
	...

00000800 <_Z7execute9COMMAND_ti>:
     800:	b580      	push	{r7, lr}
     802:	b084      	sub	sp, #16
     804:	af00      	add	r7, sp, #0
     806:	4603      	mov	r3, r0
     808:	6039      	str	r1, [r7, #0]
     80a:	71fb      	strb	r3, [r7, #7]
     80c:	6838      	ldr	r0, [r7, #0]
     80e:	f005 f9f9 	bl	5c04 <__aeabi_i2f>
     812:	4603      	mov	r3, r0
     814:	4618      	mov	r0, r3
     816:	f004 fdd5 	bl	53c4 <__aeabi_f2d>
     81a:	4602      	mov	r2, r0
     81c:	460b      	mov	r3, r1
     81e:	4610      	mov	r0, r2
     820:	4619      	mov	r1, r3
     822:	a317      	add	r3, pc, #92	; (adr r3, 880 <Heap_Size+0x80>)
     824:	e9d3 2300 	ldrd	r2, r3, [r3]
     828:	f004 fe20 	bl	546c <__aeabi_dmul>
     82c:	4602      	mov	r2, r0
     82e:	460b      	mov	r3, r1
     830:	4610      	mov	r0, r2
     832:	4619      	mov	r1, r3
     834:	f005 f8dc 	bl	59f0 <__aeabi_d2f>
     838:	4603      	mov	r3, r0
     83a:	60fb      	str	r3, [r7, #12]
     83c:	79fb      	ldrb	r3, [r7, #7]
     83e:	2b04      	cmp	r3, #4
     840:	d101      	bne.n	846 <_Z7execute9COMMAND_ti+0x46>
     842:	f7ff fd75 	bl	330 <_Z5_stopv>
     846:	79fb      	ldrb	r3, [r7, #7]
     848:	2b00      	cmp	r3, #0
     84a:	d102      	bne.n	852 <_Z7execute9COMMAND_ti+0x52>
     84c:	68f8      	ldr	r0, [r7, #12]
     84e:	f7ff fd33 	bl	2b8 <_Z4pushf>
     852:	79fb      	ldrb	r3, [r7, #7]
     854:	2b01      	cmp	r3, #1
     856:	d102      	bne.n	85e <_Z7execute9COMMAND_ti+0x5e>
     858:	68f8      	ldr	r0, [r7, #12]
     85a:	f7ff fda1 	bl	3a0 <_Z4pullf>
     85e:	79fb      	ldrb	r3, [r7, #7]
     860:	2b02      	cmp	r3, #2
     862:	d002      	beq.n	86a <Heap_Size+0x6a>
     864:	79fb      	ldrb	r3, [r7, #7]
     866:	2b03      	cmp	r3, #3
     868:	d102      	bne.n	870 <Heap_Size+0x70>
     86a:	68f8      	ldr	r0, [r7, #12]
     86c:	f7ff fd42 	bl	2f4 <_Z4turnf>
     870:	79fb      	ldrb	r3, [r7, #7]
     872:	2b05      	cmp	r3, #5
     874:	d101      	bne.n	87a <Heap_Size+0x7a>
     876:	f7ff fd77 	bl	368 <_Z6_breakv>
     87a:	3710      	adds	r7, #16
     87c:	46bd      	mov	sp, r7
     87e:	bd80      	pop	{r7, pc}
     880:	47ae147b 	.word	0x47ae147b
     884:	3f847ae1 	.word	0x3f847ae1

00000888 <_Z14read_voltage24v>:
     888:	b580      	push	{r7, lr}
     88a:	b082      	sub	sp, #8
     88c:	af00      	add	r7, sp, #0
     88e:	f04f 507c 	mov.w	r0, #1056964608	; 0x3f000000
     892:	f003 f8d1 	bl	3a38 <wait>
     896:	481a      	ldr	r0, [pc, #104]	; (900 <_Z14read_voltage24v+0x78>)
     898:	f7ff fcd6 	bl	248 <_ZN4mbed8AnalogIncvfEv>
     89c:	6078      	str	r0, [r7, #4]
     89e:	f04f 507c 	mov.w	r0, #1056964608	; 0x3f000000
     8a2:	f003 f8c9 	bl	3a38 <wait>
     8a6:	4816      	ldr	r0, [pc, #88]	; (900 <_Z14read_voltage24v+0x78>)
     8a8:	f7ff fcce 	bl	248 <_ZN4mbed8AnalogIncvfEv>
     8ac:	6078      	str	r0, [r7, #4]
     8ae:	f04f 507c 	mov.w	r0, #1056964608	; 0x3f000000
     8b2:	f003 f8c1 	bl	3a38 <wait>
     8b6:	4812      	ldr	r0, [pc, #72]	; (900 <_Z14read_voltage24v+0x78>)
     8b8:	f7ff fcc6 	bl	248 <_ZN4mbed8AnalogIncvfEv>
     8bc:	6078      	str	r0, [r7, #4]
     8be:	4810      	ldr	r0, [pc, #64]	; (900 <_Z14read_voltage24v+0x78>)
     8c0:	f7ff fcc2 	bl	248 <_ZN4mbed8AnalogIncvfEv>
     8c4:	4603      	mov	r3, r0
     8c6:	4618      	mov	r0, r3
     8c8:	f004 fd7c 	bl	53c4 <__aeabi_f2d>
     8cc:	4602      	mov	r2, r0
     8ce:	460b      	mov	r3, r1
     8d0:	4610      	mov	r0, r2
     8d2:	4619      	mov	r1, r3
     8d4:	a308      	add	r3, pc, #32	; (adr r3, 8f8 <_Z14read_voltage24v+0x70>)
     8d6:	e9d3 2300 	ldrd	r2, r3, [r3]
     8da:	f004 fdc7 	bl	546c <__aeabi_dmul>
     8de:	4602      	mov	r2, r0
     8e0:	460b      	mov	r3, r1
     8e2:	4610      	mov	r0, r2
     8e4:	4619      	mov	r1, r3
     8e6:	f005 f85b 	bl	59a0 <__aeabi_d2iz>
     8ea:	4603      	mov	r3, r0
     8ec:	4618      	mov	r0, r3
     8ee:	3708      	adds	r7, #8
     8f0:	46bd      	mov	sp, r7
     8f2:	bd80      	pop	{r7, pc}
     8f4:	f3af 8000 	nop.w
     8f8:	00000000 	.word	0x00000000
     8fc:	4074a000 	.word	0x4074a000
     900:	100005a0 	.word	0x100005a0
     904:	f3af 8000 	nop.w

00000908 <_Z14read_voltage48v>:
     908:	b580      	push	{r7, lr}
     90a:	b082      	sub	sp, #8
     90c:	af00      	add	r7, sp, #0
     90e:	f04f 507c 	mov.w	r0, #1056964608	; 0x3f000000
     912:	f003 f891 	bl	3a38 <wait>
     916:	4817      	ldr	r0, [pc, #92]	; (974 <_Z14read_voltage48v+0x6c>)
     918:	f7ff fc96 	bl	248 <_ZN4mbed8AnalogIncvfEv>
     91c:	6078      	str	r0, [r7, #4]
     91e:	f04f 507c 	mov.w	r0, #1056964608	; 0x3f000000
     922:	f003 f889 	bl	3a38 <wait>
     926:	4813      	ldr	r0, [pc, #76]	; (974 <_Z14read_voltage48v+0x6c>)
     928:	f7ff fc8e 	bl	248 <_ZN4mbed8AnalogIncvfEv>
     92c:	6078      	str	r0, [r7, #4]
     92e:	f04f 507c 	mov.w	r0, #1056964608	; 0x3f000000
     932:	f003 f881 	bl	3a38 <wait>
     936:	480f      	ldr	r0, [pc, #60]	; (974 <_Z14read_voltage48v+0x6c>)
     938:	f7ff fc86 	bl	248 <_ZN4mbed8AnalogIncvfEv>
     93c:	6078      	str	r0, [r7, #4]
     93e:	480d      	ldr	r0, [pc, #52]	; (974 <_Z14read_voltage48v+0x6c>)
     940:	f7ff fc82 	bl	248 <_ZN4mbed8AnalogIncvfEv>
     944:	4603      	mov	r3, r0
     946:	4618      	mov	r0, r3
     948:	f004 fd3c 	bl	53c4 <__aeabi_f2d>
     94c:	4602      	mov	r2, r0
     94e:	460b      	mov	r3, r1
     950:	4610      	mov	r0, r2
     952:	4619      	mov	r1, r3
     954:	f04f 0200 	mov.w	r2, #0
     958:	4b07      	ldr	r3, [pc, #28]	; (978 <_Z14read_voltage48v+0x70>)
     95a:	f004 fd87 	bl	546c <__aeabi_dmul>
     95e:	4602      	mov	r2, r0
     960:	460b      	mov	r3, r1
     962:	4610      	mov	r0, r2
     964:	4619      	mov	r1, r3
     966:	f005 f81b 	bl	59a0 <__aeabi_d2iz>
     96a:	4603      	mov	r3, r0
     96c:	4618      	mov	r0, r3
     96e:	3708      	adds	r7, #8
     970:	46bd      	mov	sp, r7
     972:	bd80      	pop	{r7, pc}
     974:	100005a4 	.word	0x100005a4
     978:	40829000 	.word	0x40829000
     97c:	00000000 	.word	0x00000000

00000980 <_Z8read_potv>:
     980:	b580      	push	{r7, lr}
     982:	b082      	sub	sp, #8
     984:	af00      	add	r7, sp, #0
     986:	f04f 507c 	mov.w	r0, #1056964608	; 0x3f000000
     98a:	f003 f855 	bl	3a38 <wait>
     98e:	481a      	ldr	r0, [pc, #104]	; (9f8 <_Z8read_potv+0x78>)
     990:	f7ff fc5a 	bl	248 <_ZN4mbed8AnalogIncvfEv>
     994:	6078      	str	r0, [r7, #4]
     996:	f04f 507c 	mov.w	r0, #1056964608	; 0x3f000000
     99a:	f003 f84d 	bl	3a38 <wait>
     99e:	4816      	ldr	r0, [pc, #88]	; (9f8 <_Z8read_potv+0x78>)
     9a0:	f7ff fc52 	bl	248 <_ZN4mbed8AnalogIncvfEv>
     9a4:	6078      	str	r0, [r7, #4]
     9a6:	f04f 507c 	mov.w	r0, #1056964608	; 0x3f000000
     9aa:	f003 f845 	bl	3a38 <wait>
     9ae:	4812      	ldr	r0, [pc, #72]	; (9f8 <_Z8read_potv+0x78>)
     9b0:	f7ff fc4a 	bl	248 <_ZN4mbed8AnalogIncvfEv>
     9b4:	6078      	str	r0, [r7, #4]
     9b6:	4810      	ldr	r0, [pc, #64]	; (9f8 <_Z8read_potv+0x78>)
     9b8:	f7ff fc46 	bl	248 <_ZN4mbed8AnalogIncvfEv>
     9bc:	4603      	mov	r3, r0
     9be:	4618      	mov	r0, r3
     9c0:	f004 fd00 	bl	53c4 <__aeabi_f2d>
     9c4:	4602      	mov	r2, r0
     9c6:	460b      	mov	r3, r1
     9c8:	4610      	mov	r0, r2
     9ca:	4619      	mov	r1, r3
     9cc:	a308      	add	r3, pc, #32	; (adr r3, 9f0 <_Z8read_potv+0x70>)
     9ce:	e9d3 2300 	ldrd	r2, r3, [r3]
     9d2:	f004 fd4b 	bl	546c <__aeabi_dmul>
     9d6:	4602      	mov	r2, r0
     9d8:	460b      	mov	r3, r1
     9da:	4610      	mov	r0, r2
     9dc:	4619      	mov	r1, r3
     9de:	f004 ffdf 	bl	59a0 <__aeabi_d2iz>
     9e2:	4603      	mov	r3, r0
     9e4:	4618      	mov	r0, r3
     9e6:	3708      	adds	r7, #8
     9e8:	46bd      	mov	sp, r7
     9ea:	bd80      	pop	{r7, pc}
     9ec:	f3af 8000 	nop.w
     9f0:	00000000 	.word	0x00000000
     9f4:	4074a000 	.word	0x4074a000
     9f8:	1000059c 	.word	0x1000059c
     9fc:	f3af 8000 	nop.w

00000a00 <main>:
     a00:	b5b0      	push	{r4, r5, r7, lr}
     a02:	b086      	sub	sp, #24
     a04:	af02      	add	r7, sp, #8
     a06:	2300      	movs	r3, #0
     a08:	60fb      	str	r3, [r7, #12]
     a0a:	2300      	movs	r3, #0
     a0c:	60bb      	str	r3, [r7, #8]
     a0e:	f7ff fe7d 	bl	70c <_Z21init_serial_interruptv>
     a12:	f7ff fd89 	bl	528 <_Z9read_linev>
     a16:	4810      	ldr	r0, [pc, #64]	; (a58 <main+0x58>)
     a18:	f7ff fe90 	bl	73c <_Z13parse_commandPc>
     a1c:	4603      	mov	r3, r0
     a1e:	71fb      	strb	r3, [r7, #7]
     a20:	480d      	ldr	r0, [pc, #52]	; (a58 <main+0x58>)
     a22:	f7ff feb9 	bl	798 <_Z10parse_argsPc>
     a26:	6038      	str	r0, [r7, #0]
     a28:	79fb      	ldrb	r3, [r7, #7]
     a2a:	4618      	mov	r0, r3
     a2c:	6839      	ldr	r1, [r7, #0]
     a2e:	f7ff fee7 	bl	800 <_Z7execute9COMMAND_ti>
     a32:	f7ff ffa5 	bl	980 <_Z8read_potv>
     a36:	4605      	mov	r5, r0
     a38:	f7ff ff26 	bl	888 <_Z14read_voltage24v>
     a3c:	4604      	mov	r4, r0
     a3e:	f7ff ff63 	bl	908 <_Z14read_voltage48v>
     a42:	4603      	mov	r3, r0
     a44:	9300      	str	r3, [sp, #0]
     a46:	4805      	ldr	r0, [pc, #20]	; (a5c <main+0x5c>)
     a48:	4905      	ldr	r1, [pc, #20]	; (a60 <main+0x60>)
     a4a:	462a      	mov	r2, r5
     a4c:	4623      	mov	r3, r4
     a4e:	f006 f975 	bl	6d3c <siprintf>
     a52:	f7ff fcc3 	bl	3dc <_Z9send_linev>
     a56:	e7dc      	b.n	a12 <main+0x12>
     a58:	1000054c 	.word	0x1000054c
     a5c:	100004fc 	.word	0x100004fc
     a60:	0000b4a4 	.word	0x0000b4a4

00000a64 <_ZN4mbed6SerialD1Ev>:
     a64:	b580      	push	{r7, lr}
     a66:	b082      	sub	sp, #8
     a68:	af00      	add	r7, sp, #0
     a6a:	6078      	str	r0, [r7, #4]
     a6c:	687b      	ldr	r3, [r7, #4]
     a6e:	4a0a      	ldr	r2, [pc, #40]	; (a98 <_ZN4mbed6SerialD1Ev+0x34>)
     a70:	601a      	str	r2, [r3, #0]
     a72:	687b      	ldr	r3, [r7, #4]
     a74:	4a09      	ldr	r2, [pc, #36]	; (a9c <_ZN4mbed6SerialD1Ev+0x38>)
     a76:	605a      	str	r2, [r3, #4]
     a78:	687b      	ldr	r3, [r7, #4]
     a7a:	4618      	mov	r0, r3
     a7c:	f003 fa68 	bl	3f50 <_ZN4mbed6StreamD1Ev>
     a80:	2300      	movs	r3, #0
     a82:	2b00      	cmp	r3, #0
     a84:	d002      	beq.n	a8c <_ZN4mbed6SerialD1Ev+0x28>
     a86:	6878      	ldr	r0, [r7, #4]
     a88:	f004 f855 	bl	4b36 <_ZdlPv>
     a8c:	687b      	ldr	r3, [r7, #4]
     a8e:	4618      	mov	r0, r3
     a90:	3708      	adds	r7, #8
     a92:	46bd      	mov	sp, r7
     a94:	bd80      	pop	{r7, pc}
     a96:	bf00      	nop
     a98:	0000c290 	.word	0x0000c290
     a9c:	0000c2c4 	.word	0x0000c2c4

00000aa0 <_ZThn4_N4mbed6SerialD1Ev>:
     aa0:	f1a0 0004 	sub.w	r0, r0, #4
     aa4:	f7ff bfde 	b.w	a64 <_ZN4mbed6SerialD1Ev>

00000aa8 <_ZN4mbed6SerialD0Ev>:
     aa8:	b580      	push	{r7, lr}
     aaa:	b082      	sub	sp, #8
     aac:	af00      	add	r7, sp, #0
     aae:	6078      	str	r0, [r7, #4]
     ab0:	6878      	ldr	r0, [r7, #4]
     ab2:	f7ff ffd7 	bl	a64 <_ZN4mbed6SerialD1Ev>
     ab6:	6878      	ldr	r0, [r7, #4]
     ab8:	f004 f83d 	bl	4b36 <_ZdlPv>
     abc:	687b      	ldr	r3, [r7, #4]
     abe:	4618      	mov	r0, r3
     ac0:	3708      	adds	r7, #8
     ac2:	46bd      	mov	sp, r7
     ac4:	bd80      	pop	{r7, pc}
     ac6:	bf00      	nop

00000ac8 <_ZThn4_N4mbed6SerialD0Ev>:
     ac8:	f1a0 0004 	sub.w	r0, r0, #4
     acc:	e7ec      	b.n	aa8 <_ZN4mbed6SerialD0Ev>
     ace:	bf00      	nop

00000ad0 <_Z41__static_initialization_and_destruction_0ii>:
     ad0:	b580      	push	{r7, lr}
     ad2:	b082      	sub	sp, #8
     ad4:	af00      	add	r7, sp, #0
     ad6:	6078      	str	r0, [r7, #4]
     ad8:	6039      	str	r1, [r7, #0]
     ada:	687b      	ldr	r3, [r7, #4]
     adc:	2b01      	cmp	r3, #1
     ade:	d133      	bne.n	b48 <_Z41__static_initialization_and_destruction_0ii+0x78>
     ae0:	683a      	ldr	r2, [r7, #0]
     ae2:	f64f 73ff 	movw	r3, #65535	; 0xffff
     ae6:	429a      	cmp	r2, r3
     ae8:	d12e      	bne.n	b48 <_Z41__static_initialization_and_destruction_0ii+0x78>
     aea:	4819      	ldr	r0, [pc, #100]	; (b50 <_Z41__static_initialization_and_destruction_0ii+0x80>)
     aec:	4919      	ldr	r1, [pc, #100]	; (b54 <_Z41__static_initialization_and_destruction_0ii+0x84>)
     aee:	4a1a      	ldr	r2, [pc, #104]	; (b58 <_Z41__static_initialization_and_destruction_0ii+0x88>)
     af0:	2300      	movs	r3, #0
     af2:	f002 ffc9 	bl	3a88 <_ZN4mbed6SerialC1E7PinNameS1_PKc>
     af6:	4816      	ldr	r0, [pc, #88]	; (b50 <_Z41__static_initialization_and_destruction_0ii+0x80>)
     af8:	4918      	ldr	r1, [pc, #96]	; (b5c <_Z41__static_initialization_and_destruction_0ii+0x8c>)
     afa:	4a19      	ldr	r2, [pc, #100]	; (b60 <_Z41__static_initialization_and_destruction_0ii+0x90>)
     afc:	f003 ffa6 	bl	4a4c <__aeabi_atexit>
     b00:	4818      	ldr	r0, [pc, #96]	; (b64 <_Z41__static_initialization_and_destruction_0ii+0x94>)
     b02:	4919      	ldr	r1, [pc, #100]	; (b68 <_Z41__static_initialization_and_destruction_0ii+0x98>)
     b04:	f7ff fbac 	bl	260 <_ZN4mbed9AnalogOutC1E7PinName>
     b08:	4818      	ldr	r0, [pc, #96]	; (b6c <_Z41__static_initialization_and_destruction_0ii+0x9c>)
     b0a:	4919      	ldr	r1, [pc, #100]	; (b70 <_Z41__static_initialization_and_destruction_0ii+0xa0>)
     b0c:	f7ff fb7e 	bl	20c <_ZN4mbed8AnalogInC1E7PinName>
     b10:	4818      	ldr	r0, [pc, #96]	; (b74 <_Z41__static_initialization_and_destruction_0ii+0xa4>)
     b12:	4919      	ldr	r1, [pc, #100]	; (b78 <_Z41__static_initialization_and_destruction_0ii+0xa8>)
     b14:	f7ff fb4e 	bl	1b4 <_ZN4mbed10DigitalOutC1E7PinName>
     b18:	4818      	ldr	r0, [pc, #96]	; (b7c <_Z41__static_initialization_and_destruction_0ii+0xac>)
     b1a:	4919      	ldr	r1, [pc, #100]	; (b80 <_Z41__static_initialization_and_destruction_0ii+0xb0>)
     b1c:	f7ff fb4a 	bl	1b4 <_ZN4mbed10DigitalOutC1E7PinName>
     b20:	4818      	ldr	r0, [pc, #96]	; (b84 <_Z41__static_initialization_and_destruction_0ii+0xb4>)
     b22:	4919      	ldr	r1, [pc, #100]	; (b88 <_Z41__static_initialization_and_destruction_0ii+0xb8>)
     b24:	f7ff fb46 	bl	1b4 <_ZN4mbed10DigitalOutC1E7PinName>
     b28:	4818      	ldr	r0, [pc, #96]	; (b8c <_Z41__static_initialization_and_destruction_0ii+0xbc>)
     b2a:	4919      	ldr	r1, [pc, #100]	; (b90 <_Z41__static_initialization_and_destruction_0ii+0xc0>)
     b2c:	f7ff fb42 	bl	1b4 <_ZN4mbed10DigitalOutC1E7PinName>
     b30:	4818      	ldr	r0, [pc, #96]	; (b94 <_Z41__static_initialization_and_destruction_0ii+0xc4>)
     b32:	4919      	ldr	r1, [pc, #100]	; (b98 <_Z41__static_initialization_and_destruction_0ii+0xc8>)
     b34:	f7ff fb6a 	bl	20c <_ZN4mbed8AnalogInC1E7PinName>
     b38:	4818      	ldr	r0, [pc, #96]	; (b9c <_Z41__static_initialization_and_destruction_0ii+0xcc>)
     b3a:	4919      	ldr	r1, [pc, #100]	; (ba0 <_Z41__static_initialization_and_destruction_0ii+0xd0>)
     b3c:	f7ff fb66 	bl	20c <_ZN4mbed8AnalogInC1E7PinName>
     b40:	4818      	ldr	r0, [pc, #96]	; (ba4 <_Z41__static_initialization_and_destruction_0ii+0xd4>)
     b42:	4919      	ldr	r1, [pc, #100]	; (ba8 <_Z41__static_initialization_and_destruction_0ii+0xd8>)
     b44:	f7ff fb62 	bl	20c <_ZN4mbed8AnalogInC1E7PinName>
     b48:	3708      	adds	r7, #8
     b4a:	46bd      	mov	sp, r7
     b4c:	bd80      	pop	{r7, pc}
     b4e:	bf00      	nop
     b50:	1000022c 	.word	0x1000022c
     b54:	2009c002 	.word	0x2009c002
     b58:	2009c003 	.word	0x2009c003
     b5c:	00000a65 	.word	0x00000a65
     b60:	100000c8 	.word	0x100000c8
     b64:	10000284 	.word	0x10000284
     b68:	2009c01a 	.word	0x2009c01a
     b6c:	10000288 	.word	0x10000288
     b70:	2009c03e 	.word	0x2009c03e
     b74:	1000028c 	.word	0x1000028c
     b78:	2009c012 	.word	0x2009c012
     b7c:	100002a4 	.word	0x100002a4
     b80:	2009c00f 	.word	0x2009c00f
     b84:	100002bc 	.word	0x100002bc
     b88:	2009c032 	.word	0x2009c032
     b8c:	100002d4 	.word	0x100002d4
     b90:	2009c034 	.word	0x2009c034
     b94:	1000059c 	.word	0x1000059c
     b98:	2009c017 	.word	0x2009c017
     b9c:	100005a0 	.word	0x100005a0
     ba0:	2009c018 	.word	0x2009c018
     ba4:	100005a4 	.word	0x100005a4
     ba8:	2009c019 	.word	0x2009c019

00000bac <_GLOBAL__sub_I_pc>:
     bac:	b580      	push	{r7, lr}
     bae:	af00      	add	r7, sp, #0
     bb0:	2001      	movs	r0, #1
     bb2:	f64f 71ff 	movw	r1, #65535	; 0xffff
     bb6:	f7ff ff8b 	bl	ad0 <_Z41__static_initialization_and_destruction_0ii>
     bba:	bd80      	pop	{r7, pc}

00000bbc <_start>:
     bbc:	b580      	push	{r7, lr}
     bbe:	b082      	sub	sp, #8
     bc0:	af00      	add	r7, sp, #0
     bc2:	4a0c      	ldr	r2, [pc, #48]	; (bf4 <_start+0x38>)
     bc4:	4b0c      	ldr	r3, [pc, #48]	; (bf8 <_start+0x3c>)
     bc6:	1ad3      	subs	r3, r2, r3
     bc8:	607b      	str	r3, [r7, #4]
     bca:	687b      	ldr	r3, [r7, #4]
     bcc:	480a      	ldr	r0, [pc, #40]	; (bf8 <_start+0x3c>)
     bce:	2100      	movs	r1, #0
     bd0:	461a      	mov	r2, r3
     bd2:	f005 fe68 	bl	68a6 <memset>
     bd6:	4809      	ldr	r0, [pc, #36]	; (bfc <_start+0x40>)
     bd8:	f000 f86c 	bl	cb4 <__mriInit>
     bdc:	be00      	bkpt	0x0000
     bde:	f3af 8000 	nop.w
     be2:	f005 fdc7 	bl	6774 <__libc_init_array>
     be6:	f7ff ff0b 	bl	a00 <main>
     bea:	6038      	str	r0, [r7, #0]
     bec:	6838      	ldr	r0, [r7, #0]
     bee:	f002 fe97 	bl	3920 <exit>
     bf2:	bf00      	nop
     bf4:	10000a3c 	.word	0x10000a3c
     bf8:	10000210 	.word	0x10000210
     bfc:	0000b4b0 	.word	0x0000b4b0

00000c00 <__wrap__read>:
     c00:	b580      	push	{r7, lr}
     c02:	b084      	sub	sp, #16
     c04:	af00      	add	r7, sp, #0
     c06:	60f8      	str	r0, [r7, #12]
     c08:	60b9      	str	r1, [r7, #8]
     c0a:	607a      	str	r2, [r7, #4]
     c0c:	68fb      	ldr	r3, [r7, #12]
     c0e:	2b02      	cmp	r3, #2
     c10:	dc06      	bgt.n	c20 <Stack_Size+0x20>
     c12:	68f8      	ldr	r0, [r7, #12]
     c14:	68b9      	ldr	r1, [r7, #8]
     c16:	687a      	ldr	r2, [r7, #4]
     c18:	f001 fc96 	bl	2548 <__mriNewlib_SemihostRead>
     c1c:	4603      	mov	r3, r0
     c1e:	e005      	b.n	c2c <Stack_Size+0x2c>
     c20:	68f8      	ldr	r0, [r7, #12]
     c22:	68b9      	ldr	r1, [r7, #8]
     c24:	687a      	ldr	r2, [r7, #4]
     c26:	f003 f8cd 	bl	3dc4 <_read>
     c2a:	4603      	mov	r3, r0
     c2c:	4618      	mov	r0, r3
     c2e:	3710      	adds	r7, #16
     c30:	46bd      	mov	sp, r7
     c32:	bd80      	pop	{r7, pc}

00000c34 <__wrap__write>:
     c34:	b580      	push	{r7, lr}
     c36:	b084      	sub	sp, #16
     c38:	af00      	add	r7, sp, #0
     c3a:	60f8      	str	r0, [r7, #12]
     c3c:	60b9      	str	r1, [r7, #8]
     c3e:	607a      	str	r2, [r7, #4]
     c40:	68fb      	ldr	r3, [r7, #12]
     c42:	2b02      	cmp	r3, #2
     c44:	dc06      	bgt.n	c54 <__wrap__write+0x20>
     c46:	68f8      	ldr	r0, [r7, #12]
     c48:	68b9      	ldr	r1, [r7, #8]
     c4a:	687a      	ldr	r2, [r7, #4]
     c4c:	f001 fc7a 	bl	2544 <__mriNewlib_SemihostWrite>
     c50:	4603      	mov	r3, r0
     c52:	e005      	b.n	c60 <__wrap__write+0x2c>
     c54:	68f8      	ldr	r0, [r7, #12]
     c56:	68b9      	ldr	r1, [r7, #8]
     c58:	687a      	ldr	r2, [r7, #4]
     c5a:	f003 f86d 	bl	3d38 <_write>
     c5e:	4603      	mov	r3, r0
     c60:	4618      	mov	r0, r3
     c62:	3710      	adds	r7, #16
     c64:	46bd      	mov	sp, r7
     c66:	bd80      	pop	{r7, pc}

00000c68 <__wrap__isatty>:
     c68:	b580      	push	{r7, lr}
     c6a:	b082      	sub	sp, #8
     c6c:	af00      	add	r7, sp, #0
     c6e:	6078      	str	r0, [r7, #4]
     c70:	687b      	ldr	r3, [r7, #4]
     c72:	2b02      	cmp	r3, #2
     c74:	dc01      	bgt.n	c7a <__wrap__isatty+0x12>
     c76:	2301      	movs	r3, #1
     c78:	e003      	b.n	c82 <__wrap__isatty+0x1a>
     c7a:	6878      	ldr	r0, [r7, #4]
     c7c:	f00a fbe0 	bl	b440 <_isatty>
     c80:	4603      	mov	r3, r0
     c82:	4618      	mov	r0, r3
     c84:	3708      	adds	r7, #8
     c86:	46bd      	mov	sp, r7
     c88:	bd80      	pop	{r7, pc}
     c8a:	bf00      	nop

00000c8c <__wrap_semihost_connected>:
     c8c:	b480      	push	{r7}
     c8e:	af00      	add	r7, sp, #0
     c90:	f04f 33ff 	mov.w	r3, #4294967295	; 0xffffffff
     c94:	4618      	mov	r0, r3
     c96:	46bd      	mov	sp, r7
     c98:	f85d 7b04 	ldr.w	r7, [sp], #4
     c9c:	4770      	bx	lr
     c9e:	bf00      	nop

00000ca0 <abort>:
     ca0:	b580      	push	{r7, lr}
     ca2:	af00      	add	r7, sp, #0
     ca4:	be00      	bkpt	0x0000
     ca6:	2001      	movs	r0, #1
     ca8:	f002 fe3a 	bl	3920 <exit>

00000cac <__cxa_pure_virtual>:
     cac:	b580      	push	{r7, lr}
     cae:	af00      	add	r7, sp, #0
     cb0:	f7ff fff6 	bl	ca0 <abort>

00000cb4 <__mriInit>:
     cb4:	b570      	push	{r4, r5, r6, lr}
     cb6:	2100      	movs	r1, #0
     cb8:	b09e      	sub	sp, #120	; 0x78
     cba:	2224      	movs	r2, #36	; 0x24
     cbc:	4604      	mov	r4, r0
     cbe:	480f      	ldr	r0, [pc, #60]	; (cfc <__mriInit+0x48>)
     cc0:	f005 fdf1 	bl	68a6 <memset>
     cc4:	4d0e      	ldr	r5, [pc, #56]	; (d00 <__mriInit+0x4c>)
     cc6:	480d      	ldr	r0, [pc, #52]	; (cfc <__mriInit+0x48>)
     cc8:	f000 f958 	bl	f7c <__mriPacket_Init>
     ccc:	2600      	movs	r6, #0
     cce:	a801      	add	r0, sp, #4
     cd0:	602e      	str	r6, [r5, #0]
     cd2:	f000 f9ed 	bl	10b0 <__mriToken_Init>
     cd6:	a801      	add	r0, sp, #4
     cd8:	4621      	mov	r1, r4
     cda:	602e      	str	r6, [r5, #0]
     cdc:	f000 f9ee 	bl	10bc <__mriToken_SplitString>
     ce0:	682b      	ldr	r3, [r5, #0]
     ce2:	b913      	cbnz	r3, cea <__mriInit+0x36>
     ce4:	a801      	add	r0, sp, #4
     ce6:	f001 f9cb 	bl	2080 <__mriPlatform_Init>
     cea:	682b      	ldr	r3, [r5, #0]
     cec:	b923      	cbnz	r3, cf8 <__mriInit+0x44>
     cee:	4b03      	ldr	r3, [pc, #12]	; (cfc <__mriInit+0x48>)
     cf0:	695a      	ldr	r2, [r3, #20]
     cf2:	f042 0203 	orr.w	r2, r2, #3
     cf6:	615a      	str	r2, [r3, #20]
     cf8:	b01e      	add	sp, #120	; 0x78
     cfa:	bd70      	pop	{r4, r5, r6, pc}
     cfc:	100005a8 	.word	0x100005a8
     d00:	10000724 	.word	0x10000724

00000d04 <__mriCore_InitBuffer>:
     d04:	b510      	push	{r4, lr}
     d06:	f000 fcb9 	bl	167c <__mriPlatform_GetPacketBuffer>
     d0a:	4604      	mov	r4, r0
     d0c:	f000 fcba 	bl	1684 <__mriPlatform_GetPacketBufferSize>
     d10:	4602      	mov	r2, r0
     d12:	4803      	ldr	r0, [pc, #12]	; (d20 <__mriCore_InitBuffer+0x1c>)
     d14:	4621      	mov	r1, r4
     d16:	e8bd 4010 	ldmia.w	sp!, {r4, lr}
     d1a:	f001 bc43 	b.w	25a4 <__mriBuffer_Init>
     d1e:	bf00      	nop
     d20:	100005b0 	.word	0x100005b0

00000d24 <__mriCore_PrepareStringResponse>:
     d24:	b510      	push	{r4, lr}
     d26:	4604      	mov	r4, r0
     d28:	f7ff ffec 	bl	d04 <__mriCore_InitBuffer>
     d2c:	4802      	ldr	r0, [pc, #8]	; (d38 <__mriCore_PrepareStringResponse+0x14>)
     d2e:	4621      	mov	r1, r4
     d30:	e8bd 4010 	ldmia.w	sp!, {r4, lr}
     d34:	f001 bce4 	b.w	2700 <__mriBuffer_WriteString>
     d38:	100005b0 	.word	0x100005b0

00000d3c <__mriCore_WasControlCFlagSentFromGdb>:
     d3c:	4b02      	ldr	r3, [pc, #8]	; (d48 <__mriCore_WasControlCFlagSentFromGdb+0xc>)
     d3e:	6958      	ldr	r0, [r3, #20]
     d40:	f000 0004 	and.w	r0, r0, #4
     d44:	4770      	bx	lr
     d46:	bf00      	nop
     d48:	100005a8 	.word	0x100005a8

00000d4c <__mriCore_IsWaitingForGdbToConnect>:
     d4c:	b508      	push	{r3, lr}
     d4e:	4b05      	ldr	r3, [pc, #20]	; (d64 <__mriCore_IsWaitingForGdbToConnect+0x18>)
     d50:	6958      	ldr	r0, [r3, #20]
     d52:	f010 0002 	ands.w	r0, r0, #2
     d56:	d004      	beq.n	d62 <__mriCore_IsWaitingForGdbToConnect+0x16>
     d58:	f000 ffc0 	bl	1cdc <__mriPlatform_CommShouldWaitForGdbConnect>
     d5c:	3000      	adds	r0, #0
     d5e:	bf18      	it	ne
     d60:	2001      	movne	r0, #1
     d62:	bd08      	pop	{r3, pc}
     d64:	100005a8 	.word	0x100005a8

00000d68 <__mriCore_RecordControlCFlagSentFromGdb>:
     d68:	4b04      	ldr	r3, [pc, #16]	; (d7c <__mriCore_RecordControlCFlagSentFromGdb+0x14>)
     d6a:	695a      	ldr	r2, [r3, #20]
     d6c:	b110      	cbz	r0, d74 <__mriCore_RecordControlCFlagSentFromGdb+0xc>
     d6e:	f042 0204 	orr.w	r2, r2, #4
     d72:	e001      	b.n	d78 <__mriCore_RecordControlCFlagSentFromGdb+0x10>
     d74:	f022 0204 	bic.w	r2, r2, #4
     d78:	615a      	str	r2, [r3, #20]
     d7a:	4770      	bx	lr
     d7c:	100005a8 	.word	0x100005a8

00000d80 <__mriCore_WasSemihostCallCancelledByGdb>:
     d80:	4b03      	ldr	r3, [pc, #12]	; (d90 <__mriCore_WasSemihostCallCancelledByGdb+0x10>)
     d82:	69d8      	ldr	r0, [r3, #28]
     d84:	f1a0 0304 	sub.w	r3, r0, #4
     d88:	4258      	negs	r0, r3
     d8a:	eb40 0003 	adc.w	r0, r0, r3
     d8e:	4770      	bx	lr
     d90:	100005a8 	.word	0x100005a8

00000d94 <__mriCore_FlagSemihostCallAsHandled>:
     d94:	b510      	push	{r4, lr}
     d96:	4c06      	ldr	r4, [pc, #24]	; (db0 <__mriCore_FlagSemihostCallAsHandled+0x1c>)
     d98:	f000 fdce 	bl	1938 <__mriPlatform_AdvanceProgramCounterToNextInstruction>
     d9c:	69a0      	ldr	r0, [r4, #24]
     d9e:	f000 fe23 	bl	19e8 <__mriPlatform_SetSemihostCallReturnValue>
     da2:	69a3      	ldr	r3, [r4, #24]
     da4:	b113      	cbz	r3, dac <__mriCore_FlagSemihostCallAsHandled+0x18>
     da6:	69e2      	ldr	r2, [r4, #28]
     da8:	4b02      	ldr	r3, [pc, #8]	; (db4 <__mriCore_FlagSemihostCallAsHandled+0x20>)
     daa:	601a      	str	r2, [r3, #0]
     dac:	bd10      	pop	{r4, pc}
     dae:	bf00      	nop
     db0:	100005a8 	.word	0x100005a8
     db4:	10000a38 	.word	0x10000a38

00000db8 <__mriCore_IsFirstException>:
     db8:	4b02      	ldr	r3, [pc, #8]	; (dc4 <__mriCore_IsFirstException+0xc>)
     dba:	6958      	ldr	r0, [r3, #20]
     dbc:	f000 0002 	and.w	r0, r0, #2
     dc0:	4770      	bx	lr
     dc2:	bf00      	nop
     dc4:	100005a8 	.word	0x100005a8

00000dc8 <__mriCore_SetSignalValue>:
     dc8:	4b01      	ldr	r3, [pc, #4]	; (dd0 <__mriCore_SetSignalValue+0x8>)
     dca:	f883 0020 	strb.w	r0, [r3, #32]
     dce:	4770      	bx	lr
     dd0:	100005a8 	.word	0x100005a8

00000dd4 <__mriCore_GetSignalValue>:
     dd4:	4b01      	ldr	r3, [pc, #4]	; (ddc <__mriCore_GetSignalValue+0x8>)
     dd6:	f893 0020 	ldrb.w	r0, [r3, #32]
     dda:	4770      	bx	lr
     ddc:	100005a8 	.word	0x100005a8

00000de0 <__mriCore_SetSemihostReturnValues>:
     de0:	4b01      	ldr	r3, [pc, #4]	; (de8 <__mriCore_SetSemihostReturnValues+0x8>)
     de2:	6198      	str	r0, [r3, #24]
     de4:	61d9      	str	r1, [r3, #28]
     de6:	4770      	bx	lr
     de8:	100005a8 	.word	0x100005a8

00000dec <__mriCore_GetSemihostReturnCode>:
     dec:	4b01      	ldr	r3, [pc, #4]	; (df4 <__mriCore_GetSemihostReturnCode+0x8>)
     dee:	6998      	ldr	r0, [r3, #24]
     df0:	4770      	bx	lr
     df2:	bf00      	nop
     df4:	100005a8 	.word	0x100005a8

00000df8 <__mriCore_GetBuffer>:
     df8:	4800      	ldr	r0, [pc, #0]	; (dfc <__mriCore_GetBuffer+0x4>)
     dfa:	4770      	bx	lr
     dfc:	100005b0 	.word	0x100005b0

00000e00 <__mriCore_GetInitializedBuffer>:
     e00:	b508      	push	{r3, lr}
     e02:	f7ff ff7f 	bl	d04 <__mriCore_InitBuffer>
     e06:	4801      	ldr	r0, [pc, #4]	; (e0c <__mriCore_GetInitializedBuffer+0xc>)
     e08:	bd08      	pop	{r3, pc}
     e0a:	bf00      	nop
     e0c:	100005b0 	.word	0x100005b0

00000e10 <__mriCore_SendPacketToGdb>:
     e10:	b508      	push	{r3, lr}
     e12:	480a      	ldr	r0, [pc, #40]	; (e3c <__mriCore_SendPacketToGdb+0x2c>)
     e14:	f001 fbee 	bl	25f4 <__mriBuffer_OverrunDetected>
     e18:	b128      	cbz	r0, e26 <__mriCore_SendPacketToGdb+0x16>
     e1a:	f7ff ff73 	bl	d04 <__mriCore_InitBuffer>
     e1e:	4807      	ldr	r0, [pc, #28]	; (e3c <__mriCore_SendPacketToGdb+0x2c>)
     e20:	4907      	ldr	r1, [pc, #28]	; (e40 <__mriCore_SendPacketToGdb+0x30>)
     e22:	f001 fc6d 	bl	2700 <__mriBuffer_WriteString>
     e26:	4805      	ldr	r0, [pc, #20]	; (e3c <__mriCore_SendPacketToGdb+0x2c>)
     e28:	f001 fbc4 	bl	25b4 <__mriBuffer_SetEndOfBuffer>
     e2c:	4805      	ldr	r0, [pc, #20]	; (e44 <__mriCore_SendPacketToGdb+0x34>)
     e2e:	f100 0108 	add.w	r1, r0, #8
     e32:	e8bd 4008 	ldmia.w	sp!, {r3, lr}
     e36:	f000 b8f7 	b.w	1028 <__mriPacket_SendToGDB>
     e3a:	bf00      	nop
     e3c:	100005b0 	.word	0x100005b0
     e40:	0000b524 	.word	0x0000b524
     e44:	100005a8 	.word	0x100005a8

00000e48 <__mriCore_GdbCommandHandlingLoop>:
     e48:	b570      	push	{r4, r5, r6, lr}
     e4a:	4c14      	ldr	r4, [pc, #80]	; (e9c <__mriCore_GdbCommandHandlingLoop+0x54>)
     e4c:	4625      	mov	r5, r4
     e4e:	f7ff ff59 	bl	d04 <__mriCore_InitBuffer>
     e52:	4813      	ldr	r0, [pc, #76]	; (ea0 <__mriCore_GdbCommandHandlingLoop+0x58>)
     e54:	f100 0108 	add.w	r1, r0, #8
     e58:	f000 f894 	bl	f84 <__mriPacket_GetFromGDB>
     e5c:	4811      	ldr	r0, [pc, #68]	; (ea4 <__mriCore_GdbCommandHandlingLoop+0x5c>)
     e5e:	f001 fbe3 	bl	2628 <__mriBuffer_ReadChar>
     e62:	2300      	movs	r3, #0
     e64:	eb04 02c3 	add.w	r2, r4, r3, lsl #3
     e68:	7912      	ldrb	r2, [r2, #4]
     e6a:	4282      	cmp	r2, r0
     e6c:	d106      	bne.n	e7c <__mriCore_GdbCommandHandlingLoop+0x34>
     e6e:	f855 3033 	ldr.w	r3, [r5, r3, lsl #3]
     e72:	4798      	blx	r3
     e74:	0782      	lsls	r2, r0, #30
     e76:	4606      	mov	r6, r0
     e78:	d504      	bpl.n	e84 <__mriCore_GdbCommandHandlingLoop+0x3c>
     e7a:	e005      	b.n	e88 <__mriCore_GdbCommandHandlingLoop+0x40>
     e7c:	3301      	adds	r3, #1
     e7e:	2b0c      	cmp	r3, #12
     e80:	d1f0      	bne.n	e64 <__mriCore_GdbCommandHandlingLoop+0x1c>
     e82:	e006      	b.n	e92 <__mriCore_GdbCommandHandlingLoop+0x4a>
     e84:	f7ff ffc4 	bl	e10 <__mriCore_SendPacketToGdb>
     e88:	f006 0601 	and.w	r6, r6, #1
     e8c:	2e00      	cmp	r6, #0
     e8e:	d0de      	beq.n	e4e <__mriCore_GdbCommandHandlingLoop+0x6>
     e90:	bd70      	pop	{r4, r5, r6, pc}
     e92:	4805      	ldr	r0, [pc, #20]	; (ea8 <__mriCore_GdbCommandHandlingLoop+0x60>)
     e94:	f7ff ff46 	bl	d24 <__mriCore_PrepareStringResponse>
     e98:	2600      	movs	r6, #0
     e9a:	e7f3      	b.n	e84 <__mriCore_GdbCommandHandlingLoop+0x3c>
     e9c:	0000b4c4 	.word	0x0000b4c4
     ea0:	100005a8 	.word	0x100005a8
     ea4:	100005b0 	.word	0x100005b0
     ea8:	0000b53a 	.word	0x0000b53a

00000eac <__mriDebugException>:
     eac:	b570      	push	{r4, r5, r6, lr}
     eae:	f7ff ff4d 	bl	d4c <__mriCore_IsWaitingForGdbToConnect>
     eb2:	4605      	mov	r5, r0
     eb4:	f000 fbda 	bl	166c <__mriPlatform_IsSingleStepping>
     eb8:	4606      	mov	r6, r0
     eba:	f000 fef1 	bl	1ca0 <__mriPlatform_CommCausedInterrupt>
     ebe:	b130      	cbz	r0, ece <__mriDebugException+0x22>
     ec0:	f000 fecc 	bl	1c5c <__mriPlatform_CommHasReceiveData>
     ec4:	b918      	cbnz	r0, ece <__mriDebugException+0x22>
     ec6:	e8bd 4070 	ldmia.w	sp!, {r4, r5, r6, lr}
     eca:	f000 bef7 	b.w	1cbc <__mriPlatform_CommClearInterrupt>
     ece:	f7ff ff3d 	bl	d4c <__mriCore_IsWaitingForGdbToConnect>
     ed2:	b160      	cbz	r0, eee <__mriDebugException+0x42>
     ed4:	f000 ff0e 	bl	1cf4 <__mriPlatform_CommIsWaitingForGdbToConnect>
     ed8:	2800      	cmp	r0, #0
     eda:	d1fb      	bne.n	ed4 <__mriDebugException+0x28>
     edc:	f000 fec8 	bl	1c70 <__mriPlatform_CommReceiveChar>
     ee0:	282b      	cmp	r0, #43	; 0x2b
     ee2:	d004      	beq.n	eee <__mriDebugException+0x42>
     ee4:	f001 f87a 	bl	1fdc <__mriPlatform_CommWaitForReceiveDataToStop>
     ee8:	f000 ff12 	bl	1d10 <__mriPlatform_CommPrepareToWaitForGdbConnection>
     eec:	e7f2      	b.n	ed4 <__mriDebugException+0x28>
     eee:	f000 fc47 	bl	1780 <__mriPlatform_EnteringDebugger>
     ef2:	f000 fbc9 	bl	1688 <__mriPlatform_DetermineCauseOfException>
     ef6:	4c11      	ldr	r4, [pc, #68]	; (f3c <__mriDebugException+0x90>)
     ef8:	2805      	cmp	r0, #5
     efa:	f884 0020 	strb.w	r0, [r4, #32]
     efe:	d10d      	bne.n	f1c <__mriDebugException+0x70>
     f00:	f001 f906 	bl	2110 <__mriSemihost_IsDebuggeeMakingSemihostCall>
     f04:	b150      	cbz	r0, f1c <__mriDebugException+0x70>
     f06:	f001 f90d 	bl	2124 <__mriSemihost_HandleSemihostRequest>
     f0a:	b138      	cbz	r0, f1c <__mriDebugException+0x70>
     f0c:	b936      	cbnz	r6, f1c <__mriDebugException+0x70>
     f0e:	f000 fcb5 	bl	187c <__mriPlatform_LeavingDebugger>
     f12:	6963      	ldr	r3, [r4, #20]
     f14:	f023 0302 	bic.w	r3, r3, #2
     f18:	6163      	str	r3, [r4, #20]
     f1a:	bd70      	pop	{r4, r5, r6, pc}
     f1c:	b91d      	cbnz	r5, f26 <__mriDebugException+0x7a>
     f1e:	f000 fbe9 	bl	16f4 <__mriPlatform_DisplayFaultCauseToGdbConsole>
     f22:	f002 f90f 	bl	3144 <__mriCmd_Send_T_StopResponse>
     f26:	f7ff ff8f 	bl	e48 <__mriCore_GdbCommandHandlingLoop>
     f2a:	f000 fca7 	bl	187c <__mriPlatform_LeavingDebugger>
     f2e:	4b03      	ldr	r3, [pc, #12]	; (f3c <__mriDebugException+0x90>)
     f30:	695a      	ldr	r2, [r3, #20]
     f32:	f022 0202 	bic.w	r2, r2, #2
     f36:	615a      	str	r2, [r3, #20]
     f38:	bd70      	pop	{r4, r5, r6, pc}
     f3a:	bf00      	nop
     f3c:	100005a8 	.word	0x100005a8

00000f40 <HexCharToNibble>:
     f40:	f1a0 0361 	sub.w	r3, r0, #97	; 0x61
     f44:	b2db      	uxtb	r3, r3
     f46:	2b05      	cmp	r3, #5
     f48:	d801      	bhi.n	f4e <HexCharToNibble+0xe>
     f4a:	3857      	subs	r0, #87	; 0x57
     f4c:	4770      	bx	lr
     f4e:	f1a0 0341 	sub.w	r3, r0, #65	; 0x41
     f52:	b2db      	uxtb	r3, r3
     f54:	2b05      	cmp	r3, #5
     f56:	d801      	bhi.n	f5c <HexCharToNibble+0x1c>
     f58:	3837      	subs	r0, #55	; 0x37
     f5a:	4770      	bx	lr
     f5c:	3830      	subs	r0, #48	; 0x30
     f5e:	b2c3      	uxtb	r3, r0
     f60:	2b09      	cmp	r3, #9
     f62:	d907      	bls.n	f74 <HexCharToNibble+0x34>
     f64:	4b04      	ldr	r3, [pc, #16]	; (f78 <HexCharToNibble+0x38>)
     f66:	f04f 30ff 	mov.w	r0, #4294967295	; 0xffffffff
     f6a:	681a      	ldr	r2, [r3, #0]
     f6c:	2a02      	cmp	r2, #2
     f6e:	bfb8      	it	lt
     f70:	2202      	movlt	r2, #2
     f72:	601a      	str	r2, [r3, #0]
     f74:	4770      	bx	lr
     f76:	bf00      	nop
     f78:	10000724 	.word	0x10000724

00000f7c <__mriPacket_Init>:
     f7c:	2100      	movs	r1, #0
     f7e:	2208      	movs	r2, #8
     f80:	f005 bc91 	b.w	68a6 <memset>

00000f84 <__mriPacket_GetFromGDB>:
     f84:	b570      	push	{r4, r5, r6, lr}
     f86:	4604      	mov	r4, r0
     f88:	6001      	str	r1, [r0, #0]
     f8a:	2500      	movs	r5, #0
     f8c:	7920      	ldrb	r0, [r4, #4]
     f8e:	e003      	b.n	f98 <__mriPacket_GetFromGDB+0x14>
     f90:	f000 fe6e 	bl	1c70 <__mriPlatform_CommReceiveChar>
     f94:	b2c0      	uxtb	r0, r0
     f96:	7120      	strb	r0, [r4, #4]
     f98:	2824      	cmp	r0, #36	; 0x24
     f9a:	d1f9      	bne.n	f90 <__mriPacket_GetFromGDB+0xc>
     f9c:	6820      	ldr	r0, [r4, #0]
     f9e:	f001 fb06 	bl	25ae <__mriBuffer_Reset>
     fa2:	7165      	strb	r5, [r4, #5]
     fa4:	e006      	b.n	fb4 <__mriPacket_GetFromGDB+0x30>
     fa6:	7963      	ldrb	r3, [r4, #5]
     fa8:	6820      	ldr	r0, [r4, #0]
     faa:	18f3      	adds	r3, r6, r3
     fac:	7163      	strb	r3, [r4, #5]
     fae:	4631      	mov	r1, r6
     fb0:	f001 fb28 	bl	2604 <__mriBuffer_WriteChar>
     fb4:	f000 fe5c 	bl	1c70 <__mriPlatform_CommReceiveChar>
     fb8:	b2c6      	uxtb	r6, r0
     fba:	7126      	strb	r6, [r4, #4]
     fbc:	6820      	ldr	r0, [r4, #0]
     fbe:	f001 fafc 	bl	25ba <__mriBuffer_BytesLeft>
     fc2:	b120      	cbz	r0, fce <__mriPacket_GetFromGDB+0x4a>
     fc4:	2e24      	cmp	r6, #36	; 0x24
     fc6:	d0e1      	beq.n	f8c <__mriPacket_GetFromGDB+0x8>
     fc8:	2e23      	cmp	r6, #35	; 0x23
     fca:	d1ec      	bne.n	fa6 <__mriPacket_GetFromGDB+0x22>
     fcc:	e001      	b.n	fd2 <__mriPacket_GetFromGDB+0x4e>
     fce:	2e23      	cmp	r6, #35	; 0x23
     fd0:	d1dc      	bne.n	f8c <__mriPacket_GetFromGDB+0x8>
     fd2:	f000 fe4d 	bl	1c70 <__mriPlatform_CommReceiveChar>
     fd6:	b2c0      	uxtb	r0, r0
     fd8:	7120      	strb	r0, [r4, #4]
     fda:	f7ff ffb1 	bl	f40 <HexCharToNibble>
     fde:	4606      	mov	r6, r0
     fe0:	f000 fe46 	bl	1c70 <__mriPlatform_CommReceiveChar>
     fe4:	b2c0      	uxtb	r0, r0
     fe6:	7120      	strb	r0, [r4, #4]
     fe8:	f7ff ffaa 	bl	f40 <HexCharToNibble>
     fec:	b2f6      	uxtb	r6, r6
     fee:	ea40 1606 	orr.w	r6, r0, r6, lsl #4
     ff2:	71a6      	strb	r6, [r4, #6]
     ff4:	f000 fe32 	bl	1c5c <__mriPlatform_CommHasReceiveData>
     ff8:	2800      	cmp	r0, #0
     ffa:	d1c7      	bne.n	f8c <__mriPacket_GetFromGDB+0x8>
     ffc:	79a2      	ldrb	r2, [r4, #6]
     ffe:	7963      	ldrb	r3, [r4, #5]
    1000:	429a      	cmp	r2, r3
    1002:	d001      	beq.n	1008 <__mriPacket_GetFromGDB+0x84>
    1004:	202d      	movs	r0, #45	; 0x2d
    1006:	e000      	b.n	100a <__mriPacket_GetFromGDB+0x86>
    1008:	202b      	movs	r0, #43	; 0x2b
    100a:	f000 fe3d 	bl	1c88 <__mriPlatform_CommSendChar>
    100e:	79a2      	ldrb	r2, [r4, #6]
    1010:	7963      	ldrb	r3, [r4, #5]
    1012:	429a      	cmp	r2, r3
    1014:	d1ba      	bne.n	f8c <__mriPacket_GetFromGDB+0x8>
    1016:	6820      	ldr	r0, [r4, #0]
    1018:	f001 facc 	bl	25b4 <__mriBuffer_SetEndOfBuffer>
    101c:	6820      	ldr	r0, [r4, #0]
    101e:	e8bd 4070 	ldmia.w	sp!, {r4, r5, r6, lr}
    1022:	f001 bac4 	b.w	25ae <__mriBuffer_Reset>
	...

00001028 <__mriPacket_SendToGDB>:
    1028:	b5f8      	push	{r3, r4, r5, r6, r7, lr}
    102a:	4d19      	ldr	r5, [pc, #100]	; (1090 <__mriPacket_SendToGDB+0x68>)
    102c:	4604      	mov	r4, r0
    102e:	6001      	str	r1, [r0, #0]
    1030:	2700      	movs	r7, #0
    1032:	6820      	ldr	r0, [r4, #0]
    1034:	f001 fabb 	bl	25ae <__mriBuffer_Reset>
    1038:	7167      	strb	r7, [r4, #5]
    103a:	2024      	movs	r0, #36	; 0x24
    103c:	f000 fe24 	bl	1c88 <__mriPlatform_CommSendChar>
    1040:	e008      	b.n	1054 <__mriPacket_SendToGDB+0x2c>
    1042:	6820      	ldr	r0, [r4, #0]
    1044:	f001 faf0 	bl	2628 <__mriBuffer_ReadChar>
    1048:	4606      	mov	r6, r0
    104a:	f000 fe1d 	bl	1c88 <__mriPlatform_CommSendChar>
    104e:	7963      	ldrb	r3, [r4, #5]
    1050:	18f6      	adds	r6, r6, r3
    1052:	7166      	strb	r6, [r4, #5]
    1054:	6820      	ldr	r0, [r4, #0]
    1056:	f001 fab0 	bl	25ba <__mriBuffer_BytesLeft>
    105a:	2800      	cmp	r0, #0
    105c:	d1f1      	bne.n	1042 <__mriPacket_SendToGDB+0x1a>
    105e:	2023      	movs	r0, #35	; 0x23
    1060:	f000 fe12 	bl	1c88 <__mriPlatform_CommSendChar>
    1064:	7966      	ldrb	r6, [r4, #5]
    1066:	0933      	lsrs	r3, r6, #4
    1068:	5ce8      	ldrb	r0, [r5, r3]
    106a:	f006 060f 	and.w	r6, r6, #15
    106e:	f000 fe0b 	bl	1c88 <__mriPlatform_CommSendChar>
    1072:	5da8      	ldrb	r0, [r5, r6]
    1074:	f000 fe08 	bl	1c88 <__mriPlatform_CommSendChar>
    1078:	f000 fdfa 	bl	1c70 <__mriPlatform_CommReceiveChar>
    107c:	b2c0      	uxtb	r0, r0
    107e:	2803      	cmp	r0, #3
    1080:	7120      	strb	r0, [r4, #4]
    1082:	d0f9      	beq.n	1078 <__mriPacket_SendToGDB+0x50>
    1084:	282b      	cmp	r0, #43	; 0x2b
    1086:	d001      	beq.n	108c <__mriPacket_SendToGDB+0x64>
    1088:	2824      	cmp	r0, #36	; 0x24
    108a:	d1d2      	bne.n	1032 <__mriPacket_SendToGDB+0xa>
    108c:	bdf8      	pop	{r3, r4, r5, r6, r7, pc}
    108e:	bf00      	nop
    1090:	0000b528 	.word	0x0000b528

00001094 <__mriToken_InitWith>:
    1094:	b538      	push	{r3, r4, r5, lr}
    1096:	2228      	movs	r2, #40	; 0x28
    1098:	460d      	mov	r5, r1
    109a:	2100      	movs	r1, #0
    109c:	4604      	mov	r4, r0
    109e:	f005 fc02 	bl	68a6 <memset>
    10a2:	2300      	movs	r3, #0
    10a4:	62e3      	str	r3, [r4, #44]	; 0x2c
    10a6:	f884 3030 	strb.w	r3, [r4, #48]	; 0x30
    10aa:	62a5      	str	r5, [r4, #40]	; 0x28
    10ac:	bd38      	pop	{r3, r4, r5, pc}
	...

000010b0 <__mriToken_Init>:
    10b0:	4901      	ldr	r1, [pc, #4]	; (10b8 <__mriToken_Init+0x8>)
    10b2:	f7ff bfef 	b.w	1094 <__mriToken_InitWith>
    10b6:	bf00      	nop
    10b8:	0000b538 	.word	0x0000b538

000010bc <__mriToken_SplitString>:
    10bc:	4b2f      	ldr	r3, [pc, #188]	; (117c <__mriToken_SplitString+0xc0>)
    10be:	e92d 41f0 	stmdb	sp!, {r4, r5, r6, r7, r8, lr}
    10c2:	2500      	movs	r5, #0
    10c4:	4604      	mov	r4, r0
    10c6:	601d      	str	r5, [r3, #0]
    10c8:	2228      	movs	r2, #40	; 0x28
    10ca:	460e      	mov	r6, r1
    10cc:	4629      	mov	r1, r5
    10ce:	f005 fbea 	bl	68a6 <memset>
    10d2:	4623      	mov	r3, r4
    10d4:	f803 5f30 	strb.w	r5, [r3, #48]!
    10d8:	62e5      	str	r5, [r4, #44]	; 0x2c
    10da:	461a      	mov	r2, r3
    10dc:	2140      	movs	r1, #64	; 0x40
    10de:	e004      	b.n	10ea <__mriToken_SplitString+0x2e>
    10e0:	3901      	subs	r1, #1
    10e2:	f802 5b01 	strb.w	r5, [r2], #1
    10e6:	4630      	mov	r0, r6
    10e8:	d004      	beq.n	10f4 <__mriToken_SplitString+0x38>
    10ea:	4630      	mov	r0, r6
    10ec:	f816 5b01 	ldrb.w	r5, [r6], #1
    10f0:	2d00      	cmp	r5, #0
    10f2:	d1f5      	bne.n	10e0 <__mriToken_SplitString+0x24>
    10f4:	2100      	movs	r1, #0
    10f6:	7011      	strb	r1, [r2, #0]
    10f8:	7801      	ldrb	r1, [r0, #0]
    10fa:	4a20      	ldr	r2, [pc, #128]	; (117c <__mriToken_SplitString+0xc0>)
    10fc:	b121      	cbz	r1, 1108 <__mriToken_SplitString+0x4c>
    10fe:	6811      	ldr	r1, [r2, #0]
    1100:	2901      	cmp	r1, #1
    1102:	bfb8      	it	lt
    1104:	2101      	movlt	r1, #1
    1106:	6011      	str	r1, [r2, #0]
    1108:	6810      	ldr	r0, [r2, #0]
    110a:	2800      	cmp	r0, #0
    110c:	d133      	bne.n	1176 <__mriToken_SplitString+0xba>
    110e:	e02c      	b.n	116a <__mriToken_SplitString+0xae>
    1110:	4619      	mov	r1, r3
    1112:	f813 6b01 	ldrb.w	r6, [r3], #1
    1116:	b146      	cbz	r6, 112a <__mriToken_SplitString+0x6e>
    1118:	6aa5      	ldr	r5, [r4, #40]	; 0x28
    111a:	e001      	b.n	1120 <__mriToken_SplitString+0x64>
    111c:	4546      	cmp	r6, r8
    111e:	d0f7      	beq.n	1110 <__mriToken_SplitString+0x54>
    1120:	f815 8b01 	ldrb.w	r8, [r5], #1
    1124:	f1b8 0f00 	cmp.w	r8, #0
    1128:	d1f8      	bne.n	111c <__mriToken_SplitString+0x60>
    112a:	6010      	str	r0, [r2, #0]
    112c:	780b      	ldrb	r3, [r1, #0]
    112e:	b143      	cbz	r3, 1142 <__mriToken_SplitString+0x86>
    1130:	6ae3      	ldr	r3, [r4, #44]	; 0x2c
    1132:	2b09      	cmp	r3, #9
    1134:	d901      	bls.n	113a <__mriToken_SplitString+0x7e>
    1136:	6017      	str	r7, [r2, #0]
    1138:	e003      	b.n	1142 <__mriToken_SplitString+0x86>
    113a:	f844 1023 	str.w	r1, [r4, r3, lsl #2]
    113e:	3301      	adds	r3, #1
    1140:	62e3      	str	r3, [r4, #44]	; 0x2c
    1142:	f8dc 3000 	ldr.w	r3, [r12]
    1146:	b9b3      	cbnz	r3, 1176 <__mriToken_SplitString+0xba>
    1148:	460b      	mov	r3, r1
    114a:	f811 6b01 	ldrb.w	r6, [r1], #1
    114e:	b17e      	cbz	r6, 1170 <__mriToken_SplitString+0xb4>
    1150:	6aa5      	ldr	r5, [r4, #40]	; 0x28
    1152:	e004      	b.n	115e <__mriToken_SplitString+0xa2>
    1154:	4546      	cmp	r6, r8
    1156:	d102      	bne.n	115e <__mriToken_SplitString+0xa2>
    1158:	f803 0b01 	strb.w	r0, [r3], #1
    115c:	e008      	b.n	1170 <__mriToken_SplitString+0xb4>
    115e:	f815 8b01 	ldrb.w	r8, [r5], #1
    1162:	f1b8 0f00 	cmp.w	r8, #0
    1166:	d1f5      	bne.n	1154 <__mriToken_SplitString+0x98>
    1168:	e7ee      	b.n	1148 <__mriToken_SplitString+0x8c>
    116a:	4a04      	ldr	r2, [pc, #16]	; (117c <__mriToken_SplitString+0xc0>)
    116c:	2701      	movs	r7, #1
    116e:	4694      	mov	r12, r2
    1170:	7819      	ldrb	r1, [r3, #0]
    1172:	2900      	cmp	r1, #0
    1174:	d1cc      	bne.n	1110 <__mriToken_SplitString+0x54>
    1176:	e8bd 81f0 	ldmia.w	sp!, {r4, r5, r6, r7, r8, pc}
    117a:	bf00      	nop
    117c:	10000724 	.word	0x10000724

00001180 <__mriToken_MatchingString>:
    1180:	e92d 41f0 	stmdb	sp!, {r4, r5, r6, r7, r8, lr}
    1184:	4607      	mov	r7, r0
    1186:	4688      	mov	r8, r1
    1188:	4606      	mov	r6, r0
    118a:	2500      	movs	r5, #0
    118c:	e007      	b.n	119e <__mriToken_MatchingString+0x1e>
    118e:	f856 4b04 	ldr.w	r4, [r6], #4
    1192:	4641      	mov	r1, r8
    1194:	4620      	mov	r0, r4
    1196:	f005 fe64 	bl	6e62 <strcmp>
    119a:	b120      	cbz	r0, 11a6 <__mriToken_MatchingString+0x26>
    119c:	3501      	adds	r5, #1
    119e:	6afb      	ldr	r3, [r7, #44]	; 0x2c
    11a0:	429d      	cmp	r5, r3
    11a2:	d3f4      	bcc.n	118e <__mriToken_MatchingString+0xe>
    11a4:	2400      	movs	r4, #0
    11a6:	4620      	mov	r0, r4
    11a8:	e8bd 81f0 	ldmia.w	sp!, {r4, r5, r6, r7, r8, pc}

000011ac <__mriToken_MatchingStringPrefix>:
    11ac:	e92d 41f0 	stmdb	sp!, {r4, r5, r6, r7, r8, lr}
    11b0:	4607      	mov	r7, r0
    11b2:	4688      	mov	r8, r1
    11b4:	4606      	mov	r6, r0
    11b6:	2500      	movs	r5, #0
    11b8:	e008      	b.n	11cc <__mriToken_MatchingStringPrefix+0x20>
    11ba:	f856 4b04 	ldr.w	r4, [r6], #4
    11be:	4641      	mov	r1, r8
    11c0:	4620      	mov	r0, r4
    11c2:	f005 fe76 	bl	6eb2 <strstr>
    11c6:	4284      	cmp	r4, r0
    11c8:	d004      	beq.n	11d4 <__mriToken_MatchingStringPrefix+0x28>
    11ca:	3501      	adds	r5, #1
    11cc:	6afb      	ldr	r3, [r7, #44]	; 0x2c
    11ce:	429d      	cmp	r5, r3
    11d0:	d3f3      	bcc.n	11ba <__mriToken_MatchingStringPrefix+0xe>
    11d2:	2400      	movs	r4, #0
    11d4:	4620      	mov	r0, r4
    11d6:	e8bd 81f0 	ldmia.w	sp!, {r4, r5, r6, r7, r8, pc}
	...

000011dc <NVIC_SetPriority>:
    11dc:	2800      	cmp	r0, #0
    11de:	ea4f 01c1 	mov.w	r1, r1, lsl #3
    11e2:	da06      	bge.n	11f2 <NVIC_SetPriority+0x16>
    11e4:	4b06      	ldr	r3, [pc, #24]	; (1200 <NVIC_SetPriority+0x24>)
    11e6:	f000 000f 	and.w	r0, r0, #15
    11ea:	b2c9      	uxtb	r1, r1
    11ec:	18c3      	adds	r3, r0, r3
    11ee:	7619      	strb	r1, [r3, #24]
    11f0:	4770      	bx	lr
    11f2:	4b04      	ldr	r3, [pc, #16]	; (1204 <NVIC_SetPriority+0x28>)
    11f4:	b2c9      	uxtb	r1, r1
    11f6:	18c3      	adds	r3, r0, r3
    11f8:	f883 1300 	strb.w	r1, [r3, #768]	; 0x300
    11fc:	4770      	bx	lr
    11fe:	bf00      	nop
    1200:	e000ecfc 	.word	0xe000ecfc
    1204:	e000e100 	.word	0xe000e100

00001208 <findDWTComparator>:
    1208:	b5f0      	push	{r4, r5, r6, r7, lr}
    120a:	4603      	mov	r3, r0
    120c:	4810      	ldr	r0, [pc, #64]	; (1250 <findDWTComparator+0x48>)
    120e:	2400      	movs	r4, #0
    1210:	6807      	ldr	r7, [r0, #0]
    1212:	3020      	adds	r0, #32
    1214:	0f3f      	lsrs	r7, r7, #28
    1216:	e013      	b.n	1240 <findDWTComparator+0x38>
    1218:	6886      	ldr	r6, [r0, #8]
    121a:	4d0e      	ldr	r5, [pc, #56]	; (1254 <findDWTComparator+0x4c>)
    121c:	4035      	ands	r5, r6
    121e:	4295      	cmp	r5, r2
    1220:	d112      	bne.n	1248 <findDWTComparator+0x40>
    1222:	6805      	ldr	r5, [r0, #0]
    1224:	429d      	cmp	r5, r3
    1226:	d10f      	bne.n	1248 <findDWTComparator+0x40>
    1228:	f8d0 c004 	ldr.w	r12, [r0, #4]
    122c:	460e      	mov	r6, r1
    122e:	2500      	movs	r5, #0
    1230:	e001      	b.n	1236 <findDWTComparator+0x2e>
    1232:	0876      	lsrs	r6, r6, #1
    1234:	3501      	adds	r5, #1
    1236:	2e01      	cmp	r6, #1
    1238:	d8fb      	bhi.n	1232 <findDWTComparator+0x2a>
    123a:	45ac      	cmp	r12, r5
    123c:	d104      	bne.n	1248 <findDWTComparator+0x40>
    123e:	bdf0      	pop	{r4, r5, r6, r7, pc}
    1240:	42bc      	cmp	r4, r7
    1242:	d1e9      	bne.n	1218 <findDWTComparator+0x10>
    1244:	2000      	movs	r0, #0
    1246:	bdf0      	pop	{r4, r5, r6, r7, pc}
    1248:	3010      	adds	r0, #16
    124a:	3401      	adds	r4, #1
    124c:	e7f8      	b.n	1240 <findDWTComparator+0x38>
    124e:	bf00      	nop
    1250:	e0001000 	.word	0xe0001000
    1254:	000ffdaf 	.word	0x000ffdaf

00001258 <getFPBCodeComparatorCount>:
    1258:	4b04      	ldr	r3, [pc, #16]	; (126c <getFPBCodeComparatorCount+0x14>)
    125a:	681b      	ldr	r3, [r3, #0]
    125c:	f3c3 1203 	ubfx	r2, r3, #4, #4
    1260:	f403 43e0 	and.w	r3, r3, #28672	; 0x7000
    1264:	ea42 2013 	orr.w	r0, r2, r3, lsr #8
    1268:	4770      	bx	lr
    126a:	bf00      	nop
    126c:	e0002000 	.word	0xe0002000

00001270 <isMPUNotPresent>:
    1270:	4b04      	ldr	r3, [pc, #16]	; (1284 <isMPUNotPresent+0x14>)
    1272:	6818      	ldr	r0, [r3, #0]
    1274:	f3c0 2007 	ubfx	r0, r0, #8, #8
    1278:	f1d0 0001 	rsbs	r0, r0, #1
    127c:	bf38      	it	cc
    127e:	2000      	movcc	r0, #0
    1280:	4770      	bx	lr
    1282:	bf00      	nop
    1284:	e000ed90 	.word	0xe000ed90

00001288 <prepareToAccessMPURegion>:
    1288:	4b05      	ldr	r3, [pc, #20]	; (12a0 <prepareToAccessMPURegion+0x18>)
    128a:	681a      	ldr	r2, [r3, #0]
    128c:	f3c2 2207 	ubfx	r2, r2, #8, #8
    1290:	4290      	cmp	r0, r2
    1292:	d202      	bcs.n	129a <prepareToAccessMPURegion+0x12>
    1294:	6098      	str	r0, [r3, #8]
    1296:	2001      	movs	r0, #1
    1298:	4770      	bx	lr
    129a:	2000      	movs	r0, #0
    129c:	4770      	bx	lr
    129e:	bf00      	nop
    12a0:	e000ed90 	.word	0xe000ed90

000012a4 <sendRegisterForTResponse>:
    12a4:	b573      	push	{r0, r1, r4, r5, r6, lr}
    12a6:	4604      	mov	r4, r0
    12a8:	ad02      	add	r5, sp, #8
    12aa:	f845 2d04 	str.w	r2, [r5, #-4]!
    12ae:	f001 f9cf 	bl	2650 <__mriBuffer_WriteByteAsHex>
    12b2:	4620      	mov	r0, r4
    12b4:	213a      	movs	r1, #58	; 0x3a
    12b6:	f001 f9a5 	bl	2604 <__mriBuffer_WriteChar>
    12ba:	ae02      	add	r6, sp, #8
    12bc:	f815 1b01 	ldrb.w	r1, [r5], #1
    12c0:	4620      	mov	r0, r4
    12c2:	f001 f9c5 	bl	2650 <__mriBuffer_WriteByteAsHex>
    12c6:	42b5      	cmp	r5, r6
    12c8:	d1f8      	bne.n	12bc <sendRegisterForTResponse+0x18>
    12ca:	4620      	mov	r0, r4
    12cc:	213b      	movs	r1, #59	; 0x3b
    12ce:	f001 f999 	bl	2604 <__mriBuffer_WriteChar>
    12d2:	bd7c      	pop	{r2, r3, r4, r5, r6, pc}

000012d4 <displayMemFaultCauseToGdbConsole>:
    12d4:	b538      	push	{r3, r4, r5, lr}
    12d6:	4d1e      	ldr	r5, [pc, #120]	; (1350 <displayMemFaultCauseToGdbConsole+0x7c>)
    12d8:	6aac      	ldr	r4, [r5, #40]	; 0x28
    12da:	b2e4      	uxtb	r4, r4
    12dc:	2c00      	cmp	r4, #0
    12de:	d035      	beq.n	134c <displayMemFaultCauseToGdbConsole+0x78>
    12e0:	481c      	ldr	r0, [pc, #112]	; (1354 <displayMemFaultCauseToGdbConsole+0x80>)
    12e2:	f001 ff6e 	bl	31c2 <__mriGdbConsole_WriteString>
    12e6:	481c      	ldr	r0, [pc, #112]	; (1358 <displayMemFaultCauseToGdbConsole+0x84>)
    12e8:	f001 ff6b 	bl	31c2 <__mriGdbConsole_WriteString>
    12ec:	4620      	mov	r0, r4
    12ee:	f001 ff8f 	bl	3210 <__mriGdbConsole_WriteHexValue>
    12f2:	0622      	lsls	r2, r4, #24
    12f4:	d505      	bpl.n	1302 <displayMemFaultCauseToGdbConsole+0x2e>
    12f6:	4819      	ldr	r0, [pc, #100]	; (135c <displayMemFaultCauseToGdbConsole+0x88>)
    12f8:	f001 ff63 	bl	31c2 <__mriGdbConsole_WriteString>
    12fc:	6b68      	ldr	r0, [r5, #52]	; 0x34
    12fe:	f001 ff87 	bl	3210 <__mriGdbConsole_WriteHexValue>
    1302:	06a3      	lsls	r3, r4, #26
    1304:	d502      	bpl.n	130c <displayMemFaultCauseToGdbConsole+0x38>
    1306:	4816      	ldr	r0, [pc, #88]	; (1360 <displayMemFaultCauseToGdbConsole+0x8c>)
    1308:	f001 ff5b 	bl	31c2 <__mriGdbConsole_WriteString>
    130c:	06e0      	lsls	r0, r4, #27
    130e:	d507      	bpl.n	1320 <displayMemFaultCauseToGdbConsole+0x4c>
    1310:	4814      	ldr	r0, [pc, #80]	; (1364 <displayMemFaultCauseToGdbConsole+0x90>)
    1312:	f001 ff56 	bl	31c2 <__mriGdbConsole_WriteString>
    1316:	4b14      	ldr	r3, [pc, #80]	; (1368 <displayMemFaultCauseToGdbConsole+0x94>)
    1318:	f8d3 0208 	ldr.w	r0, [r3, #520]	; 0x208
    131c:	f001 ff78 	bl	3210 <__mriGdbConsole_WriteHexValue>
    1320:	0721      	lsls	r1, r4, #28
    1322:	d507      	bpl.n	1334 <displayMemFaultCauseToGdbConsole+0x60>
    1324:	4811      	ldr	r0, [pc, #68]	; (136c <displayMemFaultCauseToGdbConsole+0x98>)
    1326:	f001 ff4c 	bl	31c2 <__mriGdbConsole_WriteString>
    132a:	4b0f      	ldr	r3, [pc, #60]	; (1368 <displayMemFaultCauseToGdbConsole+0x94>)
    132c:	f8d3 0208 	ldr.w	r0, [r3, #520]	; 0x208
    1330:	f001 ff6e 	bl	3210 <__mriGdbConsole_WriteHexValue>
    1334:	07a2      	lsls	r2, r4, #30
    1336:	d502      	bpl.n	133e <displayMemFaultCauseToGdbConsole+0x6a>
    1338:	480d      	ldr	r0, [pc, #52]	; (1370 <displayMemFaultCauseToGdbConsole+0x9c>)
    133a:	f001 ff42 	bl	31c2 <__mriGdbConsole_WriteString>
    133e:	07e3      	lsls	r3, r4, #31
    1340:	d504      	bpl.n	134c <displayMemFaultCauseToGdbConsole+0x78>
    1342:	480c      	ldr	r0, [pc, #48]	; (1374 <displayMemFaultCauseToGdbConsole+0xa0>)
    1344:	e8bd 4038 	ldmia.w	sp!, {r3, r4, r5, lr}
    1348:	f001 bf3b 	b.w	31c2 <__mriGdbConsole_WriteString>
    134c:	bd38      	pop	{r3, r4, r5, pc}
    134e:	bf00      	nop
    1350:	e000ed00 	.word	0xe000ed00
    1354:	0000b818 	.word	0x0000b818
    1358:	0000b827 	.word	0x0000b827
    135c:	0000b83c 	.word	0x0000b83c
    1360:	0000b851 	.word	0x0000b851
    1364:	0000b86b 	.word	0x0000b86b
    1368:	10000728 	.word	0x10000728
    136c:	0000b888 	.word	0x0000b888
    1370:	0000b8a7 	.word	0x0000b8a7
    1374:	0000b8b8 	.word	0x0000b8b8

00001378 <displayBusFaultCauseToGdbConsole>:
    1378:	b538      	push	{r3, r4, r5, lr}
    137a:	4d21      	ldr	r5, [pc, #132]	; (1400 <displayBusFaultCauseToGdbConsole+0x88>)
    137c:	6aac      	ldr	r4, [r5, #40]	; 0x28
    137e:	f3c4 2407 	ubfx	r4, r4, #8, #8
    1382:	2c00      	cmp	r4, #0
    1384:	d03a      	beq.n	13fc <displayBusFaultCauseToGdbConsole+0x84>
    1386:	481f      	ldr	r0, [pc, #124]	; (1404 <displayBusFaultCauseToGdbConsole+0x8c>)
    1388:	f001 ff1b 	bl	31c2 <__mriGdbConsole_WriteString>
    138c:	481e      	ldr	r0, [pc, #120]	; (1408 <displayBusFaultCauseToGdbConsole+0x90>)
    138e:	f001 ff18 	bl	31c2 <__mriGdbConsole_WriteString>
    1392:	4620      	mov	r0, r4
    1394:	f001 ff3c 	bl	3210 <__mriGdbConsole_WriteHexValue>
    1398:	0623      	lsls	r3, r4, #24
    139a:	d505      	bpl.n	13a8 <displayBusFaultCauseToGdbConsole+0x30>
    139c:	481b      	ldr	r0, [pc, #108]	; (140c <displayBusFaultCauseToGdbConsole+0x94>)
    139e:	f001 ff10 	bl	31c2 <__mriGdbConsole_WriteString>
    13a2:	6ba8      	ldr	r0, [r5, #56]	; 0x38
    13a4:	f001 ff34 	bl	3210 <__mriGdbConsole_WriteHexValue>
    13a8:	06a0      	lsls	r0, r4, #26
    13aa:	d502      	bpl.n	13b2 <displayBusFaultCauseToGdbConsole+0x3a>
    13ac:	4818      	ldr	r0, [pc, #96]	; (1410 <displayBusFaultCauseToGdbConsole+0x98>)
    13ae:	f001 ff08 	bl	31c2 <__mriGdbConsole_WriteString>
    13b2:	06e1      	lsls	r1, r4, #27
    13b4:	d507      	bpl.n	13c6 <displayBusFaultCauseToGdbConsole+0x4e>
    13b6:	4817      	ldr	r0, [pc, #92]	; (1414 <displayBusFaultCauseToGdbConsole+0x9c>)
    13b8:	f001 ff03 	bl	31c2 <__mriGdbConsole_WriteString>
    13bc:	4b16      	ldr	r3, [pc, #88]	; (1418 <displayBusFaultCauseToGdbConsole+0xa0>)
    13be:	f8d3 0208 	ldr.w	r0, [r3, #520]	; 0x208
    13c2:	f001 ff25 	bl	3210 <__mriGdbConsole_WriteHexValue>
    13c6:	0722      	lsls	r2, r4, #28
    13c8:	d507      	bpl.n	13da <displayBusFaultCauseToGdbConsole+0x62>
    13ca:	4814      	ldr	r0, [pc, #80]	; (141c <displayBusFaultCauseToGdbConsole+0xa4>)
    13cc:	f001 fef9 	bl	31c2 <__mriGdbConsole_WriteString>
    13d0:	4b11      	ldr	r3, [pc, #68]	; (1418 <displayBusFaultCauseToGdbConsole+0xa0>)
    13d2:	f8d3 0208 	ldr.w	r0, [r3, #520]	; 0x208
    13d6:	f001 ff1b 	bl	3210 <__mriGdbConsole_WriteHexValue>
    13da:	0763      	lsls	r3, r4, #29
    13dc:	d502      	bpl.n	13e4 <displayBusFaultCauseToGdbConsole+0x6c>
    13de:	4810      	ldr	r0, [pc, #64]	; (1420 <displayBusFaultCauseToGdbConsole+0xa8>)
    13e0:	f001 feef 	bl	31c2 <__mriGdbConsole_WriteString>
    13e4:	07a0      	lsls	r0, r4, #30
    13e6:	d502      	bpl.n	13ee <displayBusFaultCauseToGdbConsole+0x76>
    13e8:	480e      	ldr	r0, [pc, #56]	; (1424 <displayBusFaultCauseToGdbConsole+0xac>)
    13ea:	f001 feea 	bl	31c2 <__mriGdbConsole_WriteString>
    13ee:	07e1      	lsls	r1, r4, #31
    13f0:	d504      	bpl.n	13fc <displayBusFaultCauseToGdbConsole+0x84>
    13f2:	480d      	ldr	r0, [pc, #52]	; (1428 <displayBusFaultCauseToGdbConsole+0xb0>)
    13f4:	e8bd 4038 	ldmia.w	sp!, {r3, r4, r5, lr}
    13f8:	f001 bee3 	b.w	31c2 <__mriGdbConsole_WriteString>
    13fc:	bd38      	pop	{r3, r4, r5, pc}
    13fe:	bf00      	nop
    1400:	e000ed00 	.word	0xe000ed00
    1404:	0000b8cf 	.word	0x0000b8cf
    1408:	0000b827 	.word	0x0000b827
    140c:	0000b83c 	.word	0x0000b83c
    1410:	0000b851 	.word	0x0000b851
    1414:	0000b86b 	.word	0x0000b86b
    1418:	10000728 	.word	0x10000728
    141c:	0000b888 	.word	0x0000b888
    1420:	0000b8de 	.word	0x0000b8de
    1424:	0000b8f9 	.word	0x0000b8f9
    1428:	0000b912 	.word	0x0000b912

0000142c <displayUsageFaultCauseToGdbConsole>:
    142c:	b510      	push	{r4, lr}
    142e:	4b17      	ldr	r3, [pc, #92]	; (148c <displayUsageFaultCauseToGdbConsole+0x60>)
    1430:	6a9c      	ldr	r4, [r3, #40]	; 0x28
    1432:	0c24      	lsrs	r4, r4, #16
    1434:	d028      	beq.n	1488 <displayUsageFaultCauseToGdbConsole+0x5c>
    1436:	4816      	ldr	r0, [pc, #88]	; (1490 <displayUsageFaultCauseToGdbConsole+0x64>)
    1438:	f001 fec3 	bl	31c2 <__mriGdbConsole_WriteString>
    143c:	4815      	ldr	r0, [pc, #84]	; (1494 <displayUsageFaultCauseToGdbConsole+0x68>)
    143e:	f001 fec0 	bl	31c2 <__mriGdbConsole_WriteString>
    1442:	4620      	mov	r0, r4
    1444:	f001 fee4 	bl	3210 <__mriGdbConsole_WriteHexValue>
    1448:	05a1      	lsls	r1, r4, #22
    144a:	d502      	bpl.n	1452 <displayUsageFaultCauseToGdbConsole+0x26>
    144c:	4812      	ldr	r0, [pc, #72]	; (1498 <displayUsageFaultCauseToGdbConsole+0x6c>)
    144e:	f001 feb8 	bl	31c2 <__mriGdbConsole_WriteString>
    1452:	05e2      	lsls	r2, r4, #23
    1454:	d502      	bpl.n	145c <displayUsageFaultCauseToGdbConsole+0x30>
    1456:	4811      	ldr	r0, [pc, #68]	; (149c <displayUsageFaultCauseToGdbConsole+0x70>)
    1458:	f001 feb3 	bl	31c2 <__mriGdbConsole_WriteString>
    145c:	0723      	lsls	r3, r4, #28
    145e:	d502      	bpl.n	1466 <displayUsageFaultCauseToGdbConsole+0x3a>
    1460:	480f      	ldr	r0, [pc, #60]	; (14a0 <displayUsageFaultCauseToGdbConsole+0x74>)
    1462:	f001 feae 	bl	31c2 <__mriGdbConsole_WriteString>
    1466:	0760      	lsls	r0, r4, #29
    1468:	d502      	bpl.n	1470 <displayUsageFaultCauseToGdbConsole+0x44>
    146a:	480e      	ldr	r0, [pc, #56]	; (14a4 <displayUsageFaultCauseToGdbConsole+0x78>)
    146c:	f001 fea9 	bl	31c2 <__mriGdbConsole_WriteString>
    1470:	07a1      	lsls	r1, r4, #30
    1472:	d502      	bpl.n	147a <displayUsageFaultCauseToGdbConsole+0x4e>
    1474:	480c      	ldr	r0, [pc, #48]	; (14a8 <displayUsageFaultCauseToGdbConsole+0x7c>)
    1476:	f001 fea4 	bl	31c2 <__mriGdbConsole_WriteString>
    147a:	07e2      	lsls	r2, r4, #31
    147c:	d504      	bpl.n	1488 <displayUsageFaultCauseToGdbConsole+0x5c>
    147e:	480b      	ldr	r0, [pc, #44]	; (14ac <displayUsageFaultCauseToGdbConsole+0x80>)
    1480:	e8bd 4010 	ldmia.w	sp!, {r4, lr}
    1484:	f001 be9d 	b.w	31c2 <__mriGdbConsole_WriteString>
    1488:	bd10      	pop	{r4, pc}
    148a:	bf00      	nop
    148c:	e000ed00 	.word	0xe000ed00
    1490:	0000b92c 	.word	0x0000b92c
    1494:	0000b827 	.word	0x0000b827
    1498:	0000b93d 	.word	0x0000b93d
    149c:	0000b951 	.word	0x0000b951
    14a0:	0000b967 	.word	0x0000b967
    14a4:	0000b97f 	.word	0x0000b97f
    14a8:	0000b9a3 	.word	0x0000b9a3
    14ac:	0000b9b6 	.word	0x0000b9b6

000014b0 <calculateFPBComparatorValue>:
    14b0:	4b0e      	ldr	r3, [pc, #56]	; (14ec <calculateFPBComparatorValue+0x3c>)
    14b2:	4003      	ands	r3, r0
    14b4:	b96b      	cbnz	r3, 14d2 <calculateFPBComparatorValue+0x22>
    14b6:	e00f      	b.n	14d8 <calculateFPBComparatorValue+0x28>
    14b8:	f010 0f02 	tst.w	r0, #2
    14bc:	bf0c      	ite	eq
    14be:	f04f 4380 	moveq.w	r3, #1073741824	; 0x40000000
    14c2:	f04f 4300 	movne.w	r3, #2147483648	; 0x80000000
    14c6:	e001      	b.n	14cc <calculateFPBComparatorValue+0x1c>
    14c8:	f04f 4340 	mov.w	r3, #3221225472	; 0xc0000000
    14cc:	ea42 0003 	orr.w	r0, r2, r3
    14d0:	4770      	bx	lr
    14d2:	f04f 30ff 	mov.w	r0, #4294967295	; 0xffffffff
    14d6:	4770      	bx	lr
    14d8:	f020 4260 	bic.w	r2, r0, #3758096384	; 0xe0000000
    14dc:	f022 0203 	bic.w	r2, r2, #3
    14e0:	f042 0201 	orr.w	r2, r2, #1
    14e4:	2900      	cmp	r1, #0
    14e6:	d1ef      	bne.n	14c8 <calculateFPBComparatorValue+0x18>
    14e8:	e7e6      	b.n	14b8 <calculateFPBComparatorValue+0x8>
    14ea:	bf00      	nop
    14ec:	e0000001 	.word	0xe0000001

000014f0 <findFPBBreakpointComparator>:
    14f0:	b538      	push	{r3, r4, r5, lr}
    14f2:	f7ff ffdd 	bl	14b0 <calculateFPBComparatorValue>
    14f6:	4604      	mov	r4, r0
    14f8:	f7ff feae 	bl	1258 <getFPBCodeComparatorCount>
    14fc:	4a08      	ldr	r2, [pc, #32]	; (1520 <findFPBBreakpointComparator+0x30>)
    14fe:	2300      	movs	r3, #0
    1500:	e008      	b.n	1514 <findFPBBreakpointComparator+0x24>
    1502:	f852 5b04 	ldr.w	r5, [r2], #4
    1506:	f025 5500 	bic.w	r5, r5, #536870912	; 0x20000000
    150a:	f025 0502 	bic.w	r5, r5, #2
    150e:	42ac      	cmp	r4, r5
    1510:	d004      	beq.n	151c <findFPBBreakpointComparator+0x2c>
    1512:	3301      	adds	r3, #1
    1514:	4283      	cmp	r3, r0
    1516:	4611      	mov	r1, r2
    1518:	d1f3      	bne.n	1502 <findFPBBreakpointComparator+0x12>
    151a:	2100      	movs	r1, #0
    151c:	4608      	mov	r0, r1
    151e:	bd38      	pop	{r3, r4, r5, pc}
    1520:	e0002008 	.word	0xe0002008

00001524 <__mriPlatform_DisableSingleStep>:
    1524:	4b06      	ldr	r3, [pc, #24]	; (1540 <__mriPlatform_DisableSingleStep+0x1c>)
    1526:	68da      	ldr	r2, [r3, #12]
    1528:	f422 2280 	bic.w	r2, r2, #262144	; 0x40000
    152c:	60da      	str	r2, [r3, #12]
    152e:	4b05      	ldr	r3, [pc, #20]	; (1544 <__mriPlatform_DisableSingleStep+0x20>)
    1530:	f8d3 2200 	ldr.w	r2, [r3, #512]	; 0x200
    1534:	f022 0204 	bic.w	r2, r2, #4
    1538:	f8c3 2200 	str.w	r2, [r3, #512]	; 0x200
    153c:	4770      	bx	lr
    153e:	bf00      	nop
    1540:	e000edf0 	.word	0xe000edf0
    1544:	10000728 	.word	0x10000728

00001548 <__mriCortexMInit>:
    1548:	b510      	push	{r4, lr}
    154a:	f44f 7240 	mov.w	r2, #768	; 0x300
    154e:	4828      	ldr	r0, [pc, #160]	; (15f0 <__mriCortexMInit+0xa8>)
    1550:	2100      	movs	r1, #0
    1552:	f005 f9a8 	bl	68a6 <memset>
    1556:	4b27      	ldr	r3, [pc, #156]	; (15f4 <__mriCortexMInit+0xac>)
    1558:	68da      	ldr	r2, [r3, #12]
    155a:	f042 7280 	orr.w	r2, r2, #16777216	; 0x1000000
    155e:	60da      	str	r2, [r3, #12]
    1560:	4b25      	ldr	r3, [pc, #148]	; (15f8 <__mriCortexMInit+0xb0>)
    1562:	2200      	movs	r2, #0
    1564:	681c      	ldr	r4, [r3, #0]
    1566:	4610      	mov	r0, r2
    1568:	0f24      	lsrs	r4, r4, #28
    156a:	3320      	adds	r3, #32
    156c:	e009      	b.n	1582 <__mriCortexMInit+0x3a>
    156e:	6018      	str	r0, [r3, #0]
    1570:	6058      	str	r0, [r3, #4]
    1572:	6899      	ldr	r1, [r3, #8]
    1574:	3201      	adds	r2, #1
    1576:	f421 71d6 	bic.w	r1, r1, #428	; 0x1ac
    157a:	f021 0103 	bic.w	r1, r1, #3
    157e:	6099      	str	r1, [r3, #8]
    1580:	3310      	adds	r3, #16
    1582:	42a2      	cmp	r2, r4
    1584:	d1f3      	bne.n	156e <__mriCortexMInit+0x26>
    1586:	f7ff fe67 	bl	1258 <getFPBCodeComparatorCount>
    158a:	4a1c      	ldr	r2, [pc, #112]	; (15fc <__mriCortexMInit+0xb4>)
    158c:	491c      	ldr	r1, [pc, #112]	; (1600 <__mriCortexMInit+0xb8>)
    158e:	6813      	ldr	r3, [r2, #0]
    1590:	f3c3 2303 	ubfx	r3, r3, #8, #4
    1594:	18c0      	adds	r0, r0, r3
    1596:	2300      	movs	r3, #0
    1598:	461c      	mov	r4, r3
    159a:	e002      	b.n	15a2 <__mriCortexMInit+0x5a>
    159c:	f841 4b04 	str.w	r4, [r1], #4
    15a0:	3301      	adds	r3, #1
    15a2:	4283      	cmp	r3, r0
    15a4:	d1fa      	bne.n	159c <__mriCortexMInit+0x54>
    15a6:	6813      	ldr	r3, [r2, #0]
    15a8:	f06f 0004 	mvn.w	r0, #4
    15ac:	f043 0303 	orr.w	r3, r3, #3
    15b0:	6013      	str	r3, [r2, #0]
    15b2:	2101      	movs	r1, #1
    15b4:	f7ff fe12 	bl	11dc <NVIC_SetPriority>
    15b8:	4c0e      	ldr	r4, [pc, #56]	; (15f4 <__mriCortexMInit+0xac>)
    15ba:	f06f 0001 	mvn.w	r0, #1
    15be:	2101      	movs	r1, #1
    15c0:	f7ff fe0c 	bl	11dc <NVIC_SetPriority>
    15c4:	f04f 30ff 	mov.w	r0, #4294967295	; 0xffffffff
    15c8:	2101      	movs	r1, #1
    15ca:	f7ff fe07 	bl	11dc <NVIC_SetPriority>
    15ce:	f7ff ffa9 	bl	1524 <__mriPlatform_DisableSingleStep>
    15d2:	68e3      	ldr	r3, [r4, #12]
    15d4:	f06f 0003 	mvn.w	r0, #3
    15d8:	f423 3300 	bic.w	r3, r3, #131072	; 0x20000
    15dc:	60e3      	str	r3, [r4, #12]
    15de:	2100      	movs	r1, #0
    15e0:	f7ff fdfc 	bl	11dc <NVIC_SetPriority>
    15e4:	68e3      	ldr	r3, [r4, #12]
    15e6:	f443 3380 	orr.w	r3, r3, #65536	; 0x10000
    15ea:	60e3      	str	r3, [r4, #12]
    15ec:	bd10      	pop	{r4, pc}
    15ee:	bf00      	nop
    15f0:	10000728 	.word	0x10000728
    15f4:	e000edf0 	.word	0xe000edf0
    15f8:	e0001000 	.word	0xe0001000
    15fc:	e0002000 	.word	0xe0002000
    1600:	e0002008 	.word	0xe0002008

00001604 <__mriPlatform_EnableSingleStep>:
    1604:	b508      	push	{r3, lr}
    1606:	4b17      	ldr	r3, [pc, #92]	; (1664 <__mriPlatform_EnableSingleStep+0x60>)
    1608:	f8d3 2200 	ldr.w	r2, [r3, #512]	; 0x200
    160c:	f042 0204 	orr.w	r2, r2, #4
    1610:	f8c3 2200 	str.w	r2, [r3, #512]	; 0x200
    1614:	f8d3 3248 	ldr.w	r3, [r3, #584]	; 0x248
    1618:	f24f 3280 	movw	r2, #62336	; 0xf380
    161c:	8819      	ldrh	r1, [r3, #0]
    161e:	f021 010f 	bic.w	r1, r1, #15
    1622:	b289      	uxth	r1, r1
    1624:	4291      	cmp	r1, r2
    1626:	d110      	bne.n	164a <__mriPlatform_EnableSingleStep+0x46>
    1628:	885b      	ldrh	r3, [r3, #2]
    162a:	f648 0211 	movw	r2, #34833	; 0x8811
    162e:	4293      	cmp	r3, r2
    1630:	d002      	beq.n	1638 <__mriPlatform_EnableSingleStep+0x34>
    1632:	3201      	adds	r2, #1
    1634:	4293      	cmp	r3, r2
    1636:	d108      	bne.n	164a <__mriPlatform_EnableSingleStep+0x46>
    1638:	2008      	movs	r0, #8
    163a:	f000 feae 	bl	239a <__mriSetBASEPRI>
    163e:	4b0a      	ldr	r3, [pc, #40]	; (1668 <__mriPlatform_EnableSingleStep+0x64>)
    1640:	68da      	ldr	r2, [r3, #12]
    1642:	f442 2280 	orr.w	r2, r2, #262144	; 0x40000
    1646:	60da      	str	r2, [r3, #12]
    1648:	bd08      	pop	{r3, pc}
    164a:	f000 fea9 	bl	23a0 <__mriGetBASEPRI>
    164e:	4b05      	ldr	r3, [pc, #20]	; (1664 <__mriPlatform_EnableSingleStep+0x60>)
    1650:	f8d3 2200 	ldr.w	r2, [r3, #512]	; 0x200
    1654:	f8c3 0268 	str.w	r0, [r3, #616]	; 0x268
    1658:	f042 0208 	orr.w	r2, r2, #8
    165c:	f8c3 2200 	str.w	r2, [r3, #512]	; 0x200
    1660:	e7ea      	b.n	1638 <__mriPlatform_EnableSingleStep+0x34>
    1662:	bf00      	nop
    1664:	10000728 	.word	0x10000728
    1668:	e000edf0 	.word	0xe000edf0

0000166c <__mriPlatform_IsSingleStepping>:
    166c:	4b02      	ldr	r3, [pc, #8]	; (1678 <__mriPlatform_IsSingleStepping+0xc>)
    166e:	f8d3 0200 	ldr.w	r0, [r3, #512]	; 0x200
    1672:	f000 0004 	and.w	r0, r0, #4
    1676:	4770      	bx	lr
    1678:	10000728 	.word	0x10000728

0000167c <__mriPlatform_GetPacketBuffer>:
    167c:	4800      	ldr	r0, [pc, #0]	; (1680 <__mriPlatform_GetPacketBuffer+0x4>)
    167e:	4770      	bx	lr
    1680:	10000998 	.word	0x10000998

00001684 <__mriPlatform_GetPacketBufferSize>:
    1684:	2089      	movs	r0, #137	; 0x89
    1686:	4770      	bx	lr

00001688 <__mriPlatform_DetermineCauseOfException>:
    1688:	b510      	push	{r4, lr}
    168a:	f000 fe83 	bl	2394 <__mriGetIPSR>
    168e:	b2c0      	uxtb	r0, r0
    1690:	3802      	subs	r0, #2
    1692:	2816      	cmp	r0, #22
    1694:	d825      	bhi.n	16e2 <__mriPlatform_DetermineCauseOfException+0x5a>
    1696:	e8df f000 	tbb	[pc, r0]
    169a:	260c      	.short	0x260c
    169c:	24100e26 	.word	0x24100e26
    16a0:	24242424 	.word	0x24242424
    16a4:	24242412 	.word	0x24242412
    16a8:	24242424 	.word	0x24242424
    16ac:	0c0c0c24 	.word	0x0c0c0c24
    16b0:	0c          	.byte	0x0c
    16b1:	00          	.byte	0x00
    16b2:	2002      	movs	r0, #2
    16b4:	bd10      	pop	{r4, pc}
    16b6:	200a      	movs	r0, #10
    16b8:	bd10      	pop	{r4, pc}
    16ba:	2004      	movs	r0, #4
    16bc:	bd10      	pop	{r4, pc}
    16be:	4b0b      	ldr	r3, [pc, #44]	; (16ec <__mriPlatform_DetermineCauseOfException+0x64>)
    16c0:	480b      	ldr	r0, [pc, #44]	; (16f0 <__mriPlatform_DetermineCauseOfException+0x68>)
    16c2:	6b1c      	ldr	r4, [r3, #48]	; 0x30
    16c4:	2300      	movs	r3, #0
    16c6:	f850 2033 	ldr.w	r2, [r0, r3, lsl #3]
    16ca:	00d9      	lsls	r1, r3, #3
    16cc:	4222      	tst	r2, r4
    16ce:	d005      	beq.n	16dc <__mriPlatform_DetermineCauseOfException+0x54>
    16d0:	4b06      	ldr	r3, [pc, #24]	; (16ec <__mriPlatform_DetermineCauseOfException+0x64>)
    16d2:	631a      	str	r2, [r3, #48]	; 0x30
    16d4:	4b06      	ldr	r3, [pc, #24]	; (16f0 <__mriPlatform_DetermineCauseOfException+0x68>)
    16d6:	185b      	adds	r3, r3, r1
    16d8:	7918      	ldrb	r0, [r3, #4]
    16da:	bd10      	pop	{r4, pc}
    16dc:	3301      	adds	r3, #1
    16de:	2b04      	cmp	r3, #4
    16e0:	d1f1      	bne.n	16c6 <__mriPlatform_DetermineCauseOfException+0x3e>
    16e2:	2011      	movs	r0, #17
    16e4:	bd10      	pop	{r4, pc}
    16e6:	200b      	movs	r0, #11
    16e8:	bd10      	pop	{r4, pc}
    16ea:	bf00      	nop
    16ec:	e000ed00 	.word	0xe000ed00
    16f0:	0000ba18 	.word	0x0000ba18

000016f4 <__mriPlatform_DisplayFaultCauseToGdbConsole>:
    16f4:	b510      	push	{r4, lr}
    16f6:	f000 fe4d 	bl	2394 <__mriGetIPSR>
    16fa:	b2c0      	uxtb	r0, r0
    16fc:	3803      	subs	r0, #3
    16fe:	2803      	cmp	r0, #3
    1700:	d82f      	bhi.n	1762 <__mriPlatform_DisplayFaultCauseToGdbConsole+0x6e>
    1702:	e8df f000 	tbb	[pc, r0]
    1706:	2102      	.short	0x2102
    1708:	2724      	.short	0x2724
    170a:	4b16      	ldr	r3, [pc, #88]	; (1764 <__mriPlatform_DisplayFaultCauseToGdbConsole+0x70>)
    170c:	4816      	ldr	r0, [pc, #88]	; (1768 <__mriPlatform_DisplayFaultCauseToGdbConsole+0x74>)
    170e:	6adc      	ldr	r4, [r3, #44]	; 0x2c
    1710:	f001 fd57 	bl	31c2 <__mriGdbConsole_WriteString>
    1714:	4815      	ldr	r0, [pc, #84]	; (176c <__mriPlatform_DisplayFaultCauseToGdbConsole+0x78>)
    1716:	f001 fd54 	bl	31c2 <__mriGdbConsole_WriteString>
    171a:	4620      	mov	r0, r4
    171c:	f001 fd78 	bl	3210 <__mriGdbConsole_WriteHexValue>
    1720:	2c00      	cmp	r4, #0
    1722:	da02      	bge.n	172a <__mriPlatform_DisplayFaultCauseToGdbConsole+0x36>
    1724:	4812      	ldr	r0, [pc, #72]	; (1770 <__mriPlatform_DisplayFaultCauseToGdbConsole+0x7c>)
    1726:	f001 fd4c 	bl	31c2 <__mriGdbConsole_WriteString>
    172a:	07a3      	lsls	r3, r4, #30
    172c:	d502      	bpl.n	1734 <__mriPlatform_DisplayFaultCauseToGdbConsole+0x40>
    172e:	4811      	ldr	r0, [pc, #68]	; (1774 <__mriPlatform_DisplayFaultCauseToGdbConsole+0x80>)
    1730:	f001 fd47 	bl	31c2 <__mriGdbConsole_WriteString>
    1734:	0060      	lsls	r0, r4, #1
    1736:	d50f      	bpl.n	1758 <__mriPlatform_DisplayFaultCauseToGdbConsole+0x64>
    1738:	480f      	ldr	r0, [pc, #60]	; (1778 <__mriPlatform_DisplayFaultCauseToGdbConsole+0x84>)
    173a:	f001 fd42 	bl	31c2 <__mriGdbConsole_WriteString>
    173e:	f7ff fdc9 	bl	12d4 <displayMemFaultCauseToGdbConsole>
    1742:	f7ff fe19 	bl	1378 <displayBusFaultCauseToGdbConsole>
    1746:	e005      	b.n	1754 <__mriPlatform_DisplayFaultCauseToGdbConsole+0x60>
    1748:	f7ff fdc4 	bl	12d4 <displayMemFaultCauseToGdbConsole>
    174c:	e004      	b.n	1758 <__mriPlatform_DisplayFaultCauseToGdbConsole+0x64>
    174e:	f7ff fe13 	bl	1378 <displayBusFaultCauseToGdbConsole>
    1752:	e001      	b.n	1758 <__mriPlatform_DisplayFaultCauseToGdbConsole+0x64>
    1754:	f7ff fe6a 	bl	142c <displayUsageFaultCauseToGdbConsole>
    1758:	4808      	ldr	r0, [pc, #32]	; (177c <__mriPlatform_DisplayFaultCauseToGdbConsole+0x88>)
    175a:	e8bd 4010 	ldmia.w	sp!, {r4, lr}
    175e:	f001 bd30 	b.w	31c2 <__mriGdbConsole_WriteString>
    1762:	bd10      	pop	{r4, pc}
    1764:	e000ed00 	.word	0xe000ed00
    1768:	0000b9d1 	.word	0x0000b9d1
    176c:	0000b827 	.word	0x0000b827
    1770:	0000b9e1 	.word	0x0000b9e1
    1774:	0000b9f2 	.word	0x0000b9f2
    1778:	0000ba09 	.word	0x0000ba09
    177c:	0000ba15 	.word	0x0000ba15

00001780 <__mriPlatform_EnteringDebugger>:
    1780:	b510      	push	{r4, lr}
    1782:	4c3b      	ldr	r4, [pc, #236]	; (1870 <CFSR_STACK_ERROR_BITS+0x58>)
    1784:	f8d4 3200 	ldr.w	r3, [r4, #512]	; 0x200
    1788:	f023 0302 	bic.w	r3, r3, #2
    178c:	f8c4 3200 	str.w	r3, [r4, #512]	; 0x200
    1790:	f8d4 3248 	ldr.w	r3, [r4, #584]	; 0x248
    1794:	f8c4 3250 	str.w	r3, [r4, #592]	; 0x250
    1798:	f8d4 324c 	ldr.w	r3, [r4, #588]	; 0x24c
    179c:	f403 7300 	and.w	r3, r3, #512	; 0x200
    17a0:	f8c4 3254 	str.w	r3, [r4, #596]	; 0x254
    17a4:	f7ff fd64 	bl	1270 <isMPUNotPresent>
    17a8:	4b32      	ldr	r3, [pc, #200]	; (1874 <CFSR_STACK_ERROR_BITS+0x5c>)
    17aa:	b908      	cbnz	r0, 17b0 <__mriPlatform_EnteringDebugger+0x30>
    17ac:	685a      	ldr	r2, [r3, #4]
    17ae:	e001      	b.n	17b4 <__mriPlatform_EnteringDebugger+0x34>
    17b0:	f04f 32ff 	mov.w	r2, #4294967295	; 0xffffffff
    17b4:	f8c4 2258 	str.w	r2, [r4, #600]	; 0x258
    17b8:	689a      	ldr	r2, [r3, #8]
    17ba:	f8c4 225c 	str.w	r2, [r4, #604]	; 0x25c
    17be:	6818      	ldr	r0, [r3, #0]
    17c0:	f3c0 2007 	ubfx	r0, r0, #8, #8
    17c4:	3801      	subs	r0, #1
    17c6:	f7ff fd5f 	bl	1288 <prepareToAccessMPURegion>
    17ca:	f7ff fd51 	bl	1270 <isMPUNotPresent>
    17ce:	b918      	cbnz	r0, 17d8 <__mriPlatform_EnteringDebugger+0x58>
    17d0:	4b28      	ldr	r3, [pc, #160]	; (1874 <CFSR_STACK_ERROR_BITS+0x5c>)
    17d2:	68db      	ldr	r3, [r3, #12]
    17d4:	095b      	lsrs	r3, r3, #5
    17d6:	e000      	b.n	17da <__mriPlatform_EnteringDebugger+0x5a>
    17d8:	2300      	movs	r3, #0
    17da:	4c25      	ldr	r4, [pc, #148]	; (1870 <CFSR_STACK_ERROR_BITS+0x58>)
    17dc:	f8c4 3260 	str.w	r3, [r4, #608]	; 0x260
    17e0:	f7ff fd46 	bl	1270 <isMPUNotPresent>
    17e4:	b910      	cbnz	r0, 17ec <__mriPlatform_EnteringDebugger+0x6c>
    17e6:	4b23      	ldr	r3, [pc, #140]	; (1874 <CFSR_STACK_ERROR_BITS+0x5c>)
    17e8:	691b      	ldr	r3, [r3, #16]
    17ea:	e000      	b.n	17ee <__mriPlatform_EnteringDebugger+0x6e>
    17ec:	2300      	movs	r3, #0
    17ee:	f8c4 3264 	str.w	r3, [r4, #612]	; 0x264
    17f2:	f7ff fd3d 	bl	1270 <isMPUNotPresent>
    17f6:	4c1f      	ldr	r4, [pc, #124]	; (1874 <CFSR_STACK_ERROR_BITS+0x5c>)
    17f8:	b938      	cbnz	r0, 180a <__mriPlatform_EnteringDebugger+0x8a>
    17fa:	6863      	ldr	r3, [r4, #4]
    17fc:	f023 0301 	bic.w	r3, r3, #1
    1800:	6063      	str	r3, [r4, #4]
    1802:	f000 fdd0 	bl	23a6 <__mriDSB>
    1806:	f000 fdd1 	bl	23ac <__mriISB>
    180a:	6820      	ldr	r0, [r4, #0]
    180c:	f3c0 2007 	ubfx	r0, r0, #8, #8
    1810:	3801      	subs	r0, #1
    1812:	f7ff fd39 	bl	1288 <prepareToAccessMPURegion>
    1816:	f7ff fd2b 	bl	1270 <isMPUNotPresent>
    181a:	b908      	cbnz	r0, 1820 <CFSR_STACK_ERROR_BITS+0x8>
    181c:	4b15      	ldr	r3, [pc, #84]	; (1874 <CFSR_STACK_ERROR_BITS+0x5c>)
    181e:	60d8      	str	r0, [r3, #12]
    1820:	f7ff fd26 	bl	1270 <isMPUNotPresent>
    1824:	b910      	cbnz	r0, 182c <CFSR_STACK_ERROR_BITS+0x14>
    1826:	4a14      	ldr	r2, [pc, #80]	; (1878 <CFSR_STACK_ERROR_BITS+0x60>)
    1828:	4b12      	ldr	r3, [pc, #72]	; (1874 <CFSR_STACK_ERROR_BITS+0x5c>)
    182a:	611a      	str	r2, [r3, #16]
    182c:	f7ff fd20 	bl	1270 <isMPUNotPresent>
    1830:	b940      	cbnz	r0, 1844 <CFSR_STACK_ERROR_BITS+0x2c>
    1832:	4b10      	ldr	r3, [pc, #64]	; (1874 <CFSR_STACK_ERROR_BITS+0x5c>)
    1834:	685a      	ldr	r2, [r3, #4]
    1836:	f042 0203 	orr.w	r2, r2, #3
    183a:	605a      	str	r2, [r3, #4]
    183c:	f000 fdb3 	bl	23a6 <__mriDSB>
    1840:	f000 fdb4 	bl	23ac <__mriISB>
    1844:	4c0a      	ldr	r4, [pc, #40]	; (1870 <CFSR_STACK_ERROR_BITS+0x58>)
    1846:	f8d4 3200 	ldr.w	r3, [r4, #512]	; 0x200
    184a:	071a      	lsls	r2, r3, #28
    184c:	d50c      	bpl.n	1868 <CFSR_STACK_ERROR_BITS+0x50>
    184e:	f8d4 3200 	ldr.w	r3, [r4, #512]	; 0x200
    1852:	f8d4 0268 	ldr.w	r0, [r4, #616]	; 0x268
    1856:	f023 0308 	bic.w	r3, r3, #8
    185a:	f8c4 3200 	str.w	r3, [r4, #512]	; 0x200
    185e:	f000 fd9c 	bl	239a <__mriSetBASEPRI>
    1862:	2300      	movs	r3, #0
    1864:	f8c4 3268 	str.w	r3, [r4, #616]	; 0x268
    1868:	e8bd 4010 	ldmia.w	sp!, {r4, lr}
    186c:	f7ff be5a 	b.w	1524 <__mriPlatform_DisableSingleStep>
    1870:	10000728 	.word	0x10000728
    1874:	e000ed90 	.word	0xe000ed90
    1878:	0100003f 	.word	0x0100003f

0000187c <__mriPlatform_LeavingDebugger>:
    187c:	b538      	push	{r3, r4, r5, lr}
    187e:	f7ff fcf7 	bl	1270 <isMPUNotPresent>
    1882:	4c23      	ldr	r4, [pc, #140]	; (1910 <__mriPlatform_LeavingDebugger+0x94>)
    1884:	b938      	cbnz	r0, 1896 <__mriPlatform_LeavingDebugger+0x1a>
    1886:	6863      	ldr	r3, [r4, #4]
    1888:	f023 0301 	bic.w	r3, r3, #1
    188c:	6063      	str	r3, [r4, #4]
    188e:	f000 fd8a 	bl	23a6 <__mriDSB>
    1892:	f000 fd8b 	bl	23ac <__mriISB>
    1896:	6820      	ldr	r0, [r4, #0]
    1898:	4c1e      	ldr	r4, [pc, #120]	; (1914 <__mriPlatform_LeavingDebugger+0x98>)
    189a:	f3c0 2007 	ubfx	r0, r0, #8, #8
    189e:	3801      	subs	r0, #1
    18a0:	f7ff fcf2 	bl	1288 <prepareToAccessMPURegion>
    18a4:	f8d4 5260 	ldr.w	r5, [r4, #608]	; 0x260
    18a8:	f7ff fce2 	bl	1270 <isMPUNotPresent>
    18ac:	b910      	cbnz	r0, 18b4 <__mriPlatform_LeavingDebugger+0x38>
    18ae:	4b18      	ldr	r3, [pc, #96]	; (1910 <__mriPlatform_LeavingDebugger+0x94>)
    18b0:	016d      	lsls	r5, r5, #5
    18b2:	60dd      	str	r5, [r3, #12]
    18b4:	f8d4 4264 	ldr.w	r4, [r4, #612]	; 0x264
    18b8:	f7ff fcda 	bl	1270 <isMPUNotPresent>
    18bc:	b908      	cbnz	r0, 18c2 <__mriPlatform_LeavingDebugger+0x46>
    18be:	4b14      	ldr	r3, [pc, #80]	; (1910 <__mriPlatform_LeavingDebugger+0x94>)
    18c0:	611c      	str	r4, [r3, #16]
    18c2:	4c14      	ldr	r4, [pc, #80]	; (1914 <__mriPlatform_LeavingDebugger+0x98>)
    18c4:	f8d4 025c 	ldr.w	r0, [r4, #604]	; 0x25c
    18c8:	f7ff fcde 	bl	1288 <prepareToAccessMPURegion>
    18cc:	f8d4 4258 	ldr.w	r4, [r4, #600]	; 0x258
    18d0:	f7ff fcce 	bl	1270 <isMPUNotPresent>
    18d4:	b928      	cbnz	r0, 18e2 <__mriPlatform_LeavingDebugger+0x66>
    18d6:	4b0e      	ldr	r3, [pc, #56]	; (1910 <__mriPlatform_LeavingDebugger+0x94>)
    18d8:	605c      	str	r4, [r3, #4]
    18da:	f000 fd64 	bl	23a6 <__mriDSB>
    18de:	f000 fd65 	bl	23ac <__mriISB>
    18e2:	4b0c      	ldr	r3, [pc, #48]	; (1914 <__mriPlatform_LeavingDebugger+0x98>)
    18e4:	480c      	ldr	r0, [pc, #48]	; (1918 <__mriPlatform_LeavingDebugger+0x9c>)
    18e6:	f503 7100 	add.w	r1, r3, #512	; 0x200
    18ea:	e002      	b.n	18f2 <__mriPlatform_LeavingDebugger+0x76>
    18ec:	428b      	cmp	r3, r1
    18ee:	461a      	mov	r2, r3
    18f0:	d204      	bcs.n	18fc <__mriPlatform_LeavingDebugger+0x80>
    18f2:	461a      	mov	r2, r3
    18f4:	6814      	ldr	r4, [r2, #0]
    18f6:	3304      	adds	r3, #4
    18f8:	4284      	cmp	r4, r0
    18fa:	d0f7      	beq.n	18ec <__mriPlatform_LeavingDebugger+0x70>
    18fc:	4b07      	ldr	r3, [pc, #28]	; (191c <__mriPlatform_LeavingDebugger+0xa0>)
    18fe:	6ed9      	ldr	r1, [r3, #108]	; 0x6c
    1900:	1a9a      	subs	r2, r3, r2
    1902:	428a      	cmp	r2, r1
    1904:	f5a3 7300 	sub.w	r3, r3, #512	; 0x200
    1908:	bfc8      	it	gt
    190a:	f8c3 226c 	strgt.w	r2, [r3, #620]	; 0x26c
    190e:	bd38      	pop	{r3, r4, r5, pc}
    1910:	e000ed90 	.word	0xe000ed90
    1914:	10000728 	.word	0x10000728
    1918:	deadbeef 	.word	0xdeadbeef
    191c:	10000928 	.word	0x10000928

00001920 <__mriPlatform_GetProgramCounter>:
    1920:	4b01      	ldr	r3, [pc, #4]	; (1928 <__mriPlatform_GetProgramCounter+0x8>)
    1922:	f8d3 0248 	ldr.w	r0, [r3, #584]	; 0x248
    1926:	4770      	bx	lr
    1928:	10000728 	.word	0x10000728

0000192c <__mriPlatform_SetProgramCounter>:
    192c:	4b01      	ldr	r3, [pc, #4]	; (1934 <__mriPlatform_SetProgramCounter+0x8>)
    192e:	f8c3 0248 	str.w	r0, [r3, #584]	; 0x248
    1932:	4770      	bx	lr
    1934:	10000728 	.word	0x10000728

00001938 <__mriPlatform_AdvanceProgramCounterToNextInstruction>:
    1938:	4b0b      	ldr	r3, [pc, #44]	; (1968 <__mriPlatform_AdvanceProgramCounterToNextInstruction+0x30>)
    193a:	f8d3 2248 	ldr.w	r2, [r3, #584]	; 0x248
    193e:	4618      	mov	r0, r3
    1940:	8811      	ldrh	r1, [r2, #0]
    1942:	f401 4178 	and.w	r1, r1, #63488	; 0xf800
    1946:	f5b1 4f68 	cmp.w	r1, #59392	; 0xe800
    194a:	d005      	beq.n	1958 <__mriPlatform_AdvanceProgramCounterToNextInstruction+0x20>
    194c:	f5b1 4f70 	cmp.w	r1, #61440	; 0xf000
    1950:	d002      	beq.n	1958 <__mriPlatform_AdvanceProgramCounterToNextInstruction+0x20>
    1952:	f5b1 4f78 	cmp.w	r1, #63488	; 0xf800
    1956:	d103      	bne.n	1960 <__mriPlatform_AdvanceProgramCounterToNextInstruction+0x28>
    1958:	3204      	adds	r2, #4
    195a:	f8c0 2248 	str.w	r2, [r0, #584]	; 0x248
    195e:	4770      	bx	lr
    1960:	3202      	adds	r2, #2
    1962:	f8c3 2248 	str.w	r2, [r3, #584]	; 0x248
    1966:	4770      	bx	lr
    1968:	10000728 	.word	0x10000728

0000196c <__mriPlatform_IsCurrentInstructionHardcodedBreakpoint>:
    196c:	4b04      	ldr	r3, [pc, #16]	; (1980 <__mriPlatform_IsCurrentInstructionHardcodedBreakpoint+0x14>)
    196e:	f8d3 3248 	ldr.w	r3, [r3, #584]	; 0x248
    1972:	8818      	ldrh	r0, [r3, #0]
    1974:	f5a0 413e 	sub.w	r1, r0, #48640	; 0xbe00
    1978:	4248      	negs	r0, r1
    197a:	eb40 0001 	adc.w	r0, r0, r1
    197e:	4770      	bx	lr
    1980:	10000728 	.word	0x10000728

00001984 <__mriPlatform_WasProgramCounterModifiedByUser>:
    1984:	4b04      	ldr	r3, [pc, #16]	; (1998 <__mriPlatform_WasProgramCounterModifiedByUser+0x14>)
    1986:	f8d3 0248 	ldr.w	r0, [r3, #584]	; 0x248
    198a:	f8d3 3250 	ldr.w	r3, [r3, #592]	; 0x250
    198e:	1ac0      	subs	r0, r0, r3
    1990:	bf18      	it	ne
    1992:	2001      	movne	r0, #1
    1994:	4770      	bx	lr
    1996:	bf00      	nop
    1998:	10000728 	.word	0x10000728

0000199c <__mriPlatform_TypeOfCurrentInstruction>:
    199c:	4b08      	ldr	r3, [pc, #32]	; (19c0 <__mriPlatform_TypeOfCurrentInstruction+0x24>)
    199e:	f64b 62ab 	movw	r2, #48811	; 0xbeab
    19a2:	f8d3 3248 	ldr.w	r3, [r3, #584]	; 0x248
    19a6:	881b      	ldrh	r3, [r3, #0]
    19a8:	4293      	cmp	r3, r2
    19aa:	d006      	beq.n	19ba <__mriPlatform_TypeOfCurrentInstruction+0x1e>
    19ac:	f64b 60ff 	movw	r0, #48895	; 0xbeff
    19b0:	4283      	cmp	r3, r0
    19b2:	bf0c      	ite	eq
    19b4:	2002      	moveq	r0, #2
    19b6:	2000      	movne	r0, #0
    19b8:	4770      	bx	lr
    19ba:	2001      	movs	r0, #1
    19bc:	4770      	bx	lr
    19be:	bf00      	nop
    19c0:	10000728 	.word	0x10000728

000019c4 <__mriPlatform_GetSemihostCallParameters>:
    19c4:	4b07      	ldr	r3, [pc, #28]	; (19e4 <__mriPlatform_GetSemihostCallParameters+0x20>)
    19c6:	b510      	push	{r4, lr}
    19c8:	f8d3 1214 	ldr.w	r1, [r3, #532]	; 0x214
    19cc:	f8d3 4210 	ldr.w	r4, [r3, #528]	; 0x210
    19d0:	f8d3 2218 	ldr.w	r2, [r3, #536]	; 0x218
    19d4:	f8d3 320c 	ldr.w	r3, [r3, #524]	; 0x20c
    19d8:	6081      	str	r1, [r0, #8]
    19da:	e880 0018 	stmia.w	r0, {r3, r4}
    19de:	60c2      	str	r2, [r0, #12]
    19e0:	bd10      	pop	{r4, pc}
    19e2:	bf00      	nop
    19e4:	10000728 	.word	0x10000728

000019e8 <__mriPlatform_SetSemihostCallReturnValue>:
    19e8:	4b01      	ldr	r3, [pc, #4]	; (19f0 <__mriPlatform_SetSemihostCallReturnValue+0x8>)
    19ea:	f8c3 020c 	str.w	r0, [r3, #524]	; 0x20c
    19ee:	4770      	bx	lr
    19f0:	10000728 	.word	0x10000728

000019f4 <__mriPlatform_WasMemoryFaultEncountered>:
    19f4:	b508      	push	{r3, lr}
    19f6:	f000 fcd6 	bl	23a6 <__mriDSB>
    19fa:	4b06      	ldr	r3, [pc, #24]	; (1a14 <__mriPlatform_WasMemoryFaultEncountered+0x20>)
    19fc:	f8d3 0200 	ldr.w	r0, [r3, #512]	; 0x200
    1a00:	f8d3 2200 	ldr.w	r2, [r3, #512]	; 0x200
    1a04:	f000 0002 	and.w	r0, r0, #2
    1a08:	f022 0202 	bic.w	r2, r2, #2
    1a0c:	f8c3 2200 	str.w	r2, [r3, #512]	; 0x200
    1a10:	bd08      	pop	{r3, pc}
    1a12:	bf00      	nop
    1a14:	10000728 	.word	0x10000728

00001a18 <__mriPlatform_WriteTResponseRegistersToBuffer>:
    1a18:	b538      	push	{r3, r4, r5, lr}
    1a1a:	4c0d      	ldr	r4, [pc, #52]	; (1a50 <__mriPlatform_WriteTResponseRegistersToBuffer+0x38>)
    1a1c:	4605      	mov	r5, r0
    1a1e:	210c      	movs	r1, #12
    1a20:	f8d4 223c 	ldr.w	r2, [r4, #572]	; 0x23c
    1a24:	f7ff fc3e 	bl	12a4 <sendRegisterForTResponse>
    1a28:	4628      	mov	r0, r5
    1a2a:	210d      	movs	r1, #13
    1a2c:	f8d4 2240 	ldr.w	r2, [r4, #576]	; 0x240
    1a30:	f7ff fc38 	bl	12a4 <sendRegisterForTResponse>
    1a34:	4628      	mov	r0, r5
    1a36:	210e      	movs	r1, #14
    1a38:	f8d4 2244 	ldr.w	r2, [r4, #580]	; 0x244
    1a3c:	f7ff fc32 	bl	12a4 <sendRegisterForTResponse>
    1a40:	f8d4 2248 	ldr.w	r2, [r4, #584]	; 0x248
    1a44:	4628      	mov	r0, r5
    1a46:	210f      	movs	r1, #15
    1a48:	e8bd 4038 	ldmia.w	sp!, {r3, r4, r5, lr}
    1a4c:	f7ff bc2a 	b.w	12a4 <sendRegisterForTResponse>
    1a50:	10000728 	.word	0x10000728

00001a54 <__mriPlatform_CopyContextToBuffer>:
    1a54:	b570      	push	{r4, r5, r6, lr}
    1a56:	4d06      	ldr	r5, [pc, #24]	; (1a70 <__mriPlatform_CopyContextToBuffer+0x1c>)
    1a58:	4606      	mov	r6, r0
    1a5a:	f1a5 0444 	sub.w	r4, r5, #68	; 0x44
    1a5e:	f814 1b01 	ldrb.w	r1, [r4], #1
    1a62:	4630      	mov	r0, r6
    1a64:	f000 fdf4 	bl	2650 <__mriBuffer_WriteByteAsHex>
    1a68:	42ac      	cmp	r4, r5
    1a6a:	d1f8      	bne.n	1a5e <__mriPlatform_CopyContextToBuffer+0xa>
    1a6c:	bd70      	pop	{r4, r5, r6, pc}
    1a6e:	bf00      	nop
    1a70:	10000978 	.word	0x10000978

00001a74 <__mriPlatform_CopyContextFromBuffer>:
    1a74:	b570      	push	{r4, r5, r6, lr}
    1a76:	4d0b      	ldr	r5, [pc, #44]	; (1aa4 <__mriPlatform_CopyContextFromBuffer+0x30>)
    1a78:	4606      	mov	r6, r0
    1a7a:	f1a5 0444 	sub.w	r4, r5, #68	; 0x44
    1a7e:	4630      	mov	r0, r6
    1a80:	f000 fe02 	bl	2688 <__mriBuffer_ReadByteAsHex>
    1a84:	f804 0b01 	strb.w	r0, [r4], #1
    1a88:	42ac      	cmp	r4, r5
    1a8a:	d1f8      	bne.n	1a7e <__mriPlatform_CopyContextFromBuffer+0xa>
    1a8c:	4b06      	ldr	r3, [pc, #24]	; (1aa8 <__mriPlatform_CopyContextFromBuffer+0x34>)
    1a8e:	f8d3 224c 	ldr.w	r2, [r3, #588]	; 0x24c
    1a92:	f8d3 1254 	ldr.w	r1, [r3, #596]	; 0x254
    1a96:	f422 7200 	bic.w	r2, r2, #512	; 0x200
    1a9a:	430a      	orrs	r2, r1
    1a9c:	f8c3 224c 	str.w	r2, [r3, #588]	; 0x24c
    1aa0:	bd70      	pop	{r4, r5, r6, pc}
    1aa2:	bf00      	nop
    1aa4:	10000978 	.word	0x10000978
    1aa8:	10000728 	.word	0x10000728

00001aac <__mriPlatform_SetHardwareBreakpoint>:
    1aac:	4b19      	ldr	r3, [pc, #100]	; (1b14 <__mriPlatform_SetHardwareBreakpoint+0x68>)
    1aae:	b570      	push	{r4, r5, r6, lr}
    1ab0:	2400      	movs	r4, #0
    1ab2:	2902      	cmp	r1, #2
    1ab4:	4606      	mov	r6, r0
    1ab6:	601c      	str	r4, [r3, #0]
    1ab8:	d008      	beq.n	1acc <__mriPlatform_SetHardwareBreakpoint+0x20>
    1aba:	d301      	bcc.n	1ac0 <__mriPlatform_SetHardwareBreakpoint+0x14>
    1abc:	2904      	cmp	r1, #4
    1abe:	d904      	bls.n	1aca <__mriPlatform_SetHardwareBreakpoint+0x1e>
    1ac0:	2204      	movs	r2, #4
    1ac2:	601a      	str	r2, [r3, #0]
    1ac4:	f04f 34ff 	mov.w	r4, #4294967295	; 0xffffffff
    1ac8:	e000      	b.n	1acc <__mriPlatform_SetHardwareBreakpoint+0x20>
    1aca:	2401      	movs	r4, #1
    1acc:	681b      	ldr	r3, [r3, #0]
    1ace:	bb03      	cbnz	r3, 1b12 <__mriPlatform_SetHardwareBreakpoint+0x66>
    1ad0:	4630      	mov	r0, r6
    1ad2:	4621      	mov	r1, r4
    1ad4:	f7ff fd0c 	bl	14f0 <findFPBBreakpointComparator>
    1ad8:	4605      	mov	r5, r0
    1ada:	b9d0      	cbnz	r0, 1b12 <__mriPlatform_SetHardwareBreakpoint+0x66>
    1adc:	f7ff fbbc 	bl	1258 <getFPBCodeComparatorCount>
    1ae0:	4a0d      	ldr	r2, [pc, #52]	; (1b18 <__mriPlatform_SetHardwareBreakpoint+0x6c>)
    1ae2:	462b      	mov	r3, r5
    1ae4:	e004      	b.n	1af0 <__mriPlatform_SetHardwareBreakpoint+0x44>
    1ae6:	f852 1b04 	ldr.w	r1, [r2], #4
    1aea:	07c9      	lsls	r1, r1, #31
    1aec:	d504      	bpl.n	1af8 <__mriPlatform_SetHardwareBreakpoint+0x4c>
    1aee:	3301      	adds	r3, #1
    1af0:	4283      	cmp	r3, r0
    1af2:	4615      	mov	r5, r2
    1af4:	d1f7      	bne.n	1ae6 <__mriPlatform_SetHardwareBreakpoint+0x3a>
    1af6:	e006      	b.n	1b06 <__mriPlatform_SetHardwareBreakpoint+0x5a>
    1af8:	b12d      	cbz	r5, 1b06 <__mriPlatform_SetHardwareBreakpoint+0x5a>
    1afa:	4630      	mov	r0, r6
    1afc:	4621      	mov	r1, r4
    1afe:	f7ff fcd7 	bl	14b0 <calculateFPBComparatorValue>
    1b02:	6028      	str	r0, [r5, #0]
    1b04:	bd70      	pop	{r4, r5, r6, pc}
    1b06:	4b03      	ldr	r3, [pc, #12]	; (1b14 <__mriPlatform_SetHardwareBreakpoint+0x68>)
    1b08:	681a      	ldr	r2, [r3, #0]
    1b0a:	2a08      	cmp	r2, #8
    1b0c:	bfb8      	it	lt
    1b0e:	2208      	movlt	r2, #8
    1b10:	601a      	str	r2, [r3, #0]
    1b12:	bd70      	pop	{r4, r5, r6, pc}
    1b14:	10000724 	.word	0x10000724
    1b18:	e0002008 	.word	0xe0002008

00001b1c <__mriPlatform_ClearHardwareBreakpoint>:
    1b1c:	4b0c      	ldr	r3, [pc, #48]	; (1b50 <__mriPlatform_ClearHardwareBreakpoint+0x34>)
    1b1e:	2200      	movs	r2, #0
    1b20:	2902      	cmp	r1, #2
    1b22:	b510      	push	{r4, lr}
    1b24:	601a      	str	r2, [r3, #0]
    1b26:	d003      	beq.n	1b30 <__mriPlatform_ClearHardwareBreakpoint+0x14>
    1b28:	d304      	bcc.n	1b34 <__mriPlatform_ClearHardwareBreakpoint+0x18>
    1b2a:	2904      	cmp	r1, #4
    1b2c:	d802      	bhi.n	1b34 <__mriPlatform_ClearHardwareBreakpoint+0x18>
    1b2e:	e006      	b.n	1b3e <__mriPlatform_ClearHardwareBreakpoint+0x22>
    1b30:	4611      	mov	r1, r2
    1b32:	e005      	b.n	1b40 <__mriPlatform_ClearHardwareBreakpoint+0x24>
    1b34:	2204      	movs	r2, #4
    1b36:	601a      	str	r2, [r3, #0]
    1b38:	f04f 31ff 	mov.w	r1, #4294967295	; 0xffffffff
    1b3c:	e000      	b.n	1b40 <__mriPlatform_ClearHardwareBreakpoint+0x24>
    1b3e:	2101      	movs	r1, #1
    1b40:	681c      	ldr	r4, [r3, #0]
    1b42:	b91c      	cbnz	r4, 1b4c <__mriPlatform_ClearHardwareBreakpoint+0x30>
    1b44:	f7ff fcd4 	bl	14f0 <findFPBBreakpointComparator>
    1b48:	b100      	cbz	r0, 1b4c <__mriPlatform_ClearHardwareBreakpoint+0x30>
    1b4a:	6004      	str	r4, [r0, #0]
    1b4c:	bd10      	pop	{r4, pc}
    1b4e:	bf00      	nop
    1b50:	10000724 	.word	0x10000724

00001b54 <__mriPlatform_SetHardwareWatchpoint>:
    1b54:	2a02      	cmp	r2, #2
    1b56:	bf98      	it	ls
    1b58:	4b1e      	ldrls	r3, [pc, #120]	; (1bd4 <__mriPlatform_SetHardwareWatchpoint+0x80>)
    1b5a:	b570      	push	{r4, r5, r6, lr}
    1b5c:	bf94      	ite	ls
    1b5e:	5c9d      	ldrbls	r5, [r3, r2]
    1b60:	2500      	movhi	r5, #0
    1b62:	1e4b      	subs	r3, r1, #1
    1b64:	420b      	tst	r3, r1
    1b66:	4606      	mov	r6, r0
    1b68:	460c      	mov	r4, r1
    1b6a:	d124      	bne.n	1bb6 <__mriPlatform_SetHardwareWatchpoint+0x62>
    1b6c:	424b      	negs	r3, r1
    1b6e:	4003      	ands	r3, r0
    1b70:	4298      	cmp	r0, r3
    1b72:	d120      	bne.n	1bb6 <__mriPlatform_SetHardwareWatchpoint+0x62>
    1b74:	1f6b      	subs	r3, r5, #5
    1b76:	2b02      	cmp	r3, #2
    1b78:	d81d      	bhi.n	1bb6 <__mriPlatform_SetHardwareWatchpoint+0x62>
    1b7a:	462a      	mov	r2, r5
    1b7c:	f7ff fb44 	bl	1208 <findDWTComparator>
    1b80:	2800      	cmp	r0, #0
    1b82:	d125      	bne.n	1bd0 <__mriPlatform_SetHardwareWatchpoint+0x7c>
    1b84:	4b14      	ldr	r3, [pc, #80]	; (1bd8 <__mriPlatform_SetHardwareWatchpoint+0x84>)
    1b86:	6819      	ldr	r1, [r3, #0]
    1b88:	3320      	adds	r3, #32
    1b8a:	0f09      	lsrs	r1, r1, #28
    1b8c:	e005      	b.n	1b9a <__mriPlatform_SetHardwareWatchpoint+0x46>
    1b8e:	689a      	ldr	r2, [r3, #8]
    1b90:	f012 020f 	ands.w	r2, r2, #15
    1b94:	d006      	beq.n	1ba4 <__mriPlatform_SetHardwareWatchpoint+0x50>
    1b96:	3310      	adds	r3, #16
    1b98:	3001      	adds	r0, #1
    1b9a:	4288      	cmp	r0, r1
    1b9c:	d1f7      	bne.n	1b8e <__mriPlatform_SetHardwareWatchpoint+0x3a>
    1b9e:	e011      	b.n	1bc4 <__mriPlatform_SetHardwareWatchpoint+0x70>
    1ba0:	0864      	lsrs	r4, r4, #1
    1ba2:	3201      	adds	r2, #1
    1ba4:	2c01      	cmp	r4, #1
    1ba6:	d8fb      	bhi.n	1ba0 <__mriPlatform_SetHardwareWatchpoint+0x4c>
    1ba8:	605a      	str	r2, [r3, #4]
    1baa:	6859      	ldr	r1, [r3, #4]
    1bac:	4291      	cmp	r1, r2
    1bae:	d109      	bne.n	1bc4 <__mriPlatform_SetHardwareWatchpoint+0x70>
    1bb0:	601e      	str	r6, [r3, #0]
    1bb2:	609d      	str	r5, [r3, #8]
    1bb4:	bd70      	pop	{r4, r5, r6, pc}
    1bb6:	4b09      	ldr	r3, [pc, #36]	; (1bdc <__mriPlatform_SetHardwareWatchpoint+0x88>)
    1bb8:	681a      	ldr	r2, [r3, #0]
    1bba:	2a04      	cmp	r2, #4
    1bbc:	bfb8      	it	lt
    1bbe:	2204      	movlt	r2, #4
    1bc0:	601a      	str	r2, [r3, #0]
    1bc2:	bd70      	pop	{r4, r5, r6, pc}
    1bc4:	4b05      	ldr	r3, [pc, #20]	; (1bdc <__mriPlatform_SetHardwareWatchpoint+0x88>)
    1bc6:	681a      	ldr	r2, [r3, #0]
    1bc8:	2a08      	cmp	r2, #8
    1bca:	bfb8      	it	lt
    1bcc:	2208      	movlt	r2, #8
    1bce:	601a      	str	r2, [r3, #0]
    1bd0:	bd70      	pop	{r4, r5, r6, pc}
    1bd2:	bf00      	nop
    1bd4:	0000ba38 	.word	0x0000ba38
    1bd8:	e0001000 	.word	0xe0001000
    1bdc:	10000724 	.word	0x10000724

00001be0 <__mriPlatform_ClearHardwareWatchpoint>:
    1be0:	2a02      	cmp	r2, #2
    1be2:	bf98      	it	ls
    1be4:	4b10      	ldrls	r3, [pc, #64]	; (1c28 <__mriPlatform_ClearHardwareWatchpoint+0x48>)
    1be6:	b510      	push	{r4, lr}
    1be8:	bf94      	ite	ls
    1bea:	5c9a      	ldrbls	r2, [r3, r2]
    1bec:	2200      	movhi	r2, #0
    1bee:	1e4c      	subs	r4, r1, #1
    1bf0:	400c      	ands	r4, r1
    1bf2:	d112      	bne.n	1c1a <__mriPlatform_ClearHardwareWatchpoint+0x3a>
    1bf4:	424b      	negs	r3, r1
    1bf6:	4003      	ands	r3, r0
    1bf8:	4298      	cmp	r0, r3
    1bfa:	d10e      	bne.n	1c1a <__mriPlatform_ClearHardwareWatchpoint+0x3a>
    1bfc:	1f53      	subs	r3, r2, #5
    1bfe:	2b02      	cmp	r3, #2
    1c00:	d80b      	bhi.n	1c1a <__mriPlatform_ClearHardwareWatchpoint+0x3a>
    1c02:	f7ff fb01 	bl	1208 <findDWTComparator>
    1c06:	b170      	cbz	r0, 1c26 <__mriPlatform_ClearHardwareWatchpoint+0x46>
    1c08:	6004      	str	r4, [r0, #0]
    1c0a:	6044      	str	r4, [r0, #4]
    1c0c:	6883      	ldr	r3, [r0, #8]
    1c0e:	f423 73d6 	bic.w	r3, r3, #428	; 0x1ac
    1c12:	f023 0303 	bic.w	r3, r3, #3
    1c16:	6083      	str	r3, [r0, #8]
    1c18:	bd10      	pop	{r4, pc}
    1c1a:	4b04      	ldr	r3, [pc, #16]	; (1c2c <__mriPlatform_ClearHardwareWatchpoint+0x4c>)
    1c1c:	681a      	ldr	r2, [r3, #0]
    1c1e:	2a04      	cmp	r2, #4
    1c20:	bfb8      	it	lt
    1c22:	2204      	movlt	r2, #4
    1c24:	601a      	str	r2, [r3, #0]
    1c26:	bd10      	pop	{r4, pc}
    1c28:	0000ba38 	.word	0x0000ba38
    1c2c:	10000724 	.word	0x10000724

00001c30 <__mriPlatform_GetTargetXmlSize>:
    1c30:	f240 20b9 	movw	r0, #697	; 0x2b9
    1c34:	4770      	bx	lr
	...

00001c38 <__mriPlatform_GetTargetXml>:
    1c38:	4800      	ldr	r0, [pc, #0]	; (1c3c <__mriPlatform_GetTargetXml+0x4>)
    1c3a:	4770      	bx	lr
    1c3c:	0000b53b 	.word	0x0000b53b

00001c40 <__mriPlatform_CommUartIndex>:
    1c40:	4b03      	ldr	r3, [pc, #12]	; (1c50 <__mriPlatform_CommUartIndex+0x10>)
    1c42:	6818      	ldr	r0, [r3, #0]
    1c44:	4b03      	ldr	r3, [pc, #12]	; (1c54 <__mriPlatform_CommUartIndex+0x14>)
    1c46:	1ac0      	subs	r0, r0, r3
    1c48:	4b03      	ldr	r3, [pc, #12]	; (1c58 <__mriPlatform_CommUartIndex+0x18>)
    1c4a:	1080      	asrs	r0, r0, #2
    1c4c:	4358      	muls	r0, r3
    1c4e:	4770      	bx	lr
    1c50:	10000a28 	.word	0x10000a28
    1c54:	100000cc 	.word	0x100000cc
    1c58:	38e38e39 	.word	0x38e38e39

00001c5c <__mriPlatform_CommHasReceiveData>:
    1c5c:	4b03      	ldr	r3, [pc, #12]	; (1c6c <__mriPlatform_CommHasReceiveData+0x10>)
    1c5e:	681b      	ldr	r3, [r3, #0]
    1c60:	68db      	ldr	r3, [r3, #12]
    1c62:	7d18      	ldrb	r0, [r3, #20]
    1c64:	f000 0001 	and.w	r0, r0, #1
    1c68:	4770      	bx	lr
    1c6a:	bf00      	nop
    1c6c:	10000a28 	.word	0x10000a28

00001c70 <__mriPlatform_CommReceiveChar>:
    1c70:	b508      	push	{r3, lr}
    1c72:	f7ff fff3 	bl	1c5c <__mriPlatform_CommHasReceiveData>
    1c76:	2800      	cmp	r0, #0
    1c78:	d0fb      	beq.n	1c72 <__mriPlatform_CommReceiveChar+0x2>
    1c7a:	4b02      	ldr	r3, [pc, #8]	; (1c84 <__mriPlatform_CommReceiveChar+0x14>)
    1c7c:	681b      	ldr	r3, [r3, #0]
    1c7e:	68db      	ldr	r3, [r3, #12]
    1c80:	7818      	ldrb	r0, [r3, #0]
    1c82:	bd08      	pop	{r3, pc}
    1c84:	10000a28 	.word	0x10000a28

00001c88 <__mriPlatform_CommSendChar>:
    1c88:	4b04      	ldr	r3, [pc, #16]	; (1c9c <__mriPlatform_CommSendChar+0x14>)
    1c8a:	681b      	ldr	r3, [r3, #0]
    1c8c:	68db      	ldr	r3, [r3, #12]
    1c8e:	7d1a      	ldrb	r2, [r3, #20]
    1c90:	0692      	lsls	r2, r2, #26
    1c92:	d5fc      	bpl.n	1c8e <__mriPlatform_CommSendChar+0x6>
    1c94:	b2c0      	uxtb	r0, r0
    1c96:	7018      	strb	r0, [r3, #0]
    1c98:	4770      	bx	lr
    1c9a:	bf00      	nop
    1c9c:	10000a28 	.word	0x10000a28

00001ca0 <__mriPlatform_CommCausedInterrupt>:
    1ca0:	b510      	push	{r4, lr}
    1ca2:	f000 fb77 	bl	2394 <__mriGetIPSR>
    1ca6:	4604      	mov	r4, r0
    1ca8:	f7ff ffca 	bl	1c40 <__mriPlatform_CommUartIndex>
    1cac:	b2e4      	uxtb	r4, r4
    1cae:	3015      	adds	r0, #21
    1cb0:	1a21      	subs	r1, r4, r0
    1cb2:	4248      	negs	r0, r1
    1cb4:	eb40 0001 	adc.w	r0, r0, r1
    1cb8:	bd10      	pop	{r4, pc}
	...

00001cbc <__mriPlatform_CommClearInterrupt>:
    1cbc:	4b02      	ldr	r3, [pc, #8]	; (1cc8 <__mriPlatform_CommClearInterrupt+0xc>)
    1cbe:	681b      	ldr	r3, [r3, #0]
    1cc0:	68db      	ldr	r3, [r3, #12]
    1cc2:	689b      	ldr	r3, [r3, #8]
    1cc4:	4770      	bx	lr
    1cc6:	bf00      	nop
    1cc8:	10000a28 	.word	0x10000a28

00001ccc <__mriPlatform_CommSharingWithApplication>:
    1ccc:	4b02      	ldr	r3, [pc, #8]	; (1cd8 <__mriPlatform_CommSharingWithApplication+0xc>)
    1cce:	6858      	ldr	r0, [r3, #4]
    1cd0:	f000 0001 	and.w	r0, r0, #1
    1cd4:	4770      	bx	lr
    1cd6:	bf00      	nop
    1cd8:	10000a28 	.word	0x10000a28

00001cdc <__mriPlatform_CommShouldWaitForGdbConnect>:
    1cdc:	4b04      	ldr	r3, [pc, #16]	; (1cf0 <__mriPlatform_CommShouldWaitForGdbConnect+0x14>)
    1cde:	6858      	ldr	r0, [r3, #4]
    1ce0:	0783      	lsls	r3, r0, #30
    1ce2:	bf5a      	itte	pl
    1ce4:	f000 0001 	andpl.w	r0, r0, #1
    1ce8:	f080 0001 	eorpl.w	r0, r0, #1
    1cec:	2000      	movmi	r0, #0
    1cee:	4770      	bx	lr
    1cf0:	10000a28 	.word	0x10000a28

00001cf4 <__mriPlatform_CommIsWaitingForGdbToConnect>:
    1cf4:	b508      	push	{r3, lr}
    1cf6:	f7ff fff1 	bl	1cdc <__mriPlatform_CommShouldWaitForGdbConnect>
    1cfa:	b128      	cbz	r0, 1d08 <__mriPlatform_CommIsWaitingForGdbToConnect+0x14>
    1cfc:	4b03      	ldr	r3, [pc, #12]	; (1d0c <__mriPlatform_CommIsWaitingForGdbToConnect+0x18>)
    1cfe:	681b      	ldr	r3, [r3, #0]
    1d00:	68db      	ldr	r3, [r3, #12]
    1d02:	6a18      	ldr	r0, [r3, #32]
    1d04:	f000 0001 	and.w	r0, r0, #1
    1d08:	bd08      	pop	{r3, pc}
    1d0a:	bf00      	nop
    1d0c:	10000a28 	.word	0x10000a28

00001d10 <__mriPlatform_CommPrepareToWaitForGdbConnection>:
    1d10:	b508      	push	{r3, lr}
    1d12:	f7ff ffe3 	bl	1cdc <__mriPlatform_CommShouldWaitForGdbConnect>
    1d16:	b120      	cbz	r0, 1d22 <__mriPlatform_CommPrepareToWaitForGdbConnection+0x12>
    1d18:	4b02      	ldr	r3, [pc, #8]	; (1d24 <__mriPlatform_CommPrepareToWaitForGdbConnection+0x14>)
    1d1a:	2207      	movs	r2, #7
    1d1c:	681b      	ldr	r3, [r3, #0]
    1d1e:	68db      	ldr	r3, [r3, #12]
    1d20:	621a      	str	r2, [r3, #32]
    1d22:	bd08      	pop	{r3, pc}
    1d24:	10000a28 	.word	0x10000a28

00001d28 <__mriLpc176xUart_Init>:
    1d28:	e92d 4ff0 	stmdb	sp!, {r4, r5, r6, r7, r8, r9, r10, r11, lr}
    1d2c:	b087      	sub	sp, #28
    1d2e:	4604      	mov	r4, r0
    1d30:	2100      	movs	r1, #0
    1d32:	220c      	movs	r2, #12
    1d34:	a803      	add	r0, sp, #12
    1d36:	f004 fdb6 	bl	68a6 <memset>
    1d3a:	4997      	ldr	r1, [pc, #604]	; (1f98 <__mriLpc176xUart_Init+0x270>)
    1d3c:	4620      	mov	r0, r4
    1d3e:	f7ff fa1f 	bl	1180 <__mriToken_MatchingString>
    1d42:	4620      	mov	r0, r4
    1d44:	4995      	ldr	r1, [pc, #596]	; (1f9c <__mriLpc176xUart_Init+0x274>)
    1d46:	f7ff fa1b 	bl	1180 <__mriToken_MatchingString>
    1d4a:	b108      	cbz	r0, 1d50 <__mriLpc176xUart_Init+0x28>
    1d4c:	2303      	movs	r3, #3
    1d4e:	9304      	str	r3, [sp, #16]
    1d50:	4620      	mov	r0, r4
    1d52:	4993      	ldr	r1, [pc, #588]	; (1fa0 <__mriLpc176xUart_Init+0x278>)
    1d54:	f7ff fa14 	bl	1180 <__mriToken_MatchingString>
    1d58:	b108      	cbz	r0, 1d5e <__mriLpc176xUart_Init+0x36>
    1d5a:	2301      	movs	r3, #1
    1d5c:	9304      	str	r3, [sp, #16]
    1d5e:	4620      	mov	r0, r4
    1d60:	4990      	ldr	r1, [pc, #576]	; (1fa4 <__mriLpc176xUart_Init+0x27c>)
    1d62:	f7ff fa0d 	bl	1180 <__mriToken_MatchingString>
    1d66:	b108      	cbz	r0, 1d6c <__mriLpc176xUart_Init+0x44>
    1d68:	2302      	movs	r3, #2
    1d6a:	9304      	str	r3, [sp, #16]
    1d6c:	4620      	mov	r0, r4
    1d6e:	498e      	ldr	r1, [pc, #568]	; (1fa8 <__mriLpc176xUart_Init+0x280>)
    1d70:	f7ff fa06 	bl	1180 <__mriToken_MatchingString>
    1d74:	b108      	cbz	r0, 1d7a <__mriLpc176xUart_Init+0x52>
    1d76:	2300      	movs	r3, #0
    1d78:	9304      	str	r3, [sp, #16]
    1d7a:	4620      	mov	r0, r4
    1d7c:	498b      	ldr	r1, [pc, #556]	; (1fac <__mriLpc176xUart_Init+0x284>)
    1d7e:	f7ff f9ff 	bl	1180 <__mriToken_MatchingString>
    1d82:	b108      	cbz	r0, 1d88 <__mriLpc176xUart_Init+0x60>
    1d84:	2301      	movs	r3, #1
    1d86:	9304      	str	r3, [sp, #16]
    1d88:	4620      	mov	r0, r4
    1d8a:	4989      	ldr	r1, [pc, #548]	; (1fb0 <__mriLpc176xUart_Init+0x288>)
    1d8c:	f7ff f9f8 	bl	1180 <__mriToken_MatchingString>
    1d90:	b108      	cbz	r0, 1d96 <__mriLpc176xUart_Init+0x6e>
    1d92:	2302      	movs	r3, #2
    1d94:	9304      	str	r3, [sp, #16]
    1d96:	4620      	mov	r0, r4
    1d98:	4986      	ldr	r1, [pc, #536]	; (1fb4 <__mriLpc176xUart_Init+0x28c>)
    1d9a:	f7ff f9f1 	bl	1180 <__mriToken_MatchingString>
    1d9e:	b108      	cbz	r0, 1da4 <__mriLpc176xUart_Init+0x7c>
    1da0:	2303      	movs	r3, #3
    1da2:	9304      	str	r3, [sp, #16]
    1da4:	4620      	mov	r0, r4
    1da6:	4984      	ldr	r1, [pc, #528]	; (1fb8 <__mriLpc176xUart_Init+0x290>)
    1da8:	f7ff fa00 	bl	11ac <__mriToken_MatchingStringPrefix>
    1dac:	b310      	cbz	r0, 1df4 <__mriLpc176xUart_Init+0xcc>
    1dae:	4a83      	ldr	r2, [pc, #524]	; (1fbc <__mriLpc176xUart_Init+0x294>)
    1db0:	2300      	movs	r3, #0
    1db2:	469e      	mov	lr, r3
    1db4:	4617      	mov	r7, r2
    1db6:	2609      	movs	r6, #9
    1db8:	250a      	movs	r5, #10
    1dba:	46a0      	mov	r8, r4
    1dbc:	e015      	b.n	1dea <__mriLpc176xUart_Init+0xc2>
    1dbe:	f8c2 e000 	str.w	lr, [r2]
    1dc2:	7b81      	ldrb	r1, [r0, #14]
    1dc4:	3930      	subs	r1, #48	; 0x30
    1dc6:	fa5f fc81 	uxtb.w	r12, r1
    1dca:	f1bc 0f09 	cmp.w	r12, #9
    1dce:	bf88      	it	hi
    1dd0:	6016      	strhi	r6, [r2, #0]
    1dd2:	683c      	ldr	r4, [r7, #0]
    1dd4:	bf88      	it	hi
    1dd6:	2100      	movhi	r1, #0
    1dd8:	3001      	adds	r0, #1
    1dda:	b124      	cbz	r4, 1de6 <__mriLpc176xUart_Init+0xbe>
    1ddc:	4a77      	ldr	r2, [pc, #476]	; (1fbc <__mriLpc176xUart_Init+0x294>)
    1dde:	2100      	movs	r1, #0
    1de0:	4644      	mov	r4, r8
    1de2:	6011      	str	r1, [r2, #0]
    1de4:	e005      	b.n	1df2 <__mriLpc176xUart_Init+0xca>
    1de6:	fb05 1303 	mla	r3, r5, r3, r1
    1dea:	7b81      	ldrb	r1, [r0, #14]
    1dec:	2900      	cmp	r1, #0
    1dee:	d1e6      	bne.n	1dbe <__mriLpc176xUart_Init+0x96>
    1df0:	4644      	mov	r4, r8
    1df2:	9305      	str	r3, [sp, #20]
    1df4:	4620      	mov	r0, r4
    1df6:	4972      	ldr	r1, [pc, #456]	; (1fc0 <__mriLpc176xUart_Init+0x298>)
    1df8:	f7ff f9c2 	bl	1180 <__mriToken_MatchingString>
    1dfc:	b108      	cbz	r0, 1e02 <__mriLpc176xUart_Init+0xda>
    1dfe:	2301      	movs	r3, #1
    1e00:	9303      	str	r3, [sp, #12]
    1e02:	9b04      	ldr	r3, [sp, #16]
    1e04:	2124      	movs	r1, #36	; 0x24
    1e06:	4359      	muls	r1, r3
    1e08:	486e      	ldr	r0, [pc, #440]	; (1fc4 <__mriLpc176xUart_Init+0x29c>)
    1e0a:	4a6f      	ldr	r2, [pc, #444]	; (1fc8 <__mriLpc176xUart_Init+0x2a0>)
    1e0c:	9f03      	ldr	r7, [sp, #12]
    1e0e:	1843      	adds	r3, r0, r1
    1e10:	6013      	str	r3, [r2, #0]
    1e12:	b127      	cbz	r7, 1e1e <__mriLpc176xUart_Init+0xf6>
    1e14:	6853      	ldr	r3, [r2, #4]
    1e16:	f043 0301 	orr.w	r3, r3, #1
    1e1a:	6053      	str	r3, [r2, #4]
    1e1c:	e0b8      	b.n	1f90 <__mriLpc176xUart_Init+0x268>
    1e1e:	4a6b      	ldr	r2, [pc, #428]	; (1fcc <__mriLpc176xUart_Init+0x2a4>)
    1e20:	691c      	ldr	r4, [r3, #16]
    1e22:	f8d2 50c4 	ldr.w	r5, [r2, #196]	; 0xc4
    1e26:	432c      	orrs	r4, r5
    1e28:	f8c2 40c4 	str.w	r4, [r2, #196]	; 0xc4
    1e2c:	5842      	ldr	r2, [r0, r1]
    1e2e:	6958      	ldr	r0, [r3, #20]
    1e30:	6811      	ldr	r1, [r2, #0]
    1e32:	2510      	movs	r5, #16
    1e34:	ea21 0100 	bic.w	r1, r1, r0
    1e38:	6011      	str	r1, [r2, #0]
    1e3a:	6959      	ldr	r1, [r3, #20]
    1e3c:	6810      	ldr	r0, [r2, #0]
    1e3e:	f001 3155 	and.w	r1, r1, #1431655765	; 0x55555555
    1e42:	4301      	orrs	r1, r0
    1e44:	6011      	str	r1, [r2, #0]
    1e46:	68da      	ldr	r2, [r3, #12]
    1e48:	2101      	movs	r1, #1
    1e4a:	f882 5028 	strb.w	r5, [r2, #40]	; 0x28
    1e4e:	68da      	ldr	r2, [r3, #12]
    1e50:	2003      	movs	r0, #3
    1e52:	7211      	strb	r1, [r2, #8]
    1e54:	68da      	ldr	r2, [r3, #12]
    1e56:	7310      	strb	r0, [r2, #12]
    1e58:	9a05      	ldr	r2, [sp, #20]
    1e5a:	2a00      	cmp	r2, #0
    1e5c:	d05b      	beq.n	1f16 <__mriLpc176xUart_Init+0x1ee>
    1e5e:	485c      	ldr	r0, [pc, #368]	; (1fd0 <__mriLpc176xUart_Init+0x2a8>)
    1e60:	6800      	ldr	r0, [r0, #0]
    1e62:	ea4f 1c10 	mov.w	r12, r0, lsr #4
    1e66:	fbbc f4f2 	udiv	r4, r12, r2
    1e6a:	fb02 f004 	mul.w	r0, r2, r4
    1e6e:	4560      	cmp	r0, r12
    1e70:	d03a      	beq.n	1ee8 <__mriLpc176xUart_Init+0x1c0>
    1e72:	0110      	lsls	r0, r2, #4
    1e74:	ea4f 2c0c 	mov.w	r12, r12, lsl #8
    1e78:	9001      	str	r0, [sp, #4]
    1e7a:	460d      	mov	r5, r1
    1e7c:	f04f 3eff 	mov.w	lr, #4294967295	; 0xffffffff
    1e80:	e02b      	b.n	1eda <__mriLpc176xUart_Init+0x1b2>
    1e82:	ea4f 1906 	mov.w	r9, r6, lsl #4
    1e86:	fbb9 f9f8 	udiv	r9, r9, r8
    1e8a:	4491      	add	r9, r2
    1e8c:	fbbc f9f9 	udiv	r9, r12, r9
    1e90:	f109 0980 	add.w	r9, r9, #128	; 0x80
    1e94:	ea4f 2919 	mov.w	r9, r9, lsr #8
    1e98:	ea4f 1a09 	mov.w	r10, r9, lsl #4
    1e9c:	fb00 fb0a 	mul.w	r11, r0, r10
    1ea0:	ea4f 1b0b 	mov.w	r11, r11, lsl #4
    1ea4:	fbbb fbf8 	udiv	r11, r11, r8
    1ea8:	44da      	add	r10, r11
    1eaa:	f8dd b004 	ldr.w	r11, [sp, #4]
    1eae:	fbbc fafa 	udiv	r10, r12, r10
    1eb2:	ebcb 0a0a 	rsb	r10, r11, r10
    1eb6:	f1ba 0f00 	cmp.w	r10, #0
    1eba:	bfb8      	it	lt
    1ebc:	f1ca 0a00 	rsblt	r10, r10, #0
    1ec0:	45f2      	cmp	r10, lr
    1ec2:	d203      	bcs.n	1ecc <__mriLpc176xUart_Init+0x1a4>
    1ec4:	4607      	mov	r7, r0
    1ec6:	460d      	mov	r5, r1
    1ec8:	464c      	mov	r4, r9
    1eca:	46d6      	mov	lr, r10
    1ecc:	3001      	adds	r0, #1
    1ece:	18b6      	adds	r6, r6, r2
    1ed0:	4288      	cmp	r0, r1
    1ed2:	d3d6      	bcc.n	1e82 <__mriLpc176xUart_Init+0x15a>
    1ed4:	3101      	adds	r1, #1
    1ed6:	2910      	cmp	r1, #16
    1ed8:	d004      	beq.n	1ee4 <__mriLpc176xUart_Init+0x1bc>
    1eda:	ea4f 1801 	mov.w	r8, r1, lsl #4
    1ede:	4616      	mov	r6, r2
    1ee0:	2001      	movs	r0, #1
    1ee2:	e7f5      	b.n	1ed0 <__mriLpc176xUart_Init+0x1a8>
    1ee4:	ea47 1505 	orr.w	r5, r7, r5, lsl #4
    1ee8:	68da      	ldr	r2, [r3, #12]
    1eea:	b2ed      	uxtb	r5, r5
    1eec:	7b11      	ldrb	r1, [r2, #12]
    1eee:	f041 0180 	orr.w	r1, r1, #128	; 0x80
    1ef2:	7311      	strb	r1, [r2, #12]
    1ef4:	b2e1      	uxtb	r1, r4
    1ef6:	f3c4 2407 	ubfx	r4, r4, #8, #8
    1efa:	7011      	strb	r1, [r2, #0]
    1efc:	7114      	strb	r4, [r2, #4]
    1efe:	f882 5028 	strb.w	r5, [r2, #40]	; 0x28
    1f02:	68da      	ldr	r2, [r3, #12]
    1f04:	7b11      	ldrb	r1, [r2, #12]
    1f06:	f001 017f 	and.w	r1, r1, #127	; 0x7f
    1f0a:	7311      	strb	r1, [r2, #12]
    1f0c:	4a2e      	ldr	r2, [pc, #184]	; (1fc8 <__mriLpc176xUart_Init+0x2a0>)
    1f0e:	6851      	ldr	r1, [r2, #4]
    1f10:	f041 0102 	orr.w	r1, r1, #2
    1f14:	6051      	str	r1, [r2, #4]
    1f16:	685a      	ldr	r2, [r3, #4]
    1f18:	6999      	ldr	r1, [r3, #24]
    1f1a:	6810      	ldr	r0, [r2, #0]
    1f1c:	6a1c      	ldr	r4, [r3, #32]
    1f1e:	ea20 0001 	bic.w	r0, r0, r1
    1f22:	4021      	ands	r1, r4
    1f24:	4301      	orrs	r1, r0
    1f26:	6011      	str	r1, [r2, #0]
    1f28:	689a      	ldr	r2, [r3, #8]
    1f2a:	69d9      	ldr	r1, [r3, #28]
    1f2c:	6810      	ldr	r0, [r2, #0]
    1f2e:	6a1c      	ldr	r4, [r3, #32]
    1f30:	ea20 0001 	bic.w	r0, r0, r1
    1f34:	4021      	ands	r1, r4
    1f36:	4301      	orrs	r1, r0
    1f38:	6011      	str	r1, [r2, #0]
    1f3a:	68da      	ldr	r2, [r3, #12]
    1f3c:	7b11      	ldrb	r1, [r2, #12]
    1f3e:	7b10      	ldrb	r0, [r2, #12]
    1f40:	f000 007f 	and.w	r0, r0, #127	; 0x7f
    1f44:	7310      	strb	r0, [r2, #12]
    1f46:	68da      	ldr	r2, [r3, #12]
    1f48:	2001      	movs	r0, #1
    1f4a:	6050      	str	r0, [r2, #4]
    1f4c:	68db      	ldr	r3, [r3, #12]
    1f4e:	7319      	strb	r1, [r3, #12]
    1f50:	f7ff fede 	bl	1d10 <__mriPlatform_CommPrepareToWaitForGdbConnection>
    1f54:	f7ff fe74 	bl	1c40 <__mriPlatform_CommUartIndex>
    1f58:	3005      	adds	r0, #5
    1f5a:	b2c0      	uxtb	r0, r0
    1f5c:	b2c2      	uxtb	r2, r0
    1f5e:	b254      	sxtb	r4, r2
    1f60:	2c00      	cmp	r4, #0
    1f62:	f04f 0100 	mov.w	r1, #0
    1f66:	da05      	bge.n	1f74 <__mriLpc176xUart_Init+0x24c>
    1f68:	4b1a      	ldr	r3, [pc, #104]	; (1fd4 <__mriLpc176xUart_Init+0x2ac>)
    1f6a:	f000 040f 	and.w	r4, r0, #15
    1f6e:	18e3      	adds	r3, r4, r3
    1f70:	7619      	strb	r1, [r3, #24]
    1f72:	e003      	b.n	1f7c <__mriLpc176xUart_Init+0x254>
    1f74:	4b18      	ldr	r3, [pc, #96]	; (1fd8 <__mriLpc176xUart_Init+0x2b0>)
    1f76:	18e3      	adds	r3, r4, r3
    1f78:	f883 1300 	strb.w	r1, [r3, #768]	; 0x300
    1f7c:	2301      	movs	r3, #1
    1f7e:	f000 001f 	and.w	r0, r0, #31
    1f82:	fa03 f000 	lsl.w	r0, r3, r0
    1f86:	b252      	sxtb	r2, r2
    1f88:	4b13      	ldr	r3, [pc, #76]	; (1fd8 <__mriLpc176xUart_Init+0x2b0>)
    1f8a:	0952      	lsrs	r2, r2, #5
    1f8c:	f843 0022 	str.w	r0, [r3, r2, lsl #2]
    1f90:	b007      	add	sp, #28
    1f92:	e8bd 8ff0 	ldmia.w	sp!, {r4, r5, r6, r7, r8, r9, r10, r11, pc}
    1f96:	bf00      	nop
    1f98:	0000ba3b 	.word	0x0000ba3b
    1f9c:	0000ba4d 	.word	0x0000ba4d
    1fa0:	0000ba62 	.word	0x0000ba62
    1fa4:	0000ba78 	.word	0x0000ba78
    1fa8:	0000ba8e 	.word	0x0000ba8e
    1fac:	0000ba99 	.word	0x0000ba99
    1fb0:	0000baa4 	.word	0x0000baa4
    1fb4:	0000baaf 	.word	0x0000baaf
    1fb8:	0000bac9 	.word	0x0000bac9
    1fbc:	10000724 	.word	0x10000724
    1fc0:	0000baba 	.word	0x0000baba
    1fc4:	100000cc 	.word	0x100000cc
    1fc8:	10000a28 	.word	0x10000a28
    1fcc:	400fc000 	.word	0x400fc000
    1fd0:	1000015c 	.word	0x1000015c
    1fd4:	e000ecfc 	.word	0xe000ecfc
    1fd8:	e000e100 	.word	0xe000e100

00001fdc <__mriPlatform_CommWaitForReceiveDataToStop>:
    1fdc:	e92d 41f0 	stmdb	sp!, {r4, r5, r6, r7, r8, lr}
    1fe0:	4c14      	ldr	r4, [pc, #80]	; (2034 <__mriPlatform_CommWaitForReceiveDataToStop+0x58>)
    1fe2:	2600      	movs	r6, #0
    1fe4:	4625      	mov	r5, r4
    1fe6:	e001      	b.n	1fec <__mriPlatform_CommWaitForReceiveDataToStop+0x10>
    1fe8:	f7ff fe42 	bl	1c70 <__mriPlatform_CommReceiveChar>
    1fec:	6827      	ldr	r7, [r4, #0]
    1fee:	f8d4 8004 	ldr.w	r8, [r4, #4]
    1ff2:	68e3      	ldr	r3, [r4, #12]
    1ff4:	f023 437f 	bic.w	r3, r3, #4278190080	; 0xff000000
    1ff8:	b13b      	cbz	r3, 200a <__mriPlatform_CommWaitForReceiveDataToStop+0x2e>
    1ffa:	6026      	str	r6, [r4, #0]
    1ffc:	68e3      	ldr	r3, [r4, #12]
    1ffe:	f023 437f 	bic.w	r3, r3, #4278190080	; 0xff000000
    2002:	6063      	str	r3, [r4, #4]
    2004:	2305      	movs	r3, #5
    2006:	60a6      	str	r6, [r4, #8]
    2008:	6023      	str	r3, [r4, #0]
    200a:	f7ff fe27 	bl	1c5c <__mriPlatform_CommHasReceiveData>
    200e:	b930      	cbnz	r0, 201e <__mriPlatform_CommWaitForReceiveDataToStop+0x42>
    2010:	68e3      	ldr	r3, [r4, #12]
    2012:	f023 437f 	bic.w	r3, r3, #4278190080	; 0xff000000
    2016:	b113      	cbz	r3, 201e <__mriPlatform_CommWaitForReceiveDataToStop+0x42>
    2018:	6823      	ldr	r3, [r4, #0]
    201a:	03da      	lsls	r2, r3, #15
    201c:	d5f5      	bpl.n	200a <__mriPlatform_CommWaitForReceiveDataToStop+0x2e>
    201e:	f028 437f 	bic.w	r3, r8, #4278190080	; 0xff000000
    2022:	606b      	str	r3, [r5, #4]
    2024:	602f      	str	r7, [r5, #0]
    2026:	f7ff fe19 	bl	1c5c <__mriPlatform_CommHasReceiveData>
    202a:	2800      	cmp	r0, #0
    202c:	d1dc      	bne.n	1fe8 <__mriPlatform_CommWaitForReceiveDataToStop+0xc>
    202e:	e8bd 81f0 	ldmia.w	sp!, {r4, r5, r6, r7, r8, pc}
    2032:	bf00      	nop
    2034:	e000e010 	.word	0xe000e010

00002038 <__mriLpc176x_Init>:
    2038:	b538      	push	{r3, r4, r5, lr}
    203a:	4d0b      	ldr	r5, [pc, #44]	; (2068 <__mriLpc176x_Init+0x30>)
    203c:	2300      	movs	r3, #0
    203e:	602b      	str	r3, [r5, #0]
    2040:	4604      	mov	r4, r0
    2042:	f7ff fa81 	bl	1548 <__mriCortexMInit>
    2046:	682b      	ldr	r3, [r5, #0]
    2048:	b963      	cbnz	r3, 2064 <__mriLpc176x_Init+0x2c>
    204a:	2108      	movs	r1, #8
    204c:	4a07      	ldr	r2, [pc, #28]	; (206c <__mriLpc176x_Init+0x34>)
    204e:	189a      	adds	r2, r3, r2
    2050:	3301      	adds	r3, #1
    2052:	2b23      	cmp	r3, #35	; 0x23
    2054:	f882 1300 	strb.w	r1, [r2, #768]	; 0x300
    2058:	d1f8      	bne.n	204c <__mriLpc176x_Init+0x14>
    205a:	4620      	mov	r0, r4
    205c:	e8bd 4038 	ldmia.w	sp!, {r3, r4, r5, lr}
    2060:	f7ff be62 	b.w	1d28 <__mriLpc176xUart_Init>
    2064:	bd38      	pop	{r3, r4, r5, pc}
    2066:	bf00      	nop
    2068:	10000724 	.word	0x10000724
    206c:	e000e100 	.word	0xe000e100

00002070 <__mriPlatform_GetDeviceMemoryMapXmlSize>:
    2070:	f240 50c6 	movw	r0, #1478	; 0x5c6
    2074:	4770      	bx	lr
	...

00002078 <__mriPlatform_GetDeviceMemoryMapXml>:
    2078:	4800      	ldr	r0, [pc, #0]	; (207c <__mriPlatform_GetDeviceMemoryMapXml+0x4>)
    207a:	4770      	bx	lr
    207c:	0000bad8 	.word	0x0000bad8

00002080 <__mriPlatform_Init>:
    2080:	e92d 41f0 	stmdb	sp!, {r4, r5, r6, r7, r8, lr}
    2084:	4d1c      	ldr	r5, [pc, #112]	; (20f8 <__mriPlatform_Init+0x78>)
    2086:	2400      	movs	r4, #0
    2088:	4606      	mov	r6, r0
    208a:	f8df 8078 	ldr.w	r8, [pc, #120]	; 2104 <__mriPlatform_Init+0x84>
    208e:	4628      	mov	r0, r5
    2090:	491a      	ldr	r1, [pc, #104]	; (20fc <__mriPlatform_Init+0x7c>)
    2092:	2224      	movs	r2, #36	; 0x24
    2094:	f840 4b04 	str.w	r4, [r0], #4
    2098:	4f19      	ldr	r7, [pc, #100]	; (2100 <__mriPlatform_Init+0x80>)
    209a:	f004 fbfb 	bl	6894 <memcpy>
    209e:	f8c8 4000 	str.w	r4, [r8]
    20a2:	683b      	ldr	r3, [r7, #0]
    20a4:	07d9      	lsls	r1, r3, #31
    20a6:	d51c      	bpl.n	20e2 <__mriPlatform_Init+0x62>
    20a8:	1d28      	adds	r0, r5, #4
    20aa:	f000 fa41 	bl	2530 <__mriGetMbedUid>
    20ae:	f000 fa33 	bl	2518 <__mriDisableMbed>
    20b2:	f8c8 4000 	str.w	r4, [r8]
    20b6:	f241 3389 	movw	r3, #5001	; 0x1389
    20ba:	3b01      	subs	r3, #1
    20bc:	d002      	beq.n	20c4 <__mriPlatform_Init+0x44>
    20be:	683a      	ldr	r2, [r7, #0]
    20c0:	07d2      	lsls	r2, r2, #31
    20c2:	d4fa      	bmi.n	20ba <__mriPlatform_Init+0x3a>
    20c4:	4b0e      	ldr	r3, [pc, #56]	; (2100 <__mriPlatform_Init+0x80>)
    20c6:	681b      	ldr	r3, [r3, #0]
    20c8:	f013 0f01 	tst.w	r3, #1
    20cc:	4b0d      	ldr	r3, [pc, #52]	; (2104 <__mriPlatform_Init+0x84>)
    20ce:	d001      	beq.n	20d4 <__mriPlatform_Init+0x54>
    20d0:	2205      	movs	r2, #5
    20d2:	601a      	str	r2, [r3, #0]
    20d4:	681b      	ldr	r3, [r3, #0]
    20d6:	b923      	cbnz	r3, 20e2 <__mriPlatform_Init+0x62>
    20d8:	4b07      	ldr	r3, [pc, #28]	; (20f8 <__mriPlatform_Init+0x78>)
    20da:	681a      	ldr	r2, [r3, #0]
    20dc:	f042 0201 	orr.w	r2, r2, #1
    20e0:	601a      	str	r2, [r3, #0]
    20e2:	4b08      	ldr	r3, [pc, #32]	; (2104 <__mriPlatform_Init+0x84>)
    20e4:	681b      	ldr	r3, [r3, #0]
    20e6:	b923      	cbnz	r3, 20f2 <__mriPlatform_Init+0x72>
    20e8:	4630      	mov	r0, r6
    20ea:	e8bd 41f0 	ldmia.w	sp!, {r4, r5, r6, r7, r8, lr}
    20ee:	f7ff bfa3 	b.w	2038 <__mriLpc176x_Init>
    20f2:	e8bd 81f0 	ldmia.w	sp!, {r4, r5, r6, r7, r8, pc}
    20f6:	bf00      	nop
    20f8:	100005cc 	.word	0x100005cc
    20fc:	0000c09f 	.word	0x0000c09f
    2100:	e000edf0 	.word	0xe000edf0
    2104:	10000724 	.word	0x10000724

00002108 <__mriMbed1768_GetMbedUid>:
    2108:	4800      	ldr	r0, [pc, #0]	; (210c <__mriMbed1768_GetMbedUid+0x4>)
    210a:	4770      	bx	lr
    210c:	100005d0 	.word	0x100005d0

00002110 <__mriSemihost_IsDebuggeeMakingSemihostCall>:
    2110:	b508      	push	{r3, lr}
    2112:	f7ff fc43 	bl	199c <__mriPlatform_TypeOfCurrentInstruction>
    2116:	3801      	subs	r0, #1
    2118:	b2c0      	uxtb	r0, r0
    211a:	2801      	cmp	r0, #1
    211c:	bf8c      	ite	hi
    211e:	2000      	movhi	r0, #0
    2120:	2001      	movls	r0, #1
    2122:	bd08      	pop	{r3, pc}

00002124 <__mriSemihost_HandleSemihostRequest>:
    2124:	b51f      	push	{r0, r1, r2, r3, r4, lr}
    2126:	f7ff fc39 	bl	199c <__mriPlatform_TypeOfCurrentInstruction>
    212a:	4604      	mov	r4, r0
    212c:	4668      	mov	r0, sp
    212e:	f7ff fc49 	bl	19c4 <__mriPlatform_GetSemihostCallParameters>
    2132:	2c01      	cmp	r4, #1
    2134:	d103      	bne.n	213e <__mriSemihost_HandleSemihostRequest+0x1a>
    2136:	4668      	mov	r0, sp
    2138:	f000 f894 	bl	2264 <__mriSemihost_HandleMbedSemihostRequest>
    213c:	e006      	b.n	214c <__mriSemihost_HandleSemihostRequest+0x28>
    213e:	2c02      	cmp	r4, #2
    2140:	d103      	bne.n	214a <__mriSemihost_HandleSemihostRequest+0x26>
    2142:	4668      	mov	r0, sp
    2144:	f000 f804 	bl	2150 <__mriSemihost_HandleNewlibSemihostRequest>
    2148:	e000      	b.n	214c <__mriSemihost_HandleSemihostRequest+0x28>
    214a:	2000      	movs	r0, #0
    214c:	b004      	add	sp, #16
    214e:	bd10      	pop	{r4, pc}

00002150 <__mriSemihost_HandleNewlibSemihostRequest>:
    2150:	b510      	push	{r4, lr}
    2152:	b08c      	sub	sp, #48	; 0x30
    2154:	4604      	mov	r4, r0
    2156:	f7ff fbe3 	bl	1920 <__mriPlatform_GetProgramCounter>
    215a:	4b33      	ldr	r3, [pc, #204]	; (2228 <__mriSemihost_HandleNewlibSemihostRequest+0xd8>)
    215c:	f040 0001 	orr.w	r0, r0, #1
    2160:	4298      	cmp	r0, r3
    2162:	d109      	bne.n	2178 <__mriSemihost_HandleNewlibSemihostRequest+0x28>
    2164:	6823      	ldr	r3, [r4, #0]
    2166:	a804      	add	r0, sp, #16
    2168:	9304      	str	r3, [sp, #16]
    216a:	6863      	ldr	r3, [r4, #4]
    216c:	9305      	str	r3, [sp, #20]
    216e:	68a3      	ldr	r3, [r4, #8]
    2170:	9306      	str	r3, [sp, #24]
    2172:	f000 fd39 	bl	2be8 <__mriIssueGdbFileWriteRequest>
    2176:	e055      	b.n	2224 <__mriSemihost_HandleNewlibSemihostRequest+0xd4>
    2178:	4b2c      	ldr	r3, [pc, #176]	; (222c <__mriSemihost_HandleNewlibSemihostRequest+0xdc>)
    217a:	4298      	cmp	r0, r3
    217c:	d109      	bne.n	2192 <__mriSemihost_HandleNewlibSemihostRequest+0x42>
    217e:	6823      	ldr	r3, [r4, #0]
    2180:	a804      	add	r0, sp, #16
    2182:	9304      	str	r3, [sp, #16]
    2184:	6863      	ldr	r3, [r4, #4]
    2186:	9305      	str	r3, [sp, #20]
    2188:	68a3      	ldr	r3, [r4, #8]
    218a:	9306      	str	r3, [sp, #24]
    218c:	f000 fd50 	bl	2c30 <__mriIssueGdbFileReadRequest>
    2190:	e048      	b.n	2224 <__mriSemihost_HandleNewlibSemihostRequest+0xd4>
    2192:	4b27      	ldr	r3, [pc, #156]	; (2230 <__mriSemihost_HandleNewlibSemihostRequest+0xe0>)
    2194:	4298      	cmp	r0, r3
    2196:	d10c      	bne.n	21b2 <__mriSemihost_HandleNewlibSemihostRequest+0x62>
    2198:	6820      	ldr	r0, [r4, #0]
    219a:	9000      	str	r0, [sp, #0]
    219c:	f004 fe6b 	bl	6e76 <strlen>
    21a0:	6863      	ldr	r3, [r4, #4]
    21a2:	9001      	str	r0, [sp, #4]
    21a4:	9302      	str	r3, [sp, #8]
    21a6:	68a3      	ldr	r3, [r4, #8]
    21a8:	4668      	mov	r0, sp
    21aa:	9303      	str	r3, [sp, #12]
    21ac:	f000 fcee 	bl	2b8c <__mriIssueGdbFileOpenRequest>
    21b0:	e038      	b.n	2224 <__mriSemihost_HandleNewlibSemihostRequest+0xd4>
    21b2:	4b20      	ldr	r3, [pc, #128]	; (2234 <__mriSemihost_HandleNewlibSemihostRequest+0xe4>)
    21b4:	4298      	cmp	r0, r3
    21b6:	d108      	bne.n	21ca <__mriSemihost_HandleNewlibSemihostRequest+0x7a>
    21b8:	6820      	ldr	r0, [r4, #0]
    21ba:	900a      	str	r0, [sp, #40]	; 0x28
    21bc:	f004 fe5b 	bl	6e76 <strlen>
    21c0:	900b      	str	r0, [sp, #44]	; 0x2c
    21c2:	a80a      	add	r0, sp, #40	; 0x28
    21c4:	f000 fdae 	bl	2d24 <__mriIssueGdbFileUnlinkRequest>
    21c8:	e02c      	b.n	2224 <__mriSemihost_HandleNewlibSemihostRequest+0xd4>
    21ca:	4b1b      	ldr	r3, [pc, #108]	; (2238 <__mriSemihost_HandleNewlibSemihostRequest+0xe8>)
    21cc:	4298      	cmp	r0, r3
    21ce:	d109      	bne.n	21e4 <__mriSemihost_HandleNewlibSemihostRequest+0x94>
    21d0:	6823      	ldr	r3, [r4, #0]
    21d2:	a807      	add	r0, sp, #28
    21d4:	9307      	str	r3, [sp, #28]
    21d6:	6863      	ldr	r3, [r4, #4]
    21d8:	9308      	str	r3, [sp, #32]
    21da:	68a3      	ldr	r3, [r4, #8]
    21dc:	9309      	str	r3, [sp, #36]	; 0x24
    21de:	f000 fd5f 	bl	2ca0 <__mriIssueGdbFileSeekRequest>
    21e2:	e01f      	b.n	2224 <__mriSemihost_HandleNewlibSemihostRequest+0xd4>
    21e4:	4b15      	ldr	r3, [pc, #84]	; (223c <__mriSemihost_HandleNewlibSemihostRequest+0xec>)
    21e6:	4298      	cmp	r0, r3
    21e8:	d103      	bne.n	21f2 <__mriSemihost_HandleNewlibSemihostRequest+0xa2>
    21ea:	6820      	ldr	r0, [r4, #0]
    21ec:	f000 fd44 	bl	2c78 <__mriIssueGdbFileCloseRequest>
    21f0:	e018      	b.n	2224 <__mriSemihost_HandleNewlibSemihostRequest+0xd4>
    21f2:	4b13      	ldr	r3, [pc, #76]	; (2240 <__mriSemihost_HandleNewlibSemihostRequest+0xf0>)
    21f4:	4298      	cmp	r0, r3
    21f6:	d104      	bne.n	2202 <__mriSemihost_HandleNewlibSemihostRequest+0xb2>
    21f8:	e894 0003 	ldmia.w	r4, {r0, r1}
    21fc:	f000 fd74 	bl	2ce8 <__mriIssueGdbFileFStatRequest>
    2200:	e010      	b.n	2224 <__mriSemihost_HandleNewlibSemihostRequest+0xd4>
    2202:	4b10      	ldr	r3, [pc, #64]	; (2244 <__mriSemihost_HandleNewlibSemihostRequest+0xf4>)
    2204:	4298      	cmp	r0, r3
    2206:	d104      	bne.n	2212 <__mriSemihost_HandleNewlibSemihostRequest+0xc2>
    2208:	e894 0003 	ldmia.w	r4, {r0, r1}
    220c:	f000 fda8 	bl	2d60 <__mriIssueGdbFileStatRequest>
    2210:	e008      	b.n	2224 <__mriSemihost_HandleNewlibSemihostRequest+0xd4>
    2212:	4b0d      	ldr	r3, [pc, #52]	; (2248 <__mriSemihost_HandleNewlibSemihostRequest+0xf8>)
    2214:	4298      	cmp	r0, r3
    2216:	d104      	bne.n	2222 <__mriSemihost_HandleNewlibSemihostRequest+0xd2>
    2218:	e894 0003 	ldmia.w	r4, {r0, r1}
    221c:	f000 fdc8 	bl	2db0 <__mriIssueGdbFileRenameRequest>
    2220:	e000      	b.n	2224 <__mriSemihost_HandleNewlibSemihostRequest+0xd4>
    2222:	2000      	movs	r0, #0
    2224:	b00c      	add	sp, #48	; 0x30
    2226:	bd10      	pop	{r4, pc}
    2228:	00002545 	.word	0x00002545
    222c:	00002549 	.word	0x00002549
    2230:	0000254d 	.word	0x0000254d
    2234:	00002555 	.word	0x00002555
    2238:	0000255d 	.word	0x0000255d
    223c:	00002561 	.word	0x00002561
    2240:	00002565 	.word	0x00002565
    2244:	00002559 	.word	0x00002559
    2248:	00002551 	.word	0x00002551

0000224c <convertBytesTransferredToBytesNotTransferred>:
    224c:	b510      	push	{r4, lr}
    224e:	4604      	mov	r4, r0
    2250:	f7fe fdcc 	bl	dec <__mriCore_GetSemihostReturnCode>
    2254:	2800      	cmp	r0, #0
    2256:	bfa8      	it	ge
    2258:	ebc0 0004 	rsbge	r0, r0, r4
    225c:	e8bd 4010 	ldmia.w	sp!, {r4, lr}
    2260:	f7ff bbc2 	b.w	19e8 <__mriPlatform_SetSemihostCallReturnValue>

00002264 <__mriSemihost_HandleMbedSemihostRequest>:
    2264:	b530      	push	{r4, r5, lr}
    2266:	6803      	ldr	r3, [r0, #0]
    2268:	b099      	sub	sp, #100	; 0x64
    226a:	2b09      	cmp	r3, #9
    226c:	f000 8087 	beq.w	237e <__mriSemihost_HandleMbedSemihostRequest+0x11a>
    2270:	d80c      	bhi.n	228c <__mriSemihost_HandleMbedSemihostRequest+0x28>
    2272:	2b02      	cmp	r3, #2
    2274:	d036      	beq.n	22e4 <__mriSemihost_HandleMbedSemihostRequest+0x80>
    2276:	d803      	bhi.n	2280 <__mriSemihost_HandleMbedSemihostRequest+0x1c>
    2278:	2b01      	cmp	r3, #1
    227a:	f040 8087 	bne.w	238c <__mriSemihost_HandleMbedSemihostRequest+0x128>
    227e:	e012      	b.n	22a6 <__mriSemihost_HandleMbedSemihostRequest+0x42>
    2280:	2b05      	cmp	r3, #5
    2282:	d034      	beq.n	22ee <__mriSemihost_HandleMbedSemihostRequest+0x8a>
    2284:	2b06      	cmp	r3, #6
    2286:	f040 8081 	bne.w	238c <__mriSemihost_HandleMbedSemihostRequest+0x128>
    228a:	e035      	b.n	22f8 <__mriSemihost_HandleMbedSemihostRequest+0x94>
    228c:	2b0c      	cmp	r3, #12
    228e:	d049      	beq.n	2324 <__mriSemihost_HandleMbedSemihostRequest+0xc0>
    2290:	d802      	bhi.n	2298 <__mriSemihost_HandleMbedSemihostRequest+0x34>
    2292:	2b0a      	cmp	r3, #10
    2294:	d17a      	bne.n	238c <__mriSemihost_HandleMbedSemihostRequest+0x128>
    2296:	e03a      	b.n	230e <__mriSemihost_HandleMbedSemihostRequest+0xaa>
    2298:	2b0e      	cmp	r3, #14
    229a:	d05e      	beq.n	235a <__mriSemihost_HandleMbedSemihostRequest+0xf6>
    229c:	f240 1201 	movw	r2, #257	; 0x101
    22a0:	4293      	cmp	r3, r2
    22a2:	d173      	bne.n	238c <__mriSemihost_HandleMbedSemihostRequest+0x128>
    22a4:	e05e      	b.n	2364 <__mriSemihost_HandleMbedSemihostRequest+0x100>
    22a6:	6840      	ldr	r0, [r0, #4]
    22a8:	6802      	ldr	r2, [r0, #0]
    22aa:	6841      	ldr	r1, [r0, #4]
    22ac:	9211      	str	r2, [sp, #68]	; 0x44
    22ae:	074a      	lsls	r2, r1, #29
    22b0:	d405      	bmi.n	22be <__mriSemihost_HandleMbedSemihostRequest+0x5a>
    22b2:	f011 0208 	ands.w	r2, r1, #8
    22b6:	d005      	beq.n	22c4 <__mriSemihost_HandleMbedSemihostRequest+0x60>
    22b8:	f44f 7202 	mov.w	r2, #520	; 0x208
    22bc:	e003      	b.n	22c6 <__mriSemihost_HandleMbedSemihostRequest+0x62>
    22be:	f44f 62c0 	mov.w	r2, #1536	; 0x600
    22c2:	e000      	b.n	22c6 <__mriSemihost_HandleMbedSemihostRequest+0x62>
    22c4:	4613      	mov	r3, r2
    22c6:	f011 0f02 	tst.w	r1, #2
    22ca:	bf18      	it	ne
    22cc:	2302      	movne	r3, #2
    22ce:	4313      	orrs	r3, r2
    22d0:	9313      	str	r3, [sp, #76]	; 0x4c
    22d2:	f44f 73db 	mov.w	r3, #438	; 0x1b6
    22d6:	9314      	str	r3, [sp, #80]	; 0x50
    22d8:	6883      	ldr	r3, [r0, #8]
    22da:	a811      	add	r0, sp, #68	; 0x44
    22dc:	9312      	str	r3, [sp, #72]	; 0x48
    22de:	f000 fc55 	bl	2b8c <__mriIssueGdbFileOpenRequest>
    22e2:	e03d      	b.n	2360 <__mriSemihost_HandleMbedSemihostRequest+0xfc>
    22e4:	6843      	ldr	r3, [r0, #4]
    22e6:	6818      	ldr	r0, [r3, #0]
    22e8:	f000 fcc6 	bl	2c78 <__mriIssueGdbFileCloseRequest>
    22ec:	e038      	b.n	2360 <__mriSemihost_HandleMbedSemihostRequest+0xfc>
    22ee:	6845      	ldr	r5, [r0, #4]
    22f0:	4628      	mov	r0, r5
    22f2:	f000 fc79 	bl	2be8 <__mriIssueGdbFileWriteRequest>
    22f6:	e003      	b.n	2300 <__mriSemihost_HandleMbedSemihostRequest+0x9c>
    22f8:	6845      	ldr	r5, [r0, #4]
    22fa:	4628      	mov	r0, r5
    22fc:	f000 fc98 	bl	2c30 <__mriIssueGdbFileReadRequest>
    2300:	4604      	mov	r4, r0
    2302:	2800      	cmp	r0, #0
    2304:	d043      	beq.n	238e <__mriSemihost_HandleMbedSemihostRequest+0x12a>
    2306:	68a8      	ldr	r0, [r5, #8]
    2308:	f7ff ffa0 	bl	224c <convertBytesTransferredToBytesNotTransferred>
    230c:	e03f      	b.n	238e <__mriSemihost_HandleMbedSemihostRequest+0x12a>
    230e:	6843      	ldr	r3, [r0, #4]
    2310:	a815      	add	r0, sp, #84	; 0x54
    2312:	681a      	ldr	r2, [r3, #0]
    2314:	685b      	ldr	r3, [r3, #4]
    2316:	9215      	str	r2, [sp, #84]	; 0x54
    2318:	9316      	str	r3, [sp, #88]	; 0x58
    231a:	2300      	movs	r3, #0
    231c:	9317      	str	r3, [sp, #92]	; 0x5c
    231e:	f000 fcbf 	bl	2ca0 <__mriIssueGdbFileSeekRequest>
    2322:	e01d      	b.n	2360 <__mriSemihost_HandleMbedSemihostRequest+0xfc>
    2324:	6843      	ldr	r3, [r0, #4]
    2326:	a901      	add	r1, sp, #4
    2328:	6818      	ldr	r0, [r3, #0]
    232a:	f000 fcdd 	bl	2ce8 <__mriIssueGdbFileFStatRequest>
    232e:	4604      	mov	r4, r0
    2330:	b368      	cbz	r0, 238e <__mriSemihost_HandleMbedSemihostRequest+0x12a>
    2332:	f7fe fd5b 	bl	dec <__mriCore_GetSemihostReturnCode>
    2336:	bb50      	cbnz	r0, 238e <__mriSemihost_HandleMbedSemihostRequest+0x12a>
    2338:	f89d 0025 	ldrb.w	r0, [sp, #37]	; 0x25
    233c:	f89d 3026 	ldrb.w	r3, [sp, #38]	; 0x26
    2340:	0400      	lsls	r0, r0, #16
    2342:	ea40 2003 	orr.w	r0, r0, r3, lsl #8
    2346:	f89d 3027 	ldrb.w	r3, [sp, #39]	; 0x27
    234a:	4318      	orrs	r0, r3
    234c:	f89d 3024 	ldrb.w	r3, [sp, #36]	; 0x24
    2350:	ea40 6003 	orr.w	r0, r0, r3, lsl #24
    2354:	f7ff fb48 	bl	19e8 <__mriPlatform_SetSemihostCallReturnValue>
    2358:	e019      	b.n	238e <__mriSemihost_HandleMbedSemihostRequest+0x12a>
    235a:	6840      	ldr	r0, [r0, #4]
    235c:	f000 fce2 	bl	2d24 <__mriIssueGdbFileUnlinkRequest>
    2360:	4604      	mov	r4, r0
    2362:	e014      	b.n	238e <__mriSemihost_HandleMbedSemihostRequest+0x12a>
    2364:	6843      	ldr	r3, [r0, #4]
    2366:	e893 0030 	ldmia.w	r3, {r4, r5}
    236a:	f7ff fecd 	bl	2108 <__mriMbed1768_GetMbedUid>
    236e:	2d24      	cmp	r5, #36	; 0x24
    2370:	bf34      	ite	cc
    2372:	462a      	movcc	r2, r5
    2374:	2224      	movcs	r2, #36	; 0x24
    2376:	4601      	mov	r1, r0
    2378:	4620      	mov	r0, r4
    237a:	f004 fa8b 	bl	6894 <memcpy>
    237e:	f7ff fadb 	bl	1938 <__mriPlatform_AdvanceProgramCounterToNextInstruction>
    2382:	2000      	movs	r0, #0
    2384:	f7ff fb30 	bl	19e8 <__mriPlatform_SetSemihostCallReturnValue>
    2388:	2401      	movs	r4, #1
    238a:	e000      	b.n	238e <__mriSemihost_HandleMbedSemihostRequest+0x12a>
    238c:	2400      	movs	r4, #0
    238e:	4620      	mov	r0, r4
    2390:	b019      	add	sp, #100	; 0x64
    2392:	bd30      	pop	{r4, r5, pc}

00002394 <__mriGetIPSR>:
    2394:	f3ef 8005 	mrs	r0, IPSR
    2398:	4770      	bx	lr

0000239a <__mriSetBASEPRI>:
    239a:	f380 8811 	msr	BASEPRI, r0
    239e:	4770      	bx	lr

000023a0 <__mriGetBASEPRI>:
    23a0:	f3ef 8011 	mrs	r0, BASEPRI
    23a4:	4770      	bx	lr

000023a6 <__mriDSB>:
    23a6:	f3bf 8f4f 	dsb	sy
    23aa:	4770      	bx	lr

000023ac <__mriISB>:
    23ac:	f3bf 8f6f 	isb	sy
    23b0:	4770      	bx	lr

000023b2 <mriExceptionHandler>:
    23b2:	484e      	ldr	r0, [pc, #312]	; (24ec <UART3_IRQHandler+0x2>)
    23b4:	e001      	b.n	23ba <mriGetSPAndCallHandler>

000023b6 <mriFaultHandler>:
    23b6:	484e      	ldr	r0, [pc, #312]	; (24f0 <UART3_IRQHandler+0x6>)
    23b8:	e7ff      	b.n	23ba <mriGetSPAndCallHandler>

000023ba <mriGetSPAndCallHandler>:
    23ba:	f01e 0f04 	tst.w	lr, #4
    23be:	bf0c      	ite	eq
    23c0:	f3ef 8108 	mrseq	r1, MSP
    23c4:	f3ef 8109 	mrsne	r1, PSP
    23c8:	4a4a      	ldr	r2, [pc, #296]	; (24f4 <UART3_IRQHandler+0xa>)
    23ca:	6011      	str	r1, [r2, #0]
    23cc:	4687      	mov	pc, r0

000023ce <checkForStackError>:
    23ce:	484a      	ldr	r0, [pc, #296]	; (24f8 <UART3_IRQHandler+0xe>)
    23d0:	4a4a      	ldr	r2, [pc, #296]	; (24fc <UART3_IRQHandler+0x12>)
    23d2:	6800      	ldr	r0, [r0, #0]
    23d4:	4210      	tst	r0, r2
    23d6:	d001      	beq.n	23dc <mriSaveRestoreContext>
    23d8:	4949      	ldr	r1, [pc, #292]	; (2500 <UART3_IRQHandler+0x16>)
    23da:	e7ff      	b.n	23dc <mriSaveRestoreContext>

000023dc <mriSaveRestoreContext>:
    23dc:	4849      	ldr	r0, [pc, #292]	; (2504 <UART3_IRQHandler+0x1a>)
    23de:	6802      	ldr	r2, [r0, #0]
    23e0:	f012 0f01 	tst.w	r2, #1
    23e4:	bf1e      	ittt	ne
    23e6:	f042 0202 	orrne.w	r2, r2, #2
    23ea:	6002      	strne	r2, [r0, #0]
    23ec:	e056      	bne.n	249c <mriAdvancePCAndReturn>
    23ee:	f042 0201 	orr.w	r2, r2, #1
    23f2:	6002      	str	r2, [r0, #0]
    23f4:	2040      	movs	r0, #64	; 0x40
    23f6:	f8df c10c 	ldr.w	r12, [pc, #268]	; 2504 <UART3_IRQHandler+0x1a>
    23fa:	4a43      	ldr	r2, [pc, #268]	; (2508 <UART3_IRQHandler+0x1e>)
    23fc:	4613      	mov	r3, r2
    23fe:	e96c 2302 	strd	r2, r3, [r12, #-8]!
    2402:	3801      	subs	r0, #1
    2404:	d1fb      	bne.n	23fe <mriSaveRestoreContext+0x22>
    2406:	f3ef 8208 	mrs	r2, MSP
    240a:	4840      	ldr	r0, [pc, #256]	; (250c <UART3_IRQHandler+0x22>)
    240c:	6002      	str	r2, [r0, #0]
    240e:	483d      	ldr	r0, [pc, #244]	; (2504 <UART3_IRQHandler+0x1a>)
    2410:	f380 8808 	msr	MSP, r0
    2414:	483e      	ldr	r0, [pc, #248]	; (2510 <UART3_IRQHandler+0x26>)
    2416:	e92d 5000 	stmdb	sp!, {r12, lr}
    241a:	e8b1 500c 	ldmia.w	r1!, {r2, r3, r12, lr}
    241e:	e8a0 500c 	stmia.w	r0!, {r2, r3, r12, lr}
    2422:	e8a0 0ff0 	stmia.w	r0!, {r4, r5, r6, r7, r8, r9, r10, r11}
    2426:	c93c      	ldmia	r1!, {r2, r3, r4, r5}
    2428:	f840 2b08 	str.w	r2, [r0], #8
    242c:	c038      	stmia	r0!, {r3, r4, r5}
    242e:	f415 7f00 	tst.w	r5, #512	; 0x200
    2432:	bf18      	it	ne
    2434:	3104      	addne	r1, #4
    2436:	f840 1c10 	str.w	r1, [r0, #-16]
    243a:	f7fe fd37 	bl	eac <__mriDebugException>
    243e:	4835      	ldr	r0, [pc, #212]	; (2514 <UART3_IRQHandler+0x2a>)
    2440:	f850 1c0c 	ldr.w	r1, [r0, #-12]
    2444:	6802      	ldr	r2, [r0, #0]
    2446:	f412 7f00 	tst.w	r2, #512	; 0x200
    244a:	bf18      	it	ne
    244c:	3904      	subne	r1, #4
    244e:	f841 2d04 	str.w	r2, [r1, #-4]!
    2452:	e930 000c 	ldmdb	r0!, {r2, r3}
    2456:	e921 000c 	stmdb	r1!, {r2, r3}
    245a:	f850 cd08 	ldr.w	r12, [r0, #-8]!
    245e:	f841 cd04 	str.w	r12, [r1, #-4]!
    2462:	e930 0ff0 	ldmdb	r0!, {r4, r5, r6, r7, r8, r9, r10, r11}
    2466:	e930 500c 	ldmdb	r0!, {r2, r3, r12, lr}
    246a:	e921 500c 	stmdb	r1!, {r2, r3, r12, lr}
    246e:	e8bd 5000 	ldmia.w	sp!, {r12, lr}
    2472:	4826      	ldr	r0, [pc, #152]	; (250c <UART3_IRQHandler+0x22>)
    2474:	6802      	ldr	r2, [r0, #0]
    2476:	f382 8808 	msr	MSP, r2
    247a:	f01e 0f04 	tst.w	lr, #4
    247e:	bf0c      	ite	eq
    2480:	f381 8808 	msreq	MSP, r1
    2484:	f381 8809 	msrne	PSP, r1
    2488:	481e      	ldr	r0, [pc, #120]	; (2504 <UART3_IRQHandler+0x1a>)
    248a:	6801      	ldr	r1, [r0, #0]
    248c:	f021 0101 	bic.w	r1, r1, #1
    2490:	6001      	str	r1, [r0, #0]
    2492:	f3bf 8f4f 	dsb	sy
    2496:	f3bf 8f6f 	isb	sy
    249a:	e018      	b.n	24ce <mriClearFaultStatusBitsAndReturn>

0000249c <mriAdvancePCAndReturn>:
    249c:	4816      	ldr	r0, [pc, #88]	; (24f8 <UART3_IRQHandler+0xe>)
    249e:	6800      	ldr	r0, [r0, #0]
    24a0:	f410 6f80 	tst.w	r0, #1024	; 0x400
    24a4:	d113      	bne.n	24ce <mriClearFaultStatusBitsAndReturn>
    24a6:	6988      	ldr	r0, [r1, #24]
    24a8:	8802      	ldrh	r2, [r0, #0]
    24aa:	f402 4278 	and.w	r2, r2, #63488	; 0xf800
    24ae:	f5b2 4f68 	cmp.w	r2, #59392	; 0xe800
    24b2:	d008      	beq.n	24c6 <mriAdvancePCAndReturn+0x2a>
    24b4:	f5b2 4f70 	cmp.w	r2, #61440	; 0xf000
    24b8:	d005      	beq.n	24c6 <mriAdvancePCAndReturn+0x2a>
    24ba:	f5b2 4f78 	cmp.w	r2, #63488	; 0xf800
    24be:	d002      	beq.n	24c6 <mriAdvancePCAndReturn+0x2a>
    24c0:	f100 0002 	add.w	r0, r0, #2
    24c4:	e001      	b.n	24ca <mriAdvancePCAndReturn+0x2e>
    24c6:	f100 0004 	add.w	r0, r0, #4
    24ca:	6188      	str	r0, [r1, #24]
    24cc:	e7ff      	b.n	24ce <mriClearFaultStatusBitsAndReturn>

000024ce <mriClearFaultStatusBitsAndReturn>:
    24ce:	480a      	ldr	r0, [pc, #40]	; (24f8 <UART3_IRQHandler+0xe>)
    24d0:	6801      	ldr	r1, [r0, #0]
    24d2:	6001      	str	r1, [r0, #0]
    24d4:	6841      	ldr	r1, [r0, #4]
    24d6:	6041      	str	r1, [r0, #4]
    24d8:	4770      	bx	lr

000024da <HardFault_Handler>:
    24da:	e76c      	b.n	23b6 <mriFaultHandler>

000024dc <MemManage_Handler>:
    24dc:	e76b      	b.n	23b6 <mriFaultHandler>

000024de <BusFault_Handler>:
    24de:	e76a      	b.n	23b6 <mriFaultHandler>

000024e0 <UsageFault_Handler>:
    24e0:	e767      	b.n	23b2 <mriExceptionHandler>

000024e2 <DebugMon_Handler>:
    24e2:	e766      	b.n	23b2 <mriExceptionHandler>

000024e4 <UART0_IRQHandler>:
    24e4:	e765      	b.n	23b2 <mriExceptionHandler>

000024e6 <UART1_IRQHandler>:
    24e6:	e764      	b.n	23b2 <mriExceptionHandler>

000024e8 <UART2_IRQHandler>:
    24e8:	e763      	b.n	23b2 <mriExceptionHandler>

000024ea <UART3_IRQHandler>:
    24ea:	e762      	b.n	23b2 <mriExceptionHandler>
    24ec:	000023dd 	.word	0x000023dd
    24f0:	000023cf 	.word	0x000023cf
    24f4:	10000930 	.word	0x10000930
    24f8:	e000ed28 	.word	0xe000ed28
    24fc:	00001818 	.word	0x00001818
    2500:	0000b7f8 	.word	0x0000b7f8
    2504:	10000928 	.word	0x10000928
    2508:	deadbeef 	.word	0xdeadbeef
    250c:	1000092c 	.word	0x1000092c
    2510:	10000934 	.word	0x10000934
    2514:	10000974 	.word	0x10000974

00002518 <__mriDisableMbed>:
    2518:	b082      	sub	sp, #8
    251a:	a901      	add	r1, sp, #4
    251c:	f240 1005 	movw	r0, #261	; 0x105
    2520:	beab      	bkpt	0x00ab
    2522:	2800      	cmp	r0, #0
    2524:	bf0c      	ite	eq
    2526:	9801      	ldreq	r0, [sp, #4]
    2528:	f04f 30ff 	movne.w	r0, #4294967295	; 0xffffffff
    252c:	b002      	add	sp, #8
    252e:	4770      	bx	lr

00002530 <__mriGetMbedUid>:
    2530:	b082      	sub	sp, #8
    2532:	9000      	str	r0, [sp, #0]
    2534:	2021      	movs	r0, #33	; 0x21
    2536:	9001      	str	r0, [sp, #4]
    2538:	4669      	mov	r1, sp
    253a:	f240 1001 	movw	r0, #257	; 0x101
    253e:	beab      	bkpt	0x00ab
    2540:	b002      	add	sp, #8
    2542:	4770      	bx	lr

00002544 <__mriNewlib_SemihostWrite>:
    2544:	beff      	bkpt	0x00ff
    2546:	4770      	bx	lr

00002548 <__mriNewlib_SemihostRead>:
    2548:	beff      	bkpt	0x00ff
    254a:	4770      	bx	lr

0000254c <__mriNewLib_SemihostOpen>:
    254c:	beff      	bkpt	0x00ff
    254e:	4770      	bx	lr

00002550 <__mriNewLib_SemihostRename>:
    2550:	beff      	bkpt	0x00ff
    2552:	4770      	bx	lr

00002554 <__mriNewLib_SemihostUnlink>:
    2554:	beff      	bkpt	0x00ff
    2556:	4770      	bx	lr

00002558 <__mriNewLib_SemihostStat>:
    2558:	beff      	bkpt	0x00ff
    255a:	4770      	bx	lr

0000255c <__mriNewlib_SemihostLSeek>:
    255c:	beff      	bkpt	0x00ff
    255e:	4770      	bx	lr

00002560 <__mriNewlib_SemihostClose>:
    2560:	beff      	bkpt	0x00ff
    2562:	4770      	bx	lr

00002564 <__mriNewlib_SemihostFStat>:
    2564:	beff      	bkpt	0x00ff
    2566:	4770      	bx	lr

00002568 <HexCharToNibble>:
    2568:	f1a0 0361 	sub.w	r3, r0, #97	; 0x61
    256c:	b2db      	uxtb	r3, r3
    256e:	2b05      	cmp	r3, #5
    2570:	d801      	bhi.n	2576 <HexCharToNibble+0xe>
    2572:	3857      	subs	r0, #87	; 0x57
    2574:	4770      	bx	lr
    2576:	f1a0 0341 	sub.w	r3, r0, #65	; 0x41
    257a:	b2db      	uxtb	r3, r3
    257c:	2b05      	cmp	r3, #5
    257e:	d801      	bhi.n	2584 <HexCharToNibble+0x1c>
    2580:	3837      	subs	r0, #55	; 0x37
    2582:	4770      	bx	lr
    2584:	3830      	subs	r0, #48	; 0x30
    2586:	b2c3      	uxtb	r3, r0
    2588:	2b09      	cmp	r3, #9
    258a:	d907      	bls.n	259c <HexCharToNibble+0x34>
    258c:	4b04      	ldr	r3, [pc, #16]	; (25a0 <HexCharToNibble+0x38>)
    258e:	f04f 30ff 	mov.w	r0, #4294967295	; 0xffffffff
    2592:	681a      	ldr	r2, [r3, #0]
    2594:	2a02      	cmp	r2, #2
    2596:	bfb8      	it	lt
    2598:	2202      	movlt	r2, #2
    259a:	601a      	str	r2, [r3, #0]
    259c:	4770      	bx	lr
    259e:	bf00      	nop
    25a0:	10000724 	.word	0x10000724

000025a4 <__mriBuffer_Init>:
    25a4:	188a      	adds	r2, r1, r2
    25a6:	6001      	str	r1, [r0, #0]
    25a8:	6042      	str	r2, [r0, #4]
    25aa:	6081      	str	r1, [r0, #8]
    25ac:	4770      	bx	lr

000025ae <__mriBuffer_Reset>:
    25ae:	6803      	ldr	r3, [r0, #0]
    25b0:	6083      	str	r3, [r0, #8]
    25b2:	4770      	bx	lr

000025b4 <__mriBuffer_SetEndOfBuffer>:
    25b4:	6883      	ldr	r3, [r0, #8]
    25b6:	6043      	str	r3, [r0, #4]
    25b8:	4770      	bx	lr

000025ba <__mriBuffer_BytesLeft>:
    25ba:	6883      	ldr	r3, [r0, #8]
    25bc:	6840      	ldr	r0, [r0, #4]
    25be:	4283      	cmp	r3, r0
    25c0:	bf94      	ite	ls
    25c2:	ebc3 0000 	rsbls	r0, r3, r0
    25c6:	2000      	movhi	r0, #0
    25c8:	4770      	bx	lr
	...

000025cc <throwExceptionAndFlagBufferOverrunIfBufferLeftIsSmallerThan>:
    25cc:	b538      	push	{r3, r4, r5, lr}
    25ce:	460d      	mov	r5, r1
    25d0:	4604      	mov	r4, r0
    25d2:	f7ff fff2 	bl	25ba <__mriBuffer_BytesLeft>
    25d6:	42a8      	cmp	r0, r5
    25d8:	d208      	bcs.n	25ec <throwExceptionAndFlagBufferOverrunIfBufferLeftIsSmallerThan+0x20>
    25da:	6863      	ldr	r3, [r4, #4]
    25dc:	3301      	adds	r3, #1
    25de:	60a3      	str	r3, [r4, #8]
    25e0:	4b03      	ldr	r3, [pc, #12]	; (25f0 <throwExceptionAndFlagBufferOverrunIfBufferLeftIsSmallerThan+0x24>)
    25e2:	681a      	ldr	r2, [r3, #0]
    25e4:	2a01      	cmp	r2, #1
    25e6:	bfb8      	it	lt
    25e8:	2201      	movlt	r2, #1
    25ea:	601a      	str	r2, [r3, #0]
    25ec:	bd38      	pop	{r3, r4, r5, pc}
    25ee:	bf00      	nop
    25f0:	10000724 	.word	0x10000724

000025f4 <__mriBuffer_OverrunDetected>:
    25f4:	6882      	ldr	r2, [r0, #8]
    25f6:	6843      	ldr	r3, [r0, #4]
    25f8:	429a      	cmp	r2, r3
    25fa:	bf94      	ite	ls
    25fc:	2000      	movls	r0, #0
    25fe:	2001      	movhi	r0, #1
    2600:	4770      	bx	lr
	...

00002604 <__mriBuffer_WriteChar>:
    2604:	b570      	push	{r4, r5, r6, lr}
    2606:	4d07      	ldr	r5, [pc, #28]	; (2624 <__mriBuffer_WriteChar+0x20>)
    2608:	2300      	movs	r3, #0
    260a:	460e      	mov	r6, r1
    260c:	2101      	movs	r1, #1
    260e:	602b      	str	r3, [r5, #0]
    2610:	4604      	mov	r4, r0
    2612:	f7ff ffdb 	bl	25cc <throwExceptionAndFlagBufferOverrunIfBufferLeftIsSmallerThan>
    2616:	682b      	ldr	r3, [r5, #0]
    2618:	b91b      	cbnz	r3, 2622 <__mriBuffer_WriteChar+0x1e>
    261a:	68a3      	ldr	r3, [r4, #8]
    261c:	f803 6b01 	strb.w	r6, [r3], #1
    2620:	60a3      	str	r3, [r4, #8]
    2622:	bd70      	pop	{r4, r5, r6, pc}
    2624:	10000724 	.word	0x10000724

00002628 <__mriBuffer_ReadChar>:
    2628:	b570      	push	{r4, r5, r6, lr}
    262a:	4e08      	ldr	r6, [pc, #32]	; (264c <__mriBuffer_ReadChar+0x24>)
    262c:	2500      	movs	r5, #0
    262e:	2101      	movs	r1, #1
    2630:	4604      	mov	r4, r0
    2632:	6035      	str	r5, [r6, #0]
    2634:	f7ff ffca 	bl	25cc <throwExceptionAndFlagBufferOverrunIfBufferLeftIsSmallerThan>
    2638:	6833      	ldr	r3, [r6, #0]
    263a:	b923      	cbnz	r3, 2646 <__mriBuffer_ReadChar+0x1e>
    263c:	68a3      	ldr	r3, [r4, #8]
    263e:	f813 0b01 	ldrb.w	r0, [r3], #1
    2642:	60a3      	str	r3, [r4, #8]
    2644:	bd70      	pop	{r4, r5, r6, pc}
    2646:	4628      	mov	r0, r5
    2648:	bd70      	pop	{r4, r5, r6, pc}
    264a:	bf00      	nop
    264c:	10000724 	.word	0x10000724

00002650 <__mriBuffer_WriteByteAsHex>:
    2650:	b570      	push	{r4, r5, r6, lr}
    2652:	4e0b      	ldr	r6, [pc, #44]	; (2680 <__mriBuffer_WriteByteAsHex+0x30>)
    2654:	2300      	movs	r3, #0
    2656:	460d      	mov	r5, r1
    2658:	2102      	movs	r1, #2
    265a:	6033      	str	r3, [r6, #0]
    265c:	4604      	mov	r4, r0
    265e:	f7ff ffb5 	bl	25cc <throwExceptionAndFlagBufferOverrunIfBufferLeftIsSmallerThan>
    2662:	6833      	ldr	r3, [r6, #0]
    2664:	b953      	cbnz	r3, 267c <__mriBuffer_WriteByteAsHex+0x2c>
    2666:	4a07      	ldr	r2, [pc, #28]	; (2684 <__mriBuffer_WriteByteAsHex+0x34>)
    2668:	0929      	lsrs	r1, r5, #4
    266a:	f005 050f 	and.w	r5, r5, #15
    266e:	68a3      	ldr	r3, [r4, #8]
    2670:	5c51      	ldrb	r1, [r2, r1]
    2672:	5d52      	ldrb	r2, [r2, r5]
    2674:	7019      	strb	r1, [r3, #0]
    2676:	705a      	strb	r2, [r3, #1]
    2678:	3302      	adds	r3, #2
    267a:	60a3      	str	r3, [r4, #8]
    267c:	bd70      	pop	{r4, r5, r6, pc}
    267e:	bf00      	nop
    2680:	10000724 	.word	0x10000724
    2684:	0000c0c3 	.word	0x0000c0c3

00002688 <__mriBuffer_ReadByteAsHex>:
    2688:	b570      	push	{r4, r5, r6, lr}
    268a:	4d10      	ldr	r5, [pc, #64]	; (26cc <__mriBuffer_ReadByteAsHex+0x44>)
    268c:	2600      	movs	r6, #0
    268e:	2102      	movs	r1, #2
    2690:	4604      	mov	r4, r0
    2692:	602e      	str	r6, [r5, #0]
    2694:	f7ff ff9a 	bl	25cc <throwExceptionAndFlagBufferOverrunIfBufferLeftIsSmallerThan>
    2698:	682b      	ldr	r3, [r5, #0]
    269a:	b9ab      	cbnz	r3, 26c8 <__mriBuffer_ReadByteAsHex+0x40>
    269c:	68a3      	ldr	r3, [r4, #8]
    269e:	7818      	ldrb	r0, [r3, #0]
    26a0:	f7ff ff62 	bl	2568 <HexCharToNibble>
    26a4:	682b      	ldr	r3, [r5, #0]
    26a6:	0106      	lsls	r6, r0, #4
    26a8:	b2f6      	uxtb	r6, r6
    26aa:	b92b      	cbnz	r3, 26b8 <__mriBuffer_ReadByteAsHex+0x30>
    26ac:	68a3      	ldr	r3, [r4, #8]
    26ae:	7858      	ldrb	r0, [r3, #1]
    26b0:	f7ff ff5a 	bl	2568 <HexCharToNibble>
    26b4:	4306      	orrs	r6, r0
    26b6:	b2f6      	uxtb	r6, r6
    26b8:	4b04      	ldr	r3, [pc, #16]	; (26cc <__mriBuffer_ReadByteAsHex+0x44>)
    26ba:	681b      	ldr	r3, [r3, #0]
    26bc:	b91b      	cbnz	r3, 26c6 <__mriBuffer_ReadByteAsHex+0x3e>
    26be:	68a3      	ldr	r3, [r4, #8]
    26c0:	3302      	adds	r3, #2
    26c2:	60a3      	str	r3, [r4, #8]
    26c4:	e000      	b.n	26c8 <__mriBuffer_ReadByteAsHex+0x40>
    26c6:	2600      	movs	r6, #0
    26c8:	4630      	mov	r0, r6
    26ca:	bd70      	pop	{r4, r5, r6, pc}
    26cc:	10000724 	.word	0x10000724

000026d0 <__mriBuffer_WriteSizedString>:
    26d0:	b5f8      	push	{r3, r4, r5, r6, r7, lr}
    26d2:	4f0a      	ldr	r7, [pc, #40]	; (26fc <__mriBuffer_WriteSizedString+0x2c>)
    26d4:	2300      	movs	r3, #0
    26d6:	603b      	str	r3, [r7, #0]
    26d8:	460d      	mov	r5, r1
    26da:	4611      	mov	r1, r2
    26dc:	4604      	mov	r4, r0
    26de:	4616      	mov	r6, r2
    26e0:	f7ff ff74 	bl	25cc <throwExceptionAndFlagBufferOverrunIfBufferLeftIsSmallerThan>
    26e4:	683b      	ldr	r3, [r7, #0]
    26e6:	b133      	cbz	r3, 26f6 <__mriBuffer_WriteSizedString+0x26>
    26e8:	e007      	b.n	26fa <__mriBuffer_WriteSizedString+0x2a>
    26ea:	5ce9      	ldrb	r1, [r5, r3]
    26ec:	68a2      	ldr	r2, [r4, #8]
    26ee:	3301      	adds	r3, #1
    26f0:	f802 1b01 	strb.w	r1, [r2], #1
    26f4:	60a2      	str	r2, [r4, #8]
    26f6:	42b3      	cmp	r3, r6
    26f8:	d1f7      	bne.n	26ea <__mriBuffer_WriteSizedString+0x1a>
    26fa:	bdf8      	pop	{r3, r4, r5, r6, r7, pc}
    26fc:	10000724 	.word	0x10000724

00002700 <__mriBuffer_WriteString>:
    2700:	b538      	push	{r3, r4, r5, lr}
    2702:	4604      	mov	r4, r0
    2704:	4608      	mov	r0, r1
    2706:	460d      	mov	r5, r1
    2708:	f004 fbb5 	bl	6e76 <strlen>
    270c:	4629      	mov	r1, r5
    270e:	4602      	mov	r2, r0
    2710:	4620      	mov	r0, r4
    2712:	e8bd 4038 	ldmia.w	sp!, {r3, r4, r5, lr}
    2716:	f7ff bfdb 	b.w	26d0 <__mriBuffer_WriteSizedString>
	...

0000271c <__mriBuffer_ReadUIntegerAsHex>:
    271c:	e92d 41f0 	stmdb	sp!, {r4, r5, r6, r7, r8, lr}
    2720:	2500      	movs	r5, #0
    2722:	4f16      	ldr	r7, [pc, #88]	; (277c <__mriBuffer_ReadUIntegerAsHex+0x60>)
    2724:	4604      	mov	r4, r0
    2726:	462e      	mov	r6, r5
    2728:	46a8      	mov	r8, r5
    272a:	f8c7 8000 	str.w	r8, [r7]
    272e:	4620      	mov	r0, r4
    2730:	f7ff ff7a 	bl	2628 <__mriBuffer_ReadChar>
    2734:	683b      	ldr	r3, [r7, #0]
    2736:	b963      	cbnz	r3, 2752 <__mriBuffer_ReadUIntegerAsHex+0x36>
    2738:	f7ff ff16 	bl	2568 <HexCharToNibble>
    273c:	683b      	ldr	r3, [r7, #0]
    273e:	b133      	cbz	r3, 274e <__mriBuffer_ReadUIntegerAsHex+0x32>
    2740:	68a3      	ldr	r3, [r4, #8]
    2742:	6822      	ldr	r2, [r4, #0]
    2744:	4293      	cmp	r3, r2
    2746:	d904      	bls.n	2752 <__mriBuffer_ReadUIntegerAsHex+0x36>
    2748:	3b01      	subs	r3, #1
    274a:	60a3      	str	r3, [r4, #8]
    274c:	e001      	b.n	2752 <__mriBuffer_ReadUIntegerAsHex+0x36>
    274e:	eb00 1505 	add.w	r5, r0, r5, lsl #4
    2752:	683b      	ldr	r3, [r7, #0]
    2754:	b90b      	cbnz	r3, 275a <__mriBuffer_ReadUIntegerAsHex+0x3e>
    2756:	3601      	adds	r6, #1
    2758:	e7e7      	b.n	272a <__mriBuffer_ReadUIntegerAsHex+0xe>
    275a:	4b08      	ldr	r3, [pc, #32]	; (277c <__mriBuffer_ReadUIntegerAsHex+0x60>)
    275c:	2200      	movs	r2, #0
    275e:	601a      	str	r2, [r3, #0]
    2760:	6863      	ldr	r3, [r4, #4]
    2762:	68a2      	ldr	r2, [r4, #8]
    2764:	429a      	cmp	r2, r3
    2766:	bf88      	it	hi
    2768:	60a3      	strhi	r3, [r4, #8]
    276a:	b91e      	cbnz	r6, 2774 <__mriBuffer_ReadUIntegerAsHex+0x58>
    276c:	4b03      	ldr	r3, [pc, #12]	; (277c <__mriBuffer_ReadUIntegerAsHex+0x60>)
    276e:	2203      	movs	r2, #3
    2770:	601a      	str	r2, [r3, #0]
    2772:	4635      	mov	r5, r6
    2774:	4628      	mov	r0, r5
    2776:	e8bd 81f0 	ldmia.w	sp!, {r4, r5, r6, r7, r8, pc}
    277a:	bf00      	nop
    277c:	10000724 	.word	0x10000724

00002780 <__mriBuffer_WriteUIntegerAsHex>:
    2780:	e92d 43f8 	stmdb	sp!, {r3, r4, r5, r6, r7, r8, r9, lr}
    2784:	4680      	mov	r8, r0
    2786:	460d      	mov	r5, r1
    2788:	b941      	cbnz	r1, 279c <__mriBuffer_WriteUIntegerAsHex+0x1c>
    278a:	e8bd 43f8 	ldmia.w	sp!, {r3, r4, r5, r6, r7, r8, r9, lr}
    278e:	f7ff bf5f 	b.w	2650 <__mriBuffer_WriteByteAsHex>
    2792:	3401      	adds	r4, #1
    2794:	0a1b      	lsrs	r3, r3, #8
    2796:	2c04      	cmp	r4, #4
    2798:	d103      	bne.n	27a2 <__mriBuffer_WriteUIntegerAsHex+0x22>
    279a:	e004      	b.n	27a6 <__mriBuffer_WriteUIntegerAsHex+0x26>
    279c:	f04f 437f 	mov.w	r3, #4278190080	; 0xff000000
    27a0:	2400      	movs	r4, #0
    27a2:	422b      	tst	r3, r5
    27a4:	d0f5      	beq.n	2792 <__mriBuffer_WriteUIntegerAsHex+0x12>
    27a6:	f1c4 0403 	rsb	r4, r4, #3
    27aa:	00e6      	lsls	r6, r4, #3
    27ac:	4f09      	ldr	r7, [pc, #36]	; (27d4 <__mriBuffer_WriteUIntegerAsHex+0x54>)
    27ae:	f04f 0900 	mov.w	r9, #0
    27b2:	e00b      	b.n	27cc <__mriBuffer_WriteUIntegerAsHex+0x4c>
    27b4:	fa25 f106 	lsr.w	r1, r5, r6
    27b8:	f8c7 9000 	str.w	r9, [r7]
    27bc:	b2c9      	uxtb	r1, r1
    27be:	4640      	mov	r0, r8
    27c0:	f7ff ff46 	bl	2650 <__mriBuffer_WriteByteAsHex>
    27c4:	683b      	ldr	r3, [r7, #0]
    27c6:	3c01      	subs	r4, #1
    27c8:	3e08      	subs	r6, #8
    27ca:	b90b      	cbnz	r3, 27d0 <__mriBuffer_WriteUIntegerAsHex+0x50>
    27cc:	1c63      	adds	r3, r4, #1
    27ce:	d1f1      	bne.n	27b4 <__mriBuffer_WriteUIntegerAsHex+0x34>
    27d0:	e8bd 83f8 	ldmia.w	sp!, {r3, r4, r5, r6, r7, r8, r9, pc}
    27d4:	10000724 	.word	0x10000724

000027d8 <__mriBuffer_WriteIntegerAsHex>:
    27d8:	b570      	push	{r4, r5, r6, lr}
    27da:	2300      	movs	r3, #0
    27dc:	4e09      	ldr	r6, [pc, #36]	; (2804 <__mriBuffer_WriteIntegerAsHex+0x2c>)
    27de:	4299      	cmp	r1, r3
    27e0:	4605      	mov	r5, r0
    27e2:	460c      	mov	r4, r1
    27e4:	6033      	str	r3, [r6, #0]
    27e6:	da03      	bge.n	27f0 <__mriBuffer_WriteIntegerAsHex+0x18>
    27e8:	424c      	negs	r4, r1
    27ea:	212d      	movs	r1, #45	; 0x2d
    27ec:	f7ff ff0a 	bl	2604 <__mriBuffer_WriteChar>
    27f0:	6833      	ldr	r3, [r6, #0]
    27f2:	b92b      	cbnz	r3, 2800 <__mriBuffer_WriteIntegerAsHex+0x28>
    27f4:	4628      	mov	r0, r5
    27f6:	4621      	mov	r1, r4
    27f8:	e8bd 4070 	ldmia.w	sp!, {r4, r5, r6, lr}
    27fc:	f7ff bfc0 	b.w	2780 <__mriBuffer_WriteUIntegerAsHex>
    2800:	bd70      	pop	{r4, r5, r6, pc}
    2802:	bf00      	nop
    2804:	10000724 	.word	0x10000724

00002808 <__mriBuffer_IsNextCharEqualTo>:
    2808:	b570      	push	{r4, r5, r6, lr}
    280a:	4d0b      	ldr	r5, [pc, #44]	; (2838 <__mriBuffer_IsNextCharEqualTo+0x30>)
    280c:	2300      	movs	r3, #0
    280e:	4604      	mov	r4, r0
    2810:	460e      	mov	r6, r1
    2812:	602b      	str	r3, [r5, #0]
    2814:	f7ff fed1 	bl	25ba <__mriBuffer_BytesLeft>
    2818:	b908      	cbnz	r0, 281e <__mriBuffer_IsNextCharEqualTo+0x16>
    281a:	2301      	movs	r3, #1
    281c:	602b      	str	r3, [r5, #0]
    281e:	6828      	ldr	r0, [r5, #0]
    2820:	b938      	cbnz	r0, 2832 <__mriBuffer_IsNextCharEqualTo+0x2a>
    2822:	68a3      	ldr	r3, [r4, #8]
    2824:	781a      	ldrb	r2, [r3, #0]
    2826:	42b2      	cmp	r2, r6
    2828:	d104      	bne.n	2834 <__mriBuffer_IsNextCharEqualTo+0x2c>
    282a:	3301      	adds	r3, #1
    282c:	60a3      	str	r3, [r4, #8]
    282e:	2001      	movs	r0, #1
    2830:	bd70      	pop	{r4, r5, r6, pc}
    2832:	2000      	movs	r0, #0
    2834:	bd70      	pop	{r4, r5, r6, pc}
    2836:	bf00      	nop
    2838:	10000724 	.word	0x10000724

0000283c <__mriBuffer_ReadIntegerAsHex>:
    283c:	b5f8      	push	{r3, r4, r5, r6, r7, lr}
    283e:	4c13      	ldr	r4, [pc, #76]	; (288c <__mriBuffer_ReadIntegerAsHex+0x50>)
    2840:	2500      	movs	r5, #0
    2842:	212d      	movs	r1, #45	; 0x2d
    2844:	4606      	mov	r6, r0
    2846:	6025      	str	r5, [r4, #0]
    2848:	f7ff ffde 	bl	2808 <__mriBuffer_IsNextCharEqualTo>
    284c:	6823      	ldr	r3, [r4, #0]
    284e:	4607      	mov	r7, r0
    2850:	b91b      	cbnz	r3, 285a <__mriBuffer_ReadIntegerAsHex+0x1e>
    2852:	4630      	mov	r0, r6
    2854:	f7ff ff62 	bl	271c <__mriBuffer_ReadUIntegerAsHex>
    2858:	e000      	b.n	285c <__mriBuffer_ReadIntegerAsHex+0x20>
    285a:	4628      	mov	r0, r5
    285c:	6822      	ldr	r2, [r4, #0]
    285e:	4b0b      	ldr	r3, [pc, #44]	; (288c <__mriBuffer_ReadIntegerAsHex+0x50>)
    2860:	b98a      	cbnz	r2, 2886 <__mriBuffer_ReadIntegerAsHex+0x4a>
    2862:	b937      	cbnz	r7, 2872 <__mriBuffer_ReadIntegerAsHex+0x36>
    2864:	2800      	cmp	r0, #0
    2866:	da0f      	bge.n	2888 <__mriBuffer_ReadIntegerAsHex+0x4c>
    2868:	2203      	movs	r2, #3
    286a:	601a      	str	r2, [r3, #0]
    286c:	f06f 4000 	mvn.w	r0, #2147483648	; 0x80000000
    2870:	bdf8      	pop	{r3, r4, r5, r6, r7, pc}
    2872:	f1b0 4f00 	cmp.w	r0, #2147483648	; 0x80000000
    2876:	d904      	bls.n	2882 <__mriBuffer_ReadIntegerAsHex+0x46>
    2878:	2203      	movs	r2, #3
    287a:	601a      	str	r2, [r3, #0]
    287c:	f04f 4000 	mov.w	r0, #2147483648	; 0x80000000
    2880:	bdf8      	pop	{r3, r4, r5, r6, r7, pc}
    2882:	4240      	negs	r0, r0
    2884:	bdf8      	pop	{r3, r4, r5, r6, r7, pc}
    2886:	2000      	movs	r0, #0
    2888:	bdf8      	pop	{r3, r4, r5, r6, r7, pc}
    288a:	bf00      	nop
    288c:	10000724 	.word	0x10000724

00002890 <__mriBuffer_MatchesString>:
    2890:	e92d 41f0 	stmdb	sp!, {r4, r5, r6, r7, r8, lr}
    2894:	4e15      	ldr	r6, [pc, #84]	; (28ec <__mriBuffer_MatchesString+0x5c>)
    2896:	2300      	movs	r3, #0
    2898:	6033      	str	r3, [r6, #0]
    289a:	4614      	mov	r4, r2
    289c:	4605      	mov	r5, r0
    289e:	4688      	mov	r8, r1
    28a0:	f7ff fe8b 	bl	25ba <__mriBuffer_BytesLeft>
    28a4:	42a0      	cmp	r0, r4
    28a6:	d201      	bcs.n	28ac <__mriBuffer_MatchesString+0x1c>
    28a8:	2301      	movs	r3, #1
    28aa:	6033      	str	r3, [r6, #0]
    28ac:	6837      	ldr	r7, [r6, #0]
    28ae:	b9a7      	cbnz	r7, 28da <__mriBuffer_MatchesString+0x4a>
    28b0:	68ae      	ldr	r6, [r5, #8]
    28b2:	4641      	mov	r1, r8
    28b4:	4630      	mov	r0, r6
    28b6:	4622      	mov	r2, r4
    28b8:	f004 fae5 	bl	6e86 <strncmp>
    28bc:	4680      	mov	r8, r0
    28be:	b978      	cbnz	r0, 28e0 <__mriBuffer_MatchesString+0x50>
    28c0:	4628      	mov	r0, r5
    28c2:	f7ff fe7a 	bl	25ba <__mriBuffer_BytesLeft>
    28c6:	42a0      	cmp	r0, r4
    28c8:	d002      	beq.n	28d0 <__mriBuffer_MatchesString+0x40>
    28ca:	5d33      	ldrb	r3, [r6, r4]
    28cc:	2b3a      	cmp	r3, #58	; 0x3a
    28ce:	d10a      	bne.n	28e6 <__mriBuffer_MatchesString+0x56>
    28d0:	1934      	adds	r4, r6, r4
    28d2:	60ac      	str	r4, [r5, #8]
    28d4:	2001      	movs	r0, #1
    28d6:	e8bd 81f0 	ldmia.w	sp!, {r4, r5, r6, r7, r8, pc}
    28da:	2000      	movs	r0, #0
    28dc:	e8bd 81f0 	ldmia.w	sp!, {r4, r5, r6, r7, r8, pc}
    28e0:	4638      	mov	r0, r7
    28e2:	e8bd 81f0 	ldmia.w	sp!, {r4, r5, r6, r7, r8, pc}
    28e6:	4640      	mov	r0, r8
    28e8:	e8bd 81f0 	ldmia.w	sp!, {r4, r5, r6, r7, r8, pc}
    28ec:	10000724 	.word	0x10000724

000028f0 <handleBreakpointWatchpointException>:
    28f0:	4b06      	ldr	r3, [pc, #24]	; (290c <handleBreakpointWatchpointException+0x1c>)
    28f2:	681b      	ldr	r3, [r3, #0]
    28f4:	2b04      	cmp	r3, #4
    28f6:	d002      	beq.n	28fe <handleBreakpointWatchpointException+0xe>
    28f8:	2b08      	cmp	r3, #8
    28fa:	d105      	bne.n	2908 <handleBreakpointWatchpointException+0x18>
    28fc:	e001      	b.n	2902 <handleBreakpointWatchpointException+0x12>
    28fe:	4804      	ldr	r0, [pc, #16]	; (2910 <handleBreakpointWatchpointException+0x20>)
    2900:	e000      	b.n	2904 <handleBreakpointWatchpointException+0x14>
    2902:	4804      	ldr	r0, [pc, #16]	; (2914 <handleBreakpointWatchpointException+0x24>)
    2904:	f7fe ba0e 	b.w	d24 <__mriCore_PrepareStringResponse>
    2908:	4770      	bx	lr
    290a:	bf00      	nop
    290c:	10000724 	.word	0x10000724
    2910:	0000c0d3 	.word	0x0000c0d3
    2914:	0000c0d7 	.word	0x0000c0d7

00002918 <parseBreakpointWatchpointCommandArguments>:
    2918:	b570      	push	{r4, r5, r6, lr}
    291a:	4606      	mov	r6, r0
    291c:	f7fe fa6c 	bl	df8 <__mriCore_GetBuffer>
    2920:	4d0f      	ldr	r5, [pc, #60]	; (2960 <parseBreakpointWatchpointCommandArguments+0x48>)
    2922:	2300      	movs	r3, #0
    2924:	602b      	str	r3, [r5, #0]
    2926:	4604      	mov	r4, r0
    2928:	f7ff fe7e 	bl	2628 <__mriBuffer_ReadChar>
    292c:	682b      	ldr	r3, [r5, #0]
    292e:	7230      	strb	r0, [r6, #8]
    2930:	b9ab      	cbnz	r3, 295e <parseBreakpointWatchpointCommandArguments+0x46>
    2932:	4620      	mov	r0, r4
    2934:	212c      	movs	r1, #44	; 0x2c
    2936:	f000 f8bf 	bl	2ab8 <__mriCmd_ThrowIfNextCharIsNotEqualTo>
    293a:	682b      	ldr	r3, [r5, #0]
    293c:	b97b      	cbnz	r3, 295e <parseBreakpointWatchpointCommandArguments+0x46>
    293e:	4620      	mov	r0, r4
    2940:	f000 f8ac 	bl	2a9c <__mriCmd_ReadUIntegerArgument>
    2944:	682b      	ldr	r3, [r5, #0]
    2946:	6030      	str	r0, [r6, #0]
    2948:	b94b      	cbnz	r3, 295e <parseBreakpointWatchpointCommandArguments+0x46>
    294a:	4620      	mov	r0, r4
    294c:	212c      	movs	r1, #44	; 0x2c
    294e:	f000 f8b3 	bl	2ab8 <__mriCmd_ThrowIfNextCharIsNotEqualTo>
    2952:	682b      	ldr	r3, [r5, #0]
    2954:	b91b      	cbnz	r3, 295e <parseBreakpointWatchpointCommandArguments+0x46>
    2956:	4620      	mov	r0, r4
    2958:	f000 f8a0 	bl	2a9c <__mriCmd_ReadUIntegerArgument>
    295c:	6070      	str	r0, [r6, #4]
    295e:	bd70      	pop	{r4, r5, r6, pc}
    2960:	10000724 	.word	0x10000724

00002964 <handleWatchpointRemoveCommand>:
    2964:	b510      	push	{r4, lr}
    2966:	4c09      	ldr	r4, [pc, #36]	; (298c <handleWatchpointRemoveCommand+0x28>)
    2968:	2300      	movs	r3, #0
    296a:	4602      	mov	r2, r0
    296c:	c903      	ldmia	r1, {r0, r1}
    296e:	6023      	str	r3, [r4, #0]
    2970:	f7ff f936 	bl	1be0 <__mriPlatform_ClearHardwareWatchpoint>
    2974:	6823      	ldr	r3, [r4, #0]
    2976:	b11b      	cbz	r3, 2980 <handleWatchpointRemoveCommand+0x1c>
    2978:	e8bd 4010 	ldmia.w	sp!, {r4, lr}
    297c:	f7ff bfb8 	b.w	28f0 <handleBreakpointWatchpointException>
    2980:	4803      	ldr	r0, [pc, #12]	; (2990 <handleWatchpointRemoveCommand+0x2c>)
    2982:	e8bd 4010 	ldmia.w	sp!, {r4, lr}
    2986:	f7fe b9cd 	b.w	d24 <__mriCore_PrepareStringResponse>
    298a:	bf00      	nop
    298c:	10000724 	.word	0x10000724
    2990:	0000c0db 	.word	0x0000c0db

00002994 <handleWatchpointSetCommand>:
    2994:	b510      	push	{r4, lr}
    2996:	4c09      	ldr	r4, [pc, #36]	; (29bc <handleWatchpointSetCommand+0x28>)
    2998:	2300      	movs	r3, #0
    299a:	4602      	mov	r2, r0
    299c:	c903      	ldmia	r1, {r0, r1}
    299e:	6023      	str	r3, [r4, #0]
    29a0:	f7ff f8d8 	bl	1b54 <__mriPlatform_SetHardwareWatchpoint>
    29a4:	6823      	ldr	r3, [r4, #0]
    29a6:	b11b      	cbz	r3, 29b0 <handleWatchpointSetCommand+0x1c>
    29a8:	e8bd 4010 	ldmia.w	sp!, {r4, lr}
    29ac:	f7ff bfa0 	b.w	28f0 <handleBreakpointWatchpointException>
    29b0:	4803      	ldr	r0, [pc, #12]	; (29c0 <handleWatchpointSetCommand+0x2c>)
    29b2:	e8bd 4010 	ldmia.w	sp!, {r4, lr}
    29b6:	f7fe b9b5 	b.w	d24 <__mriCore_PrepareStringResponse>
    29ba:	bf00      	nop
    29bc:	10000724 	.word	0x10000724
    29c0:	0000c0db 	.word	0x0000c0db

000029c4 <__mriCmd_HandleBreakpointWatchpointSetCommand>:
    29c4:	b51f      	push	{r0, r1, r2, r3, r4, lr}
    29c6:	4c16      	ldr	r4, [pc, #88]	; (2a20 <__mriCmd_HandleBreakpointWatchpointSetCommand+0x5c>)
    29c8:	2300      	movs	r3, #0
    29ca:	a801      	add	r0, sp, #4
    29cc:	6023      	str	r3, [r4, #0]
    29ce:	f7ff ffa3 	bl	2918 <parseBreakpointWatchpointCommandArguments>
    29d2:	6823      	ldr	r3, [r4, #0]
    29d4:	b10b      	cbz	r3, 29da <__mriCmd_HandleBreakpointWatchpointSetCommand+0x16>
    29d6:	4813      	ldr	r0, [pc, #76]	; (2a24 <__mriCmd_HandleBreakpointWatchpointSetCommand+0x60>)
    29d8:	e01d      	b.n	2a16 <__mriCmd_HandleBreakpointWatchpointSetCommand+0x52>
    29da:	f89d 300c 	ldrb.w	r3, [sp, #12]
    29de:	3b31      	subs	r3, #49	; 0x31
    29e0:	2b03      	cmp	r3, #3
    29e2:	d817      	bhi.n	2a14 <__mriCmd_HandleBreakpointWatchpointSetCommand+0x50>
    29e4:	e8df f003 	tbb	[pc, r3]
    29e8:	140f0d02 	.word	0x140f0d02
    29ec:	9801      	ldr	r0, [sp, #4]
    29ee:	9902      	ldr	r1, [sp, #8]
    29f0:	f7ff f85c 	bl	1aac <__mriPlatform_SetHardwareBreakpoint>
    29f4:	6823      	ldr	r3, [r4, #0]
    29f6:	b113      	cbz	r3, 29fe <__mriCmd_HandleBreakpointWatchpointSetCommand+0x3a>
    29f8:	f7ff ff7a 	bl	28f0 <handleBreakpointWatchpointException>
    29fc:	e00d      	b.n	2a1a <__mriCmd_HandleBreakpointWatchpointSetCommand+0x56>
    29fe:	480a      	ldr	r0, [pc, #40]	; (2a28 <__mriCmd_HandleBreakpointWatchpointSetCommand+0x64>)
    2a00:	e009      	b.n	2a16 <__mriCmd_HandleBreakpointWatchpointSetCommand+0x52>
    2a02:	2000      	movs	r0, #0
    2a04:	e000      	b.n	2a08 <__mriCmd_HandleBreakpointWatchpointSetCommand+0x44>
    2a06:	2001      	movs	r0, #1
    2a08:	a901      	add	r1, sp, #4
    2a0a:	f7ff ffc3 	bl	2994 <handleWatchpointSetCommand>
    2a0e:	e004      	b.n	2a1a <__mriCmd_HandleBreakpointWatchpointSetCommand+0x56>
    2a10:	2002      	movs	r0, #2
    2a12:	e7f9      	b.n	2a08 <__mriCmd_HandleBreakpointWatchpointSetCommand+0x44>
    2a14:	4805      	ldr	r0, [pc, #20]	; (2a2c <__mriCmd_HandleBreakpointWatchpointSetCommand+0x68>)
    2a16:	f7fe f985 	bl	d24 <__mriCore_PrepareStringResponse>
    2a1a:	2000      	movs	r0, #0
    2a1c:	b004      	add	sp, #16
    2a1e:	bd10      	pop	{r4, pc}
    2a20:	10000724 	.word	0x10000724
    2a24:	0000c0d3 	.word	0x0000c0d3
    2a28:	0000c0db 	.word	0x0000c0db
    2a2c:	0000b53a 	.word	0x0000b53a

00002a30 <__mriCmd_HandleBreakpointWatchpointRemoveCommand>:
    2a30:	b51f      	push	{r0, r1, r2, r3, r4, lr}
    2a32:	4c16      	ldr	r4, [pc, #88]	; (2a8c <__mriCmd_HandleBreakpointWatchpointRemoveCommand+0x5c>)
    2a34:	2300      	movs	r3, #0
    2a36:	a801      	add	r0, sp, #4
    2a38:	6023      	str	r3, [r4, #0]
    2a3a:	f7ff ff6d 	bl	2918 <parseBreakpointWatchpointCommandArguments>
    2a3e:	6823      	ldr	r3, [r4, #0]
    2a40:	b10b      	cbz	r3, 2a46 <__mriCmd_HandleBreakpointWatchpointRemoveCommand+0x16>
    2a42:	4813      	ldr	r0, [pc, #76]	; (2a90 <__mriCmd_HandleBreakpointWatchpointRemoveCommand+0x60>)
    2a44:	e01d      	b.n	2a82 <__mriCmd_HandleBreakpointWatchpointRemoveCommand+0x52>
    2a46:	f89d 300c 	ldrb.w	r3, [sp, #12]
    2a4a:	3b31      	subs	r3, #49	; 0x31
    2a4c:	2b03      	cmp	r3, #3
    2a4e:	d817      	bhi.n	2a80 <__mriCmd_HandleBreakpointWatchpointRemoveCommand+0x50>
    2a50:	e8df f003 	tbb	[pc, r3]
    2a54:	140f0d02 	.word	0x140f0d02
    2a58:	9801      	ldr	r0, [sp, #4]
    2a5a:	9902      	ldr	r1, [sp, #8]
    2a5c:	f7ff f85e 	bl	1b1c <__mriPlatform_ClearHardwareBreakpoint>
    2a60:	6823      	ldr	r3, [r4, #0]
    2a62:	b113      	cbz	r3, 2a6a <__mriCmd_HandleBreakpointWatchpointRemoveCommand+0x3a>
    2a64:	f7ff ff44 	bl	28f0 <handleBreakpointWatchpointException>
    2a68:	e00d      	b.n	2a86 <__mriCmd_HandleBreakpointWatchpointRemoveCommand+0x56>
    2a6a:	480a      	ldr	r0, [pc, #40]	; (2a94 <__mriCmd_HandleBreakpointWatchpointRemoveCommand+0x64>)
    2a6c:	e009      	b.n	2a82 <__mriCmd_HandleBreakpointWatchpointRemoveCommand+0x52>
    2a6e:	2000      	movs	r0, #0
    2a70:	e000      	b.n	2a74 <__mriCmd_HandleBreakpointWatchpointRemoveCommand+0x44>
    2a72:	2001      	movs	r0, #1
    2a74:	a901      	add	r1, sp, #4
    2a76:	f7ff ff75 	bl	2964 <handleWatchpointRemoveCommand>
    2a7a:	e004      	b.n	2a86 <__mriCmd_HandleBreakpointWatchpointRemoveCommand+0x56>
    2a7c:	2002      	movs	r0, #2
    2a7e:	e7f9      	b.n	2a74 <__mriCmd_HandleBreakpointWatchpointRemoveCommand+0x44>
    2a80:	4805      	ldr	r0, [pc, #20]	; (2a98 <__mriCmd_HandleBreakpointWatchpointRemoveCommand+0x68>)
    2a82:	f7fe f94f 	bl	d24 <__mriCore_PrepareStringResponse>
    2a86:	2000      	movs	r0, #0
    2a88:	b004      	add	sp, #16
    2a8a:	bd10      	pop	{r4, pc}
    2a8c:	10000724 	.word	0x10000724
    2a90:	0000c0d3 	.word	0x0000c0d3
    2a94:	0000c0db 	.word	0x0000c0db
    2a98:	0000b53a 	.word	0x0000b53a

00002a9c <__mriCmd_ReadUIntegerArgument>:
    2a9c:	b510      	push	{r4, lr}
    2a9e:	4c05      	ldr	r4, [pc, #20]	; (2ab4 <__mriCmd_ReadUIntegerArgument+0x18>)
    2aa0:	2300      	movs	r3, #0
    2aa2:	6023      	str	r3, [r4, #0]
    2aa4:	f7ff fe3a 	bl	271c <__mriBuffer_ReadUIntegerAsHex>
    2aa8:	6823      	ldr	r3, [r4, #0]
    2aaa:	2b00      	cmp	r3, #0
    2aac:	bf18      	it	ne
    2aae:	2000      	movne	r0, #0
    2ab0:	bd10      	pop	{r4, pc}
    2ab2:	bf00      	nop
    2ab4:	10000724 	.word	0x10000724

00002ab8 <__mriCmd_ThrowIfNextCharIsNotEqualTo>:
    2ab8:	b508      	push	{r3, lr}
    2aba:	f7ff fea5 	bl	2808 <__mriBuffer_IsNextCharEqualTo>
    2abe:	b928      	cbnz	r0, 2acc <__mriCmd_ThrowIfNextCharIsNotEqualTo+0x14>
    2ac0:	4b03      	ldr	r3, [pc, #12]	; (2ad0 <__mriCmd_ThrowIfNextCharIsNotEqualTo+0x18>)
    2ac2:	681a      	ldr	r2, [r3, #0]
    2ac4:	2a04      	cmp	r2, #4
    2ac6:	bfb8      	it	lt
    2ac8:	2204      	movlt	r2, #4
    2aca:	601a      	str	r2, [r3, #0]
    2acc:	bd08      	pop	{r3, pc}
    2ace:	bf00      	nop
    2ad0:	10000724 	.word	0x10000724

00002ad4 <__mriCmd_ReadAddressAndLengthArguments>:
    2ad4:	b570      	push	{r4, r5, r6, lr}
    2ad6:	4d0a      	ldr	r5, [pc, #40]	; (2b00 <__mriCmd_ReadAddressAndLengthArguments+0x2c>)
    2ad8:	2300      	movs	r3, #0
    2ada:	460e      	mov	r6, r1
    2adc:	602b      	str	r3, [r5, #0]
    2ade:	4604      	mov	r4, r0
    2ae0:	f7ff ffdc 	bl	2a9c <__mriCmd_ReadUIntegerArgument>
    2ae4:	682b      	ldr	r3, [r5, #0]
    2ae6:	6030      	str	r0, [r6, #0]
    2ae8:	b94b      	cbnz	r3, 2afe <__mriCmd_ReadAddressAndLengthArguments+0x2a>
    2aea:	4620      	mov	r0, r4
    2aec:	212c      	movs	r1, #44	; 0x2c
    2aee:	f7ff ffe3 	bl	2ab8 <__mriCmd_ThrowIfNextCharIsNotEqualTo>
    2af2:	682b      	ldr	r3, [r5, #0]
    2af4:	b91b      	cbnz	r3, 2afe <__mriCmd_ReadAddressAndLengthArguments+0x2a>
    2af6:	4620      	mov	r0, r4
    2af8:	f7ff ffd0 	bl	2a9c <__mriCmd_ReadUIntegerArgument>
    2afc:	6070      	str	r0, [r6, #4]
    2afe:	bd70      	pop	{r4, r5, r6, pc}
    2b00:	10000724 	.word	0x10000724

00002b04 <__mriCmd_ReadAddressAndLengthArgumentsWithColon>:
    2b04:	b538      	push	{r3, r4, r5, lr}
    2b06:	4d07      	ldr	r5, [pc, #28]	; (2b24 <__mriCmd_ReadAddressAndLengthArgumentsWithColon+0x20>)
    2b08:	2300      	movs	r3, #0
    2b0a:	602b      	str	r3, [r5, #0]
    2b0c:	4604      	mov	r4, r0
    2b0e:	f7ff ffe1 	bl	2ad4 <__mriCmd_ReadAddressAndLengthArguments>
    2b12:	682b      	ldr	r3, [r5, #0]
    2b14:	b92b      	cbnz	r3, 2b22 <__mriCmd_ReadAddressAndLengthArgumentsWithColon+0x1e>
    2b16:	4620      	mov	r0, r4
    2b18:	213a      	movs	r1, #58	; 0x3a
    2b1a:	e8bd 4038 	ldmia.w	sp!, {r3, r4, r5, lr}
    2b1e:	f7ff bfcb 	b.w	2ab8 <__mriCmd_ThrowIfNextCharIsNotEqualTo>
    2b22:	bd38      	pop	{r3, r4, r5, pc}
    2b24:	10000724 	.word	0x10000724

00002b28 <__mriCmd_HandleContinueCommand>:
    2b28:	b570      	push	{r4, r5, r6, lr}
    2b2a:	f7fe f965 	bl	df8 <__mriCore_GetBuffer>
    2b2e:	4606      	mov	r6, r0
    2b30:	f7fe ff28 	bl	1984 <__mriPlatform_WasProgramCounterModifiedByUser>
    2b34:	b990      	cbnz	r0, 2b5c <__mriCmd_HandleContinueCommand+0x34>
    2b36:	f7fe ff19 	bl	196c <__mriPlatform_IsCurrentInstructionHardcodedBreakpoint>
    2b3a:	b178      	cbz	r0, 2b5c <__mriCmd_HandleContinueCommand+0x34>
    2b3c:	f7fe fefc 	bl	1938 <__mriPlatform_AdvanceProgramCounterToNextInstruction>
    2b40:	2404      	movs	r4, #4
    2b42:	4d07      	ldr	r5, [pc, #28]	; (2b60 <__mriCmd_HandleContinueCommand+0x38>)
    2b44:	2300      	movs	r3, #0
    2b46:	4630      	mov	r0, r6
    2b48:	602b      	str	r3, [r5, #0]
    2b4a:	f7ff ffa7 	bl	2a9c <__mriCmd_ReadUIntegerArgument>
    2b4e:	682b      	ldr	r3, [r5, #0]
    2b50:	b90b      	cbnz	r3, 2b56 <__mriCmd_HandleContinueCommand+0x2e>
    2b52:	f7fe feeb 	bl	192c <__mriPlatform_SetProgramCounter>
    2b56:	f044 0003 	orr.w	r0, r4, #3
    2b5a:	bd70      	pop	{r4, r5, r6, pc}
    2b5c:	2400      	movs	r4, #0
    2b5e:	e7f0      	b.n	2b42 <__mriCmd_HandleContinueCommand+0x1a>
    2b60:	10000724 	.word	0x10000724

00002b64 <processGdbFileResponseCommands>:
    2b64:	b508      	push	{r3, lr}
    2b66:	f7fe f96f 	bl	e48 <__mriCore_GdbCommandHandlingLoop>
    2b6a:	f7fe f8e7 	bl	d3c <__mriCore_WasControlCFlagSentFromGdb>
    2b6e:	b148      	cbz	r0, 2b84 <processGdbFileResponseCommands+0x20>
    2b70:	f7fe f906 	bl	d80 <__mriCore_WasSemihostCallCancelledByGdb>
    2b74:	b908      	cbnz	r0, 2b7a <processGdbFileResponseCommands+0x16>
    2b76:	f7fe f90d 	bl	d94 <__mriCore_FlagSemihostCallAsHandled>
    2b7a:	2002      	movs	r0, #2
    2b7c:	f7fe f924 	bl	dc8 <__mriCore_SetSignalValue>
    2b80:	2000      	movs	r0, #0
    2b82:	bd08      	pop	{r3, pc}
    2b84:	f7fe f906 	bl	d94 <__mriCore_FlagSemihostCallAsHandled>
    2b88:	2001      	movs	r0, #1
    2b8a:	bd08      	pop	{r3, pc}

00002b8c <__mriIssueGdbFileOpenRequest>:
    2b8c:	b538      	push	{r3, r4, r5, lr}
    2b8e:	4605      	mov	r5, r0
    2b90:	f7fe f936 	bl	e00 <__mriCore_GetInitializedBuffer>
    2b94:	4913      	ldr	r1, [pc, #76]	; (2be4 <__mriIssueGdbFileOpenRequest+0x58>)
    2b96:	4604      	mov	r4, r0
    2b98:	f7ff fdb2 	bl	2700 <__mriBuffer_WriteString>
    2b9c:	4620      	mov	r0, r4
    2b9e:	6829      	ldr	r1, [r5, #0]
    2ba0:	f7ff fdee 	bl	2780 <__mriBuffer_WriteUIntegerAsHex>
    2ba4:	4620      	mov	r0, r4
    2ba6:	212f      	movs	r1, #47	; 0x2f
    2ba8:	f7ff fd2c 	bl	2604 <__mriBuffer_WriteChar>
    2bac:	6869      	ldr	r1, [r5, #4]
    2bae:	4620      	mov	r0, r4
    2bb0:	3101      	adds	r1, #1
    2bb2:	f7ff fde5 	bl	2780 <__mriBuffer_WriteUIntegerAsHex>
    2bb6:	4620      	mov	r0, r4
    2bb8:	212c      	movs	r1, #44	; 0x2c
    2bba:	f7ff fd23 	bl	2604 <__mriBuffer_WriteChar>
    2bbe:	4620      	mov	r0, r4
    2bc0:	68a9      	ldr	r1, [r5, #8]
    2bc2:	f7ff fddd 	bl	2780 <__mriBuffer_WriteUIntegerAsHex>
    2bc6:	4620      	mov	r0, r4
    2bc8:	212c      	movs	r1, #44	; 0x2c
    2bca:	f7ff fd1b 	bl	2604 <__mriBuffer_WriteChar>
    2bce:	4620      	mov	r0, r4
    2bd0:	68e9      	ldr	r1, [r5, #12]
    2bd2:	f7ff fdd5 	bl	2780 <__mriBuffer_WriteUIntegerAsHex>
    2bd6:	f7fe f91b 	bl	e10 <__mriCore_SendPacketToGdb>
    2bda:	e8bd 4038 	ldmia.w	sp!, {r3, r4, r5, lr}
    2bde:	f7ff bfc1 	b.w	2b64 <processGdbFileResponseCommands>
    2be2:	bf00      	nop
    2be4:	0000c0f8 	.word	0x0000c0f8

00002be8 <__mriIssueGdbFileWriteRequest>:
    2be8:	b538      	push	{r3, r4, r5, lr}
    2bea:	4605      	mov	r5, r0
    2bec:	f7fe f908 	bl	e00 <__mriCore_GetInitializedBuffer>
    2bf0:	490e      	ldr	r1, [pc, #56]	; (2c2c <__mriIssueGdbFileWriteRequest+0x44>)
    2bf2:	4604      	mov	r4, r0
    2bf4:	f7ff fd84 	bl	2700 <__mriBuffer_WriteString>
    2bf8:	4620      	mov	r0, r4
    2bfa:	6829      	ldr	r1, [r5, #0]
    2bfc:	f7ff fdc0 	bl	2780 <__mriBuffer_WriteUIntegerAsHex>
    2c00:	4620      	mov	r0, r4
    2c02:	212c      	movs	r1, #44	; 0x2c
    2c04:	f7ff fcfe 	bl	2604 <__mriBuffer_WriteChar>
    2c08:	4620      	mov	r0, r4
    2c0a:	6869      	ldr	r1, [r5, #4]
    2c0c:	f7ff fdb8 	bl	2780 <__mriBuffer_WriteUIntegerAsHex>
    2c10:	4620      	mov	r0, r4
    2c12:	212c      	movs	r1, #44	; 0x2c
    2c14:	f7ff fcf6 	bl	2604 <__mriBuffer_WriteChar>
    2c18:	4620      	mov	r0, r4
    2c1a:	68a9      	ldr	r1, [r5, #8]
    2c1c:	f7ff fdb0 	bl	2780 <__mriBuffer_WriteUIntegerAsHex>
    2c20:	f7fe f8f6 	bl	e10 <__mriCore_SendPacketToGdb>
    2c24:	e8bd 4038 	ldmia.w	sp!, {r3, r4, r5, lr}
    2c28:	f7ff bf9c 	b.w	2b64 <processGdbFileResponseCommands>
    2c2c:	0000c0f0 	.word	0x0000c0f0

00002c30 <__mriIssueGdbFileReadRequest>:
    2c30:	b538      	push	{r3, r4, r5, lr}
    2c32:	4605      	mov	r5, r0
    2c34:	f7fe f8e4 	bl	e00 <__mriCore_GetInitializedBuffer>
    2c38:	490e      	ldr	r1, [pc, #56]	; (2c74 <__mriIssueGdbFileReadRequest+0x44>)
    2c3a:	4604      	mov	r4, r0
    2c3c:	f7ff fd60 	bl	2700 <__mriBuffer_WriteString>
    2c40:	4620      	mov	r0, r4
    2c42:	6829      	ldr	r1, [r5, #0]
    2c44:	f7ff fd9c 	bl	2780 <__mriBuffer_WriteUIntegerAsHex>
    2c48:	4620      	mov	r0, r4
    2c4a:	212c      	movs	r1, #44	; 0x2c
    2c4c:	f7ff fcda 	bl	2604 <__mriBuffer_WriteChar>
    2c50:	4620      	mov	r0, r4
    2c52:	6869      	ldr	r1, [r5, #4]
    2c54:	f7ff fd94 	bl	2780 <__mriBuffer_WriteUIntegerAsHex>
    2c58:	4620      	mov	r0, r4
    2c5a:	212c      	movs	r1, #44	; 0x2c
    2c5c:	f7ff fcd2 	bl	2604 <__mriBuffer_WriteChar>
    2c60:	4620      	mov	r0, r4
    2c62:	68a9      	ldr	r1, [r5, #8]
    2c64:	f7ff fd8c 	bl	2780 <__mriBuffer_WriteUIntegerAsHex>
    2c68:	f7fe f8d2 	bl	e10 <__mriCore_SendPacketToGdb>
    2c6c:	e8bd 4038 	ldmia.w	sp!, {r3, r4, r5, lr}
    2c70:	f7ff bf78 	b.w	2b64 <processGdbFileResponseCommands>
    2c74:	0000c107 	.word	0x0000c107

00002c78 <__mriIssueGdbFileCloseRequest>:
    2c78:	b538      	push	{r3, r4, r5, lr}
    2c7a:	4605      	mov	r5, r0
    2c7c:	f7fe f8c0 	bl	e00 <__mriCore_GetInitializedBuffer>
    2c80:	4906      	ldr	r1, [pc, #24]	; (2c9c <__mriIssueGdbFileCloseRequest+0x24>)
    2c82:	4604      	mov	r4, r0
    2c84:	f7ff fd3c 	bl	2700 <__mriBuffer_WriteString>
    2c88:	4620      	mov	r0, r4
    2c8a:	4629      	mov	r1, r5
    2c8c:	f7ff fd78 	bl	2780 <__mriBuffer_WriteUIntegerAsHex>
    2c90:	f7fe f8be 	bl	e10 <__mriCore_SendPacketToGdb>
    2c94:	e8bd 4038 	ldmia.w	sp!, {r3, r4, r5, lr}
    2c98:	f7ff bf64 	b.w	2b64 <processGdbFileResponseCommands>
    2c9c:	0000c11d 	.word	0x0000c11d

00002ca0 <__mriIssueGdbFileSeekRequest>:
    2ca0:	b538      	push	{r3, r4, r5, lr}
    2ca2:	4605      	mov	r5, r0
    2ca4:	f7fe f8ac 	bl	e00 <__mriCore_GetInitializedBuffer>
    2ca8:	490e      	ldr	r1, [pc, #56]	; (2ce4 <__mriIssueGdbFileSeekRequest+0x44>)
    2caa:	4604      	mov	r4, r0
    2cac:	f7ff fd28 	bl	2700 <__mriBuffer_WriteString>
    2cb0:	4620      	mov	r0, r4
    2cb2:	6829      	ldr	r1, [r5, #0]
    2cb4:	f7ff fd64 	bl	2780 <__mriBuffer_WriteUIntegerAsHex>
    2cb8:	4620      	mov	r0, r4
    2cba:	212c      	movs	r1, #44	; 0x2c
    2cbc:	f7ff fca2 	bl	2604 <__mriBuffer_WriteChar>
    2cc0:	4620      	mov	r0, r4
    2cc2:	6869      	ldr	r1, [r5, #4]
    2cc4:	f7ff fd88 	bl	27d8 <__mriBuffer_WriteIntegerAsHex>
    2cc8:	4620      	mov	r0, r4
    2cca:	212c      	movs	r1, #44	; 0x2c
    2ccc:	f7ff fc9a 	bl	2604 <__mriBuffer_WriteChar>
    2cd0:	4620      	mov	r0, r4
    2cd2:	68a9      	ldr	r1, [r5, #8]
    2cd4:	f7ff fd80 	bl	27d8 <__mriBuffer_WriteIntegerAsHex>
    2cd8:	f7fe f89a 	bl	e10 <__mriCore_SendPacketToGdb>
    2cdc:	e8bd 4038 	ldmia.w	sp!, {r3, r4, r5, lr}
    2ce0:	f7ff bf40 	b.w	2b64 <processGdbFileResponseCommands>
    2ce4:	0000c10e 	.word	0x0000c10e

00002ce8 <__mriIssueGdbFileFStatRequest>:
    2ce8:	b570      	push	{r4, r5, r6, lr}
    2cea:	460d      	mov	r5, r1
    2cec:	4606      	mov	r6, r0
    2cee:	f7fe f887 	bl	e00 <__mriCore_GetInitializedBuffer>
    2cf2:	490b      	ldr	r1, [pc, #44]	; (2d20 <__mriIssueGdbFileFStatRequest+0x38>)
    2cf4:	4604      	mov	r4, r0
    2cf6:	f7ff fd03 	bl	2700 <__mriBuffer_WriteString>
    2cfa:	4620      	mov	r0, r4
    2cfc:	4631      	mov	r1, r6
    2cfe:	f7ff fd3f 	bl	2780 <__mriBuffer_WriteUIntegerAsHex>
    2d02:	4620      	mov	r0, r4
    2d04:	212c      	movs	r1, #44	; 0x2c
    2d06:	f7ff fc7d 	bl	2604 <__mriBuffer_WriteChar>
    2d0a:	4620      	mov	r0, r4
    2d0c:	4629      	mov	r1, r5
    2d0e:	f7ff fd37 	bl	2780 <__mriBuffer_WriteUIntegerAsHex>
    2d12:	f7fe f87d 	bl	e10 <__mriCore_SendPacketToGdb>
    2d16:	e8bd 4070 	ldmia.w	sp!, {r4, r5, r6, lr}
    2d1a:	f7ff bf23 	b.w	2b64 <processGdbFileResponseCommands>
    2d1e:	bf00      	nop
    2d20:	0000c0ff 	.word	0x0000c0ff

00002d24 <__mriIssueGdbFileUnlinkRequest>:
    2d24:	b538      	push	{r3, r4, r5, lr}
    2d26:	4605      	mov	r5, r0
    2d28:	f7fe f86a 	bl	e00 <__mriCore_GetInitializedBuffer>
    2d2c:	490b      	ldr	r1, [pc, #44]	; (2d5c <__mriIssueGdbFileUnlinkRequest+0x38>)
    2d2e:	4604      	mov	r4, r0
    2d30:	f7ff fce6 	bl	2700 <__mriBuffer_WriteString>
    2d34:	4620      	mov	r0, r4
    2d36:	6829      	ldr	r1, [r5, #0]
    2d38:	f7ff fd22 	bl	2780 <__mriBuffer_WriteUIntegerAsHex>
    2d3c:	4620      	mov	r0, r4
    2d3e:	212f      	movs	r1, #47	; 0x2f
    2d40:	f7ff fc60 	bl	2604 <__mriBuffer_WriteChar>
    2d44:	6869      	ldr	r1, [r5, #4]
    2d46:	4620      	mov	r0, r4
    2d48:	3101      	adds	r1, #1
    2d4a:	f7ff fd19 	bl	2780 <__mriBuffer_WriteUIntegerAsHex>
    2d4e:	f7fe f85f 	bl	e10 <__mriCore_SendPacketToGdb>
    2d52:	e8bd 4038 	ldmia.w	sp!, {r3, r4, r5, lr}
    2d56:	f7ff bf05 	b.w	2b64 <processGdbFileResponseCommands>
    2d5a:	bf00      	nop
    2d5c:	0000c0e7 	.word	0x0000c0e7

00002d60 <__mriIssueGdbFileStatRequest>:
    2d60:	b570      	push	{r4, r5, r6, lr}
    2d62:	4605      	mov	r5, r0
    2d64:	460e      	mov	r6, r1
    2d66:	f7fe f84b 	bl	e00 <__mriCore_GetInitializedBuffer>
    2d6a:	4910      	ldr	r1, [pc, #64]	; (2dac <__mriIssueGdbFileStatRequest+0x4c>)
    2d6c:	4604      	mov	r4, r0
    2d6e:	f7ff fcc7 	bl	2700 <__mriBuffer_WriteString>
    2d72:	4620      	mov	r0, r4
    2d74:	4629      	mov	r1, r5
    2d76:	f7ff fd03 	bl	2780 <__mriBuffer_WriteUIntegerAsHex>
    2d7a:	212f      	movs	r1, #47	; 0x2f
    2d7c:	4620      	mov	r0, r4
    2d7e:	f7ff fc41 	bl	2604 <__mriBuffer_WriteChar>
    2d82:	4628      	mov	r0, r5
    2d84:	f004 f877 	bl	6e76 <strlen>
    2d88:	1c41      	adds	r1, r0, #1
    2d8a:	4620      	mov	r0, r4
    2d8c:	f7ff fcf8 	bl	2780 <__mriBuffer_WriteUIntegerAsHex>
    2d90:	4620      	mov	r0, r4
    2d92:	212c      	movs	r1, #44	; 0x2c
    2d94:	f7ff fc36 	bl	2604 <__mriBuffer_WriteChar>
    2d98:	4620      	mov	r0, r4
    2d9a:	4631      	mov	r1, r6
    2d9c:	f7ff fcf0 	bl	2780 <__mriBuffer_WriteUIntegerAsHex>
    2da0:	f7fe f836 	bl	e10 <__mriCore_SendPacketToGdb>
    2da4:	e8bd 4070 	ldmia.w	sp!, {r4, r5, r6, lr}
    2da8:	f7ff bedc 	b.w	2b64 <processGdbFileResponseCommands>
    2dac:	0000c116 	.word	0x0000c116

00002db0 <__mriIssueGdbFileRenameRequest>:
    2db0:	b570      	push	{r4, r5, r6, lr}
    2db2:	460d      	mov	r5, r1
    2db4:	4606      	mov	r6, r0
    2db6:	f7fe f823 	bl	e00 <__mriCore_GetInitializedBuffer>
    2dba:	4916      	ldr	r1, [pc, #88]	; (2e14 <__mriIssueGdbFileRenameRequest+0x64>)
    2dbc:	4604      	mov	r4, r0
    2dbe:	f7ff fc9f 	bl	2700 <__mriBuffer_WriteString>
    2dc2:	4620      	mov	r0, r4
    2dc4:	4631      	mov	r1, r6
    2dc6:	f7ff fcdb 	bl	2780 <__mriBuffer_WriteUIntegerAsHex>
    2dca:	212f      	movs	r1, #47	; 0x2f
    2dcc:	4620      	mov	r0, r4
    2dce:	f7ff fc19 	bl	2604 <__mriBuffer_WriteChar>
    2dd2:	4630      	mov	r0, r6
    2dd4:	f004 f84f 	bl	6e76 <strlen>
    2dd8:	1c41      	adds	r1, r0, #1
    2dda:	4620      	mov	r0, r4
    2ddc:	f7ff fcd0 	bl	2780 <__mriBuffer_WriteUIntegerAsHex>
    2de0:	4620      	mov	r0, r4
    2de2:	212c      	movs	r1, #44	; 0x2c
    2de4:	f7ff fc0e 	bl	2604 <__mriBuffer_WriteChar>
    2de8:	4620      	mov	r0, r4
    2dea:	4629      	mov	r1, r5
    2dec:	f7ff fcc8 	bl	2780 <__mriBuffer_WriteUIntegerAsHex>
    2df0:	212f      	movs	r1, #47	; 0x2f
    2df2:	4620      	mov	r0, r4
    2df4:	f7ff fc06 	bl	2604 <__mriBuffer_WriteChar>
    2df8:	4628      	mov	r0, r5
    2dfa:	f004 f83c 	bl	6e76 <strlen>
    2dfe:	1c41      	adds	r1, r0, #1
    2e00:	4620      	mov	r0, r4
    2e02:	f7ff fcbd 	bl	2780 <__mriBuffer_WriteUIntegerAsHex>
    2e06:	f7fe f803 	bl	e10 <__mriCore_SendPacketToGdb>
    2e0a:	e8bd 4070 	ldmia.w	sp!, {r4, r5, r6, lr}
    2e0e:	f7ff bea9 	b.w	2b64 <processGdbFileResponseCommands>
    2e12:	bf00      	nop
    2e14:	0000c0de 	.word	0x0000c0de

00002e18 <__mriHandleFileIOCommand>:
    2e18:	b570      	push	{r4, r5, r6, lr}
    2e1a:	f7fd ffed 	bl	df8 <__mriCore_GetBuffer>
    2e1e:	4606      	mov	r6, r0
    2e20:	f7ff fd0c 	bl	283c <__mriBuffer_ReadIntegerAsHex>
    2e24:	212c      	movs	r1, #44	; 0x2c
    2e26:	4605      	mov	r5, r0
    2e28:	4630      	mov	r0, r6
    2e2a:	f7ff fced 	bl	2808 <__mriBuffer_IsNextCharEqualTo>
    2e2e:	b150      	cbz	r0, 2e46 <__mriHandleFileIOCommand+0x2e>
    2e30:	4630      	mov	r0, r6
    2e32:	f7ff fd03 	bl	283c <__mriBuffer_ReadIntegerAsHex>
    2e36:	4909      	ldr	r1, [pc, #36]	; (2e5c <__mriHandleFileIOCommand+0x44>)
    2e38:	4604      	mov	r4, r0
    2e3a:	2202      	movs	r2, #2
    2e3c:	4630      	mov	r0, r6
    2e3e:	f7ff fd27 	bl	2890 <__mriBuffer_MatchesString>
    2e42:	4606      	mov	r6, r0
    2e44:	e001      	b.n	2e4a <__mriHandleFileIOCommand+0x32>
    2e46:	4606      	mov	r6, r0
    2e48:	4604      	mov	r4, r0
    2e4a:	4628      	mov	r0, r5
    2e4c:	4621      	mov	r1, r4
    2e4e:	f7fd ffc7 	bl	de0 <__mriCore_SetSemihostReturnValues>
    2e52:	4630      	mov	r0, r6
    2e54:	f7fd ff88 	bl	d68 <__mriCore_RecordControlCFlagSentFromGdb>
    2e58:	2003      	movs	r0, #3
    2e5a:	bd70      	pop	{r4, r5, r6, pc}
    2e5c:	0000c125 	.word	0x0000c125

00002e60 <__mriCmd_HandleMemoryReadCommand>:
    2e60:	b537      	push	{r0, r1, r2, r4, r5, lr}
    2e62:	f7fd ffc9 	bl	df8 <__mriCore_GetBuffer>
    2e66:	4d0b      	ldr	r5, [pc, #44]	; (2e94 <__mriCmd_HandleMemoryReadCommand+0x34>)
    2e68:	2300      	movs	r3, #0
    2e6a:	4669      	mov	r1, sp
    2e6c:	602b      	str	r3, [r5, #0]
    2e6e:	4604      	mov	r4, r0
    2e70:	f7ff fe30 	bl	2ad4 <__mriCmd_ReadAddressAndLengthArguments>
    2e74:	682b      	ldr	r3, [r5, #0]
    2e76:	b11b      	cbz	r3, 2e80 <__mriCmd_HandleMemoryReadCommand+0x20>
    2e78:	4807      	ldr	r0, [pc, #28]	; (2e98 <__mriCmd_HandleMemoryReadCommand+0x38>)
    2e7a:	f7fd ff53 	bl	d24 <__mriCore_PrepareStringResponse>
    2e7e:	e006      	b.n	2e8e <__mriCmd_HandleMemoryReadCommand+0x2e>
    2e80:	f7fd ff40 	bl	d04 <__mriCore_InitBuffer>
    2e84:	e89d 0006 	ldmia.w	sp, {r1, r2}
    2e88:	4620      	mov	r0, r4
    2e8a:	f000 fa48 	bl	331e <__mriMem_ReadMemoryIntoHexBuffer>
    2e8e:	2000      	movs	r0, #0
    2e90:	bd3e      	pop	{r1, r2, r3, r4, r5, pc}
    2e92:	bf00      	nop
    2e94:	10000724 	.word	0x10000724
    2e98:	0000c0d3 	.word	0x0000c0d3

00002e9c <__mriCmd_HandleMemoryWriteCommand>:
    2e9c:	b537      	push	{r0, r1, r2, r4, r5, lr}
    2e9e:	f7fd ffab 	bl	df8 <__mriCore_GetBuffer>
    2ea2:	4d0c      	ldr	r5, [pc, #48]	; (2ed4 <__mriCmd_HandleMemoryWriteCommand+0x38>)
    2ea4:	2300      	movs	r3, #0
    2ea6:	4669      	mov	r1, sp
    2ea8:	602b      	str	r3, [r5, #0]
    2eaa:	4604      	mov	r4, r0
    2eac:	f7ff fe2a 	bl	2b04 <__mriCmd_ReadAddressAndLengthArgumentsWithColon>
    2eb0:	682b      	ldr	r3, [r5, #0]
    2eb2:	b10b      	cbz	r3, 2eb8 <__mriCmd_HandleMemoryWriteCommand+0x1c>
    2eb4:	4808      	ldr	r0, [pc, #32]	; (2ed8 <__mriCmd_HandleMemoryWriteCommand+0x3c>)
    2eb6:	e008      	b.n	2eca <__mriCmd_HandleMemoryWriteCommand+0x2e>
    2eb8:	4620      	mov	r0, r4
    2eba:	e89d 0006 	ldmia.w	sp, {r1, r2}
    2ebe:	f000 fa51 	bl	3364 <__mriMem_WriteHexBufferToMemory>
    2ec2:	b108      	cbz	r0, 2ec8 <__mriCmd_HandleMemoryWriteCommand+0x2c>
    2ec4:	4805      	ldr	r0, [pc, #20]	; (2edc <__mriCmd_HandleMemoryWriteCommand+0x40>)
    2ec6:	e000      	b.n	2eca <__mriCmd_HandleMemoryWriteCommand+0x2e>
    2ec8:	4805      	ldr	r0, [pc, #20]	; (2ee0 <__mriCmd_HandleMemoryWriteCommand+0x44>)
    2eca:	f7fd ff2b 	bl	d24 <__mriCore_PrepareStringResponse>
    2ece:	2000      	movs	r0, #0
    2ed0:	bd3e      	pop	{r1, r2, r3, r4, r5, pc}
    2ed2:	bf00      	nop
    2ed4:	10000724 	.word	0x10000724
    2ed8:	0000c0d3 	.word	0x0000c0d3
    2edc:	0000c0db 	.word	0x0000c0db
    2ee0:	0000c128 	.word	0x0000c128

00002ee4 <__mriCmd_HandleBinaryMemoryWriteCommand>:
    2ee4:	b537      	push	{r0, r1, r2, r4, r5, lr}
    2ee6:	f7fd ff87 	bl	df8 <__mriCore_GetBuffer>
    2eea:	4d12      	ldr	r5, [pc, #72]	; (2f34 <__mriCmd_HandleBinaryMemoryWriteCommand+0x50>)
    2eec:	2300      	movs	r3, #0
    2eee:	4669      	mov	r1, sp
    2ef0:	602b      	str	r3, [r5, #0]
    2ef2:	4604      	mov	r4, r0
    2ef4:	f7ff fdee 	bl	2ad4 <__mriCmd_ReadAddressAndLengthArguments>
    2ef8:	682b      	ldr	r3, [r5, #0]
    2efa:	b91b      	cbnz	r3, 2f04 <__mriCmd_HandleBinaryMemoryWriteCommand+0x20>
    2efc:	4620      	mov	r0, r4
    2efe:	213a      	movs	r1, #58	; 0x3a
    2f00:	f7ff fdda 	bl	2ab8 <__mriCmd_ThrowIfNextCharIsNotEqualTo>
    2f04:	682b      	ldr	r3, [r5, #0]
    2f06:	b10b      	cbz	r3, 2f0c <__mriCmd_HandleBinaryMemoryWriteCommand+0x28>
    2f08:	480b      	ldr	r0, [pc, #44]	; (2f38 <__mriCmd_HandleBinaryMemoryWriteCommand+0x54>)
    2f0a:	e00e      	b.n	2f2a <__mriCmd_HandleBinaryMemoryWriteCommand+0x46>
    2f0c:	4620      	mov	r0, r4
    2f0e:	e89d 0006 	ldmia.w	sp, {r1, r2}
    2f12:	f000 fa47 	bl	33a4 <__mriMem_WriteBinaryBufferToMemory>
    2f16:	b108      	cbz	r0, 2f1c <__mriCmd_HandleBinaryMemoryWriteCommand+0x38>
    2f18:	4808      	ldr	r0, [pc, #32]	; (2f3c <__mriCmd_HandleBinaryMemoryWriteCommand+0x58>)
    2f1a:	e006      	b.n	2f2a <__mriCmd_HandleBinaryMemoryWriteCommand+0x46>
    2f1c:	4620      	mov	r0, r4
    2f1e:	f7ff fb69 	bl	25f4 <__mriBuffer_OverrunDetected>
    2f22:	b108      	cbz	r0, 2f28 <__mriCmd_HandleBinaryMemoryWriteCommand+0x44>
    2f24:	4806      	ldr	r0, [pc, #24]	; (2f40 <__mriCmd_HandleBinaryMemoryWriteCommand+0x5c>)
    2f26:	e000      	b.n	2f2a <__mriCmd_HandleBinaryMemoryWriteCommand+0x46>
    2f28:	4806      	ldr	r0, [pc, #24]	; (2f44 <__mriCmd_HandleBinaryMemoryWriteCommand+0x60>)
    2f2a:	f7fd fefb 	bl	d24 <__mriCore_PrepareStringResponse>
    2f2e:	2000      	movs	r0, #0
    2f30:	bd3e      	pop	{r1, r2, r3, r4, r5, pc}
    2f32:	bf00      	nop
    2f34:	10000724 	.word	0x10000724
    2f38:	0000c0d3 	.word	0x0000c0d3
    2f3c:	0000c0db 	.word	0x0000c0db
    2f40:	0000b524 	.word	0x0000b524
    2f44:	0000c128 	.word	0x0000c128

00002f48 <handleQueryTransferReadCommand>:
    2f48:	e92d 43f8 	stmdb	sp!, {r3, r4, r5, r6, r7, r8, r9, lr}
    2f4c:	4604      	mov	r4, r0
    2f4e:	f7fd ff53 	bl	df8 <__mriCore_GetBuffer>
    2f52:	68a7      	ldr	r7, [r4, #8]
    2f54:	6863      	ldr	r3, [r4, #4]
    2f56:	4606      	mov	r6, r0
    2f58:	429f      	cmp	r7, r3
    2f5a:	68e5      	ldr	r5, [r4, #12]
    2f5c:	d204      	bcs.n	2f68 <handleQueryTransferReadCommand+0x20>
    2f5e:	ebc7 0803 	rsb	r8, r7, r3
    2f62:	f04f 096d 	mov.w	r9, #109	; 0x6d
    2f66:	e004      	b.n	2f72 <handleQueryTransferReadCommand+0x2a>
    2f68:	f04f 0800 	mov.w	r8, #0
    2f6c:	4645      	mov	r5, r8
    2f6e:	f04f 096c 	mov.w	r9, #108	; 0x6c
    2f72:	f7fd fec7 	bl	d04 <__mriCore_InitBuffer>
    2f76:	4630      	mov	r0, r6
    2f78:	f7ff fb1f 	bl	25ba <__mriBuffer_BytesLeft>
    2f7c:	42a8      	cmp	r0, r5
    2f7e:	bf38      	it	cc
    2f80:	4605      	movcc	r5, r0
    2f82:	4545      	cmp	r5, r8
    2f84:	bf88      	it	hi
    2f86:	f04f 096c 	movhi.w	r9, #108	; 0x6c
    2f8a:	4630      	mov	r0, r6
    2f8c:	4649      	mov	r1, r9
    2f8e:	bf88      	it	hi
    2f90:	4645      	movhi	r5, r8
    2f92:	f7ff fb37 	bl	2604 <__mriBuffer_WriteChar>
    2f96:	6821      	ldr	r1, [r4, #0]
    2f98:	4630      	mov	r0, r6
    2f9a:	19c9      	adds	r1, r1, r7
    2f9c:	462a      	mov	r2, r5
    2f9e:	e8bd 43f8 	ldmia.w	sp!, {r3, r4, r5, r6, r7, r8, r9, lr}
    2fa2:	f7ff bb95 	b.w	26d0 <__mriBuffer_WriteSizedString>
	...

00002fa8 <readQueryTransferReadArguments>:
    2fa8:	b5f7      	push	{r0, r1, r2, r4, r5, r6, r7, lr}
    2faa:	4604      	mov	r4, r0
    2fac:	460e      	mov	r6, r1
    2fae:	4608      	mov	r0, r1
    2fb0:	2210      	movs	r2, #16
    2fb2:	2100      	movs	r1, #0
    2fb4:	f003 fc77 	bl	68a6 <memset>
    2fb8:	4620      	mov	r0, r4
    2fba:	213a      	movs	r1, #58	; 0x3a
    2fbc:	f7ff fc24 	bl	2808 <__mriBuffer_IsNextCharEqualTo>
    2fc0:	b150      	cbz	r0, 2fd8 <readQueryTransferReadArguments+0x30>
    2fc2:	4620      	mov	r0, r4
    2fc4:	491c      	ldr	r1, [pc, #112]	; (3038 <readQueryTransferReadArguments+0x90>)
    2fc6:	2204      	movs	r2, #4
    2fc8:	f7ff fc62 	bl	2890 <__mriBuffer_MatchesString>
    2fcc:	b120      	cbz	r0, 2fd8 <readQueryTransferReadArguments+0x30>
    2fce:	4620      	mov	r0, r4
    2fd0:	213a      	movs	r1, #58	; 0x3a
    2fd2:	f7ff fc19 	bl	2808 <__mriBuffer_IsNextCharEqualTo>
    2fd6:	b930      	cbnz	r0, 2fe6 <readQueryTransferReadArguments+0x3e>
    2fd8:	4b18      	ldr	r3, [pc, #96]	; (303c <readQueryTransferReadArguments+0x94>)
    2fda:	681a      	ldr	r2, [r3, #0]
    2fdc:	2a04      	cmp	r2, #4
    2fde:	bfb8      	it	lt
    2fe0:	2204      	movlt	r2, #4
    2fe2:	601a      	str	r2, [r3, #0]
    2fe4:	e027      	b.n	3036 <readQueryTransferReadArguments+0x8e>
    2fe6:	4d15      	ldr	r5, [pc, #84]	; (303c <readQueryTransferReadArguments+0x94>)
    2fe8:	2300      	movs	r3, #0
    2fea:	4915      	ldr	r1, [pc, #84]	; (3040 <readQueryTransferReadArguments+0x98>)
    2fec:	4620      	mov	r0, r4
    2fee:	220a      	movs	r2, #10
    2ff0:	602b      	str	r3, [r5, #0]
    2ff2:	f7ff fc4d 	bl	2890 <__mriBuffer_MatchesString>
    2ff6:	4607      	mov	r7, r0
    2ff8:	213a      	movs	r1, #58	; 0x3a
    2ffa:	4620      	mov	r0, r4
    2ffc:	b97f      	cbnz	r7, 301e <readQueryTransferReadArguments+0x76>
    2ffe:	f7ff fc03 	bl	2808 <__mriBuffer_IsNextCharEqualTo>
    3002:	b188      	cbz	r0, 3028 <readQueryTransferReadArguments+0x80>
    3004:	4b0d      	ldr	r3, [pc, #52]	; (303c <readQueryTransferReadArguments+0x94>)
    3006:	6037      	str	r7, [r6, #0]
    3008:	681b      	ldr	r3, [r3, #0]
    300a:	b9a3      	cbnz	r3, 3036 <readQueryTransferReadArguments+0x8e>
    300c:	4620      	mov	r0, r4
    300e:	4669      	mov	r1, sp
    3010:	f7ff fd60 	bl	2ad4 <__mriCmd_ReadAddressAndLengthArguments>
    3014:	9b00      	ldr	r3, [sp, #0]
    3016:	60b3      	str	r3, [r6, #8]
    3018:	9b01      	ldr	r3, [sp, #4]
    301a:	60f3      	str	r3, [r6, #12]
    301c:	e00b      	b.n	3036 <readQueryTransferReadArguments+0x8e>
    301e:	f7ff fbf3 	bl	2808 <__mriBuffer_IsNextCharEqualTo>
    3022:	b108      	cbz	r0, 3028 <readQueryTransferReadArguments+0x80>
    3024:	4f06      	ldr	r7, [pc, #24]	; (3040 <readQueryTransferReadArguments+0x98>)
    3026:	e7ed      	b.n	3004 <readQueryTransferReadArguments+0x5c>
    3028:	682b      	ldr	r3, [r5, #0]
    302a:	4607      	mov	r7, r0
    302c:	2b04      	cmp	r3, #4
    302e:	bfb8      	it	lt
    3030:	2304      	movlt	r3, #4
    3032:	602b      	str	r3, [r5, #0]
    3034:	e7e6      	b.n	3004 <readQueryTransferReadArguments+0x5c>
    3036:	bdfe      	pop	{r1, r2, r3, r4, r5, r6, r7, pc}
    3038:	0000c198 	.word	0x0000c198
    303c:	10000724 	.word	0x10000724
    3040:	0000c16e 	.word	0x0000c16e

00003044 <__mriCmd_HandleQueryCommand>:
    3044:	b57f      	push	{r0, r1, r2, r3, r4, r5, r6, lr}
    3046:	f7fd fed7 	bl	df8 <__mriCore_GetBuffer>
    304a:	4935      	ldr	r1, [pc, #212]	; (3120 <__mriCmd_HandleQueryCommand+0xdc>)
    304c:	2209      	movs	r2, #9
    304e:	4604      	mov	r4, r0
    3050:	f7ff fc1e 	bl	2890 <__mriBuffer_MatchesString>
    3054:	4606      	mov	r6, r0
    3056:	b168      	cbz	r0, 3074 <__mriCmd_HandleQueryCommand+0x30>
    3058:	f7fe fb14 	bl	1684 <__mriPlatform_GetPacketBufferSize>
    305c:	4605      	mov	r5, r0
    305e:	f7fd fecf 	bl	e00 <__mriCore_GetInitializedBuffer>
    3062:	4930      	ldr	r1, [pc, #192]	; (3124 <__mriCmd_HandleQueryCommand+0xe0>)
    3064:	4604      	mov	r4, r0
    3066:	f7ff fb4b 	bl	2700 <__mriBuffer_WriteString>
    306a:	4620      	mov	r0, r4
    306c:	4629      	mov	r1, r5
    306e:	f7ff fb87 	bl	2780 <__mriBuffer_WriteUIntegerAsHex>
    3072:	e051      	b.n	3118 <__mriCmd_HandleQueryCommand+0xd4>
    3074:	4620      	mov	r0, r4
    3076:	492c      	ldr	r1, [pc, #176]	; (3128 <__mriCmd_HandleQueryCommand+0xe4>)
    3078:	2204      	movs	r2, #4
    307a:	f7ff fc09 	bl	2890 <__mriBuffer_MatchesString>
    307e:	2800      	cmp	r0, #0
    3080:	d047      	beq.n	3112 <__mriCmd_HandleQueryCommand+0xce>
    3082:	f7fd feb9 	bl	df8 <__mriCore_GetBuffer>
    3086:	213a      	movs	r1, #58	; 0x3a
    3088:	4604      	mov	r4, r0
    308a:	f7ff fbbd 	bl	2808 <__mriBuffer_IsNextCharEqualTo>
    308e:	2800      	cmp	r0, #0
    3090:	d033      	beq.n	30fa <__mriCmd_HandleQueryCommand+0xb6>
    3092:	4620      	mov	r0, r4
    3094:	4925      	ldr	r1, [pc, #148]	; (312c <__mriCmd_HandleQueryCommand+0xe8>)
    3096:	220a      	movs	r2, #10
    3098:	f7ff fbfa 	bl	2890 <__mriBuffer_MatchesString>
    309c:	4605      	mov	r5, r0
    309e:	b1a0      	cbz	r0, 30ca <__mriCmd_HandleQueryCommand+0x86>
    30a0:	4c23      	ldr	r4, [pc, #140]	; (3130 <__mriCmd_HandleQueryCommand+0xec>)
    30a2:	f7fd fea9 	bl	df8 <__mriCore_GetBuffer>
    30a6:	6026      	str	r6, [r4, #0]
    30a8:	4669      	mov	r1, sp
    30aa:	f7ff ff7d 	bl	2fa8 <readQueryTransferReadArguments>
    30ae:	6823      	ldr	r3, [r4, #0]
    30b0:	b91b      	cbnz	r3, 30ba <__mriCmd_HandleQueryCommand+0x76>
    30b2:	9b00      	ldr	r3, [sp, #0]
    30b4:	b10b      	cbz	r3, 30ba <__mriCmd_HandleQueryCommand+0x76>
    30b6:	2304      	movs	r3, #4
    30b8:	6023      	str	r3, [r4, #0]
    30ba:	6823      	ldr	r3, [r4, #0]
    30bc:	b9eb      	cbnz	r3, 30fa <__mriCmd_HandleQueryCommand+0xb6>
    30be:	f7fe ffdb 	bl	2078 <__mriPlatform_GetDeviceMemoryMapXml>
    30c2:	9000      	str	r0, [sp, #0]
    30c4:	f7fe ffd4 	bl	2070 <__mriPlatform_GetDeviceMemoryMapXmlSize>
    30c8:	e01e      	b.n	3108 <__mriCmd_HandleQueryCommand+0xc4>
    30ca:	4620      	mov	r0, r4
    30cc:	4919      	ldr	r1, [pc, #100]	; (3134 <__mriCmd_HandleQueryCommand+0xf0>)
    30ce:	2208      	movs	r2, #8
    30d0:	f7ff fbde 	bl	2890 <__mriBuffer_MatchesString>
    30d4:	b1e8      	cbz	r0, 3112 <__mriCmd_HandleQueryCommand+0xce>
    30d6:	4c16      	ldr	r4, [pc, #88]	; (3130 <__mriCmd_HandleQueryCommand+0xec>)
    30d8:	f7fd fe8e 	bl	df8 <__mriCore_GetBuffer>
    30dc:	6025      	str	r5, [r4, #0]
    30de:	4669      	mov	r1, sp
    30e0:	f7ff ff62 	bl	2fa8 <readQueryTransferReadArguments>
    30e4:	6823      	ldr	r3, [r4, #0]
    30e6:	b933      	cbnz	r3, 30f6 <__mriCmd_HandleQueryCommand+0xb2>
    30e8:	9800      	ldr	r0, [sp, #0]
    30ea:	4913      	ldr	r1, [pc, #76]	; (3138 <__mriCmd_HandleQueryCommand+0xf4>)
    30ec:	f003 feb9 	bl	6e62 <strcmp>
    30f0:	b108      	cbz	r0, 30f6 <__mriCmd_HandleQueryCommand+0xb2>
    30f2:	2304      	movs	r3, #4
    30f4:	6023      	str	r3, [r4, #0]
    30f6:	6823      	ldr	r3, [r4, #0]
    30f8:	b10b      	cbz	r3, 30fe <__mriCmd_HandleQueryCommand+0xba>
    30fa:	4810      	ldr	r0, [pc, #64]	; (313c <__mriCmd_HandleQueryCommand+0xf8>)
    30fc:	e00a      	b.n	3114 <__mriCmd_HandleQueryCommand+0xd0>
    30fe:	f7fe fd9b 	bl	1c38 <__mriPlatform_GetTargetXml>
    3102:	9000      	str	r0, [sp, #0]
    3104:	f7fe fd94 	bl	1c30 <__mriPlatform_GetTargetXmlSize>
    3108:	9001      	str	r0, [sp, #4]
    310a:	4668      	mov	r0, sp
    310c:	f7ff ff1c 	bl	2f48 <handleQueryTransferReadCommand>
    3110:	e002      	b.n	3118 <__mriCmd_HandleQueryCommand+0xd4>
    3112:	480b      	ldr	r0, [pc, #44]	; (3140 <__mriCmd_HandleQueryCommand+0xfc>)
    3114:	f7fd fe06 	bl	d24 <__mriCore_PrepareStringResponse>
    3118:	2000      	movs	r0, #0
    311a:	b004      	add	sp, #16
    311c:	bd70      	pop	{r4, r5, r6, pc}
    311e:	bf00      	nop
    3120:	0000c164 	.word	0x0000c164
    3124:	0000c12c 	.word	0x0000c12c
    3128:	0000c19d 	.word	0x0000c19d
    312c:	0000c182 	.word	0x0000c182
    3130:	10000724 	.word	0x10000724
    3134:	0000c179 	.word	0x0000c179
    3138:	0000c18d 	.word	0x0000c18d
    313c:	0000c0d3 	.word	0x0000c0d3
    3140:	0000b53a 	.word	0x0000b53a

00003144 <__mriCmd_Send_T_StopResponse>:
    3144:	b510      	push	{r4, lr}
    3146:	f7fd fe5b 	bl	e00 <__mriCore_GetInitializedBuffer>
    314a:	2154      	movs	r1, #84	; 0x54
    314c:	4604      	mov	r4, r0
    314e:	f7ff fa59 	bl	2604 <__mriBuffer_WriteChar>
    3152:	f7fd fe3f 	bl	dd4 <__mriCore_GetSignalValue>
    3156:	4601      	mov	r1, r0
    3158:	4620      	mov	r0, r4
    315a:	f7ff fa79 	bl	2650 <__mriBuffer_WriteByteAsHex>
    315e:	4620      	mov	r0, r4
    3160:	f7fe fc5a 	bl	1a18 <__mriPlatform_WriteTResponseRegistersToBuffer>
    3164:	f7fd fe54 	bl	e10 <__mriCore_SendPacketToGdb>
    3168:	2002      	movs	r0, #2
    316a:	bd10      	pop	{r4, pc}

0000316c <__mriCmd_HandleRegisterReadCommand>:
    316c:	b508      	push	{r3, lr}
    316e:	f7fd fe47 	bl	e00 <__mriCore_GetInitializedBuffer>
    3172:	f7fe fc6f 	bl	1a54 <__mriPlatform_CopyContextToBuffer>
    3176:	2000      	movs	r0, #0
    3178:	bd08      	pop	{r3, pc}
	...

0000317c <__mriCmd_HandleRegisterWriteCommand>:
    317c:	b510      	push	{r4, lr}
    317e:	f7fd fe3b 	bl	df8 <__mriCore_GetBuffer>
    3182:	4604      	mov	r4, r0
    3184:	f7fe fc76 	bl	1a74 <__mriPlatform_CopyContextFromBuffer>
    3188:	4620      	mov	r0, r4
    318a:	f7ff fa33 	bl	25f4 <__mriBuffer_OverrunDetected>
    318e:	b108      	cbz	r0, 3194 <__mriCmd_HandleRegisterWriteCommand+0x18>
    3190:	4803      	ldr	r0, [pc, #12]	; (31a0 <__mriCmd_HandleRegisterWriteCommand+0x24>)
    3192:	e000      	b.n	3196 <__mriCmd_HandleRegisterWriteCommand+0x1a>
    3194:	4803      	ldr	r0, [pc, #12]	; (31a4 <__mriCmd_HandleRegisterWriteCommand+0x28>)
    3196:	f7fd fdc5 	bl	d24 <__mriCore_PrepareStringResponse>
    319a:	2000      	movs	r0, #0
    319c:	bd10      	pop	{r4, pc}
    319e:	bf00      	nop
    31a0:	0000b524 	.word	0x0000b524
    31a4:	0000c0db 	.word	0x0000c0db

000031a8 <__mriCmd_HandleSingleStepCommand>:
    31a8:	b508      	push	{r3, lr}
    31aa:	f7ff fcbd 	bl	2b28 <__mriCmd_HandleContinueCommand>
    31ae:	0743      	lsls	r3, r0, #29
    31b0:	d503      	bpl.n	31ba <__mriCmd_HandleSingleStepCommand+0x12>
    31b2:	e8bd 4008 	ldmia.w	sp!, {r3, lr}
    31b6:	f7ff bfc5 	b.w	3144 <__mriCmd_Send_T_StopResponse>
    31ba:	f7fe fa23 	bl	1604 <__mriPlatform_EnableSingleStep>
    31be:	2003      	movs	r0, #3
    31c0:	bd08      	pop	{r3, pc}

000031c2 <__mriGdbConsole_WriteString>:
    31c2:	b538      	push	{r3, r4, r5, lr}
    31c4:	4605      	mov	r5, r0
    31c6:	f7fe fd81 	bl	1ccc <__mriPlatform_CommSharingWithApplication>
    31ca:	b150      	cbz	r0, 31e2 <__mriGdbConsole_WriteString+0x20>
    31cc:	f7fd fdf4 	bl	db8 <__mriCore_IsFirstException>
    31d0:	b138      	cbz	r0, 31e2 <__mriGdbConsole_WriteString+0x20>
    31d2:	e001      	b.n	31d8 <__mriGdbConsole_WriteString+0x16>
    31d4:	f7fe fd58 	bl	1c88 <__mriPlatform_CommSendChar>
    31d8:	f815 0b01 	ldrb.w	r0, [r5], #1
    31dc:	2800      	cmp	r0, #0
    31de:	d1f9      	bne.n	31d4 <__mriGdbConsole_WriteString+0x12>
    31e0:	bd38      	pop	{r3, r4, r5, pc}
    31e2:	f7fd fe0d 	bl	e00 <__mriCore_GetInitializedBuffer>
    31e6:	214f      	movs	r1, #79	; 0x4f
    31e8:	4604      	mov	r4, r0
    31ea:	f7ff fa0b 	bl	2604 <__mriBuffer_WriteChar>
    31ee:	4628      	mov	r0, r5
    31f0:	f003 fe41 	bl	6e76 <strlen>
    31f4:	4629      	mov	r1, r5
    31f6:	4602      	mov	r2, r0
    31f8:	4620      	mov	r0, r4
    31fa:	f000 f890 	bl	331e <__mriMem_ReadMemoryIntoHexBuffer>
    31fe:	4620      	mov	r0, r4
    3200:	f7ff f9f8 	bl	25f4 <__mriBuffer_OverrunDetected>
    3204:	b918      	cbnz	r0, 320e <__mriGdbConsole_WriteString+0x4c>
    3206:	e8bd 4038 	ldmia.w	sp!, {r3, r4, r5, lr}
    320a:	f7fd be01 	b.w	e10 <__mriCore_SendPacketToGdb>
    320e:	bd38      	pop	{r3, r4, r5, pc}

00003210 <__mriGdbConsole_WriteHexValue>:
    3210:	b510      	push	{r4, lr}
    3212:	b086      	sub	sp, #24
    3214:	220b      	movs	r2, #11
    3216:	4604      	mov	r4, r0
    3218:	a903      	add	r1, sp, #12
    321a:	4668      	mov	r0, sp
    321c:	f7ff f9c2 	bl	25a4 <__mriBuffer_Init>
    3220:	4668      	mov	r0, sp
    3222:	4908      	ldr	r1, [pc, #32]	; (3244 <__mriGdbConsole_WriteHexValue+0x34>)
    3224:	f7ff fa6c 	bl	2700 <__mriBuffer_WriteString>
    3228:	4668      	mov	r0, sp
    322a:	4621      	mov	r1, r4
    322c:	f7ff faa8 	bl	2780 <__mriBuffer_WriteUIntegerAsHex>
    3230:	4668      	mov	r0, sp
    3232:	2100      	movs	r1, #0
    3234:	f7ff f9e6 	bl	2604 <__mriBuffer_WriteChar>
    3238:	a803      	add	r0, sp, #12
    323a:	f7ff ffc2 	bl	31c2 <__mriGdbConsole_WriteString>
    323e:	b006      	add	sp, #24
    3240:	bd10      	pop	{r4, pc}
    3242:	bf00      	nop
    3244:	0000c1a2 	.word	0x0000c1a2

00003248 <writeBinaryBufferToByteMemory>:
    3248:	e92d 43f8 	stmdb	sp!, {r3, r4, r5, r6, r7, r8, r9, lr}
    324c:	4604      	mov	r4, r0
    324e:	4616      	mov	r6, r2
    3250:	4688      	mov	r8, r1
    3252:	4d15      	ldr	r5, [pc, #84]	; (32a8 <writeBinaryBufferToByteMemory+0x60>)
    3254:	f04f 0900 	mov.w	r9, #0
    3258:	e01a      	b.n	3290 <writeBinaryBufferToByteMemory+0x48>
    325a:	4620      	mov	r0, r4
    325c:	f8c5 9000 	str.w	r9, [r5]
    3260:	f7ff f9e2 	bl	2628 <__mriBuffer_ReadChar>
    3264:	682f      	ldr	r7, [r5, #0]
    3266:	b95f      	cbnz	r7, 3280 <writeBinaryBufferToByteMemory+0x38>
    3268:	287d      	cmp	r0, #125	; 0x7d
    326a:	d109      	bne.n	3280 <writeBinaryBufferToByteMemory+0x38>
    326c:	4620      	mov	r0, r4
    326e:	f7ff f9db 	bl	2628 <__mriBuffer_ReadChar>
    3272:	682b      	ldr	r3, [r5, #0]
    3274:	b91b      	cbnz	r3, 327e <writeBinaryBufferToByteMemory+0x36>
    3276:	f080 0020 	eor.w	r0, r0, #32
    327a:	b2c0      	uxtb	r0, r0
    327c:	e000      	b.n	3280 <writeBinaryBufferToByteMemory+0x38>
    327e:	4638      	mov	r0, r7
    3280:	682f      	ldr	r7, [r5, #0]
    3282:	b957      	cbnz	r7, 329a <writeBinaryBufferToByteMemory+0x52>
    3284:	f808 0b01 	strb.w	r0, [r8], #1
    3288:	f7fe fbb4 	bl	19f4 <__mriPlatform_WasMemoryFaultEncountered>
    328c:	3e01      	subs	r6, #1
    328e:	b938      	cbnz	r0, 32a0 <writeBinaryBufferToByteMemory+0x58>
    3290:	2e00      	cmp	r6, #0
    3292:	d1e2      	bne.n	325a <writeBinaryBufferToByteMemory+0x12>
    3294:	2001      	movs	r0, #1
    3296:	e8bd 83f8 	ldmia.w	sp!, {r3, r4, r5, r6, r7, r8, r9, pc}
    329a:	2000      	movs	r0, #0
    329c:	e8bd 83f8 	ldmia.w	sp!, {r3, r4, r5, r6, r7, r8, r9, pc}
    32a0:	4638      	mov	r0, r7
    32a2:	e8bd 83f8 	ldmia.w	sp!, {r3, r4, r5, r6, r7, r8, r9, pc}
    32a6:	bf00      	nop
    32a8:	10000724 	.word	0x10000724

000032ac <writeHexBufferToByteMemory>:
    32ac:	e92d 43f8 	stmdb	sp!, {r3, r4, r5, r6, r7, r8, r9, lr}
    32b0:	4604      	mov	r4, r0
    32b2:	4615      	mov	r5, r2
    32b4:	4688      	mov	r8, r1
    32b6:	4f0e      	ldr	r7, [pc, #56]	; (32f0 <writeHexBufferToByteMemory+0x44>)
    32b8:	f04f 0900 	mov.w	r9, #0
    32bc:	e00c      	b.n	32d8 <writeHexBufferToByteMemory+0x2c>
    32be:	f8c7 9000 	str.w	r9, [r7]
    32c2:	4620      	mov	r0, r4
    32c4:	f7ff f9e0 	bl	2688 <__mriBuffer_ReadByteAsHex>
    32c8:	683e      	ldr	r6, [r7, #0]
    32ca:	b956      	cbnz	r6, 32e2 <writeHexBufferToByteMemory+0x36>
    32cc:	f808 0b01 	strb.w	r0, [r8], #1
    32d0:	f7fe fb90 	bl	19f4 <__mriPlatform_WasMemoryFaultEncountered>
    32d4:	3d01      	subs	r5, #1
    32d6:	b938      	cbnz	r0, 32e8 <writeHexBufferToByteMemory+0x3c>
    32d8:	2d00      	cmp	r5, #0
    32da:	d1f0      	bne.n	32be <writeHexBufferToByteMemory+0x12>
    32dc:	2001      	movs	r0, #1
    32de:	e8bd 83f8 	ldmia.w	sp!, {r3, r4, r5, r6, r7, r8, r9, pc}
    32e2:	2000      	movs	r0, #0
    32e4:	e8bd 83f8 	ldmia.w	sp!, {r3, r4, r5, r6, r7, r8, r9, pc}
    32e8:	4630      	mov	r0, r6
    32ea:	e8bd 83f8 	ldmia.w	sp!, {r3, r4, r5, r6, r7, r8, r9, pc}
    32ee:	bf00      	nop
    32f0:	10000724 	.word	0x10000724

000032f4 <readMemoryBytesIntoHexBuffer>:
    32f4:	b5f8      	push	{r3, r4, r5, r6, r7, lr}
    32f6:	4604      	mov	r4, r0
    32f8:	4616      	mov	r6, r2
    32fa:	460d      	mov	r5, r1
    32fc:	e009      	b.n	3312 <readMemoryBytesIntoHexBuffer+0x1e>
    32fe:	782f      	ldrb	r7, [r5, #0]
    3300:	f7fe fb78 	bl	19f4 <__mriPlatform_WasMemoryFaultEncountered>
    3304:	3e01      	subs	r6, #1
    3306:	b940      	cbnz	r0, 331a <readMemoryBytesIntoHexBuffer+0x26>
    3308:	4620      	mov	r0, r4
    330a:	4639      	mov	r1, r7
    330c:	3501      	adds	r5, #1
    330e:	f7ff f99f 	bl	2650 <__mriBuffer_WriteByteAsHex>
    3312:	2e00      	cmp	r6, #0
    3314:	d1f3      	bne.n	32fe <readMemoryBytesIntoHexBuffer+0xa>
    3316:	2001      	movs	r0, #1
    3318:	bdf8      	pop	{r3, r4, r5, r6, r7, pc}
    331a:	2000      	movs	r0, #0
    331c:	bdf8      	pop	{r3, r4, r5, r6, r7, pc}

0000331e <__mriMem_ReadMemoryIntoHexBuffer>:
    331e:	2a02      	cmp	r2, #2
    3320:	b537      	push	{r0, r1, r2, r4, r5, lr}
    3322:	4604      	mov	r4, r0
    3324:	4615      	mov	r5, r2
    3326:	d002      	beq.n	332e <__mriMem_ReadMemoryIntoHexBuffer+0x10>
    3328:	2a04      	cmp	r2, #4
    332a:	d116      	bne.n	335a <__mriMem_ReadMemoryIntoHexBuffer+0x3c>
    332c:	e009      	b.n	3342 <__mriMem_ReadMemoryIntoHexBuffer+0x24>
    332e:	880b      	ldrh	r3, [r1, #0]
    3330:	f8ad 3006 	strh.w	r3, [sp, #6]
    3334:	f7fe fb5e 	bl	19f4 <__mriPlatform_WasMemoryFaultEncountered>
    3338:	b990      	cbnz	r0, 3360 <__mriMem_ReadMemoryIntoHexBuffer+0x42>
    333a:	4620      	mov	r0, r4
    333c:	f10d 0106 	add.w	r1, sp, #6
    3340:	e006      	b.n	3350 <__mriMem_ReadMemoryIntoHexBuffer+0x32>
    3342:	680b      	ldr	r3, [r1, #0]
    3344:	9300      	str	r3, [sp, #0]
    3346:	f7fe fb55 	bl	19f4 <__mriPlatform_WasMemoryFaultEncountered>
    334a:	b948      	cbnz	r0, 3360 <__mriMem_ReadMemoryIntoHexBuffer+0x42>
    334c:	4620      	mov	r0, r4
    334e:	4669      	mov	r1, sp
    3350:	462a      	mov	r2, r5
    3352:	f7ff ffcf 	bl	32f4 <readMemoryBytesIntoHexBuffer>
    3356:	2001      	movs	r0, #1
    3358:	e003      	b.n	3362 <__mriMem_ReadMemoryIntoHexBuffer+0x44>
    335a:	f7ff ffcb 	bl	32f4 <readMemoryBytesIntoHexBuffer>
    335e:	e000      	b.n	3362 <__mriMem_ReadMemoryIntoHexBuffer+0x44>
    3360:	2000      	movs	r0, #0
    3362:	bd3e      	pop	{r1, r2, r3, r4, r5, pc}

00003364 <__mriMem_WriteHexBufferToMemory>:
    3364:	2a02      	cmp	r2, #2
    3366:	b513      	push	{r0, r1, r4, lr}
    3368:	460c      	mov	r4, r1
    336a:	d002      	beq.n	3372 <__mriMem_WriteHexBufferToMemory+0xe>
    336c:	2a04      	cmp	r2, #4
    336e:	d116      	bne.n	339e <__mriMem_WriteHexBufferToMemory+0x3a>
    3370:	e008      	b.n	3384 <__mriMem_WriteHexBufferToMemory+0x20>
    3372:	f10d 0106 	add.w	r1, sp, #6
    3376:	f7ff ff99 	bl	32ac <writeHexBufferToByteMemory>
    337a:	b190      	cbz	r0, 33a2 <__mriMem_WriteHexBufferToMemory+0x3e>
    337c:	f8bd 3006 	ldrh.w	r3, [sp, #6]
    3380:	8023      	strh	r3, [r4, #0]
    3382:	e005      	b.n	3390 <__mriMem_WriteHexBufferToMemory+0x2c>
    3384:	4669      	mov	r1, sp
    3386:	f7ff ff91 	bl	32ac <writeHexBufferToByteMemory>
    338a:	b150      	cbz	r0, 33a2 <__mriMem_WriteHexBufferToMemory+0x3e>
    338c:	9b00      	ldr	r3, [sp, #0]
    338e:	6023      	str	r3, [r4, #0]
    3390:	f7fe fb30 	bl	19f4 <__mriPlatform_WasMemoryFaultEncountered>
    3394:	f1d0 0001 	rsbs	r0, r0, #1
    3398:	bf38      	it	cc
    339a:	2000      	movcc	r0, #0
    339c:	e001      	b.n	33a2 <__mriMem_WriteHexBufferToMemory+0x3e>
    339e:	f7ff ff85 	bl	32ac <writeHexBufferToByteMemory>
    33a2:	bd1c      	pop	{r2, r3, r4, pc}

000033a4 <__mriMem_WriteBinaryBufferToMemory>:
    33a4:	2a02      	cmp	r2, #2
    33a6:	b513      	push	{r0, r1, r4, lr}
    33a8:	460c      	mov	r4, r1
    33aa:	d002      	beq.n	33b2 <__mriMem_WriteBinaryBufferToMemory+0xe>
    33ac:	2a04      	cmp	r2, #4
    33ae:	d116      	bne.n	33de <__mriMem_WriteBinaryBufferToMemory+0x3a>
    33b0:	e008      	b.n	33c4 <__mriMem_WriteBinaryBufferToMemory+0x20>
    33b2:	f10d 0106 	add.w	r1, sp, #6
    33b6:	f7ff ff47 	bl	3248 <writeBinaryBufferToByteMemory>
    33ba:	b190      	cbz	r0, 33e2 <__mriMem_WriteBinaryBufferToMemory+0x3e>
    33bc:	f8bd 3006 	ldrh.w	r3, [sp, #6]
    33c0:	8023      	strh	r3, [r4, #0]
    33c2:	e005      	b.n	33d0 <__mriMem_WriteBinaryBufferToMemory+0x2c>
    33c4:	4669      	mov	r1, sp
    33c6:	f7ff ff3f 	bl	3248 <writeBinaryBufferToByteMemory>
    33ca:	b150      	cbz	r0, 33e2 <__mriMem_WriteBinaryBufferToMemory+0x3e>
    33cc:	9b00      	ldr	r3, [sp, #0]
    33ce:	6023      	str	r3, [r4, #0]
    33d0:	f7fe fb10 	bl	19f4 <__mriPlatform_WasMemoryFaultEncountered>
    33d4:	f1d0 0001 	rsbs	r0, r0, #1
    33d8:	bf38      	it	cc
    33da:	2000      	movcc	r0, #0
    33dc:	e001      	b.n	33e2 <__mriMem_WriteBinaryBufferToMemory+0x3e>
    33de:	f7ff ff33 	bl	3248 <writeBinaryBufferToByteMemory>
    33e2:	bd1c      	pop	{r2, r3, r4, pc}

000033e4 <Reset_Handler>:
    33e4:	4907      	ldr	r1, [pc, #28]	; (3404 <.flash_to_ram_loop+0x1a>)
    33e6:	4a08      	ldr	r2, [pc, #32]	; (3408 <.flash_to_ram_loop+0x1e>)
    33e8:	4b08      	ldr	r3, [pc, #32]	; (340c <.flash_to_ram_loop+0x22>)

000033ea <.flash_to_ram_loop>:
    33ea:	429a      	cmp	r2, r3
    33ec:	bfbe      	ittt	lt
    33ee:	f851 0b04 	ldrlt.w	r0, [r1], #4
    33f2:	f842 0b04 	strlt.w	r0, [r2], #4
    33f6:	f7ff bff8 	blt.w	33ea <.flash_to_ram_loop>
    33fa:	4805      	ldr	r0, [pc, #20]	; (3410 <.flash_to_ram_loop+0x26>)
    33fc:	4780      	blx	r0
    33fe:	4805      	ldr	r0, [pc, #20]	; (3414 <.flash_to_ram_loop+0x2a>)
    3400:	4700      	bx	r0
    3402:	0000      	.short	0x0000
    3404:	0000ca8c 	.word	0x0000ca8c
    3408:	100000c8 	.word	0x100000c8
    340c:	1000020c 	.word	0x1000020c
    3410:	000034cd 	.word	0x000034cd
    3414:	00000bbd 	.word	0x00000bbd

00003418 <NMI_Handler>:
    3418:	e7fe      	b.n	3418 <NMI_Handler>
    341a:	e7fe      	b.n	341a <NMI_Handler+0x2>
    341c:	e7fe      	b.n	341c <NMI_Handler+0x4>
    341e:	e7fe      	b.n	341e <NMI_Handler+0x6>
    3420:	e7fe      	b.n	3420 <NMI_Handler+0x8>

00003422 <SVC_Handler>:
    3422:	e7fe      	b.n	3422 <SVC_Handler>
    3424:	e7fe      	b.n	3424 <SVC_Handler+0x2>

00003426 <PendSV_Handler>:
    3426:	e7fe      	b.n	3426 <PendSV_Handler>

00003428 <SysTick_Handler>:
    3428:	e7fe      	b.n	3428 <SysTick_Handler>

0000342a <DEF_IRQHandler>:
    342a:	e7fe      	b.n	342a <DEF_IRQHandler>

0000342c <WDT_IRQHandler>:
    342c:	e7fe      	b.n	342c <WDT_IRQHandler>

0000342e <TIMER0_IRQHandler>:
    342e:	e7fe      	b.n	342e <TIMER0_IRQHandler>

00003430 <TIMER1_IRQHandler>:
    3430:	e7fe      	b.n	3430 <TIMER1_IRQHandler>

00003432 <TIMER2_IRQHandler>:
    3432:	e7fe      	b.n	3432 <TIMER2_IRQHandler>

00003434 <TIMER3_IRQHandler>:
    3434:	e7fe      	b.n	3434 <TIMER3_IRQHandler>
    3436:	e7fe      	b.n	3436 <TIMER3_IRQHandler+0x2>
    3438:	e7fe      	b.n	3438 <TIMER3_IRQHandler+0x4>
    343a:	e7fe      	b.n	343a <TIMER3_IRQHandler+0x6>
    343c:	e7fe      	b.n	343c <TIMER3_IRQHandler+0x8>

0000343e <PWM1_IRQHandler>:
    343e:	e7fe      	b.n	343e <PWM1_IRQHandler>

00003440 <I2C0_IRQHandler>:
    3440:	e7fe      	b.n	3440 <I2C0_IRQHandler>

00003442 <I2C1_IRQHandler>:
    3442:	e7fe      	b.n	3442 <I2C1_IRQHandler>

00003444 <I2C2_IRQHandler>:
    3444:	e7fe      	b.n	3444 <I2C2_IRQHandler>

00003446 <SPI_IRQHandler>:
    3446:	e7fe      	b.n	3446 <SPI_IRQHandler>

00003448 <SSP0_IRQHandler>:
    3448:	e7fe      	b.n	3448 <SSP0_IRQHandler>

0000344a <SSP1_IRQHandler>:
    344a:	e7fe      	b.n	344a <SSP1_IRQHandler>

0000344c <PLL0_IRQHandler>:
    344c:	e7fe      	b.n	344c <PLL0_IRQHandler>

0000344e <RTC_IRQHandler>:
    344e:	e7fe      	b.n	344e <RTC_IRQHandler>

00003450 <EINT0_IRQHandler>:
    3450:	e7fe      	b.n	3450 <EINT0_IRQHandler>

00003452 <EINT1_IRQHandler>:
    3452:	e7fe      	b.n	3452 <EINT1_IRQHandler>

00003454 <EINT2_IRQHandler>:
    3454:	e7fe      	b.n	3454 <EINT2_IRQHandler>

00003456 <EINT3_IRQHandler>:
    3456:	e7fe      	b.n	3456 <EINT3_IRQHandler>

00003458 <ADC_IRQHandler>:
    3458:	e7fe      	b.n	3458 <ADC_IRQHandler>

0000345a <BOD_IRQHandler>:
    345a:	e7fe      	b.n	345a <BOD_IRQHandler>

0000345c <USB_IRQHandler>:
    345c:	e7fe      	b.n	345c <USB_IRQHandler>

0000345e <CAN_IRQHandler>:
    345e:	e7fe      	b.n	345e <CAN_IRQHandler>

00003460 <DMA_IRQHandler>:
    3460:	e7fe      	b.n	3460 <DMA_IRQHandler>

00003462 <I2S_IRQHandler>:
    3462:	e7fe      	b.n	3462 <I2S_IRQHandler>

00003464 <ENET_IRQHandler>:
    3464:	e7fe      	b.n	3464 <ENET_IRQHandler>

00003466 <RIT_IRQHandler>:
    3466:	e7fe      	b.n	3466 <RIT_IRQHandler>

00003468 <MCPWM_IRQHandler>:
    3468:	e7fe      	b.n	3468 <MCPWM_IRQHandler>

0000346a <QEI_IRQHandler>:
    346a:	e7fe      	b.n	346a <QEI_IRQHandler>

0000346c <PLL1_IRQHandler>:
    346c:	e7fe      	b.n	346c <PLL1_IRQHandler>

0000346e <USBActivity_IRQHandler>:
    346e:	e7fe      	b.n	346e <USBActivity_IRQHandler>

00003470 <CANActivity_IRQHandler>:
    3470:	e7fe      	b.n	3470 <CANActivity_IRQHandler>
    3472:	bf00      	nop

00003474 <NVIC_SetVector>:
    3474:	f44f 436d 	mov.w	r3, #60672	; 0xed00
    3478:	f2ce 0300 	movt	r3, #57344	; 0xe000
    347c:	689a      	ldr	r2, [r3, #8]
    347e:	b470      	push	{r4, r5, r6}
    3480:	f1b2 5f80 	cmp.w	r2, #268435456	; 0x10000000
    3484:	d019      	beq.n	34ba <NVIC_SetVector+0x46>
    3486:	689e      	ldr	r6, [r3, #8]
    3488:	f04f 5580 	mov.w	r5, #268435456	; 0x10000000
    348c:	6832      	ldr	r2, [r6, #0]
    348e:	f1c6 5480 	rsb	r4, r6, #268435456	; 0x10000000
    3492:	4633      	mov	r3, r6
    3494:	3404      	adds	r4, #4
    3496:	36c0      	adds	r6, #192	; 0xc0
    3498:	602a      	str	r2, [r5, #0]
    349a:	685d      	ldr	r5, [r3, #4]
    349c:	1d1a      	adds	r2, r3, #4
    349e:	50e5      	str	r5, [r4, r3]
    34a0:	689d      	ldr	r5, [r3, #8]
    34a2:	3308      	adds	r3, #8
    34a4:	42b3      	cmp	r3, r6
    34a6:	50a5      	str	r5, [r4, r2]
    34a8:	d1f7      	bne.n	349a <NVIC_SetVector+0x26>
    34aa:	f44f 4c6d 	mov.w	r12, #60672	; 0xed00
    34ae:	f2ce 0c00 	movt	r12, #57344	; 0xe000
    34b2:	f04f 5380 	mov.w	r3, #268435456	; 0x10000000
    34b6:	f8cc 3008 	str.w	r3, [r12, #8]
    34ba:	f100 0010 	add.w	r0, r0, #16
    34be:	0082      	lsls	r2, r0, #2
    34c0:	f102 5c80 	add.w	r12, r2, #268435456	; 0x10000000
    34c4:	f8cc 1000 	str.w	r1, [r12]
    34c8:	bc70      	pop	{r4, r5, r6}
    34ca:	4770      	bx	lr

000034cc <SystemInit>:
    34cc:	f44f 4240 	mov.w	r2, #49152	; 0xc000
    34d0:	f2c4 020f 	movt	r2, #16399	; 0x400f
    34d4:	2320      	movs	r3, #32
    34d6:	b430      	push	{r4, r5}
    34d8:	f8c2 31a0 	str.w	r3, [r2, #416]	; 0x1a0
    34dc:	f8d2 01a0 	ldr.w	r0, [r2, #416]	; 0x1a0
    34e0:	0680      	lsls	r0, r0, #26
    34e2:	d456      	bmi.n	3592 <SystemInit+0xc6>
    34e4:	f44f 4c40 	mov.w	r12, #49152	; 0xc000
    34e8:	f2c4 0c0f 	movt	r12, #16399	; 0x400f
    34ec:	2500      	movs	r5, #0
    34ee:	2002      	movs	r0, #2
    34f0:	f8cc 0104 	str.w	r0, [r12, #260]	; 0x104
    34f4:	2401      	movs	r4, #1
    34f6:	f8cc 51a8 	str.w	r5, [r12, #424]	; 0x1a8
    34fa:	23aa      	movs	r3, #170	; 0xaa
    34fc:	f8cc 51ac 	str.w	r5, [r12, #428]	; 0x1ac
    3500:	2255      	movs	r2, #85	; 0x55
    3502:	250b      	movs	r5, #11
    3504:	f8cc 410c 	str.w	r4, [r12, #268]	; 0x10c
    3508:	4661      	mov	r1, r12
    350a:	f8cc 5084 	str.w	r5, [r12, #132]	; 0x84
    350e:	f8cc 308c 	str.w	r3, [r12, #140]	; 0x8c
    3512:	f8cc 208c 	str.w	r2, [r12, #140]	; 0x8c
    3516:	f8cc 4080 	str.w	r4, [r12, #128]	; 0x80
    351a:	f8cc 308c 	str.w	r3, [r12, #140]	; 0x8c
    351e:	f8cc 208c 	str.w	r2, [r12, #140]	; 0x8c
    3522:	f8d1 2088 	ldr.w	r2, [r1, #136]	; 0x88
    3526:	f44f 4c40 	mov.w	r12, #49152	; 0xc000
    352a:	0152      	lsls	r2, r2, #5
    352c:	f2c4 0c0f 	movt	r12, #16399	; 0x400f
    3530:	d5f7      	bpl.n	3522 <SystemInit+0x56>
    3532:	2303      	movs	r3, #3
    3534:	21aa      	movs	r1, #170	; 0xaa
    3536:	2255      	movs	r2, #85	; 0x55
    3538:	f8cc 3080 	str.w	r3, [r12, #128]	; 0x80
    353c:	4660      	mov	r0, r12
    353e:	f8cc 108c 	str.w	r1, [r12, #140]	; 0x8c
    3542:	f8cc 208c 	str.w	r2, [r12, #140]	; 0x8c
    3546:	f8d0 1088 	ldr.w	r1, [r0, #136]	; 0x88
    354a:	f44f 4c40 	mov.w	r12, #49152	; 0xc000
    354e:	f011 7f40 	tst.w	r1, #50331648	; 0x3000000
    3552:	f2c4 0c0f 	movt	r12, #16399	; 0x400f
    3556:	d0f6      	beq.n	3546 <SystemInit+0x7a>
    3558:	f248 73de 	movw	r3, #34782	; 0x87de
    355c:	f2c0 4328 	movt	r3, #1064	; 0x428
    3560:	2005      	movs	r0, #5
    3562:	2200      	movs	r2, #0
    3564:	f8cc 0108 	str.w	r0, [r12, #264]	; 0x108
    3568:	f8cc 30c4 	str.w	r3, [r12, #196]	; 0xc4
    356c:	f8cc 21c8 	str.w	r2, [r12, #456]	; 0x1c8
    3570:	f8dc 1000 	ldr.w	r1, [r12]
    3574:	f421 4370 	bic.w	r3, r1, #61440	; 0xf000
    3578:	f023 003a 	bic.w	r0, r3, #58	; 0x3a
    357c:	f440 5240 	orr.w	r2, r0, #12288	; 0x3000
    3580:	4b08      	ldr	r3, [pc, #32]	; (35a4 <SystemInit+0xd8>)
    3582:	f042 013a 	orr.w	r1, r2, #58	; 0x3a
    3586:	2001      	movs	r0, #1
    3588:	f8cc 1000 	str.w	r1, [r12]
    358c:	6018      	str	r0, [r3, #0]
    358e:	bc30      	pop	{r4, r5}
    3590:	4770      	bx	lr
    3592:	f8d2 11a0 	ldr.w	r1, [r2, #416]	; 0x1a0
    3596:	0649      	lsls	r1, r1, #25
    3598:	d4a4      	bmi.n	34e4 <SystemInit+0x18>
    359a:	f8d2 11a0 	ldr.w	r1, [r2, #416]	; 0x1a0
    359e:	0649      	lsls	r1, r1, #25
    35a0:	d5f7      	bpl.n	3592 <SystemInit+0xc6>
    35a2:	e79f      	b.n	34e4 <SystemInit+0x18>
    35a4:	100005f4 	.word	0x100005f4

000035a8 <analogin_init>:
    35a8:	b570      	push	{r4, r5, r6, lr}
    35aa:	f24c 14a8 	movw	r4, #49576	; 0xc1a8
    35ae:	460d      	mov	r5, r1
    35b0:	f2c0 0400 	movt	r4, #0
    35b4:	4606      	mov	r6, r0
    35b6:	4621      	mov	r1, r4
    35b8:	4628      	mov	r0, r5
    35ba:	f000 f9ff 	bl	39bc <pinmap_peripheral>
    35be:	f44f 4340 	mov.w	r3, #49152	; 0xc000
    35c2:	f2c4 030f 	movt	r3, #16399	; 0x400f
    35c6:	f8d3 20c4 	ldr.w	r2, [r3, #196]	; 0xc4
    35ca:	7030      	strb	r0, [r6, #0]
    35cc:	f442 5080 	orr.w	r0, r2, #4096	; 0x1000
    35d0:	f8c3 00c4 	str.w	r0, [r3, #196]	; 0xc4
    35d4:	f8d3 11a8 	ldr.w	r1, [r3, #424]	; 0x1a8
    35d8:	f240 1c5c 	movw	r12, #348	; 0x15c
    35dc:	f021 7240 	bic.w	r2, r1, #50331648	; 0x3000000
    35e0:	f8c3 21a8 	str.w	r2, [r3, #424]	; 0x1a8
    35e4:	f8d3 01a8 	ldr.w	r0, [r3, #424]	; 0x1a8
    35e8:	f2c1 0c00 	movt	r12, #4096	; 0x1000
    35ec:	f040 7180 	orr.w	r1, r0, #16777216	; 0x1000000
    35f0:	f8c3 11a8 	str.w	r1, [r3, #424]	; 0x1a8
    35f4:	f8dc 0000 	ldr.w	r0, [r12]
    35f8:	f645 533f 	movw	r3, #23871	; 0x5d3f
    35fc:	f2c0 03c6 	movt	r3, #198	; 0xc6
    3600:	f64e 0ca5 	movw	r12, #59557	; 0xe8a5
    3604:	18c0      	adds	r0, r0, r3
    3606:	f2ca 5c30 	movt	r12, #42288	; 0xa530
    360a:	fb8c 1200 	smull	r1, r2, r12, r0
    360e:	43c1      	mvns	r1, r0
    3610:	0fc9      	lsrs	r1, r1, #31
    3612:	1813      	adds	r3, r2, r0
    3614:	ebc1 50e3 	rsb	r0, r1, r3, asr #23
    3618:	0201      	lsls	r1, r0, #8
    361a:	f44f 4c80 	mov.w	r12, #16384	; 0x4000
    361e:	f441 1200 	orr.w	r2, r1, #2097152	; 0x200000
    3622:	f2c4 0c03 	movt	r12, #16387	; 0x4003
    3626:	4628      	mov	r0, r5
    3628:	4621      	mov	r1, r4
    362a:	f8cc 2000 	str.w	r2, [r12]
    362e:	e8bd 4070 	ldmia.w	sp!, {r4, r5, r6, lr}
    3632:	f000 b985 	b.w	3940 <pinmap_pinout>
    3636:	bf00      	nop

00003638 <analogin_read>:
    3638:	7803      	ldrb	r3, [r0, #0]
    363a:	b570      	push	{r4, r5, r6, lr}
    363c:	2601      	movs	r6, #1
    363e:	fa06 fc03 	lsl.w	r12, r6, r3
    3642:	f44f 4080 	mov.w	r0, #16384	; 0x4000
    3646:	f2c4 0003 	movt	r0, #16387	; 0x4003
    364a:	6802      	ldr	r2, [r0, #0]
    364c:	4601      	mov	r1, r0
    364e:	f022 04ff 	bic.w	r4, r2, #255	; 0xff
    3652:	6004      	str	r4, [r0, #0]
    3654:	6805      	ldr	r5, [r0, #0]
    3656:	ea4c 0305 	orr.w	r3, r12, r5
    365a:	6003      	str	r3, [r0, #0]
    365c:	6806      	ldr	r6, [r0, #0]
    365e:	f046 7280 	orr.w	r2, r6, #16777216	; 0x1000000
    3662:	6002      	str	r2, [r0, #0]
    3664:	6848      	ldr	r0, [r1, #4]
    3666:	f44f 4e80 	mov.w	lr, #16384	; 0x4000
    366a:	2800      	cmp	r0, #0
    366c:	f2c4 0e03 	movt	lr, #16387	; 0x4003
    3670:	daf8      	bge.n	3664 <analogin_read+0x2c>
    3672:	f8de 1000 	ldr.w	r1, [lr]
    3676:	f3c0 150b 	ubfx	r5, r0, #4, #12
    367a:	f021 7480 	bic.w	r4, r1, #16777216	; 0x1000000
    367e:	f8ce 4000 	str.w	r4, [lr]
    3682:	f8de 3000 	ldr.w	r3, [lr]
    3686:	4676      	mov	r6, lr
    3688:	f023 02ff 	bic.w	r2, r3, #255	; 0xff
    368c:	f8ce 2000 	str.w	r2, [lr]
    3690:	f8de 0000 	ldr.w	r0, [lr]
    3694:	ea4c 0100 	orr.w	r1, r12, r0
    3698:	f8ce 1000 	str.w	r1, [lr]
    369c:	f8de 4000 	ldr.w	r4, [lr]
    36a0:	f044 7380 	orr.w	r3, r4, #16777216	; 0x1000000
    36a4:	f8ce 3000 	str.w	r3, [lr]
    36a8:	6870      	ldr	r0, [r6, #4]
    36aa:	f44f 4e80 	mov.w	lr, #16384	; 0x4000
    36ae:	2800      	cmp	r0, #0
    36b0:	f2c4 0e03 	movt	lr, #16387	; 0x4003
    36b4:	daf8      	bge.n	36a8 <analogin_read+0x70>
    36b6:	f8de 6000 	ldr.w	r6, [lr]
    36ba:	f3c0 110b 	ubfx	r1, r0, #4, #12
    36be:	f026 7280 	bic.w	r2, r6, #16777216	; 0x1000000
    36c2:	f8ce 2000 	str.w	r2, [lr]
    36c6:	f8de 3000 	ldr.w	r3, [lr]
    36ca:	4674      	mov	r4, lr
    36cc:	f023 00ff 	bic.w	r0, r3, #255	; 0xff
    36d0:	f8ce 0000 	str.w	r0, [lr]
    36d4:	f8de 6000 	ldr.w	r6, [lr]
    36d8:	ea4c 0606 	orr.w	r6, r12, r6
    36dc:	f8ce 6000 	str.w	r6, [lr]
    36e0:	f8de 2000 	ldr.w	r2, [lr]
    36e4:	f042 7380 	orr.w	r3, r2, #16777216	; 0x1000000
    36e8:	f8ce 3000 	str.w	r3, [lr]
    36ec:	6862      	ldr	r2, [r4, #4]
    36ee:	f44f 4c80 	mov.w	r12, #16384	; 0x4000
    36f2:	2a00      	cmp	r2, #0
    36f4:	f2c4 0c03 	movt	r12, #16387	; 0x4003
    36f8:	daf8      	bge.n	36ec <analogin_read+0xb4>
    36fa:	f8dc 0000 	ldr.w	r0, [r12]
    36fe:	428d      	cmp	r5, r1
    3700:	f020 7380 	bic.w	r3, r0, #16777216	; 0x1000000
    3704:	f3c2 1e0b 	ubfx	lr, r2, #4, #12
    3708:	f8cc 3000 	str.w	r3, [r12]
    370c:	d802      	bhi.n	3714 <analogin_read+0xdc>
    370e:	460a      	mov	r2, r1
    3710:	4629      	mov	r1, r5
    3712:	4615      	mov	r5, r2
    3714:	4575      	cmp	r5, lr
    3716:	bf34      	ite	cc
    3718:	4628      	movcc	r0, r5
    371a:	4670      	movcs	r0, lr
    371c:	4288      	cmp	r0, r1
    371e:	bf38      	it	cc
    3720:	4608      	movcc	r0, r1
    3722:	f002 fa6b 	bl	5bfc <__aeabi_ui2f>
    3726:	f640 0101 	movw	r1, #2049	; 0x801
    372a:	f6c3 1180 	movt	r1, #14720	; 0x3980
    372e:	f002 fabd 	bl	5cac <__aeabi_fmul>
    3732:	bd70      	pop	{r4, r5, r6, pc}

00003734 <analogout_init>:
    3734:	b570      	push	{r4, r5, r6, lr}
    3736:	f24c 2414 	movw	r4, #49684	; 0xc214
    373a:	460d      	mov	r5, r1
    373c:	f2c0 0400 	movt	r4, #0
    3740:	4606      	mov	r6, r0
    3742:	4621      	mov	r1, r4
    3744:	4628      	mov	r0, r5
    3746:	f000 f939 	bl	39bc <pinmap_peripheral>
    374a:	f44f 4340 	mov.w	r3, #49152	; 0xc000
    374e:	f2c4 030f 	movt	r3, #16399	; 0x400f
    3752:	f8d3 21a8 	ldr.w	r2, [r3, #424]	; 0x1a8
    3756:	7030      	strb	r0, [r6, #0]
    3758:	f422 0040 	bic.w	r0, r2, #12582912	; 0xc00000
    375c:	f8c3 01a8 	str.w	r0, [r3, #424]	; 0x1a8
    3760:	4621      	mov	r1, r4
    3762:	4628      	mov	r0, r5
    3764:	f000 f8ec 	bl	3940 <pinmap_pinout>
    3768:	f44f 4140 	mov.w	r1, #49152	; 0xc000
    376c:	f2c4 0108 	movt	r1, #16392	; 0x4008
    3770:	2300      	movs	r3, #0
    3772:	600b      	str	r3, [r1, #0]
    3774:	bd70      	pop	{r4, r5, r6, pc}
    3776:	bf00      	nop

00003778 <analogout_write>:
    3778:	b510      	push	{r4, lr}
    377a:	4608      	mov	r0, r1
    377c:	460c      	mov	r4, r1
    377e:	2100      	movs	r1, #0
    3780:	f002 fc32 	bl	5fe8 <__aeabi_fcmplt>
    3784:	bb00      	cbnz	r0, 37c8 <analogout_write+0x50>
    3786:	4620      	mov	r0, r4
    3788:	f04f 517e 	mov.w	r1, #1065353216	; 0x3f800000
    378c:	f002 fc4a 	bl	6024 <__aeabi_fcmpgt>
    3790:	b140      	cbz	r0, 37a4 <analogout_write+0x2c>
    3792:	f44f 4c40 	mov.w	r12, #49152	; 0xc000
    3796:	f2c4 0c08 	movt	r12, #16392	; 0x4008
    379a:	f64f 70c0 	movw	r0, #65472	; 0xffc0
    379e:	f8cc 0000 	str.w	r0, [r12]
    37a2:	bd10      	pop	{r4, pc}
    37a4:	f44f 4140 	mov.w	r1, #49152	; 0xc000
    37a8:	f2c4 417f 	movt	r1, #17535	; 0x447f
    37ac:	4620      	mov	r0, r4
    37ae:	f002 fa7d 	bl	5cac <__aeabi_fmul>
    37b2:	f002 fc41 	bl	6038 <__aeabi_f2iz>
    37b6:	0580      	lsls	r0, r0, #22
    37b8:	0d81      	lsrs	r1, r0, #22
    37ba:	f44f 4340 	mov.w	r3, #49152	; 0xc000
    37be:	018a      	lsls	r2, r1, #6
    37c0:	f2c4 0308 	movt	r3, #16392	; 0x4008
    37c4:	601a      	str	r2, [r3, #0]
    37c6:	bd10      	pop	{r4, pc}
    37c8:	f44f 4e40 	mov.w	lr, #49152	; 0xc000
    37cc:	f2c4 0e08 	movt	lr, #16392	; 0x4008
    37d0:	2100      	movs	r1, #0
    37d2:	f8ce 1000 	str.w	r1, [lr]
    37d6:	bd10      	pop	{r4, pc}

000037d8 <gpio_set>:
    37d8:	b510      	push	{r4, lr}
    37da:	2100      	movs	r1, #0
    37dc:	4604      	mov	r4, r0
    37de:	f004 041f 	and.w	r4, r4, #31
    37e2:	f000 f843 	bl	386c <pin_function>
    37e6:	2001      	movs	r0, #1
    37e8:	fa00 f004 	lsl.w	r0, r0, r4
    37ec:	bd10      	pop	{r4, pc}
    37ee:	bf00      	nop

000037f0 <gpio_dir>:
    37f0:	b931      	cbnz	r1, 3800 <gpio_dir+0x10>
    37f2:	6883      	ldr	r3, [r0, #8]
    37f4:	6841      	ldr	r1, [r0, #4]
    37f6:	681a      	ldr	r2, [r3, #0]
    37f8:	ea22 0001 	bic.w	r0, r2, r1
    37fc:	6018      	str	r0, [r3, #0]
    37fe:	4770      	bx	lr
    3800:	2901      	cmp	r1, #1
    3802:	d000      	beq.n	3806 <gpio_dir+0x16>
    3804:	4770      	bx	lr
    3806:	6883      	ldr	r3, [r0, #8]
    3808:	6842      	ldr	r2, [r0, #4]
    380a:	6819      	ldr	r1, [r3, #0]
    380c:	ea41 0002 	orr.w	r0, r1, r2
    3810:	6018      	str	r0, [r3, #0]
    3812:	4770      	bx	lr

00003814 <gpio_init>:
    3814:	b5f8      	push	{r3, r4, r5, r6, r7, lr}
    3816:	1c4b      	adds	r3, r1, #1
    3818:	460d      	mov	r5, r1
    381a:	4604      	mov	r4, r0
    381c:	4616      	mov	r6, r2
    381e:	d01d      	beq.n	385c <gpio_init+0x48>
    3820:	6021      	str	r1, [r4, #0]
    3822:	4608      	mov	r0, r1
    3824:	f7ff ffd8 	bl	37d8 <gpio_set>
    3828:	f025 031f 	bic.w	r3, r5, #31
    382c:	f103 011c 	add.w	r1, r3, #28
    3830:	f103 0718 	add.w	r7, r3, #24
    3834:	f103 0214 	add.w	r2, r3, #20
    3838:	6060      	str	r0, [r4, #4]
    383a:	6121      	str	r1, [r4, #16]
    383c:	60e7      	str	r7, [r4, #12]
    383e:	6162      	str	r2, [r4, #20]
    3840:	60a3      	str	r3, [r4, #8]
    3842:	4620      	mov	r0, r4
    3844:	4631      	mov	r1, r6
    3846:	f7ff ffd3 	bl	37f0 <gpio_dir>
    384a:	b92e      	cbnz	r6, 3858 <gpio_init+0x44>
    384c:	4628      	mov	r0, r5
    384e:	2103      	movs	r1, #3
    3850:	e8bd 40f8 	ldmia.w	sp!, {r3, r4, r5, r6, r7, lr}
    3854:	f000 b82c 	b.w	38b0 <pin_mode>
    3858:	2e01      	cmp	r6, #1
    385a:	d000      	beq.n	385e <gpio_init+0x4a>
    385c:	bdf8      	pop	{r3, r4, r5, r6, r7, pc}
    385e:	4628      	mov	r0, r5
    3860:	2102      	movs	r1, #2
    3862:	e8bd 40f8 	ldmia.w	sp!, {r3, r4, r5, r6, r7, lr}
    3866:	f000 b823 	b.w	38b0 <pin_mode>
    386a:	bf00      	nop

0000386c <pin_function>:
    386c:	1c43      	adds	r3, r0, #1
    386e:	b410      	push	{r4}
    3870:	d01b      	beq.n	38aa <pin_function+0x3e>
    3872:	f100 4060 	add.w	r0, r0, #3758096384	; 0xe0000000
    3876:	f5a0 241c 	sub.w	r4, r0, #638976	; 0x9c000
    387a:	f004 030f 	and.w	r3, r4, #15
    387e:	0058      	lsls	r0, r3, #1
    3880:	2203      	movs	r2, #3
    3882:	fa02 fc00 	lsl.w	r12, r2, r0
    3886:	fa01 f100 	lsl.w	r1, r1, r0
    388a:	f44f 4340 	mov.w	r3, #49152	; 0xc000
    388e:	0920      	lsrs	r0, r4, #4
    3890:	f2c4 0302 	movt	r3, #16386	; 0x4002
    3894:	f853 4020 	ldr.w	r4, [r3, r0, lsl #2]
    3898:	ea24 020c 	bic.w	r2, r4, r12
    389c:	f843 2020 	str.w	r2, [r3, r0, lsl #2]
    38a0:	f853 2020 	ldr.w	r2, [r3, r0, lsl #2]
    38a4:	4311      	orrs	r1, r2
    38a6:	f843 1020 	str.w	r1, [r3, r0, lsl #2]
    38aa:	bc10      	pop	{r4}
    38ac:	4770      	bx	lr
    38ae:	bf00      	nop

000038b0 <pin_mode>:
    38b0:	1c42      	adds	r2, r0, #1
    38b2:	b470      	push	{r4, r5, r6}
    38b4:	d032      	beq.n	391c <pin_mode+0x6c>
    38b6:	f100 4060 	add.w	r0, r0, #3758096384	; 0xe0000000
    38ba:	f5a0 201c 	sub.w	r0, r0, #638976	; 0x9c000
    38be:	f000 051f 	and.w	r5, r0, #31
    38c2:	f3c1 0480 	ubfx	r4, r1, #2, #1
    38c6:	fa04 fc05 	lsl.w	r12, r4, r5
    38ca:	0942      	lsrs	r2, r0, #5
    38cc:	f44f 4340 	mov.w	r3, #49152	; 0xc000
    38d0:	f2c4 0302 	movt	r3, #16386	; 0x4002
    38d4:	321a      	adds	r2, #26
    38d6:	f853 6022 	ldr.w	r6, [r3, r2, lsl #2]
    38da:	ea26 050c 	bic.w	r5, r6, r12
    38de:	f843 5022 	str.w	r5, [r3, r2, lsl #2]
    38e2:	f853 6022 	ldr.w	r6, [r3, r2, lsl #2]
    38e6:	ea46 050c 	orr.w	r5, r6, r12
    38ea:	f843 5022 	str.w	r5, [r3, r2, lsl #2]
    38ee:	b9ac      	cbnz	r4, 391c <pin_mode+0x6c>
    38f0:	f000 040f 	and.w	r4, r0, #15
    38f4:	0062      	lsls	r2, r4, #1
    38f6:	2503      	movs	r5, #3
    38f8:	fa05 f502 	lsl.w	r5, r5, r2
    38fc:	fa01 fc02 	lsl.w	r12, r1, r2
    3900:	0900      	lsrs	r0, r0, #4
    3902:	3010      	adds	r0, #16
    3904:	f853 1020 	ldr.w	r1, [r3, r0, lsl #2]
    3908:	ea21 0405 	bic.w	r4, r1, r5
    390c:	f843 4020 	str.w	r4, [r3, r0, lsl #2]
    3910:	f853 4020 	ldr.w	r4, [r3, r0, lsl #2]
    3914:	ea4c 0204 	orr.w	r2, r12, r4
    3918:	f843 2020 	str.w	r2, [r3, r0, lsl #2]
    391c:	bc70      	pop	{r4, r5, r6}
    391e:	4770      	bx	lr

00003920 <exit>:
    3920:	b510      	push	{r4, lr}
    3922:	4604      	mov	r4, r0
    3924:	f000 f80a 	bl	393c <mbed_interface_connected>
    3928:	b920      	cbnz	r0, 3934 <exit+0x14>
    392a:	b904      	cbnz	r4, 392e <exit+0xe>
    392c:	e7fe      	b.n	392c <exit+0xc>
    392e:	f000 fb6f 	bl	4010 <mbed_die>
    3932:	e7fb      	b.n	392c <exit+0xc>
    3934:	f000 f860 	bl	39f8 <semihost_exit>
    3938:	e7f7      	b.n	392a <exit+0xa>
    393a:	bf00      	nop

0000393c <mbed_interface_connected>:
    393c:	f7fd b9a6 	b.w	c8c <__wrap_semihost_connected>

00003940 <pinmap_pinout>:
    3940:	1c43      	adds	r3, r0, #1
    3942:	b510      	push	{r4, lr}
    3944:	4604      	mov	r4, r0
    3946:	d013      	beq.n	3970 <pinmap_pinout+0x30>
    3948:	680b      	ldr	r3, [r1, #0]
    394a:	1c58      	adds	r0, r3, #1
    394c:	d104      	bne.n	3958 <pinmap_pinout+0x18>
    394e:	e010      	b.n	3972 <pinmap_pinout+0x32>
    3950:	f851 3f0c 	ldr.w	r3, [r1, #12]!
    3954:	1c5a      	adds	r2, r3, #1
    3956:	d00c      	beq.n	3972 <pinmap_pinout+0x32>
    3958:	429c      	cmp	r4, r3
    395a:	d1f9      	bne.n	3950 <pinmap_pinout+0x10>
    395c:	4620      	mov	r0, r4
    395e:	6889      	ldr	r1, [r1, #8]
    3960:	f7ff ff84 	bl	386c <pin_function>
    3964:	4620      	mov	r0, r4
    3966:	2102      	movs	r1, #2
    3968:	e8bd 4010 	ldmia.w	sp!, {r4, lr}
    396c:	f7ff bfa0 	b.w	38b0 <pin_mode>
    3970:	bd10      	pop	{r4, pc}
    3972:	4804      	ldr	r0, [pc, #16]	; (3984 <pinmap_pinout+0x44>)
    3974:	4904      	ldr	r1, [pc, #16]	; (3988 <pinmap_pinout+0x48>)
    3976:	6802      	ldr	r2, [r0, #0]
    3978:	68d0      	ldr	r0, [r2, #12]
    397a:	f002 fdf1 	bl	6560 <fiprintf>
    397e:	2001      	movs	r0, #1
    3980:	f7ff ffce 	bl	3920 <exit>
    3984:	100001c0 	.word	0x100001c0
    3988:	0000c22c 	.word	0x0000c22c

0000398c <pinmap_merge>:
    398c:	4288      	cmp	r0, r1
    398e:	b508      	push	{r3, lr}
    3990:	d003      	beq.n	399a <pinmap_merge+0xe>
    3992:	1c42      	adds	r2, r0, #1
    3994:	d002      	beq.n	399c <pinmap_merge+0x10>
    3996:	3101      	adds	r1, #1
    3998:	d102      	bne.n	39a0 <pinmap_merge+0x14>
    399a:	bd08      	pop	{r3, pc}
    399c:	4608      	mov	r0, r1
    399e:	bd08      	pop	{r3, pc}
    39a0:	4b04      	ldr	r3, [pc, #16]	; (39b4 <pinmap_merge+0x28>)
    39a2:	4905      	ldr	r1, [pc, #20]	; (39b8 <pinmap_merge+0x2c>)
    39a4:	6818      	ldr	r0, [r3, #0]
    39a6:	68c0      	ldr	r0, [r0, #12]
    39a8:	f002 fdda 	bl	6560 <fiprintf>
    39ac:	2001      	movs	r0, #1
    39ae:	f7ff ffb7 	bl	3920 <exit>
    39b2:	bf00      	nop
    39b4:	100001c0 	.word	0x100001c0
    39b8:	0000c240 	.word	0x0000c240

000039bc <pinmap_peripheral>:
    39bc:	b508      	push	{r3, lr}
    39be:	1c43      	adds	r3, r0, #1
    39c0:	d00b      	beq.n	39da <pinmap_peripheral+0x1e>
    39c2:	680b      	ldr	r3, [r1, #0]
    39c4:	1c5a      	adds	r2, r3, #1
    39c6:	d104      	bne.n	39d2 <pinmap_peripheral+0x16>
    39c8:	e008      	b.n	39dc <pinmap_peripheral+0x20>
    39ca:	f851 3f0c 	ldr.w	r3, [r1, #12]!
    39ce:	1c5a      	adds	r2, r3, #1
    39d0:	d004      	beq.n	39dc <pinmap_peripheral+0x20>
    39d2:	4298      	cmp	r0, r3
    39d4:	d1f9      	bne.n	39ca <pinmap_peripheral+0xe>
    39d6:	6848      	ldr	r0, [r1, #4]
    39d8:	bd08      	pop	{r3, pc}
    39da:	bd08      	pop	{r3, pc}
    39dc:	4804      	ldr	r0, [pc, #16]	; (39f0 <pinmap_peripheral+0x34>)
    39de:	4905      	ldr	r1, [pc, #20]	; (39f4 <pinmap_peripheral+0x38>)
    39e0:	6802      	ldr	r2, [r0, #0]
    39e2:	68d0      	ldr	r0, [r2, #12]
    39e4:	f002 fdbc 	bl	6560 <fiprintf>
    39e8:	2001      	movs	r0, #1
    39ea:	f7ff ff99 	bl	3920 <exit>
    39ee:	bf00      	nop
    39f0:	100001c0 	.word	0x100001c0
    39f4:	0000c254 	.word	0x0000c254

000039f8 <semihost_exit>:
    39f8:	b530      	push	{r4, r5, lr}
    39fa:	b085      	sub	sp, #20
    39fc:	466d      	mov	r5, sp
    39fe:	2418      	movs	r4, #24
    3a00:	4620      	mov	r0, r4
    3a02:	4629      	mov	r1, r5
    3a04:	beab      	bkpt	0x00ab
    3a06:	4604      	mov	r4, r0
    3a08:	4620      	mov	r0, r4
    3a0a:	b005      	add	sp, #20
    3a0c:	bd30      	pop	{r4, r5, pc}
    3a0e:	bf00      	nop

00003a10 <wait_us>:
    3a10:	b538      	push	{r3, r4, r5, lr}
    3a12:	4605      	mov	r5, r0
    3a14:	f000 feda 	bl	47cc <us_ticker_read>
    3a18:	4604      	mov	r4, r0
    3a1a:	f000 fed7 	bl	47cc <us_ticker_read>
    3a1e:	1b00      	subs	r0, r0, r4
    3a20:	42a8      	cmp	r0, r5
    3a22:	d3fa      	bcc.n	3a1a <wait_us+0xa>
    3a24:	bd38      	pop	{r3, r4, r5, pc}
    3a26:	bf00      	nop

00003a28 <wait_ms>:
    3a28:	f44f 737a 	mov.w	r3, #1000	; 0x3e8
    3a2c:	fb03 f000 	mul.w	r0, r3, r0
    3a30:	f7ff bfee 	b.w	3a10 <wait_us>
    3a34:	0000      	movs	r0, r0
	...

00003a38 <wait>:
    3a38:	b508      	push	{r3, lr}
    3a3a:	f001 fcc3 	bl	53c4 <__aeabi_f2d>
    3a3e:	a306      	add	r3, pc, #24	; (adr r3, 3a58 <wait+0x20>)
    3a40:	e9d3 2300 	ldrd	r2, r3, [r3]
    3a44:	f001 fd12 	bl	546c <__aeabi_dmul>
    3a48:	f001 ffaa 	bl	59a0 <__aeabi_d2iz>
    3a4c:	e8bd 4008 	ldmia.w	sp!, {r3, lr}
    3a50:	f7ff bfde 	b.w	3a10 <wait_us>
    3a54:	f3af 8000 	nop.w
    3a58:	00000000 	.word	0x00000000
    3a5c:	412e8480 	.word	0x412e8480

00003a60 <_ZN4mbed6Serial5_putcEi>:
    3a60:	b510      	push	{r4, lr}
    3a62:	3018      	adds	r0, #24
    3a64:	460c      	mov	r4, r1
    3a66:	f000 fe9b 	bl	47a0 <serial_putc>
    3a6a:	4620      	mov	r0, r4
    3a6c:	bd10      	pop	{r4, pc}
    3a6e:	bf00      	nop

00003a70 <_ZN4mbed6Serial5_getcEv>:
    3a70:	3018      	adds	r0, #24
    3a72:	f000 be8f 	b.w	4794 <serial_getc>
    3a76:	bf00      	nop

00003a78 <_ZN4mbed6Serial12_irq_handlerEm9SerialIrq>:
    3a78:	ebc1 01c1 	rsb	r1, r1, r1, lsl #3
    3a7c:	eb00 0081 	add.w	r0, r0, r1, lsl #2
    3a80:	3020      	adds	r0, #32
    3a82:	f000 bf6f 	b.w	4964 <_ZN4mbed15FunctionPointer4callEv>
    3a86:	bf00      	nop

00003a88 <_ZN4mbed6SerialC1E7PinNameS1_PKc>:
    3a88:	b5f8      	push	{r3, r4, r5, r6, r7, lr}
    3a8a:	460e      	mov	r6, r1
    3a8c:	4619      	mov	r1, r3
    3a8e:	4604      	mov	r4, r0
    3a90:	4617      	mov	r7, r2
    3a92:	f000 fa83 	bl	3f9c <_ZN4mbed6StreamC1EPKc>
    3a96:	f24c 2388 	movw	r3, #49800	; 0xc288
    3a9a:	f2c0 0300 	movt	r3, #0
    3a9e:	f103 0208 	add.w	r2, r3, #8
    3aa2:	333c      	adds	r3, #60	; 0x3c
    3aa4:	e884 000c 	stmia.w	r4, {r2, r3}
    3aa8:	2100      	movs	r1, #0
    3aaa:	f104 0020 	add.w	r0, r4, #32
    3aae:	f000 ff51 	bl	4954 <_ZN4mbed15FunctionPointerC1EPFvvE>
    3ab2:	f104 0518 	add.w	r5, r4, #24
    3ab6:	2100      	movs	r1, #0
    3ab8:	f104 003c 	add.w	r0, r4, #60	; 0x3c
    3abc:	f000 ff4a 	bl	4954 <_ZN4mbed15FunctionPointerC1EPFvvE>
    3ac0:	4628      	mov	r0, r5
    3ac2:	4631      	mov	r1, r6
    3ac4:	463a      	mov	r2, r7
    3ac6:	f000 fcc7 	bl	4458 <serial_init>
    3aca:	f643 2179 	movw	r1, #14969	; 0x3a79
    3ace:	4628      	mov	r0, r5
    3ad0:	f2c0 0100 	movt	r1, #0
    3ad4:	4622      	mov	r2, r4
    3ad6:	f000 fdeb 	bl	46b0 <serial_irq_handler>
    3ada:	4620      	mov	r0, r4
    3adc:	bdf8      	pop	{r3, r4, r5, r6, r7, pc}
    3ade:	bf00      	nop

00003ae0 <_ZN4mbed6Serial4baudEi>:
    3ae0:	3018      	adds	r0, #24
    3ae2:	f000 bb41 	b.w	4168 <serial_baud>
    3ae6:	bf00      	nop

00003ae8 <_ZN4mbed6Serial8readableEv>:
    3ae8:	3018      	adds	r0, #24
    3aea:	f000 be63 	b.w	47b4 <serial_readable>
    3aee:	bf00      	nop

00003af0 <_ZN4mbed6Serial9writeableEv>:
    3af0:	3018      	adds	r0, #24
    3af2:	f000 be65 	b.w	47c0 <serial_writable>
    3af6:	bf00      	nop

00003af8 <_ZN4mbed6Serial6attachEPFvvENS0_7IrqTypeE>:
    3af8:	b538      	push	{r3, r4, r5, lr}
    3afa:	4614      	mov	r4, r2
    3afc:	4605      	mov	r5, r0
    3afe:	460a      	mov	r2, r1
    3b00:	b171      	cbz	r1, 3b20 <_ZN4mbed6Serial6attachEPFvvENS0_7IrqTypeE+0x28>
    3b02:	ebc4 00c4 	rsb	r0, r4, r4, lsl #3
    3b06:	eb05 0080 	add.w	r0, r5, r0, lsl #2
    3b0a:	3020      	adds	r0, #32
    3b0c:	f000 ff26 	bl	495c <_ZN4mbed15FunctionPointer6attachEPFvvE>
    3b10:	f105 0018 	add.w	r0, r5, #24
    3b14:	4621      	mov	r1, r4
    3b16:	2201      	movs	r2, #1
    3b18:	e8bd 4038 	ldmia.w	sp!, {r3, r4, r5, lr}
    3b1c:	f000 bdd8 	b.w	46d0 <serial_irq_set>
    3b20:	f100 0018 	add.w	r0, r0, #24
    3b24:	4621      	mov	r1, r4
    3b26:	e8bd 4038 	ldmia.w	sp!, {r3, r4, r5, lr}
    3b2a:	f000 bdd1 	b.w	46d0 <serial_irq_set>
    3b2e:	bf00      	nop

00003b30 <_ZN4mbed10FileHandle4flenEv>:
    3b30:	6803      	ldr	r3, [r0, #0]
    3b32:	b570      	push	{r4, r5, r6, lr}
    3b34:	2100      	movs	r1, #0
    3b36:	691d      	ldr	r5, [r3, #16]
    3b38:	2201      	movs	r2, #1
    3b3a:	4604      	mov	r4, r0
    3b3c:	47a8      	blx	r5
    3b3e:	1c43      	adds	r3, r0, #1
    3b40:	4605      	mov	r5, r0
    3b42:	d00e      	beq.n	3b62 <_ZN4mbed10FileHandle4flenEv+0x32>
    3b44:	6821      	ldr	r1, [r4, #0]
    3b46:	2202      	movs	r2, #2
    3b48:	690e      	ldr	r6, [r1, #16]
    3b4a:	4620      	mov	r0, r4
    3b4c:	2100      	movs	r1, #0
    3b4e:	47b0      	blx	r6
    3b50:	6822      	ldr	r2, [r4, #0]
    3b52:	4606      	mov	r6, r0
    3b54:	6913      	ldr	r3, [r2, #16]
    3b56:	4620      	mov	r0, r4
    3b58:	4629      	mov	r1, r5
    3b5a:	2200      	movs	r2, #0
    3b5c:	4798      	blx	r3
    3b5e:	4630      	mov	r0, r6
    3b60:	bd70      	pop	{r4, r5, r6, pc}
    3b62:	4606      	mov	r6, r0
    3b64:	e7fb      	b.n	3b5e <_ZN4mbed10FileHandle4flenEv+0x2e>
    3b66:	bf00      	nop

00003b68 <_ZN4mbed10FileHandleD1Ev>:
    3b68:	4b0d      	ldr	r3, [pc, #52]	; (3ba0 <_ZN4mbed10FileHandleD1Ev+0x38>)
    3b6a:	4a0e      	ldr	r2, [pc, #56]	; (3ba4 <_ZN4mbed10FileHandleD1Ev+0x3c>)
    3b6c:	b430      	push	{r4, r5}
    3b6e:	6002      	str	r2, [r0, #0]
    3b70:	f503 7480 	add.w	r4, r3, #256	; 0x100
    3b74:	2500      	movs	r5, #0
    3b76:	e001      	b.n	3b7c <_ZN4mbed10FileHandleD1Ev+0x14>
    3b78:	42a3      	cmp	r3, r4
    3b7a:	d00f      	beq.n	3b9c <_ZN4mbed10FileHandleD1Ev+0x34>
    3b7c:	469c      	mov	r12, r3
    3b7e:	f85c 1b04 	ldr.w	r1, [r12], #4
    3b82:	4281      	cmp	r1, r0
    3b84:	bf08      	it	eq
    3b86:	f84c 5c04 	streq.w	r5, [r12, #-4]
    3b8a:	4663      	mov	r3, r12
    3b8c:	f853 2b04 	ldr.w	r2, [r3], #4
    3b90:	4282      	cmp	r2, r0
    3b92:	d1f1      	bne.n	3b78 <_ZN4mbed10FileHandleD1Ev+0x10>
    3b94:	42a3      	cmp	r3, r4
    3b96:	f843 5c04 	str.w	r5, [r3, #-4]
    3b9a:	d1ef      	bne.n	3b7c <_ZN4mbed10FileHandleD1Ev+0x14>
    3b9c:	bc30      	pop	{r4, r5}
    3b9e:	4770      	bx	lr
    3ba0:	100005f8 	.word	0x100005f8
    3ba4:	0000c318 	.word	0x0000c318

00003ba8 <_ZN4mbed10FileHandleD0Ev>:
    3ba8:	b538      	push	{r3, r4, r5, lr}
    3baa:	4a0f      	ldr	r2, [pc, #60]	; (3be8 <_ZN4mbed10FileHandleD0Ev+0x40>)
    3bac:	4b0f      	ldr	r3, [pc, #60]	; (3bec <_ZN4mbed10FileHandleD0Ev+0x44>)
    3bae:	4604      	mov	r4, r0
    3bb0:	6002      	str	r2, [r0, #0]
    3bb2:	2500      	movs	r5, #0
    3bb4:	f503 7080 	add.w	r0, r3, #256	; 0x100
    3bb8:	e001      	b.n	3bbe <_ZN4mbed10FileHandleD0Ev+0x16>
    3bba:	4283      	cmp	r3, r0
    3bbc:	d00f      	beq.n	3bde <_ZN4mbed10FileHandleD0Ev+0x36>
    3bbe:	469c      	mov	r12, r3
    3bc0:	f85c 1b04 	ldr.w	r1, [r12], #4
    3bc4:	428c      	cmp	r4, r1
    3bc6:	bf08      	it	eq
    3bc8:	f84c 5c04 	streq.w	r5, [r12, #-4]
    3bcc:	4663      	mov	r3, r12
    3bce:	f853 2b04 	ldr.w	r2, [r3], #4
    3bd2:	4294      	cmp	r4, r2
    3bd4:	d1f1      	bne.n	3bba <_ZN4mbed10FileHandleD0Ev+0x12>
    3bd6:	4283      	cmp	r3, r0
    3bd8:	f843 5c04 	str.w	r5, [r3, #-4]
    3bdc:	d1ef      	bne.n	3bbe <_ZN4mbed10FileHandleD0Ev+0x16>
    3bde:	4620      	mov	r0, r4
    3be0:	f000 ffa9 	bl	4b36 <_ZdlPv>
    3be4:	4620      	mov	r0, r4
    3be6:	bd38      	pop	{r3, r4, r5, pc}
    3be8:	0000c318 	.word	0x0000c318
    3bec:	100005f8 	.word	0x100005f8

00003bf0 <_ZL11init_serialv>:
    3bf0:	4b0e      	ldr	r3, [pc, #56]	; (3c2c <_ZL11init_serialv+0x3c>)
    3bf2:	b510      	push	{r4, lr}
    3bf4:	681c      	ldr	r4, [r3, #0]
    3bf6:	b104      	cbz	r4, 3bfa <_ZL11init_serialv+0xa>
    3bf8:	bd10      	pop	{r4, pc}
    3bfa:	f24c 0102 	movw	r1, #49154	; 0xc002
    3bfe:	f24c 0203 	movw	r2, #49155	; 0xc003
    3c02:	480b      	ldr	r0, [pc, #44]	; (3c30 <_ZL11init_serialv+0x40>)
    3c04:	f2c2 0109 	movt	r1, #8201	; 0x2009
    3c08:	f2c2 0209 	movt	r2, #8201	; 0x2009
    3c0c:	f000 fc24 	bl	4458 <serial_init>
    3c10:	2108      	movs	r1, #8
    3c12:	4807      	ldr	r0, [pc, #28]	; (3c30 <_ZL11init_serialv+0x40>)
    3c14:	4622      	mov	r2, r4
    3c16:	2301      	movs	r3, #1
    3c18:	f000 fbda 	bl	43d0 <serial_format>
    3c1c:	4804      	ldr	r0, [pc, #16]	; (3c30 <_ZL11init_serialv+0x40>)
    3c1e:	f44f 5116 	mov.w	r1, #9600	; 0x2580
    3c22:	e8bd 4010 	ldmia.w	sp!, {r4, lr}
    3c26:	f000 ba9f 	b.w	4168 <serial_baud>
    3c2a:	bf00      	nop
    3c2c:	100006f8 	.word	0x100006f8
    3c30:	10000a30 	.word	0x10000a30

00003c34 <_open>:
    3c34:	b5f0      	push	{r4, r5, r6, r7, lr}
    3c36:	460f      	mov	r7, r1
    3c38:	b085      	sub	sp, #20
    3c3a:	492e      	ldr	r1, [pc, #184]	; (3cf4 <_open+0xc0>)
    3c3c:	4606      	mov	r6, r0
    3c3e:	f003 f910 	bl	6e62 <strcmp>
    3c42:	4604      	mov	r4, r0
    3c44:	2800      	cmp	r0, #0
    3c46:	d033      	beq.n	3cb0 <_open+0x7c>
    3c48:	4630      	mov	r0, r6
    3c4a:	492b      	ldr	r1, [pc, #172]	; (3cf8 <_open+0xc4>)
    3c4c:	f003 f909 	bl	6e62 <strcmp>
    3c50:	b348      	cbz	r0, 3ca6 <_open+0x72>
    3c52:	4630      	mov	r0, r6
    3c54:	4929      	ldr	r1, [pc, #164]	; (3cfc <_open+0xc8>)
    3c56:	f003 f904 	bl	6e62 <strcmp>
    3c5a:	2800      	cmp	r0, #0
    3c5c:	d02c      	beq.n	3cb8 <_open+0x84>
    3c5e:	4828      	ldr	r0, [pc, #160]	; (3d00 <_open+0xcc>)
    3c60:	2400      	movs	r4, #0
    3c62:	e006      	b.n	3c72 <_open+0x3e>
    3c64:	685d      	ldr	r5, [r3, #4]
    3c66:	3401      	adds	r4, #1
    3c68:	1d18      	adds	r0, r3, #4
    3c6a:	b135      	cbz	r5, 3c7a <_open+0x46>
    3c6c:	3401      	adds	r4, #1
    3c6e:	2c40      	cmp	r4, #64	; 0x40
    3c70:	d036      	beq.n	3ce0 <_open+0xac>
    3c72:	6845      	ldr	r5, [r0, #4]
    3c74:	1d03      	adds	r3, r0, #4
    3c76:	2d00      	cmp	r5, #0
    3c78:	d1f4      	bne.n	3c64 <_open+0x30>
    3c7a:	7831      	ldrb	r1, [r6, #0]
    3c7c:	293a      	cmp	r1, #58	; 0x3a
    3c7e:	d032      	beq.n	3ce6 <_open+0xb2>
    3c80:	a802      	add	r0, sp, #8
    3c82:	4631      	mov	r1, r6
    3c84:	f000 fe0e 	bl	48a4 <_ZN4mbed8FilePathC1EPKc>
    3c88:	a802      	add	r0, sp, #8
    3c8a:	f000 fe4f 	bl	492c <_ZN4mbed8FilePath6isFileEv>
    3c8e:	b1b8      	cbz	r0, 3cc0 <_open+0x8c>
    3c90:	a802      	add	r0, sp, #8
    3c92:	f000 fe55 	bl	4940 <_ZN4mbed8FilePath4fileEv>
    3c96:	4603      	mov	r3, r0
    3c98:	2b00      	cmp	r3, #0
    3c9a:	d021      	beq.n	3ce0 <_open+0xac>
    3c9c:	4919      	ldr	r1, [pc, #100]	; (3d04 <_open+0xd0>)
    3c9e:	1ce0      	adds	r0, r4, #3
    3ca0:	f841 3024 	str.w	r3, [r1, r4, lsl #2]
    3ca4:	e002      	b.n	3cac <_open+0x78>
    3ca6:	f7ff ffa3 	bl	3bf0 <_ZL11init_serialv>
    3caa:	2001      	movs	r0, #1
    3cac:	b005      	add	sp, #20
    3cae:	bdf0      	pop	{r4, r5, r6, r7, pc}
    3cb0:	f7ff ff9e 	bl	3bf0 <_ZL11init_serialv>
    3cb4:	4620      	mov	r0, r4
    3cb6:	e7f9      	b.n	3cac <_open+0x78>
    3cb8:	f7ff ff9a 	bl	3bf0 <_ZL11init_serialv>
    3cbc:	2002      	movs	r0, #2
    3cbe:	e7f5      	b.n	3cac <_open+0x78>
    3cc0:	a802      	add	r0, sp, #8
    3cc2:	f000 fe2b 	bl	491c <_ZN4mbed8FilePath10fileSystemEv>
    3cc6:	4605      	mov	r5, r0
    3cc8:	b150      	cbz	r0, 3ce0 <_open+0xac>
    3cca:	6802      	ldr	r2, [r0, #0]
    3ccc:	a802      	add	r0, sp, #8
    3cce:	6896      	ldr	r6, [r2, #8]
    3cd0:	f000 fe1a 	bl	4908 <_ZN4mbed8FilePath8fileNameEv>
    3cd4:	463a      	mov	r2, r7
    3cd6:	4601      	mov	r1, r0
    3cd8:	4628      	mov	r0, r5
    3cda:	47b0      	blx	r6
    3cdc:	4603      	mov	r3, r0
    3cde:	e7db      	b.n	3c98 <_open+0x64>
    3ce0:	f04f 30ff 	mov.w	r0, #4294967295	; 0xffffffff
    3ce4:	e7e2      	b.n	3cac <_open+0x78>
    3ce6:	4630      	mov	r0, r6
    3ce8:	4907      	ldr	r1, [pc, #28]	; (3d08 <_open+0xd4>)
    3cea:	aa01      	add	r2, sp, #4
    3cec:	f003 f84a 	bl	6d84 <siscanf>
    3cf0:	9b01      	ldr	r3, [sp, #4]
    3cf2:	e7d1      	b.n	3c98 <_open+0x64>
    3cf4:	0000c2dc 	.word	0x0000c2dc
    3cf8:	0000c300 	.word	0x0000c300
    3cfc:	0000c2e4 	.word	0x0000c2e4
    3d00:	100005f4 	.word	0x100005f4
    3d04:	100005f8 	.word	0x100005f8
    3d08:	0000c340 	.word	0x0000c340

00003d0c <_close>:
    3d0c:	2802      	cmp	r0, #2
    3d0e:	b508      	push	{r3, lr}
    3d10:	dd0b      	ble.n	3d2a <_close+0x1e>
    3d12:	4b08      	ldr	r3, [pc, #32]	; (3d34 <_close+0x28>)
    3d14:	1ec2      	subs	r2, r0, #3
    3d16:	f853 0022 	ldr.w	r0, [r3, r2, lsl #2]
    3d1a:	2100      	movs	r1, #0
    3d1c:	f843 1022 	str.w	r1, [r3, r2, lsl #2]
    3d20:	b128      	cbz	r0, 3d2e <_close+0x22>
    3d22:	6803      	ldr	r3, [r0, #0]
    3d24:	685a      	ldr	r2, [r3, #4]
    3d26:	4790      	blx	r2
    3d28:	bd08      	pop	{r3, pc}
    3d2a:	2000      	movs	r0, #0
    3d2c:	bd08      	pop	{r3, pc}
    3d2e:	f04f 30ff 	mov.w	r0, #4294967295	; 0xffffffff
    3d32:	bd08      	pop	{r3, pc}
    3d34:	100005f8 	.word	0x100005f8

00003d38 <_write>:
    3d38:	2802      	cmp	r0, #2
    3d3a:	b5f8      	push	{r3, r4, r5, r6, r7, lr}
    3d3c:	460d      	mov	r5, r1
    3d3e:	4617      	mov	r7, r2
    3d40:	dc28      	bgt.n	3d94 <_write+0x5c>
    3d42:	491d      	ldr	r1, [pc, #116]	; (3db8 <_write+0x80>)
    3d44:	680a      	ldr	r2, [r1, #0]
    3d46:	2a00      	cmp	r2, #0
    3d48:	d02d      	beq.n	3da6 <_write+0x6e>
    3d4a:	b30f      	cbz	r7, 3d90 <_write+0x58>
    3d4c:	462c      	mov	r4, r5
    3d4e:	19ee      	adds	r6, r5, r7
    3d50:	f814 1b01 	ldrb.w	r1, [r4], #1
    3d54:	43ed      	mvns	r5, r5
    3d56:	19ab      	adds	r3, r5, r6
    3d58:	4818      	ldr	r0, [pc, #96]	; (3dbc <_write+0x84>)
    3d5a:	f003 0501 	and.w	r5, r3, #1
    3d5e:	f000 fd1f 	bl	47a0 <serial_putc>
    3d62:	42b4      	cmp	r4, r6
    3d64:	d014      	beq.n	3d90 <_write+0x58>
    3d66:	b135      	cbz	r5, 3d76 <_write+0x3e>
    3d68:	f814 1b01 	ldrb.w	r1, [r4], #1
    3d6c:	4813      	ldr	r0, [pc, #76]	; (3dbc <_write+0x84>)
    3d6e:	f000 fd17 	bl	47a0 <serial_putc>
    3d72:	42b4      	cmp	r4, r6
    3d74:	d00c      	beq.n	3d90 <_write+0x58>
    3d76:	4625      	mov	r5, r4
    3d78:	f815 1b01 	ldrb.w	r1, [r5], #1
    3d7c:	480f      	ldr	r0, [pc, #60]	; (3dbc <_write+0x84>)
    3d7e:	f000 fd0f 	bl	47a0 <serial_putc>
    3d82:	7861      	ldrb	r1, [r4, #1]
    3d84:	480d      	ldr	r0, [pc, #52]	; (3dbc <_write+0x84>)
    3d86:	1c6c      	adds	r4, r5, #1
    3d88:	f000 fd0a 	bl	47a0 <serial_putc>
    3d8c:	42b4      	cmp	r4, r6
    3d8e:	d1f2      	bne.n	3d76 <_write+0x3e>
    3d90:	4638      	mov	r0, r7
    3d92:	bdf8      	pop	{r3, r4, r5, r6, r7, pc}
    3d94:	4b0a      	ldr	r3, [pc, #40]	; (3dc0 <_write+0x88>)
    3d96:	3803      	subs	r0, #3
    3d98:	f853 0020 	ldr.w	r0, [r3, r0, lsl #2]
    3d9c:	b140      	cbz	r0, 3db0 <_write+0x78>
    3d9e:	6803      	ldr	r3, [r0, #0]
    3da0:	681b      	ldr	r3, [r3, #0]
    3da2:	4798      	blx	r3
    3da4:	bdf8      	pop	{r3, r4, r5, r6, r7, pc}
    3da6:	f7ff ff23 	bl	3bf0 <_ZL11init_serialv>
    3daa:	2f00      	cmp	r7, #0
    3dac:	d1ce      	bne.n	3d4c <_write+0x14>
    3dae:	e7ef      	b.n	3d90 <_write+0x58>
    3db0:	f04f 30ff 	mov.w	r0, #4294967295	; 0xffffffff
    3db4:	bdf8      	pop	{r3, r4, r5, r6, r7, pc}
    3db6:	bf00      	nop
    3db8:	100006f8 	.word	0x100006f8
    3dbc:	10000a30 	.word	0x10000a30
    3dc0:	100005f8 	.word	0x100005f8

00003dc4 <_read>:
    3dc4:	2802      	cmp	r0, #2
    3dc6:	b510      	push	{r4, lr}
    3dc8:	460c      	mov	r4, r1
    3dca:	dd0a      	ble.n	3de2 <_read+0x1e>
    3dcc:	4b0a      	ldr	r3, [pc, #40]	; (3df8 <_read+0x34>)
    3dce:	3803      	subs	r0, #3
    3dd0:	f853 0020 	ldr.w	r0, [r3, r0, lsl #2]
    3dd4:	b160      	cbz	r0, 3df0 <_read+0x2c>
    3dd6:	6803      	ldr	r3, [r0, #0]
    3dd8:	689b      	ldr	r3, [r3, #8]
    3dda:	4798      	blx	r3
    3ddc:	4601      	mov	r1, r0
    3dde:	4608      	mov	r0, r1
    3de0:	bd10      	pop	{r4, pc}
    3de2:	4806      	ldr	r0, [pc, #24]	; (3dfc <_read+0x38>)
    3de4:	f000 fcd6 	bl	4794 <serial_getc>
    3de8:	2101      	movs	r1, #1
    3dea:	7020      	strb	r0, [r4, #0]
    3dec:	4608      	mov	r0, r1
    3dee:	bd10      	pop	{r4, pc}
    3df0:	f04f 31ff 	mov.w	r1, #4294967295	; 0xffffffff
    3df4:	e7f3      	b.n	3dde <_read+0x1a>
    3df6:	bf00      	nop
    3df8:	100005f8 	.word	0x100005f8
    3dfc:	10000a30 	.word	0x10000a30

00003e00 <_lseek>:
    3e00:	2802      	cmp	r0, #2
    3e02:	b508      	push	{r3, lr}
    3e04:	dd08      	ble.n	3e18 <_lseek+0x18>
    3e06:	4b07      	ldr	r3, [pc, #28]	; (3e24 <_lseek+0x24>)
    3e08:	3803      	subs	r0, #3
    3e0a:	f853 0020 	ldr.w	r0, [r3, r0, lsl #2]
    3e0e:	b128      	cbz	r0, 3e1c <_lseek+0x1c>
    3e10:	6803      	ldr	r3, [r0, #0]
    3e12:	691b      	ldr	r3, [r3, #16]
    3e14:	4798      	blx	r3
    3e16:	bd08      	pop	{r3, pc}
    3e18:	2000      	movs	r0, #0
    3e1a:	bd08      	pop	{r3, pc}
    3e1c:	f04f 30ff 	mov.w	r0, #4294967295	; 0xffffffff
    3e20:	bd08      	pop	{r3, pc}
    3e22:	bf00      	nop
    3e24:	100005f8 	.word	0x100005f8

00003e28 <_fstat>:
    3e28:	2802      	cmp	r0, #2
    3e2a:	b508      	push	{r3, lr}
    3e2c:	d804      	bhi.n	3e38 <_fstat+0x10>
    3e2e:	f44f 5000 	mov.w	r0, #8192	; 0x2000
    3e32:	6048      	str	r0, [r1, #4]
    3e34:	2000      	movs	r0, #0
    3e36:	bd08      	pop	{r3, pc}
    3e38:	f002 f934 	bl	60a4 <__errno>
    3e3c:	2309      	movs	r3, #9
    3e3e:	6003      	str	r3, [r0, #0]
    3e40:	f04f 30ff 	mov.w	r0, #4294967295	; 0xffffffff
    3e44:	bd08      	pop	{r3, pc}
    3e46:	bf00      	nop

00003e48 <_ZN4mbed6Stream5closeEv>:
    3e48:	2000      	movs	r0, #0
    3e4a:	4770      	bx	lr

00003e4c <_ZN4mbed6Stream5writeEPKvj>:
    3e4c:	e92d 41f0 	stmdb	sp!, {r4, r5, r6, r7, r8, lr}
    3e50:	188e      	adds	r6, r1, r2
    3e52:	42b1      	cmp	r1, r6
    3e54:	460f      	mov	r7, r1
    3e56:	4605      	mov	r5, r0
    3e58:	d030      	beq.n	3ebc <_ZN4mbed6Stream5writeEPKvj+0x70>
    3e5a:	6803      	ldr	r3, [r0, #0]
    3e5c:	1b8a      	subs	r2, r1, r6
    3e5e:	460c      	mov	r4, r1
    3e60:	43d2      	mvns	r2, r2
    3e62:	6a5b      	ldr	r3, [r3, #36]	; 0x24
    3e64:	f814 1b01 	ldrb.w	r1, [r4], #1
    3e68:	f002 0801 	and.w	r8, r2, #1
    3e6c:	4798      	blx	r3
    3e6e:	3001      	adds	r0, #1
    3e70:	d01e      	beq.n	3eb0 <_ZN4mbed6Stream5writeEPKvj+0x64>
    3e72:	42a6      	cmp	r6, r4
    3e74:	d01f      	beq.n	3eb6 <_ZN4mbed6Stream5writeEPKvj+0x6a>
    3e76:	f1b8 0f00 	cmp.w	r8, #0
    3e7a:	d009      	beq.n	3e90 <_ZN4mbed6Stream5writeEPKvj+0x44>
    3e7c:	6829      	ldr	r1, [r5, #0]
    3e7e:	4628      	mov	r0, r5
    3e80:	6a4a      	ldr	r2, [r1, #36]	; 0x24
    3e82:	f814 1b01 	ldrb.w	r1, [r4], #1
    3e86:	4790      	blx	r2
    3e88:	3001      	adds	r0, #1
    3e8a:	d011      	beq.n	3eb0 <_ZN4mbed6Stream5writeEPKvj+0x64>
    3e8c:	42a6      	cmp	r6, r4
    3e8e:	d012      	beq.n	3eb6 <_ZN4mbed6Stream5writeEPKvj+0x6a>
    3e90:	6828      	ldr	r0, [r5, #0]
    3e92:	f814 1b01 	ldrb.w	r1, [r4], #1
    3e96:	6a43      	ldr	r3, [r0, #36]	; 0x24
    3e98:	4628      	mov	r0, r5
    3e9a:	4798      	blx	r3
    3e9c:	3001      	adds	r0, #1
    3e9e:	4628      	mov	r0, r5
    3ea0:	d006      	beq.n	3eb0 <_ZN4mbed6Stream5writeEPKvj+0x64>
    3ea2:	682a      	ldr	r2, [r5, #0]
    3ea4:	f814 1b01 	ldrb.w	r1, [r4], #1
    3ea8:	6a53      	ldr	r3, [r2, #36]	; 0x24
    3eaa:	4798      	blx	r3
    3eac:	3001      	adds	r0, #1
    3eae:	d1ed      	bne.n	3e8c <_ZN4mbed6Stream5writeEPKvj+0x40>
    3eb0:	1be0      	subs	r0, r4, r7
    3eb2:	e8bd 81f0 	ldmia.w	sp!, {r4, r5, r6, r7, r8, pc}
    3eb6:	1bf0      	subs	r0, r6, r7
    3eb8:	e8bd 81f0 	ldmia.w	sp!, {r4, r5, r6, r7, r8, pc}
    3ebc:	2000      	movs	r0, #0
    3ebe:	e8bd 81f0 	ldmia.w	sp!, {r4, r5, r6, r7, r8, pc}
    3ec2:	bf00      	nop

00003ec4 <_ZN4mbed6Stream4readEPvj>:
    3ec4:	e92d 41f0 	stmdb	sp!, {r4, r5, r6, r7, r8, lr}
    3ec8:	188e      	adds	r6, r1, r2
    3eca:	42b1      	cmp	r1, r6
    3ecc:	460f      	mov	r7, r1
    3ece:	4605      	mov	r5, r0
    3ed0:	d032      	beq.n	3f38 <_ZN4mbed6Stream4readEPvj+0x74>
    3ed2:	6803      	ldr	r3, [r0, #0]
    3ed4:	1b8a      	subs	r2, r1, r6
    3ed6:	43d1      	mvns	r1, r2
    3ed8:	6a9c      	ldr	r4, [r3, #40]	; 0x28
    3eda:	f001 0801 	and.w	r8, r1, #1
    3ede:	47a0      	blx	r4
    3ee0:	1c43      	adds	r3, r0, #1
    3ee2:	463c      	mov	r4, r7
    3ee4:	d025      	beq.n	3f32 <_ZN4mbed6Stream4readEPvj+0x6e>
    3ee6:	463c      	mov	r4, r7
    3ee8:	f804 0b01 	strb.w	r0, [r4], #1
    3eec:	42a6      	cmp	r6, r4
    3eee:	d01d      	beq.n	3f2c <_ZN4mbed6Stream4readEPvj+0x68>
    3ef0:	f1b8 0f00 	cmp.w	r8, #0
    3ef4:	d006      	beq.n	3f04 <_ZN4mbed6Stream4readEPvj+0x40>
    3ef6:	682b      	ldr	r3, [r5, #0]
    3ef8:	4628      	mov	r0, r5
    3efa:	6a9a      	ldr	r2, [r3, #40]	; 0x28
    3efc:	4790      	blx	r2
    3efe:	1c43      	adds	r3, r0, #1
    3f00:	d110      	bne.n	3f24 <_ZN4mbed6Stream4readEPvj+0x60>
    3f02:	e016      	b.n	3f32 <_ZN4mbed6Stream4readEPvj+0x6e>
    3f04:	6829      	ldr	r1, [r5, #0]
    3f06:	4628      	mov	r0, r5
    3f08:	6a8b      	ldr	r3, [r1, #40]	; 0x28
    3f0a:	4798      	blx	r3
    3f0c:	4684      	mov	r12, r0
    3f0e:	f11c 0101 	adds.w	r1, r12, #1
    3f12:	4628      	mov	r0, r5
    3f14:	d00d      	beq.n	3f32 <_ZN4mbed6Stream4readEPvj+0x6e>
    3f16:	f804 cb01 	strb.w	r12, [r4], #1
    3f1a:	682a      	ldr	r2, [r5, #0]
    3f1c:	6a91      	ldr	r1, [r2, #40]	; 0x28
    3f1e:	4788      	blx	r1
    3f20:	1c42      	adds	r2, r0, #1
    3f22:	d006      	beq.n	3f32 <_ZN4mbed6Stream4readEPvj+0x6e>
    3f24:	f804 0b01 	strb.w	r0, [r4], #1
    3f28:	42a6      	cmp	r6, r4
    3f2a:	d1eb      	bne.n	3f04 <_ZN4mbed6Stream4readEPvj+0x40>
    3f2c:	1bf0      	subs	r0, r6, r7
    3f2e:	e8bd 81f0 	ldmia.w	sp!, {r4, r5, r6, r7, r8, pc}
    3f32:	1be0      	subs	r0, r4, r7
    3f34:	e8bd 81f0 	ldmia.w	sp!, {r4, r5, r6, r7, r8, pc}
    3f38:	2000      	movs	r0, #0
    3f3a:	e8bd 81f0 	ldmia.w	sp!, {r4, r5, r6, r7, r8, pc}
    3f3e:	bf00      	nop

00003f40 <_ZN4mbed6Stream5lseekEli>:
    3f40:	2000      	movs	r0, #0
    3f42:	4770      	bx	lr

00003f44 <_ZN4mbed6Stream6isattyEv>:
    3f44:	2000      	movs	r0, #0
    3f46:	4770      	bx	lr

00003f48 <_ZN4mbed6Stream5fsyncEv>:
    3f48:	2000      	movs	r0, #0
    3f4a:	4770      	bx	lr

00003f4c <_ZN4mbed6Stream4flenEv>:
    3f4c:	2000      	movs	r0, #0
    3f4e:	4770      	bx	lr

00003f50 <_ZN4mbed6StreamD1Ev>:
    3f50:	f24c 3350 	movw	r3, #50000	; 0xc350
    3f54:	f2c0 0300 	movt	r3, #0
    3f58:	f103 0208 	add.w	r2, r3, #8
    3f5c:	333c      	adds	r3, #60	; 0x3c
    3f5e:	b510      	push	{r4, lr}
    3f60:	4604      	mov	r4, r0
    3f62:	e880 000c 	stmia.w	r0, {r2, r3}
    3f66:	6940      	ldr	r0, [r0, #20]
    3f68:	f002 f8f4 	bl	6154 <fclose>
    3f6c:	4620      	mov	r0, r4
    3f6e:	f000 fc5d 	bl	482c <_ZN4mbed8FileLikeD1Ev>
    3f72:	4620      	mov	r0, r4
    3f74:	bd10      	pop	{r4, pc}
    3f76:	bf00      	nop

00003f78 <_ZThn4_N4mbed6StreamD1Ev>:
    3f78:	f1a0 0004 	sub.w	r0, r0, #4
    3f7c:	f7ff bfe8 	b.w	3f50 <_ZN4mbed6StreamD1Ev>

00003f80 <_ZN4mbed6StreamD0Ev>:
    3f80:	b510      	push	{r4, lr}
    3f82:	4604      	mov	r4, r0
    3f84:	f7ff ffe4 	bl	3f50 <_ZN4mbed6StreamD1Ev>
    3f88:	4620      	mov	r0, r4
    3f8a:	f000 fdd4 	bl	4b36 <_ZdlPv>
    3f8e:	4620      	mov	r0, r4
    3f90:	bd10      	pop	{r4, pc}
    3f92:	bf00      	nop

00003f94 <_ZThn4_N4mbed6StreamD0Ev>:
    3f94:	f1a0 0004 	sub.w	r0, r0, #4
    3f98:	f7ff bff2 	b.w	3f80 <_ZN4mbed6StreamD0Ev>

00003f9c <_ZN4mbed6StreamC1EPKc>:
    3f9c:	b510      	push	{r4, lr}
    3f9e:	b084      	sub	sp, #16
    3fa0:	4604      	mov	r4, r0
    3fa2:	f000 fc69 	bl	4878 <_ZN4mbed8FileLikeC1EPKc>
    3fa6:	f24c 3350 	movw	r3, #50000	; 0xc350
    3faa:	f2c0 0300 	movt	r3, #0
    3fae:	f103 0008 	add.w	r0, r3, #8
    3fb2:	f24c 3140 	movw	r1, #49984	; 0xc340
    3fb6:	333c      	adds	r3, #60	; 0x3c
    3fb8:	e884 0009 	stmia.w	r4, {r0, r3}
    3fbc:	4622      	mov	r2, r4
    3fbe:	f2c0 0100 	movt	r1, #0
    3fc2:	a801      	add	r0, sp, #4
    3fc4:	f002 feba 	bl	6d3c <siprintf>
    3fc8:	f24c 31a4 	movw	r1, #50084	; 0xc3a4
    3fcc:	f2c0 0100 	movt	r1, #0
    3fd0:	a801      	add	r0, sp, #4
    3fd2:	f002 fabb 	bl	654c <fopen>
    3fd6:	2100      	movs	r1, #0
    3fd8:	6160      	str	r0, [r4, #20]
    3fda:	f002 fe1f 	bl	6c1c <setbuf>
    3fde:	4620      	mov	r0, r4
    3fe0:	b004      	add	sp, #16
    3fe2:	bd10      	pop	{r4, pc}

00003fe4 <_ZN4mbed6Stream4putcEi>:
    3fe4:	b538      	push	{r3, r4, r5, lr}
    3fe6:	4604      	mov	r4, r0
    3fe8:	6940      	ldr	r0, [r0, #20]
    3fea:	460d      	mov	r5, r1
    3fec:	f002 f968 	bl	62c0 <fflush>
    3ff0:	6961      	ldr	r1, [r4, #20]
    3ff2:	4628      	mov	r0, r5
    3ff4:	e8bd 4038 	ldmia.w	sp!, {r3, r4, r5, lr}
    3ff8:	f002 bae8 	b.w	65cc <fputc>

00003ffc <_ZN4mbed6Stream4getcEv>:
    3ffc:	b510      	push	{r4, lr}
    3ffe:	4604      	mov	r4, r0
    4000:	6940      	ldr	r0, [r0, #20]
    4002:	f002 f95d 	bl	62c0 <fflush>
    4006:	6960      	ldr	r0, [r4, #20]
    4008:	e8bd 4010 	ldmia.w	sp!, {r4, lr}
    400c:	f002 b996 	b.w	633c <fgetc>

00004010 <mbed_die>:
    4010:	b500      	push	{lr}
    4012:	f24c 0132 	movw	r1, #49202	; 0xc032
    4016:	b099      	sub	sp, #100	; 0x64
    4018:	4668      	mov	r0, sp
    401a:	f2c2 0109 	movt	r1, #8201	; 0x2009
    401e:	2201      	movs	r2, #1
    4020:	f7ff fbf8 	bl	3814 <gpio_init>
    4024:	f24c 0134 	movw	r1, #49204	; 0xc034
    4028:	a806      	add	r0, sp, #24
    402a:	f2c2 0109 	movt	r1, #8201	; 0x2009
    402e:	2201      	movs	r2, #1
    4030:	f7ff fbf0 	bl	3814 <gpio_init>
    4034:	f24c 0135 	movw	r1, #49205	; 0xc035
    4038:	a80c      	add	r0, sp, #48	; 0x30
    403a:	f2c2 0109 	movt	r1, #8201	; 0x2009
    403e:	2201      	movs	r2, #1
    4040:	f7ff fbe8 	bl	3814 <gpio_init>
    4044:	f24c 0137 	movw	r1, #49207	; 0xc037
    4048:	a812      	add	r0, sp, #72	; 0x48
    404a:	f2c2 0109 	movt	r1, #8201	; 0x2009
    404e:	2201      	movs	r2, #1
    4050:	f7ff fbe0 	bl	3814 <gpio_init>
    4054:	9a01      	ldr	r2, [sp, #4]
    4056:	9b03      	ldr	r3, [sp, #12]
    4058:	990a      	ldr	r1, [sp, #40]	; 0x28
    405a:	601a      	str	r2, [r3, #0]
    405c:	9807      	ldr	r0, [sp, #28]
    405e:	9b10      	ldr	r3, [sp, #64]	; 0x40
    4060:	6008      	str	r0, [r1, #0]
    4062:	9a0d      	ldr	r2, [sp, #52]	; 0x34
    4064:	2096      	movs	r0, #150	; 0x96
    4066:	601a      	str	r2, [r3, #0]
    4068:	9913      	ldr	r1, [sp, #76]	; 0x4c
    406a:	9a15      	ldr	r2, [sp, #84]	; 0x54
    406c:	6011      	str	r1, [r2, #0]
    406e:	f7ff fcdb 	bl	3a28 <wait_ms>
    4072:	9801      	ldr	r0, [sp, #4]
    4074:	9b04      	ldr	r3, [sp, #16]
    4076:	9a09      	ldr	r2, [sp, #36]	; 0x24
    4078:	6018      	str	r0, [r3, #0]
    407a:	9907      	ldr	r1, [sp, #28]
    407c:	9b0f      	ldr	r3, [sp, #60]	; 0x3c
    407e:	6011      	str	r1, [r2, #0]
    4080:	980d      	ldr	r0, [sp, #52]	; 0x34
    4082:	9a16      	ldr	r2, [sp, #88]	; 0x58
    4084:	6018      	str	r0, [r3, #0]
    4086:	9913      	ldr	r1, [sp, #76]	; 0x4c
    4088:	2096      	movs	r0, #150	; 0x96
    408a:	6011      	str	r1, [r2, #0]
    408c:	f7ff fccc 	bl	3a28 <wait_ms>
    4090:	e7e0      	b.n	4054 <mbed_die+0x44>
    4092:	bf00      	nop

00004094 <uart2_irq>:
    4094:	b508      	push	{r3, lr}
    4096:	f44f 4300 	mov.w	r3, #32768	; 0x8000
    409a:	f2c4 0309 	movt	r3, #16393	; 0x4009
    409e:	6899      	ldr	r1, [r3, #8]
    40a0:	f3c1 0142 	ubfx	r1, r1, #1, #3
    40a4:	2901      	cmp	r1, #1
    40a6:	d003      	beq.n	40b0 <uart2_irq+0x1c>
    40a8:	2902      	cmp	r1, #2
    40aa:	d000      	beq.n	40ae <uart2_irq+0x1a>
    40ac:	bd08      	pop	{r3, pc}
    40ae:	2100      	movs	r1, #0
    40b0:	4803      	ldr	r0, [pc, #12]	; (40c0 <uart2_irq+0x2c>)
    40b2:	6880      	ldr	r0, [r0, #8]
    40b4:	2800      	cmp	r0, #0
    40b6:	d0f9      	beq.n	40ac <uart2_irq+0x18>
    40b8:	4a02      	ldr	r2, [pc, #8]	; (40c4 <uart2_irq+0x30>)
    40ba:	6813      	ldr	r3, [r2, #0]
    40bc:	4798      	blx	r3
    40be:	bd08      	pop	{r3, pc}
    40c0:	100006fc 	.word	0x100006fc
    40c4:	1000070c 	.word	0x1000070c

000040c8 <uart3_irq>:
    40c8:	b508      	push	{r3, lr}
    40ca:	f44f 4340 	mov.w	r3, #49152	; 0xc000
    40ce:	f2c4 0309 	movt	r3, #16393	; 0x4009
    40d2:	6899      	ldr	r1, [r3, #8]
    40d4:	f3c1 0142 	ubfx	r1, r1, #1, #3
    40d8:	2901      	cmp	r1, #1
    40da:	d003      	beq.n	40e4 <uart3_irq+0x1c>
    40dc:	2902      	cmp	r1, #2
    40de:	d000      	beq.n	40e2 <uart3_irq+0x1a>
    40e0:	bd08      	pop	{r3, pc}
    40e2:	2100      	movs	r1, #0
    40e4:	4803      	ldr	r0, [pc, #12]	; (40f4 <uart3_irq+0x2c>)
    40e6:	68c0      	ldr	r0, [r0, #12]
    40e8:	2800      	cmp	r0, #0
    40ea:	d0f9      	beq.n	40e0 <uart3_irq+0x18>
    40ec:	4a02      	ldr	r2, [pc, #8]	; (40f8 <uart3_irq+0x30>)
    40ee:	6813      	ldr	r3, [r2, #0]
    40f0:	4798      	blx	r3
    40f2:	bd08      	pop	{r3, pc}
    40f4:	100006fc 	.word	0x100006fc
    40f8:	1000070c 	.word	0x1000070c

000040fc <uart0_irq>:
    40fc:	b508      	push	{r3, lr}
    40fe:	f44f 4340 	mov.w	r3, #49152	; 0xc000
    4102:	f2c4 0300 	movt	r3, #16384	; 0x4000
    4106:	6899      	ldr	r1, [r3, #8]
    4108:	f3c1 0142 	ubfx	r1, r1, #1, #3
    410c:	2901      	cmp	r1, #1
    410e:	d003      	beq.n	4118 <uart0_irq+0x1c>
    4110:	2902      	cmp	r1, #2
    4112:	d000      	beq.n	4116 <uart0_irq+0x1a>
    4114:	bd08      	pop	{r3, pc}
    4116:	2100      	movs	r1, #0
    4118:	4803      	ldr	r0, [pc, #12]	; (4128 <uart0_irq+0x2c>)
    411a:	6800      	ldr	r0, [r0, #0]
    411c:	2800      	cmp	r0, #0
    411e:	d0f9      	beq.n	4114 <uart0_irq+0x18>
    4120:	4a02      	ldr	r2, [pc, #8]	; (412c <uart0_irq+0x30>)
    4122:	6813      	ldr	r3, [r2, #0]
    4124:	4798      	blx	r3
    4126:	bd08      	pop	{r3, pc}
    4128:	100006fc 	.word	0x100006fc
    412c:	1000070c 	.word	0x1000070c

00004130 <uart1_irq>:
    4130:	b508      	push	{r3, lr}
    4132:	2300      	movs	r3, #0
    4134:	f2c4 0301 	movt	r3, #16385	; 0x4001
    4138:	6899      	ldr	r1, [r3, #8]
    413a:	f3c1 0142 	ubfx	r1, r1, #1, #3
    413e:	2901      	cmp	r1, #1
    4140:	d003      	beq.n	414a <uart1_irq+0x1a>
    4142:	2902      	cmp	r1, #2
    4144:	d000      	beq.n	4148 <uart1_irq+0x18>
    4146:	bd08      	pop	{r3, pc}
    4148:	2100      	movs	r1, #0
    414a:	4804      	ldr	r0, [pc, #16]	; (415c <uart1_irq+0x2c>)
    414c:	6840      	ldr	r0, [r0, #4]
    414e:	2800      	cmp	r0, #0
    4150:	d0f9      	beq.n	4146 <uart1_irq+0x16>
    4152:	4a03      	ldr	r2, [pc, #12]	; (4160 <uart1_irq+0x30>)
    4154:	6813      	ldr	r3, [r2, #0]
    4156:	4798      	blx	r3
    4158:	bd08      	pop	{r3, pc}
    415a:	bf00      	nop
    415c:	100006fc 	.word	0x100006fc
    4160:	1000070c 	.word	0x1000070c
    4164:	00000000 	.word	0x00000000

00004168 <serial_baud>:
    4168:	e92d 4ff0 	stmdb	sp!, {r4, r5, r6, r7, r8, r9, r10, r11, lr}
    416c:	2300      	movs	r3, #0
    416e:	6804      	ldr	r4, [r0, #0]
    4170:	f2c4 0301 	movt	r3, #16385	; 0x4001
    4174:	b08b      	sub	sp, #44	; 0x2c
    4176:	429c      	cmp	r4, r3
    4178:	9009      	str	r0, [sp, #36]	; 0x24
    417a:	f000 80fb 	beq.w	4374 <serial_baud+0x20c>
    417e:	f340 80d9 	ble.w	4334 <serial_baud+0x1cc>
    4182:	f44f 4c00 	mov.w	r12, #32768	; 0x8000
    4186:	f2c4 0c09 	movt	r12, #16393	; 0x4009
    418a:	4564      	cmp	r4, r12
    418c:	f44f 4340 	mov.w	r3, #49152	; 0xc000
    4190:	f000 80e1 	beq.w	4356 <serial_baud+0x1ee>
    4194:	f2c4 0309 	movt	r3, #16393	; 0x4009
    4198:	429c      	cmp	r4, r3
    419a:	f040 80d1 	bne.w	4340 <serial_baud+0x1d8>
    419e:	f44f 4040 	mov.w	r0, #49152	; 0xc000
    41a2:	f2c4 000f 	movt	r0, #16399	; 0x400f
    41a6:	f8d0 21ac 	ldr.w	r2, [r0, #428]	; 0x1ac
    41aa:	f422 2340 	bic.w	r3, r2, #786432	; 0xc0000
    41ae:	f8c0 31ac 	str.w	r3, [r0, #428]	; 0x1ac
    41b2:	f8d0 21ac 	ldr.w	r2, [r0, #428]	; 0x1ac
    41b6:	f442 2380 	orr.w	r3, r2, #262144	; 0x40000
    41ba:	f8c0 31ac 	str.w	r3, [r0, #428]	; 0x1ac
    41be:	4880      	ldr	r0, [pc, #512]	; (43c0 <serial_baud+0x258>)
    41c0:	010a      	lsls	r2, r1, #4
    41c2:	6803      	ldr	r3, [r0, #0]
    41c4:	9308      	str	r3, [sp, #32]
    41c6:	9808      	ldr	r0, [sp, #32]
    41c8:	fbb3 fcf2 	udiv	r12, r3, r2
    41cc:	fb02 021c 	mls	r2, r2, r12, r0
    41d0:	fa1f f38c 	uxth.w	r3, r12
    41d4:	9307      	str	r3, [sp, #28]
    41d6:	2a00      	cmp	r2, #0
    41d8:	f000 80bb 	beq.w	4352 <serial_baud+0x1ea>
    41dc:	4608      	mov	r0, r1
    41de:	0859      	lsrs	r1, r3, #1
    41e0:	9102      	str	r1, [sp, #8]
    41e2:	f001 fd0f 	bl	5c04 <__aeabi_i2f>
    41e6:	9a02      	ldr	r2, [sp, #8]
    41e8:	4683      	mov	r11, r0
    41ea:	9807      	ldr	r0, [sp, #28]
    41ec:	4290      	cmp	r0, r2
    41ee:	f0c0 80b0 	bcc.w	4352 <serial_baud+0x1ea>
    41f2:	9f07      	ldr	r7, [sp, #28]
    41f4:	2401      	movs	r4, #1
    41f6:	2100      	movs	r1, #0
    41f8:	46da      	mov	r10, r11
    41fa:	9703      	str	r7, [sp, #12]
    41fc:	9405      	str	r4, [sp, #20]
    41fe:	9104      	str	r1, [sp, #16]
    4200:	f04f 0901 	mov.w	r9, #1
    4204:	f109 0201 	add.w	r2, r9, #1
    4208:	fa5f f982 	uxtb.w	r9, r2
    420c:	2000      	movs	r0, #0
    420e:	f1b9 0f10 	cmp.w	r9, #16
    4212:	9006      	str	r0, [sp, #24]
    4214:	9f08      	ldr	r7, [sp, #32]
    4216:	d061      	beq.n	42dc <serial_baud+0x174>
    4218:	9802      	ldr	r0, [sp, #8]
    421a:	f001 fcef 	bl	5bfc <__aeabi_ui2f>
    421e:	f001 f8d1 	bl	53c4 <__aeabi_f2d>
    4222:	2300      	movs	r3, #0
    4224:	2200      	movs	r2, #0
    4226:	f2c4 0330 	movt	r3, #16432	; 0x4030
    422a:	f001 f91f 	bl	546c <__aeabi_dmul>
    422e:	e9cd 0100 	strd	r0, r1, [sp]
    4232:	2601      	movs	r6, #1
    4234:	4638      	mov	r0, r7
    4236:	f001 fce1 	bl	5bfc <__aeabi_ui2f>
    423a:	f001 f8c3 	bl	53c4 <__aeabi_f2d>
    423e:	4604      	mov	r4, r0
    4240:	4630      	mov	r0, r6
    4242:	460d      	mov	r5, r1
    4244:	f001 fcda 	bl	5bfc <__aeabi_ui2f>
    4248:	4680      	mov	r8, r0
    424a:	4648      	mov	r0, r9
    424c:	f001 fcd6 	bl	5bfc <__aeabi_ui2f>
    4250:	4601      	mov	r1, r0
    4252:	4640      	mov	r0, r8
    4254:	f001 fdde 	bl	5e14 <__aeabi_fdiv>
    4258:	f04f 517e 	mov.w	r1, #1065353216	; 0x3f800000
    425c:	f001 fc1e 	bl	5a9c <__addsf3>
    4260:	f001 f8b0 	bl	53c4 <__aeabi_f2d>
    4264:	4602      	mov	r2, r0
    4266:	460b      	mov	r3, r1
    4268:	e9dd 0100 	ldrd	r0, r1, [sp]
    426c:	f001 f8fe 	bl	546c <__aeabi_dmul>
    4270:	4602      	mov	r2, r0
    4272:	460b      	mov	r3, r1
    4274:	4620      	mov	r0, r4
    4276:	4629      	mov	r1, r5
    4278:	f001 fa22 	bl	56c0 <__aeabi_ddiv>
    427c:	f001 fbb8 	bl	59f0 <__aeabi_d2f>
    4280:	4601      	mov	r1, r0
    4282:	4658      	mov	r0, r11
    4284:	f001 fc08 	bl	5a98 <__aeabi_fsub>
    4288:	4659      	mov	r1, r11
    428a:	f001 fdc3 	bl	5e14 <__aeabi_fdiv>
    428e:	f001 f899 	bl	53c4 <__aeabi_f2d>
    4292:	f007 f8f7 	bl	b484 <fabs>
    4296:	f001 fbab 	bl	59f0 <__aeabi_d2f>
    429a:	4651      	mov	r1, r10
    429c:	4604      	mov	r4, r0
    429e:	f001 fea3 	bl	5fe8 <__aeabi_fcmplt>
    42a2:	b180      	cbz	r0, 42c6 <serial_baud+0x15e>
    42a4:	4620      	mov	r0, r4
    42a6:	f001 f88d 	bl	53c4 <__aeabi_f2d>
    42aa:	a343      	add	r3, pc, #268	; (adr r3, 43b8 <serial_baud+0x250>)
    42ac:	e9d3 2300 	ldrd	r2, r3, [r3]
    42b0:	f001 fb4e 	bl	5950 <__aeabi_dcmplt>
    42b4:	9a02      	ldr	r2, [sp, #8]
    42b6:	46a2      	mov	r10, r4
    42b8:	f8cd 9014 	str.w	r9, [sp, #20]
    42bc:	9604      	str	r6, [sp, #16]
    42be:	9203      	str	r2, [sp, #12]
    42c0:	b108      	cbz	r0, 42c6 <serial_baud+0x15e>
    42c2:	2301      	movs	r3, #1
    42c4:	9306      	str	r3, [sp, #24]
    42c6:	3601      	adds	r6, #1
    42c8:	b2f6      	uxtb	r6, r6
    42ca:	454e      	cmp	r6, r9
    42cc:	d1b2      	bne.n	4234 <serial_baud+0xcc>
    42ce:	f109 0201 	add.w	r2, r9, #1
    42d2:	fa5f f982 	uxtb.w	r9, r2
    42d6:	f1b9 0f10 	cmp.w	r9, #16
    42da:	d19d      	bne.n	4218 <serial_baud+0xb0>
    42dc:	9b02      	ldr	r3, [sp, #8]
    42de:	9807      	ldr	r0, [sp, #28]
    42e0:	1c5c      	adds	r4, r3, #1
    42e2:	b2a1      	uxth	r1, r4
    42e4:	4288      	cmp	r0, r1
    42e6:	9102      	str	r1, [sp, #8]
    42e8:	d302      	bcc.n	42f0 <serial_baud+0x188>
    42ea:	9a06      	ldr	r2, [sp, #24]
    42ec:	2a00      	cmp	r2, #0
    42ee:	d087      	beq.n	4200 <serial_baud+0x98>
    42f0:	9b04      	ldr	r3, [sp, #16]
    42f2:	9c05      	ldr	r4, [sp, #20]
    42f4:	9a09      	ldr	r2, [sp, #36]	; 0x24
    42f6:	9803      	ldr	r0, [sp, #12]
    42f8:	ea43 1104 	orr.w	r1, r3, r4, lsl #4
    42fc:	6814      	ldr	r4, [r2, #0]
    42fe:	b2cb      	uxtb	r3, r1
    4300:	9007      	str	r0, [sp, #28]
    4302:	f894 c00c 	ldrb.w	r12, [r4, #12]
    4306:	9907      	ldr	r1, [sp, #28]
    4308:	f04c 0280 	orr.w	r2, r12, #128	; 0x80
    430c:	7322      	strb	r2, [r4, #12]
    430e:	9c09      	ldr	r4, [sp, #36]	; 0x24
    4310:	0a08      	lsrs	r0, r1, #8
    4312:	6822      	ldr	r2, [r4, #0]
    4314:	9c09      	ldr	r4, [sp, #36]	; 0x24
    4316:	7110      	strb	r0, [r2, #4]
    4318:	6820      	ldr	r0, [r4, #0]
    431a:	b2c9      	uxtb	r1, r1
    431c:	7001      	strb	r1, [r0, #0]
    431e:	6822      	ldr	r2, [r4, #0]
    4320:	f882 3028 	strb.w	r3, [r2, #40]	; 0x28
    4324:	6823      	ldr	r3, [r4, #0]
    4326:	7b19      	ldrb	r1, [r3, #12]
    4328:	f001 007f 	and.w	r0, r1, #127	; 0x7f
    432c:	7318      	strb	r0, [r3, #12]
    432e:	b00b      	add	sp, #44	; 0x2c
    4330:	e8bd 8ff0 	ldmia.w	sp!, {r4, r5, r6, r7, r8, r9, r10, r11, pc}
    4334:	f44f 4040 	mov.w	r0, #49152	; 0xc000
    4338:	f2c4 0000 	movt	r0, #16384	; 0x4000
    433c:	4284      	cmp	r4, r0
    433e:	d02a      	beq.n	4396 <serial_baud+0x22e>
    4340:	4d20      	ldr	r5, [pc, #128]	; (43c4 <serial_baud+0x25c>)
    4342:	4921      	ldr	r1, [pc, #132]	; (43c8 <serial_baud+0x260>)
    4344:	682e      	ldr	r6, [r5, #0]
    4346:	68f0      	ldr	r0, [r6, #12]
    4348:	f002 f90a 	bl	6560 <fiprintf>
    434c:	2001      	movs	r0, #1
    434e:	f7ff fae7 	bl	3920 <exit>
    4352:	2310      	movs	r3, #16
    4354:	e7d5      	b.n	4302 <serial_baud+0x19a>
    4356:	f2c4 030f 	movt	r3, #16399	; 0x400f
    435a:	f8d3 01ac 	ldr.w	r0, [r3, #428]	; 0x1ac
    435e:	f420 3240 	bic.w	r2, r0, #196608	; 0x30000
    4362:	f8c3 21ac 	str.w	r2, [r3, #428]	; 0x1ac
    4366:	f8d3 01ac 	ldr.w	r0, [r3, #428]	; 0x1ac
    436a:	f440 3280 	orr.w	r2, r0, #65536	; 0x10000
    436e:	f8c3 21ac 	str.w	r2, [r3, #428]	; 0x1ac
    4372:	e724      	b.n	41be <serial_baud+0x56>
    4374:	f44f 4c40 	mov.w	r12, #49152	; 0xc000
    4378:	f2c4 0c0f 	movt	r12, #16399	; 0x400f
    437c:	f8dc 31a8 	ldr.w	r3, [r12, #424]	; 0x1a8
    4380:	f423 7040 	bic.w	r0, r3, #768	; 0x300
    4384:	f8cc 01a8 	str.w	r0, [r12, #424]	; 0x1a8
    4388:	f8dc 21a8 	ldr.w	r2, [r12, #424]	; 0x1a8
    438c:	f442 7380 	orr.w	r3, r2, #256	; 0x100
    4390:	f8cc 31a8 	str.w	r3, [r12, #424]	; 0x1a8
    4394:	e713      	b.n	41be <serial_baud+0x56>
    4396:	f44f 4c40 	mov.w	r12, #49152	; 0xc000
    439a:	f2c4 0c0f 	movt	r12, #16399	; 0x400f
    439e:	f8dc 21a8 	ldr.w	r2, [r12, #424]	; 0x1a8
    43a2:	f022 03c0 	bic.w	r3, r2, #192	; 0xc0
    43a6:	f8cc 31a8 	str.w	r3, [r12, #424]	; 0x1a8
    43aa:	f8dc 01a8 	ldr.w	r0, [r12, #424]	; 0x1a8
    43ae:	f040 0240 	orr.w	r2, r0, #64	; 0x40
    43b2:	f8cc 21a8 	str.w	r2, [r12, #424]	; 0x1a8
    43b6:	e702      	b.n	41be <serial_baud+0x56>
    43b8:	d2f1a9fc 	.word	0xd2f1a9fc
    43bc:	3f50624d 	.word	0x3f50624d
    43c0:	1000015c 	.word	0x1000015c
    43c4:	100001c0 	.word	0x100001c0
    43c8:	0000c424 	.word	0x0000c424
    43cc:	f3af 8000 	nop.w

000043d0 <serial_format>:
    43d0:	b538      	push	{r3, r4, r5, lr}
    43d2:	1f4c      	subs	r4, r1, #5
    43d4:	2c03      	cmp	r4, #3
    43d6:	460d      	mov	r5, r1
    43d8:	d82a      	bhi.n	4430 <serial_format+0x60>
    43da:	2a04      	cmp	r2, #4
    43dc:	d813      	bhi.n	4406 <serial_format+0x36>
    43de:	e8df f002 	tbb	[pc, r2]
    43e2:	1e1b      	.short	0x1e1b
    43e4:	2421      	.short	0x2421
    43e6:	03          	.byte	0x03
    43e7:	00          	.byte	0x00
    43e8:	2203      	movs	r2, #3
    43ea:	2101      	movs	r1, #1
    43ec:	3b01      	subs	r3, #1
    43ee:	2b01      	cmp	r3, #1
    43f0:	d828      	bhi.n	4444 <serial_format+0x74>
    43f2:	ea44 0483 	orr.w	r4, r4, r3, lsl #2
    43f6:	ea44 0cc1 	orr.w	r12, r4, r1, lsl #3
    43fa:	6800      	ldr	r0, [r0, #0]
    43fc:	ea4c 1202 	orr.w	r2, r12, r2, lsl #4
    4400:	b2d1      	uxtb	r1, r2
    4402:	7301      	strb	r1, [r0, #12]
    4404:	bd38      	pop	{r3, r4, r5, pc}
    4406:	4910      	ldr	r1, [pc, #64]	; (4448 <serial_format+0x78>)
    4408:	4d10      	ldr	r5, [pc, #64]	; (444c <serial_format+0x7c>)
    440a:	682c      	ldr	r4, [r5, #0]
    440c:	68e0      	ldr	r0, [r4, #12]
    440e:	f002 f8a7 	bl	6560 <fiprintf>
    4412:	2001      	movs	r0, #1
    4414:	f7ff fa84 	bl	3920 <exit>
    4418:	2200      	movs	r2, #0
    441a:	4611      	mov	r1, r2
    441c:	e7e6      	b.n	43ec <serial_format+0x1c>
    441e:	2200      	movs	r2, #0
    4420:	2101      	movs	r1, #1
    4422:	e7e3      	b.n	43ec <serial_format+0x1c>
    4424:	2201      	movs	r2, #1
    4426:	4611      	mov	r1, r2
    4428:	e7e0      	b.n	43ec <serial_format+0x1c>
    442a:	2202      	movs	r2, #2
    442c:	2101      	movs	r1, #1
    442e:	e7dd      	b.n	43ec <serial_format+0x1c>
    4430:	4b06      	ldr	r3, [pc, #24]	; (444c <serial_format+0x7c>)
    4432:	4907      	ldr	r1, [pc, #28]	; (4450 <serial_format+0x80>)
    4434:	6818      	ldr	r0, [r3, #0]
    4436:	462a      	mov	r2, r5
    4438:	68c0      	ldr	r0, [r0, #12]
    443a:	f002 f891 	bl	6560 <fiprintf>
    443e:	2001      	movs	r0, #1
    4440:	f7ff fa6e 	bl	3920 <exit>
    4444:	4903      	ldr	r1, [pc, #12]	; (4454 <serial_format+0x84>)
    4446:	e7df      	b.n	4408 <serial_format+0x38>
    4448:	0000c470 	.word	0x0000c470
    444c:	100001c0 	.word	0x100001c0
    4450:	0000c430 	.word	0x0000c430
    4454:	0000c490 	.word	0x0000c490

00004458 <serial_init>:
    4458:	e92d 43f8 	stmdb	sp!, {r3, r4, r5, r6, r7, r8, r9, lr}
    445c:	460f      	mov	r7, r1
    445e:	4605      	mov	r5, r0
    4460:	498d      	ldr	r1, [pc, #564]	; (4698 <serial_init+0x240>)
    4462:	4638      	mov	r0, r7
    4464:	4616      	mov	r6, r2
    4466:	f7ff faa9 	bl	39bc <pinmap_peripheral>
    446a:	498c      	ldr	r1, [pc, #560]	; (469c <serial_init+0x244>)
    446c:	4604      	mov	r4, r0
    446e:	4630      	mov	r0, r6
    4470:	f7ff faa4 	bl	39bc <pinmap_peripheral>
    4474:	4601      	mov	r1, r0
    4476:	4620      	mov	r0, r4
    4478:	f7ff fa88 	bl	398c <pinmap_merge>
    447c:	1c43      	adds	r3, r0, #1
    447e:	4604      	mov	r4, r0
    4480:	f000 8101 	beq.w	4686 <serial_init+0x22e>
    4484:	2300      	movs	r3, #0
    4486:	f2c4 0301 	movt	r3, #16385	; 0x4001
    448a:	4298      	cmp	r0, r3
    448c:	6028      	str	r0, [r5, #0]
    448e:	d06c      	beq.n	456a <serial_init+0x112>
    4490:	d934      	bls.n	44fc <serial_init+0xa4>
    4492:	f44f 4200 	mov.w	r2, #32768	; 0x8000
    4496:	f2c4 0209 	movt	r2, #16393	; 0x4009
    449a:	4290      	cmp	r0, r2
    449c:	f000 80bd 	beq.w	461a <serial_init+0x1c2>
    44a0:	f44f 4140 	mov.w	r1, #49152	; 0xc000
    44a4:	f2c4 0109 	movt	r1, #16393	; 0x4009
    44a8:	4288      	cmp	r0, r1
    44aa:	d12d      	bne.n	4508 <serial_init+0xb0>
    44ac:	f44f 4c40 	mov.w	r12, #49152	; 0xc000
    44b0:	f2c4 0c0f 	movt	r12, #16399	; 0x400f
    44b4:	f8dc 00c4 	ldr.w	r0, [r12, #196]	; 0xc4
    44b8:	f04f 0801 	mov.w	r8, #1
    44bc:	f040 7200 	orr.w	r2, r0, #33554432	; 0x2000000
    44c0:	f8cc 20c4 	str.w	r2, [r12, #196]	; 0xc4
    44c4:	f884 8008 	strb.w	r8, [r4, #8]
    44c8:	6829      	ldr	r1, [r5, #0]
    44ca:	2400      	movs	r4, #0
    44cc:	604c      	str	r4, [r1, #4]
    44ce:	4628      	mov	r0, r5
    44d0:	f44f 5116 	mov.w	r1, #9600	; 0x2580
    44d4:	f7ff fe48 	bl	4168 <serial_baud>
    44d8:	4628      	mov	r0, r5
    44da:	4622      	mov	r2, r4
    44dc:	4643      	mov	r3, r8
    44de:	2108      	movs	r1, #8
    44e0:	f7ff ff76 	bl	43d0 <serial_format>
    44e4:	4638      	mov	r0, r7
    44e6:	496c      	ldr	r1, [pc, #432]	; (4698 <serial_init+0x240>)
    44e8:	f7ff fa2a 	bl	3940 <pinmap_pinout>
    44ec:	4630      	mov	r0, r6
    44ee:	496b      	ldr	r1, [pc, #428]	; (469c <serial_init+0x244>)
    44f0:	f7ff fa26 	bl	3940 <pinmap_pinout>
    44f4:	2303      	movs	r3, #3
    44f6:	606b      	str	r3, [r5, #4]
    44f8:	e8bd 83f8 	ldmia.w	sp!, {r3, r4, r5, r6, r7, r8, r9, pc}
    44fc:	f44f 4040 	mov.w	r0, #49152	; 0xc000
    4500:	f2c4 0000 	movt	r0, #16384	; 0x4000
    4504:	4284      	cmp	r4, r0
    4506:	d058      	beq.n	45ba <serial_init+0x162>
    4508:	f04f 0801 	mov.w	r8, #1
    450c:	f884 8008 	strb.w	r8, [r4, #8]
    4510:	682b      	ldr	r3, [r5, #0]
    4512:	f04f 0900 	mov.w	r9, #0
    4516:	f44f 5116 	mov.w	r1, #9600	; 0x2580
    451a:	f8c3 9004 	str.w	r9, [r3, #4]
    451e:	4628      	mov	r0, r5
    4520:	f7ff fe22 	bl	4168 <serial_baud>
    4524:	464a      	mov	r2, r9
    4526:	4643      	mov	r3, r8
    4528:	2108      	movs	r1, #8
    452a:	4628      	mov	r0, r5
    452c:	f7ff ff50 	bl	43d0 <serial_format>
    4530:	4638      	mov	r0, r7
    4532:	4959      	ldr	r1, [pc, #356]	; (4698 <serial_init+0x240>)
    4534:	f7ff fa04 	bl	3940 <pinmap_pinout>
    4538:	4630      	mov	r0, r6
    453a:	4958      	ldr	r1, [pc, #352]	; (469c <serial_init+0x244>)
    453c:	f7ff fa00 	bl	3940 <pinmap_pinout>
    4540:	46cc      	mov	r12, r9
    4542:	f2c4 0c01 	movt	r12, #16385	; 0x4001
    4546:	4564      	cmp	r4, r12
    4548:	d033      	beq.n	45b2 <serial_init+0x15a>
    454a:	f200 808e 	bhi.w	466a <serial_init+0x212>
    454e:	f44f 4040 	mov.w	r0, #49152	; 0xc000
    4552:	f2c4 0000 	movt	r0, #16384	; 0x4000
    4556:	4284      	cmp	r4, r0
    4558:	d053      	beq.n	4602 <serial_init+0x1aa>
    455a:	f44f 4e40 	mov.w	lr, #49152	; 0xc000
    455e:	f2c4 0e00 	movt	lr, #16384	; 0x4000
    4562:	4574      	cmp	r4, lr
    4564:	d04f      	beq.n	4606 <serial_init+0x1ae>
    4566:	e8bd 83f8 	ldmia.w	sp!, {r3, r4, r5, r6, r7, r8, r9, pc}
    456a:	f44f 4c40 	mov.w	r12, #49152	; 0xc000
    456e:	f2c4 0c0f 	movt	r12, #16399	; 0x400f
    4572:	f8dc 00c4 	ldr.w	r0, [r12, #196]	; 0xc4
    4576:	f04f 0801 	mov.w	r8, #1
    457a:	f040 0210 	orr.w	r2, r0, #16
    457e:	f8cc 20c4 	str.w	r2, [r12, #196]	; 0xc4
    4582:	f884 8008 	strb.w	r8, [r4, #8]
    4586:	6829      	ldr	r1, [r5, #0]
    4588:	2400      	movs	r4, #0
    458a:	604c      	str	r4, [r1, #4]
    458c:	4628      	mov	r0, r5
    458e:	f44f 5116 	mov.w	r1, #9600	; 0x2580
    4592:	f7ff fde9 	bl	4168 <serial_baud>
    4596:	4628      	mov	r0, r5
    4598:	4622      	mov	r2, r4
    459a:	4643      	mov	r3, r8
    459c:	2108      	movs	r1, #8
    459e:	f7ff ff17 	bl	43d0 <serial_format>
    45a2:	4638      	mov	r0, r7
    45a4:	493c      	ldr	r1, [pc, #240]	; (4698 <serial_init+0x240>)
    45a6:	f7ff f9cb 	bl	3940 <pinmap_pinout>
    45aa:	4630      	mov	r0, r6
    45ac:	493b      	ldr	r1, [pc, #236]	; (469c <serial_init+0x244>)
    45ae:	f7ff f9c7 	bl	3940 <pinmap_pinout>
    45b2:	2301      	movs	r3, #1
    45b4:	606b      	str	r3, [r5, #4]
    45b6:	e8bd 83f8 	ldmia.w	sp!, {r3, r4, r5, r6, r7, r8, r9, pc}
    45ba:	f44f 4240 	mov.w	r2, #49152	; 0xc000
    45be:	f2c4 020f 	movt	r2, #16399	; 0x400f
    45c2:	f8d2 10c4 	ldr.w	r1, [r2, #196]	; 0xc4
    45c6:	f04f 0801 	mov.w	r8, #1
    45ca:	f041 0308 	orr.w	r3, r1, #8
    45ce:	f8c2 30c4 	str.w	r3, [r2, #196]	; 0xc4
    45d2:	f884 8008 	strb.w	r8, [r4, #8]
    45d6:	6828      	ldr	r0, [r5, #0]
    45d8:	2400      	movs	r4, #0
    45da:	6044      	str	r4, [r0, #4]
    45dc:	f44f 5116 	mov.w	r1, #9600	; 0x2580
    45e0:	4628      	mov	r0, r5
    45e2:	f7ff fdc1 	bl	4168 <serial_baud>
    45e6:	4628      	mov	r0, r5
    45e8:	4622      	mov	r2, r4
    45ea:	4643      	mov	r3, r8
    45ec:	2108      	movs	r1, #8
    45ee:	f7ff feef 	bl	43d0 <serial_format>
    45f2:	4638      	mov	r0, r7
    45f4:	4928      	ldr	r1, [pc, #160]	; (4698 <serial_init+0x240>)
    45f6:	f7ff f9a3 	bl	3940 <pinmap_pinout>
    45fa:	4630      	mov	r0, r6
    45fc:	4927      	ldr	r1, [pc, #156]	; (469c <serial_init+0x244>)
    45fe:	f7ff f99f 	bl	3940 <pinmap_pinout>
    4602:	2400      	movs	r4, #0
    4604:	606c      	str	r4, [r5, #4]
    4606:	4b26      	ldr	r3, [pc, #152]	; (46a0 <serial_init+0x248>)
    4608:	4826      	ldr	r0, [pc, #152]	; (46a4 <serial_init+0x24c>)
    460a:	2401      	movs	r4, #1
    460c:	4629      	mov	r1, r5
    460e:	2208      	movs	r2, #8
    4610:	601c      	str	r4, [r3, #0]
    4612:	e8bd 43f8 	ldmia.w	sp!, {r3, r4, r5, r6, r7, r8, r9, lr}
    4616:	f002 b93d 	b.w	6894 <memcpy>
    461a:	f44f 4e40 	mov.w	lr, #49152	; 0xc000
    461e:	f2c4 0e0f 	movt	lr, #16399	; 0x400f
    4622:	f8de 00c4 	ldr.w	r0, [lr, #196]	; 0xc4
    4626:	f04f 0801 	mov.w	r8, #1
    462a:	f040 7280 	orr.w	r2, r0, #16777216	; 0x1000000
    462e:	f8ce 20c4 	str.w	r2, [lr, #196]	; 0xc4
    4632:	f884 8008 	strb.w	r8, [r4, #8]
    4636:	6829      	ldr	r1, [r5, #0]
    4638:	2400      	movs	r4, #0
    463a:	604c      	str	r4, [r1, #4]
    463c:	4628      	mov	r0, r5
    463e:	f44f 5116 	mov.w	r1, #9600	; 0x2580
    4642:	f7ff fd91 	bl	4168 <serial_baud>
    4646:	4628      	mov	r0, r5
    4648:	4622      	mov	r2, r4
    464a:	4643      	mov	r3, r8
    464c:	2108      	movs	r1, #8
    464e:	f7ff febf 	bl	43d0 <serial_format>
    4652:	4638      	mov	r0, r7
    4654:	4910      	ldr	r1, [pc, #64]	; (4698 <serial_init+0x240>)
    4656:	f7ff f973 	bl	3940 <pinmap_pinout>
    465a:	4630      	mov	r0, r6
    465c:	490f      	ldr	r1, [pc, #60]	; (469c <serial_init+0x244>)
    465e:	f7ff f96f 	bl	3940 <pinmap_pinout>
    4662:	2302      	movs	r3, #2
    4664:	606b      	str	r3, [r5, #4]
    4666:	e8bd 83f8 	ldmia.w	sp!, {r3, r4, r5, r6, r7, r8, r9, pc}
    466a:	f44f 4200 	mov.w	r2, #32768	; 0x8000
    466e:	f2c4 0209 	movt	r2, #16393	; 0x4009
    4672:	4294      	cmp	r4, r2
    4674:	d0f5      	beq.n	4662 <serial_init+0x20a>
    4676:	f44f 4140 	mov.w	r1, #49152	; 0xc000
    467a:	f2c4 0109 	movt	r1, #16393	; 0x4009
    467e:	428c      	cmp	r4, r1
    4680:	f47f af6b 	bne.w	455a <serial_init+0x102>
    4684:	e736      	b.n	44f4 <serial_init+0x9c>
    4686:	4d08      	ldr	r5, [pc, #32]	; (46a8 <serial_init+0x250>)
    4688:	4908      	ldr	r1, [pc, #32]	; (46ac <serial_init+0x254>)
    468a:	682e      	ldr	r6, [r5, #0]
    468c:	68f0      	ldr	r0, [r6, #12]
    468e:	f001 ff67 	bl	6560 <fiprintf>
    4692:	2001      	movs	r0, #1
    4694:	f7ff f944 	bl	3920 <exit>
    4698:	0000c4cc 	.word	0x0000c4cc
    469c:	0000c3b8 	.word	0x0000c3b8
    46a0:	100006f8 	.word	0x100006f8
    46a4:	10000a30 	.word	0x10000a30
    46a8:	100001c0 	.word	0x100001c0
    46ac:	0000c4ac 	.word	0x0000c4ac

000046b0 <serial_irq_handler>:
    46b0:	b410      	push	{r4}
    46b2:	f240 63fc 	movw	r3, #1788	; 0x6fc
    46b6:	f240 740c 	movw	r4, #1804	; 0x70c
    46ba:	6840      	ldr	r0, [r0, #4]
    46bc:	f2c1 0400 	movt	r4, #4096	; 0x1000
    46c0:	f2c1 0300 	movt	r3, #4096	; 0x1000
    46c4:	6021      	str	r1, [r4, #0]
    46c6:	f843 2020 	str.w	r2, [r3, r0, lsl #2]
    46ca:	bc10      	pop	{r4}
    46cc:	4770      	bx	lr
    46ce:	bf00      	nop

000046d0 <serial_irq_set>:
    46d0:	b570      	push	{r4, r5, r6, lr}
    46d2:	6803      	ldr	r3, [r0, #0]
    46d4:	2400      	movs	r4, #0
    46d6:	f2c4 0401 	movt	r4, #16385	; 0x4001
    46da:	42a3      	cmp	r3, r4
    46dc:	d04c      	beq.n	4778 <serial_irq_set+0xa8>
    46de:	dd29      	ble.n	4734 <serial_irq_set+0x64>
    46e0:	f44f 4600 	mov.w	r6, #32768	; 0x8000
    46e4:	f2c4 0609 	movt	r6, #16393	; 0x4009
    46e8:	42b3      	cmp	r3, r6
    46ea:	d042      	beq.n	4772 <serial_irq_set+0xa2>
    46ec:	f44f 4c40 	mov.w	r12, #49152	; 0xc000
    46f0:	f2c4 0c09 	movt	r12, #16393	; 0x4009
    46f4:	4563      	cmp	r3, r12
    46f6:	d123      	bne.n	4740 <serial_irq_set+0x70>
    46f8:	4d22      	ldr	r5, [pc, #136]	; (4784 <serial_irq_set+0xb4>)
    46fa:	2408      	movs	r4, #8
    46fc:	bb22      	cbnz	r2, 4748 <serial_irq_set+0x78>
    46fe:	2201      	movs	r2, #1
    4700:	fa02 f601 	lsl.w	r6, r2, r1
    4704:	f1d1 0101 	rsbs	r1, r1, #1
    4708:	bf38      	it	cc
    470a:	2100      	movcc	r1, #0
    470c:	fa02 fc01 	lsl.w	r12, r2, r1
    4710:	685d      	ldr	r5, [r3, #4]
    4712:	ea25 0506 	bic.w	r5, r5, r6
    4716:	605d      	str	r5, [r3, #4]
    4718:	6800      	ldr	r0, [r0, #0]
    471a:	6843      	ldr	r3, [r0, #4]
    471c:	ea1c 0f03 	tst.w	r12, r3
    4720:	d107      	bne.n	4732 <serial_irq_set+0x62>
    4722:	fa02 f204 	lsl.w	r2, r2, r4
    4726:	f44f 4161 	mov.w	r1, #57600	; 0xe100
    472a:	f2ce 0100 	movt	r1, #57344	; 0xe000
    472e:	f8c1 2080 	str.w	r2, [r1, #128]	; 0x80
    4732:	bd70      	pop	{r4, r5, r6, pc}
    4734:	f44f 4540 	mov.w	r5, #49152	; 0xc000
    4738:	f2c4 0500 	movt	r5, #16384	; 0x4000
    473c:	42ab      	cmp	r3, r5
    473e:	d01e      	beq.n	477e <serial_irq_set+0xae>
    4740:	2500      	movs	r5, #0
    4742:	462c      	mov	r4, r5
    4744:	2a00      	cmp	r2, #0
    4746:	d0da      	beq.n	46fe <serial_irq_set+0x2e>
    4748:	2601      	movs	r6, #1
    474a:	fa06 f001 	lsl.w	r0, r6, r1
    474e:	685a      	ldr	r2, [r3, #4]
    4750:	b264      	sxtb	r4, r4
    4752:	ea40 0102 	orr.w	r1, r0, r2
    4756:	4620      	mov	r0, r4
    4758:	fa06 f404 	lsl.w	r4, r6, r4
    475c:	6059      	str	r1, [r3, #4]
    475e:	4629      	mov	r1, r5
    4760:	f7fe fe88 	bl	3474 <NVIC_SetVector>
    4764:	f44f 4c61 	mov.w	r12, #57600	; 0xe100
    4768:	f2ce 0c00 	movt	r12, #57344	; 0xe000
    476c:	f8cc 4000 	str.w	r4, [r12]
    4770:	bd70      	pop	{r4, r5, r6, pc}
    4772:	4d05      	ldr	r5, [pc, #20]	; (4788 <serial_irq_set+0xb8>)
    4774:	2407      	movs	r4, #7
    4776:	e7c1      	b.n	46fc <serial_irq_set+0x2c>
    4778:	4d04      	ldr	r5, [pc, #16]	; (478c <serial_irq_set+0xbc>)
    477a:	2406      	movs	r4, #6
    477c:	e7be      	b.n	46fc <serial_irq_set+0x2c>
    477e:	4d04      	ldr	r5, [pc, #16]	; (4790 <serial_irq_set+0xc0>)
    4780:	2405      	movs	r4, #5
    4782:	e7bb      	b.n	46fc <serial_irq_set+0x2c>
    4784:	000040c9 	.word	0x000040c9
    4788:	00004095 	.word	0x00004095
    478c:	00004131 	.word	0x00004131
    4790:	000040fd 	.word	0x000040fd

00004794 <serial_getc>:
    4794:	6802      	ldr	r2, [r0, #0]
    4796:	7d13      	ldrb	r3, [r2, #20]
    4798:	07d9      	lsls	r1, r3, #31
    479a:	d5fc      	bpl.n	4796 <serial_getc+0x2>
    479c:	7810      	ldrb	r0, [r2, #0]
    479e:	4770      	bx	lr

000047a0 <serial_putc>:
    47a0:	6802      	ldr	r2, [r0, #0]
    47a2:	7d13      	ldrb	r3, [r2, #20]
    47a4:	f003 0020 	and.w	r0, r3, #32
    47a8:	b2c3      	uxtb	r3, r0
    47aa:	2b00      	cmp	r3, #0
    47ac:	d0f9      	beq.n	47a2 <serial_putc+0x2>
    47ae:	b2c9      	uxtb	r1, r1
    47b0:	7011      	strb	r1, [r2, #0]
    47b2:	4770      	bx	lr

000047b4 <serial_readable>:
    47b4:	6803      	ldr	r3, [r0, #0]
    47b6:	7d18      	ldrb	r0, [r3, #20]
    47b8:	f000 0001 	and.w	r0, r0, #1
    47bc:	4770      	bx	lr
    47be:	bf00      	nop

000047c0 <serial_writable>:
    47c0:	6803      	ldr	r3, [r0, #0]
    47c2:	7d18      	ldrb	r0, [r3, #20]
    47c4:	f000 0020 	and.w	r0, r0, #32
    47c8:	4770      	bx	lr
    47ca:	bf00      	nop

000047cc <us_ticker_read>:
    47cc:	4915      	ldr	r1, [pc, #84]	; (4824 <us_ticker_read+0x58>)
    47ce:	b430      	push	{r4, r5}
    47d0:	680a      	ldr	r2, [r1, #0]
    47d2:	b9fa      	cbnz	r2, 4814 <us_ticker_read+0x48>
    47d4:	f44f 4040 	mov.w	r0, #49152	; 0xc000
    47d8:	f2c4 000f 	movt	r0, #16399	; 0x400f
    47dc:	f8d0 50c4 	ldr.w	r5, [r0, #196]	; 0xc4
    47e0:	2401      	movs	r4, #1
    47e2:	f44f 4380 	mov.w	r3, #16384	; 0x4000
    47e6:	600c      	str	r4, [r1, #0]
    47e8:	f2c4 0309 	movt	r3, #16393	; 0x4009
    47ec:	490e      	ldr	r1, [pc, #56]	; (4828 <us_ticker_read+0x5c>)
    47ee:	f445 0500 	orr.w	r5, r5, #8388608	; 0x800000
    47f2:	f8c0 50c4 	str.w	r5, [r0, #196]	; 0xc4
    47f6:	671a      	str	r2, [r3, #112]	; 0x70
    47f8:	6808      	ldr	r0, [r1, #0]
    47fa:	f64d 6c83 	movw	r12, #56963	; 0xde83
    47fe:	0882      	lsrs	r2, r0, #2
    4800:	f2c4 3c1b 	movt	r12, #17179	; 0x431b
    4804:	fbac 0102 	umull	r0, r1, r12, r2
    4808:	0c88      	lsrs	r0, r1, #18
    480a:	1e42      	subs	r2, r0, #1
    480c:	2102      	movs	r1, #2
    480e:	6059      	str	r1, [r3, #4]
    4810:	60da      	str	r2, [r3, #12]
    4812:	605c      	str	r4, [r3, #4]
    4814:	f44f 4380 	mov.w	r3, #16384	; 0x4000
    4818:	f2c4 0309 	movt	r3, #16393	; 0x4009
    481c:	6898      	ldr	r0, [r3, #8]
    481e:	bc30      	pop	{r4, r5}
    4820:	4770      	bx	lr
    4822:	bf00      	nop
    4824:	10000710 	.word	0x10000710
    4828:	1000015c 	.word	0x1000015c

0000482c <_ZN4mbed8FileLikeD1Ev>:
    482c:	f24c 5370 	movw	r3, #50544	; 0xc570
    4830:	f2c0 0300 	movt	r3, #0
    4834:	b510      	push	{r4, lr}
    4836:	f103 0234 	add.w	r2, r3, #52	; 0x34
    483a:	4604      	mov	r4, r0
    483c:	3308      	adds	r3, #8
    483e:	f840 2f04 	str.w	r2, [r0, #4]!
    4842:	6023      	str	r3, [r4, #0]
    4844:	f000 f89a 	bl	497c <_ZN4mbed8FileBaseD1Ev>
    4848:	4620      	mov	r0, r4
    484a:	f7ff f98d 	bl	3b68 <_ZN4mbed10FileHandleD1Ev>
    484e:	4620      	mov	r0, r4
    4850:	bd10      	pop	{r4, pc}
    4852:	bf00      	nop

00004854 <_ZThn4_N4mbed8FileLikeD1Ev>:
    4854:	f1a0 0004 	sub.w	r0, r0, #4
    4858:	f7ff bfe8 	b.w	482c <_ZN4mbed8FileLikeD1Ev>

0000485c <_ZN4mbed8FileLikeD0Ev>:
    485c:	b510      	push	{r4, lr}
    485e:	4604      	mov	r4, r0
    4860:	f7ff ffe4 	bl	482c <_ZN4mbed8FileLikeD1Ev>
    4864:	4620      	mov	r0, r4
    4866:	f000 f966 	bl	4b36 <_ZdlPv>
    486a:	4620      	mov	r0, r4
    486c:	bd10      	pop	{r4, pc}
    486e:	bf00      	nop

00004870 <_ZThn4_N4mbed8FileLikeD0Ev>:
    4870:	f1a0 0004 	sub.w	r0, r0, #4
    4874:	f7ff bff2 	b.w	485c <_ZN4mbed8FileLikeD0Ev>

00004878 <_ZN4mbed8FileLikeC1EPKc>:
    4878:	4b09      	ldr	r3, [pc, #36]	; (48a0 <_ZN4mbed8FileLikeC1EPKc+0x28>)
    487a:	b510      	push	{r4, lr}
    487c:	2200      	movs	r2, #0
    487e:	4604      	mov	r4, r0
    4880:	f840 3b04 	str.w	r3, [r0], #4
    4884:	f000 f8b0 	bl	49e8 <_ZN4mbed8FileBaseC1EPKcNS_8PathTypeE>
    4888:	f24c 5370 	movw	r3, #50544	; 0xc570
    488c:	f2c0 0300 	movt	r3, #0
    4890:	f103 0208 	add.w	r2, r3, #8
    4894:	3334      	adds	r3, #52	; 0x34
    4896:	e884 000c 	stmia.w	r4, {r2, r3}
    489a:	4620      	mov	r0, r4
    489c:	bd10      	pop	{r4, pc}
    489e:	bf00      	nop
    48a0:	0000c318 	.word	0x0000c318

000048a4 <_ZN4mbed8FilePathC1EPKc>:
    48a4:	b570      	push	{r4, r5, r6, lr}
    48a6:	2200      	movs	r2, #0
    48a8:	6002      	str	r2, [r0, #0]
    48aa:	6042      	str	r2, [r0, #4]
    48ac:	780b      	ldrb	r3, [r1, #0]
    48ae:	4604      	mov	r4, r0
    48b0:	2b2f      	cmp	r3, #47	; 0x2f
    48b2:	d001      	beq.n	48b8 <_ZN4mbed8FilePathC1EPKc+0x14>
    48b4:	4620      	mov	r0, r4
    48b6:	bd70      	pop	{r4, r5, r6, pc}
    48b8:	7848      	ldrb	r0, [r1, #1]
    48ba:	2800      	cmp	r0, #0
    48bc:	d0fa      	beq.n	48b4 <_ZN4mbed8FilePathC1EPKc+0x10>
    48be:	1c4e      	adds	r6, r1, #1
    48c0:	6026      	str	r6, [r4, #0]
    48c2:	784d      	ldrb	r5, [r1, #1]
    48c4:	2d2f      	cmp	r5, #47	; 0x2f
    48c6:	d01b      	beq.n	4900 <_ZN4mbed8FilePathC1EPKc+0x5c>
    48c8:	b16d      	cbz	r5, 48e6 <_ZN4mbed8FilePathC1EPKc+0x42>
    48ca:	1c8d      	adds	r5, r1, #2
    48cc:	4611      	mov	r1, r2
    48ce:	e000      	b.n	48d2 <_ZN4mbed8FilePathC1EPKc+0x2e>
    48d0:	b1a2      	cbz	r2, 48fc <_ZN4mbed8FilePathC1EPKc+0x58>
    48d2:	6025      	str	r5, [r4, #0]
    48d4:	782a      	ldrb	r2, [r5, #0]
    48d6:	462b      	mov	r3, r5
    48d8:	3101      	adds	r1, #1
    48da:	3501      	adds	r5, #1
    48dc:	2a2f      	cmp	r2, #47	; 0x2f
    48de:	d1f7      	bne.n	48d0 <_ZN4mbed8FilePathC1EPKc+0x2c>
    48e0:	460d      	mov	r5, r1
    48e2:	1c58      	adds	r0, r3, #1
    48e4:	6020      	str	r0, [r4, #0]
    48e6:	4629      	mov	r1, r5
    48e8:	4630      	mov	r0, r6
    48ea:	f000 f88d 	bl	4a08 <_ZN4mbed8FileBase6lookupEPKcj>
    48ee:	4630      	mov	r0, r6
    48f0:	4629      	mov	r1, r5
    48f2:	f000 f889 	bl	4a08 <_ZN4mbed8FileBase6lookupEPKcj>
    48f6:	6060      	str	r0, [r4, #4]
    48f8:	4620      	mov	r0, r4
    48fa:	bd70      	pop	{r4, r5, r6, pc}
    48fc:	460d      	mov	r5, r1
    48fe:	e7f2      	b.n	48e6 <_ZN4mbed8FilePathC1EPKc+0x42>
    4900:	4633      	mov	r3, r6
    4902:	4615      	mov	r5, r2
    4904:	e7ed      	b.n	48e2 <_ZN4mbed8FilePathC1EPKc+0x3e>
    4906:	bf00      	nop

00004908 <_ZN4mbed8FilePath8fileNameEv>:
    4908:	6800      	ldr	r0, [r0, #0]
    490a:	4770      	bx	lr

0000490c <_ZN4mbed8FilePath12isFileSystemEv>:
    490c:	b508      	push	{r3, lr}
    490e:	6840      	ldr	r0, [r0, #4]
    4910:	f000 f89a 	bl	4a48 <_ZN4mbed8FileBase11getPathTypeEv>
    4914:	1e43      	subs	r3, r0, #1
    4916:	4258      	negs	r0, r3
    4918:	4158      	adcs	r0, r3
    491a:	bd08      	pop	{r3, pc}

0000491c <_ZN4mbed8FilePath10fileSystemEv>:
    491c:	b510      	push	{r4, lr}
    491e:	4604      	mov	r4, r0
    4920:	f7ff fff4 	bl	490c <_ZN4mbed8FilePath12isFileSystemEv>
    4924:	b100      	cbz	r0, 4928 <_ZN4mbed8FilePath10fileSystemEv+0xc>
    4926:	6860      	ldr	r0, [r4, #4]
    4928:	bd10      	pop	{r4, pc}
    492a:	bf00      	nop

0000492c <_ZN4mbed8FilePath6isFileEv>:
    492c:	b508      	push	{r3, lr}
    492e:	6840      	ldr	r0, [r0, #4]
    4930:	f000 f88a 	bl	4a48 <_ZN4mbed8FileBase11getPathTypeEv>
    4934:	f1d0 0001 	rsbs	r0, r0, #1
    4938:	bf38      	it	cc
    493a:	2000      	movcc	r0, #0
    493c:	bd08      	pop	{r3, pc}
    493e:	bf00      	nop

00004940 <_ZN4mbed8FilePath4fileEv>:
    4940:	b510      	push	{r4, lr}
    4942:	4604      	mov	r4, r0
    4944:	f7ff fff2 	bl	492c <_ZN4mbed8FilePath6isFileEv>
    4948:	b110      	cbz	r0, 4950 <_ZN4mbed8FilePath4fileEv+0x10>
    494a:	6860      	ldr	r0, [r4, #4]
    494c:	b100      	cbz	r0, 4950 <_ZN4mbed8FilePath4fileEv+0x10>
    494e:	3804      	subs	r0, #4
    4950:	bd10      	pop	{r4, pc}
    4952:	bf00      	nop

00004954 <_ZN4mbed15FunctionPointerC1EPFvvE>:
    4954:	2200      	movs	r2, #0
    4956:	6001      	str	r1, [r0, #0]
    4958:	6042      	str	r2, [r0, #4]
    495a:	4770      	bx	lr

0000495c <_ZN4mbed15FunctionPointer6attachEPFvvE>:
    495c:	2300      	movs	r3, #0
    495e:	6001      	str	r1, [r0, #0]
    4960:	6043      	str	r3, [r0, #4]
    4962:	4770      	bx	lr

00004964 <_ZN4mbed15FunctionPointer4callEv>:
    4964:	b508      	push	{r3, lr}
    4966:	6803      	ldr	r3, [r0, #0]
    4968:	4601      	mov	r1, r0
    496a:	b10b      	cbz	r3, 4970 <_ZN4mbed15FunctionPointer4callEv+0xc>
    496c:	4798      	blx	r3
    496e:	bd08      	pop	{r3, pc}
    4970:	6840      	ldr	r0, [r0, #4]
    4972:	b110      	cbz	r0, 497a <_ZN4mbed15FunctionPointer4callEv+0x16>
    4974:	698a      	ldr	r2, [r1, #24]
    4976:	3108      	adds	r1, #8
    4978:	4790      	blx	r2
    497a:	bd08      	pop	{r3, pc}

0000497c <_ZN4mbed8FileBaseD1Ev>:
    497c:	4a09      	ldr	r2, [pc, #36]	; (49a4 <_ZN4mbed8FileBaseD1Ev+0x28>)
    497e:	6883      	ldr	r3, [r0, #8]
    4980:	6002      	str	r2, [r0, #0]
    4982:	b153      	cbz	r3, 499a <_ZN4mbed8FileBaseD1Ev+0x1e>
    4984:	4908      	ldr	r1, [pc, #32]	; (49a8 <_ZN4mbed8FileBaseD1Ev+0x2c>)
    4986:	680a      	ldr	r2, [r1, #0]
    4988:	4282      	cmp	r2, r0
    498a:	d101      	bne.n	4990 <_ZN4mbed8FileBaseD1Ev+0x14>
    498c:	e006      	b.n	499c <_ZN4mbed8FileBaseD1Ev+0x20>
    498e:	461a      	mov	r2, r3
    4990:	6853      	ldr	r3, [r2, #4]
    4992:	4298      	cmp	r0, r3
    4994:	d1fb      	bne.n	498e <_ZN4mbed8FileBaseD1Ev+0x12>
    4996:	6841      	ldr	r1, [r0, #4]
    4998:	6051      	str	r1, [r2, #4]
    499a:	4770      	bx	lr
    499c:	6843      	ldr	r3, [r0, #4]
    499e:	600b      	str	r3, [r1, #0]
    49a0:	4770      	bx	lr
    49a2:	bf00      	nop
    49a4:	0000c5d0 	.word	0x0000c5d0
    49a8:	10000714 	.word	0x10000714

000049ac <_ZN4mbed8FileBaseD0Ev>:
    49ac:	4a0c      	ldr	r2, [pc, #48]	; (49e0 <_ZN4mbed8FileBaseD0Ev+0x34>)
    49ae:	6883      	ldr	r3, [r0, #8]
    49b0:	b510      	push	{r4, lr}
    49b2:	4604      	mov	r4, r0
    49b4:	6002      	str	r2, [r0, #0]
    49b6:	b153      	cbz	r3, 49ce <_ZN4mbed8FileBaseD0Ev+0x22>
    49b8:	480a      	ldr	r0, [pc, #40]	; (49e4 <_ZN4mbed8FileBaseD0Ev+0x38>)
    49ba:	6802      	ldr	r2, [r0, #0]
    49bc:	4294      	cmp	r4, r2
    49be:	d101      	bne.n	49c4 <_ZN4mbed8FileBaseD0Ev+0x18>
    49c0:	e00a      	b.n	49d8 <_ZN4mbed8FileBaseD0Ev+0x2c>
    49c2:	460a      	mov	r2, r1
    49c4:	6851      	ldr	r1, [r2, #4]
    49c6:	428c      	cmp	r4, r1
    49c8:	d1fb      	bne.n	49c2 <_ZN4mbed8FileBaseD0Ev+0x16>
    49ca:	6863      	ldr	r3, [r4, #4]
    49cc:	6053      	str	r3, [r2, #4]
    49ce:	4620      	mov	r0, r4
    49d0:	f000 f8b1 	bl	4b36 <_ZdlPv>
    49d4:	4620      	mov	r0, r4
    49d6:	bd10      	pop	{r4, pc}
    49d8:	6861      	ldr	r1, [r4, #4]
    49da:	6001      	str	r1, [r0, #0]
    49dc:	e7f7      	b.n	49ce <_ZN4mbed8FileBaseD0Ev+0x22>
    49de:	bf00      	nop
    49e0:	0000c5d0 	.word	0x0000c5d0
    49e4:	10000714 	.word	0x10000714

000049e8 <_ZN4mbed8FileBaseC1EPKcNS_8PathTypeE>:
    49e8:	4b05      	ldr	r3, [pc, #20]	; (4a00 <_ZN4mbed8FileBaseC1EPKcNS_8PathTypeE+0x18>)
    49ea:	6081      	str	r1, [r0, #8]
    49ec:	6003      	str	r3, [r0, #0]
    49ee:	7302      	strb	r2, [r0, #12]
    49f0:	b121      	cbz	r1, 49fc <_ZN4mbed8FileBaseC1EPKcNS_8PathTypeE+0x14>
    49f2:	4904      	ldr	r1, [pc, #16]	; (4a04 <_ZN4mbed8FileBaseC1EPKcNS_8PathTypeE+0x1c>)
    49f4:	680a      	ldr	r2, [r1, #0]
    49f6:	6008      	str	r0, [r1, #0]
    49f8:	6042      	str	r2, [r0, #4]
    49fa:	4770      	bx	lr
    49fc:	6041      	str	r1, [r0, #4]
    49fe:	4770      	bx	lr
    4a00:	0000c5d0 	.word	0x0000c5d0
    4a04:	10000714 	.word	0x10000714

00004a08 <_ZN4mbed8FileBase6lookupEPKcj>:
    4a08:	4b0e      	ldr	r3, [pc, #56]	; (4a44 <_ZN4mbed8FileBase6lookupEPKcj+0x3c>)
    4a0a:	b570      	push	{r4, r5, r6, lr}
    4a0c:	681c      	ldr	r4, [r3, #0]
    4a0e:	4606      	mov	r6, r0
    4a10:	460d      	mov	r5, r1
    4a12:	b914      	cbnz	r4, 4a1a <_ZN4mbed8FileBase6lookupEPKcj+0x12>
    4a14:	e012      	b.n	4a3c <_ZN4mbed8FileBase6lookupEPKcj+0x34>
    4a16:	6864      	ldr	r4, [r4, #4]
    4a18:	b184      	cbz	r4, 4a3c <_ZN4mbed8FileBase6lookupEPKcj+0x34>
    4a1a:	68a3      	ldr	r3, [r4, #8]
    4a1c:	4631      	mov	r1, r6
    4a1e:	462a      	mov	r2, r5
    4a20:	4618      	mov	r0, r3
    4a22:	2b00      	cmp	r3, #0
    4a24:	d0f7      	beq.n	4a16 <_ZN4mbed8FileBase6lookupEPKcj+0xe>
    4a26:	f002 fa2e 	bl	6e86 <strncmp>
    4a2a:	2800      	cmp	r0, #0
    4a2c:	d1f3      	bne.n	4a16 <_ZN4mbed8FileBase6lookupEPKcj+0xe>
    4a2e:	68a0      	ldr	r0, [r4, #8]
    4a30:	f002 fa21 	bl	6e76 <strlen>
    4a34:	42a8      	cmp	r0, r5
    4a36:	d1ee      	bne.n	4a16 <_ZN4mbed8FileBase6lookupEPKcj+0xe>
    4a38:	4620      	mov	r0, r4
    4a3a:	bd70      	pop	{r4, r5, r6, pc}
    4a3c:	2400      	movs	r4, #0
    4a3e:	4620      	mov	r0, r4
    4a40:	bd70      	pop	{r4, r5, r6, pc}
    4a42:	bf00      	nop
    4a44:	10000714 	.word	0x10000714

00004a48 <_ZN4mbed8FileBase11getPathTypeEv>:
    4a48:	7b00      	ldrb	r0, [r0, #12]
    4a4a:	4770      	bx	lr

00004a4c <__aeabi_atexit>:
    4a4c:	4603      	mov	r3, r0
    4a4e:	4608      	mov	r0, r1
    4a50:	4619      	mov	r1, r3
    4a52:	f001 bb17 	b.w	6084 <__cxa_atexit>

00004a56 <_ZNK10__cxxabiv117__class_type_info11__do_upcastEPKS0_PPv>:
    4a56:	b57f      	push	{r0, r1, r2, r3, r4, r5, r6, lr}
    4a58:	2310      	movs	r3, #16
    4a5a:	9302      	str	r3, [sp, #8]
    4a5c:	6803      	ldr	r3, [r0, #0]
    4a5e:	2400      	movs	r4, #0
    4a60:	4615      	mov	r5, r2
    4a62:	699e      	ldr	r6, [r3, #24]
    4a64:	9400      	str	r4, [sp, #0]
    4a66:	466b      	mov	r3, sp
    4a68:	f88d 4004 	strb.w	r4, [sp, #4]
    4a6c:	9403      	str	r4, [sp, #12]
    4a6e:	6812      	ldr	r2, [r2, #0]
    4a70:	47b0      	blx	r6
    4a72:	f89d 3004 	ldrb.w	r3, [sp, #4]
    4a76:	f003 0306 	and.w	r3, r3, #6
    4a7a:	2b06      	cmp	r3, #6
    4a7c:	bf05      	ittet	eq
    4a7e:	9b00      	ldreq	r3, [sp, #0]
    4a80:	2001      	moveq	r0, #1
    4a82:	4620      	movne	r0, r4
    4a84:	602b      	streq	r3, [r5, #0]
    4a86:	b004      	add	sp, #16
    4a88:	bd70      	pop	{r4, r5, r6, pc}

00004a8a <_ZNK10__cxxabiv117__class_type_info20__do_find_public_srcEiPKvPKS0_S2_>:
    4a8a:	9800      	ldr	r0, [sp, #0]
    4a8c:	4290      	cmp	r0, r2
    4a8e:	bf14      	ite	ne
    4a90:	2001      	movne	r0, #1
    4a92:	2006      	moveq	r0, #6
    4a94:	4770      	bx	lr
	...

00004a98 <_ZN10__cxxabiv117__class_type_infoD1Ev>:
    4a98:	b510      	push	{r4, lr}
    4a9a:	4b03      	ldr	r3, [pc, #12]	; (4aa8 <_ZN10__cxxabiv117__class_type_infoD1Ev+0x10>)
    4a9c:	4604      	mov	r4, r0
    4a9e:	6003      	str	r3, [r0, #0]
    4aa0:	f000 f8cc 	bl	4c3c <_ZNSt9type_infoD1Ev>
    4aa4:	4620      	mov	r0, r4
    4aa6:	bd10      	pop	{r4, pc}
    4aa8:	0000c5e8 	.word	0x0000c5e8

00004aac <_ZN10__cxxabiv117__class_type_infoD0Ev>:
    4aac:	b510      	push	{r4, lr}
    4aae:	4604      	mov	r4, r0
    4ab0:	f7ff fff2 	bl	4a98 <_ZN10__cxxabiv117__class_type_infoD1Ev>
    4ab4:	4620      	mov	r0, r4
    4ab6:	f000 f83e 	bl	4b36 <_ZdlPv>
    4aba:	4620      	mov	r0, r4
    4abc:	bd10      	pop	{r4, pc}

00004abe <_ZNK10__cxxabiv117__class_type_info11__do_upcastEPKS0_PKvRNS0_15__upcast_resultE>:
    4abe:	b538      	push	{r3, r4, r5, lr}
    4ac0:	4615      	mov	r5, r2
    4ac2:	461c      	mov	r4, r3
    4ac4:	f000 f8d0 	bl	4c68 <_ZNKSt9type_infoeqERKS_>
    4ac8:	b128      	cbz	r0, 4ad6 <_ZNK10__cxxabiv117__class_type_info11__do_upcastEPKS0_PKvRNS0_15__upcast_resultE+0x18>
    4aca:	2308      	movs	r3, #8
    4acc:	60e3      	str	r3, [r4, #12]
    4ace:	2306      	movs	r3, #6
    4ad0:	6025      	str	r5, [r4, #0]
    4ad2:	7123      	strb	r3, [r4, #4]
    4ad4:	2001      	movs	r0, #1
    4ad6:	bd38      	pop	{r3, r4, r5, pc}

00004ad8 <_ZNK10__cxxabiv117__class_type_info10__do_catchEPKSt9type_infoPPvj>:
    4ad8:	b5f8      	push	{r3, r4, r5, r6, r7, lr}
    4ada:	4605      	mov	r5, r0
    4adc:	460c      	mov	r4, r1
    4ade:	4616      	mov	r6, r2
    4ae0:	461f      	mov	r7, r3
    4ae2:	f000 f8c1 	bl	4c68 <_ZNKSt9type_infoeqERKS_>
    4ae6:	b940      	cbnz	r0, 4afa <_ZNK10__cxxabiv117__class_type_info10__do_catchEPKSt9type_infoPPvj+0x22>
    4ae8:	2f03      	cmp	r7, #3
    4aea:	d807      	bhi.n	4afc <_ZNK10__cxxabiv117__class_type_info10__do_catchEPKSt9type_infoPPvj+0x24>
    4aec:	6823      	ldr	r3, [r4, #0]
    4aee:	4620      	mov	r0, r4
    4af0:	695b      	ldr	r3, [r3, #20]
    4af2:	4629      	mov	r1, r5
    4af4:	4632      	mov	r2, r6
    4af6:	4798      	blx	r3
    4af8:	bdf8      	pop	{r3, r4, r5, r6, r7, pc}
    4afa:	2001      	movs	r0, #1
    4afc:	bdf8      	pop	{r3, r4, r5, r6, r7, pc}

00004afe <_ZNK10__cxxabiv117__class_type_info12__do_dyncastEiNS0_10__sub_kindEPKS0_PKvS3_S5_RNS0_16__dyncast_resultE>:
    4afe:	e92d 41f0 	stmdb	sp!, {r4, r5, r6, r7, r8, lr}
    4b02:	9e06      	ldr	r6, [sp, #24]
    4b04:	4615      	mov	r5, r2
    4b06:	9a08      	ldr	r2, [sp, #32]
    4b08:	4607      	mov	r7, r0
    4b0a:	4296      	cmp	r6, r2
    4b0c:	4698      	mov	r8, r3
    4b0e:	9c09      	ldr	r4, [sp, #36]	; 0x24
    4b10:	d103      	bne.n	4b1a <_ZNK10__cxxabiv117__class_type_info12__do_dyncastEiNS0_10__sub_kindEPKS0_PKvS3_S5_RNS0_16__dyncast_resultE+0x1c>
    4b12:	9907      	ldr	r1, [sp, #28]
    4b14:	f000 f8a8 	bl	4c68 <_ZNKSt9type_infoeqERKS_>
    4b18:	b948      	cbnz	r0, 4b2e <_ZNK10__cxxabiv117__class_type_info12__do_dyncastEiNS0_10__sub_kindEPKS0_PKvS3_S5_RNS0_16__dyncast_resultE+0x30>
    4b1a:	4638      	mov	r0, r7
    4b1c:	4641      	mov	r1, r8
    4b1e:	f000 f8a3 	bl	4c68 <_ZNKSt9type_infoeqERKS_>
    4b22:	b128      	cbz	r0, 4b30 <_ZNK10__cxxabiv117__class_type_info12__do_dyncastEiNS0_10__sub_kindEPKS0_PKvS3_S5_RNS0_16__dyncast_resultE+0x32>
    4b24:	2301      	movs	r3, #1
    4b26:	6026      	str	r6, [r4, #0]
    4b28:	7125      	strb	r5, [r4, #4]
    4b2a:	71a3      	strb	r3, [r4, #6]
    4b2c:	e000      	b.n	4b30 <_ZNK10__cxxabiv117__class_type_info12__do_dyncastEiNS0_10__sub_kindEPKS0_PKvS3_S5_RNS0_16__dyncast_resultE+0x32>
    4b2e:	7165      	strb	r5, [r4, #5]
    4b30:	2000      	movs	r0, #0
    4b32:	e8bd 81f0 	ldmia.w	sp!, {r4, r5, r6, r7, r8, pc}

00004b36 <_ZdlPv>:
    4b36:	b108      	cbz	r0, 4b3c <_ZdlPv+0x6>
    4b38:	f001 be96 	b.w	6868 <free>
    4b3c:	4770      	bx	lr
	...

00004b40 <_ZN10__cxxabiv120__si_class_type_infoD1Ev>:
    4b40:	b510      	push	{r4, lr}
    4b42:	4b03      	ldr	r3, [pc, #12]	; (4b50 <_ZN10__cxxabiv120__si_class_type_infoD1Ev+0x10>)
    4b44:	4604      	mov	r4, r0
    4b46:	6003      	str	r3, [r0, #0]
    4b48:	f7ff ffa6 	bl	4a98 <_ZN10__cxxabiv117__class_type_infoD1Ev>
    4b4c:	4620      	mov	r0, r4
    4b4e:	bd10      	pop	{r4, pc}
    4b50:	0000c648 	.word	0x0000c648

00004b54 <_ZN10__cxxabiv120__si_class_type_infoD0Ev>:
    4b54:	b510      	push	{r4, lr}
    4b56:	4604      	mov	r4, r0
    4b58:	f7ff fff2 	bl	4b40 <_ZN10__cxxabiv120__si_class_type_infoD1Ev>
    4b5c:	4620      	mov	r0, r4
    4b5e:	f7ff ffea 	bl	4b36 <_ZdlPv>
    4b62:	4620      	mov	r0, r4
    4b64:	bd10      	pop	{r4, pc}

00004b66 <_ZNK10__cxxabiv120__si_class_type_info20__do_find_public_srcEiPKvPKNS_17__class_type_infoES2_>:
    4b66:	e92d 41f3 	stmdb	sp!, {r0, r1, r4, r5, r6, r7, r8, lr}
    4b6a:	9c08      	ldr	r4, [sp, #32]
    4b6c:	4607      	mov	r7, r0
    4b6e:	4294      	cmp	r4, r2
    4b70:	4688      	mov	r8, r1
    4b72:	4616      	mov	r6, r2
    4b74:	461d      	mov	r5, r3
    4b76:	d105      	bne.n	4b84 <_ZNK10__cxxabiv120__si_class_type_info20__do_find_public_srcEiPKvPKNS_17__class_type_infoES2_+0x1e>
    4b78:	4619      	mov	r1, r3
    4b7a:	f000 f875 	bl	4c68 <_ZNKSt9type_infoeqERKS_>
    4b7e:	b108      	cbz	r0, 4b84 <_ZNK10__cxxabiv120__si_class_type_info20__do_find_public_srcEiPKvPKNS_17__class_type_infoES2_+0x1e>
    4b80:	2006      	movs	r0, #6
    4b82:	e007      	b.n	4b94 <_ZNK10__cxxabiv120__si_class_type_info20__do_find_public_srcEiPKvPKNS_17__class_type_infoES2_+0x2e>
    4b84:	68b8      	ldr	r0, [r7, #8]
    4b86:	4641      	mov	r1, r8
    4b88:	6803      	ldr	r3, [r0, #0]
    4b8a:	9400      	str	r4, [sp, #0]
    4b8c:	6a1c      	ldr	r4, [r3, #32]
    4b8e:	4632      	mov	r2, r6
    4b90:	462b      	mov	r3, r5
    4b92:	47a0      	blx	r4
    4b94:	b002      	add	sp, #8
    4b96:	e8bd 81f0 	ldmia.w	sp!, {r4, r5, r6, r7, r8, pc}

00004b9a <_ZNK10__cxxabiv120__si_class_type_info12__do_dyncastEiNS_17__class_type_info10__sub_kindEPKS1_PKvS4_S6_RNS1_16__dyncast_resultE>:
    4b9a:	e92d 4ff0 	stmdb	sp!, {r4, r5, r6, r7, r8, r9, r10, r11, lr}
    4b9e:	460e      	mov	r6, r1
    4ba0:	b085      	sub	sp, #20
    4ba2:	4619      	mov	r1, r3
    4ba4:	4683      	mov	r11, r0
    4ba6:	4690      	mov	r8, r2
    4ba8:	4699      	mov	r9, r3
    4baa:	9d0e      	ldr	r5, [sp, #56]	; 0x38
    4bac:	9f10      	ldr	r7, [sp, #64]	; 0x40
    4bae:	9c11      	ldr	r4, [sp, #68]	; 0x44
    4bb0:	f000 f85a 	bl	4c68 <_ZNKSt9type_infoeqERKS_>
    4bb4:	4682      	mov	r10, r0
    4bb6:	b180      	cbz	r0, 4bda <_ZNK10__cxxabiv120__si_class_type_info12__do_dyncastEiNS_17__class_type_info10__sub_kindEPKS1_PKvS4_S6_RNS1_16__dyncast_resultE+0x40>
    4bb8:	2e00      	cmp	r6, #0
    4bba:	6025      	str	r5, [r4, #0]
    4bbc:	f884 8004 	strb.w	r8, [r4, #4]
    4bc0:	db06      	blt.n	4bd0 <_ZNK10__cxxabiv120__si_class_type_info12__do_dyncastEiNS_17__class_type_info10__sub_kindEPKS1_PKvS4_S6_RNS1_16__dyncast_resultE+0x36>
    4bc2:	4435      	add	r5, r6
    4bc4:	42af      	cmp	r7, r5
    4bc6:	bf14      	ite	ne
    4bc8:	2701      	movne	r7, #1
    4bca:	2706      	moveq	r7, #6
    4bcc:	71a7      	strb	r7, [r4, #6]
    4bce:	e00c      	b.n	4bea <_ZNK10__cxxabiv120__si_class_type_info12__do_dyncastEiNS_17__class_type_info10__sub_kindEPKS1_PKvS4_S6_RNS1_16__dyncast_resultE+0x50>
    4bd0:	3602      	adds	r6, #2
    4bd2:	d10a      	bne.n	4bea <_ZNK10__cxxabiv120__si_class_type_info12__do_dyncastEiNS_17__class_type_info10__sub_kindEPKS1_PKvS4_S6_RNS1_16__dyncast_resultE+0x50>
    4bd4:	2301      	movs	r3, #1
    4bd6:	71a3      	strb	r3, [r4, #6]
    4bd8:	e007      	b.n	4bea <_ZNK10__cxxabiv120__si_class_type_info12__do_dyncastEiNS_17__class_type_info10__sub_kindEPKS1_PKvS4_S6_RNS1_16__dyncast_resultE+0x50>
    4bda:	42bd      	cmp	r5, r7
    4bdc:	d107      	bne.n	4bee <_ZNK10__cxxabiv120__si_class_type_info12__do_dyncastEiNS_17__class_type_info10__sub_kindEPKS1_PKvS4_S6_RNS1_16__dyncast_resultE+0x54>
    4bde:	4658      	mov	r0, r11
    4be0:	990f      	ldr	r1, [sp, #60]	; 0x3c
    4be2:	f000 f841 	bl	4c68 <_ZNKSt9type_infoeqERKS_>
    4be6:	b980      	cbnz	r0, 4c0a <_ZNK10__cxxabiv120__si_class_type_info12__do_dyncastEiNS_17__class_type_info10__sub_kindEPKS1_PKvS4_S6_RNS1_16__dyncast_resultE+0x70>
    4be8:	e001      	b.n	4bee <_ZNK10__cxxabiv120__si_class_type_info12__do_dyncastEiNS_17__class_type_info10__sub_kindEPKS1_PKvS4_S6_RNS1_16__dyncast_resultE+0x54>
    4bea:	2000      	movs	r0, #0
    4bec:	e010      	b.n	4c10 <_ZNK10__cxxabiv120__si_class_type_info12__do_dyncastEiNS_17__class_type_info10__sub_kindEPKS1_PKvS4_S6_RNS1_16__dyncast_resultE+0x76>
    4bee:	f8db 0008 	ldr.w	r0, [r11, #8]
    4bf2:	9a0f      	ldr	r2, [sp, #60]	; 0x3c
    4bf4:	6803      	ldr	r3, [r0, #0]
    4bf6:	9201      	str	r2, [sp, #4]
    4bf8:	9500      	str	r5, [sp, #0]
    4bfa:	9702      	str	r7, [sp, #8]
    4bfc:	9403      	str	r4, [sp, #12]
    4bfe:	69dc      	ldr	r4, [r3, #28]
    4c00:	4631      	mov	r1, r6
    4c02:	4642      	mov	r2, r8
    4c04:	464b      	mov	r3, r9
    4c06:	47a0      	blx	r4
    4c08:	e002      	b.n	4c10 <_ZNK10__cxxabiv120__si_class_type_info12__do_dyncastEiNS_17__class_type_info10__sub_kindEPKS1_PKvS4_S6_RNS1_16__dyncast_resultE+0x76>
    4c0a:	f884 8005 	strb.w	r8, [r4, #5]
    4c0e:	4650      	mov	r0, r10
    4c10:	b005      	add	sp, #20
    4c12:	e8bd 8ff0 	ldmia.w	sp!, {r4, r5, r6, r7, r8, r9, r10, r11, pc}

00004c16 <_ZNK10__cxxabiv120__si_class_type_info11__do_upcastEPKNS_17__class_type_infoEPKvRNS1_15__upcast_resultE>:
    4c16:	b5f8      	push	{r3, r4, r5, r6, r7, lr}
    4c18:	4604      	mov	r4, r0
    4c1a:	460f      	mov	r7, r1
    4c1c:	4616      	mov	r6, r2
    4c1e:	461d      	mov	r5, r3
    4c20:	f7ff ff4d 	bl	4abe <_ZNK10__cxxabiv117__class_type_info11__do_upcastEPKS0_PKvRNS0_15__upcast_resultE>
    4c24:	b938      	cbnz	r0, 4c36 <_ZNK10__cxxabiv120__si_class_type_info11__do_upcastEPKNS_17__class_type_infoEPKvRNS1_15__upcast_resultE+0x20>
    4c26:	68a0      	ldr	r0, [r4, #8]
    4c28:	4639      	mov	r1, r7
    4c2a:	6804      	ldr	r4, [r0, #0]
    4c2c:	4632      	mov	r2, r6
    4c2e:	69a4      	ldr	r4, [r4, #24]
    4c30:	462b      	mov	r3, r5
    4c32:	47a0      	blx	r4
    4c34:	bdf8      	pop	{r3, r4, r5, r6, r7, pc}
    4c36:	2001      	movs	r0, #1
    4c38:	bdf8      	pop	{r3, r4, r5, r6, r7, pc}
	...

00004c3c <_ZNSt9type_infoD1Ev>:
    4c3c:	4b01      	ldr	r3, [pc, #4]	; (4c44 <_ZNSt9type_infoD1Ev+0x8>)
    4c3e:	6003      	str	r3, [r0, #0]
    4c40:	4770      	bx	lr
    4c42:	bf00      	nop
    4c44:	0000c6c8 	.word	0x0000c6c8

00004c48 <_ZNKSt9type_info14__is_pointer_pEv>:
    4c48:	2000      	movs	r0, #0
    4c4a:	4770      	bx	lr

00004c4c <_ZNKSt9type_info15__is_function_pEv>:
    4c4c:	2000      	movs	r0, #0
    4c4e:	4770      	bx	lr

00004c50 <_ZNKSt9type_info11__do_upcastEPKN10__cxxabiv117__class_type_infoEPPv>:
    4c50:	2000      	movs	r0, #0
    4c52:	4770      	bx	lr

00004c54 <_ZNSt9type_infoD0Ev>:
    4c54:	b510      	push	{r4, lr}
    4c56:	4b03      	ldr	r3, [pc, #12]	; (4c64 <_ZNSt9type_infoD0Ev+0x10>)
    4c58:	4604      	mov	r4, r0
    4c5a:	6003      	str	r3, [r0, #0]
    4c5c:	f7ff ff6b 	bl	4b36 <_ZdlPv>
    4c60:	4620      	mov	r0, r4
    4c62:	bd10      	pop	{r4, pc}
    4c64:	0000c6c8 	.word	0x0000c6c8

00004c68 <_ZNKSt9type_infoeqERKS_>:
    4c68:	4281      	cmp	r1, r0
    4c6a:	b508      	push	{r3, lr}
    4c6c:	d00f      	beq.n	4c8e <_ZNKSt9type_infoeqERKS_+0x26>
    4c6e:	6840      	ldr	r0, [r0, #4]
    4c70:	7803      	ldrb	r3, [r0, #0]
    4c72:	2b2a      	cmp	r3, #42	; 0x2a
    4c74:	d00d      	beq.n	4c92 <_ZNKSt9type_infoeqERKS_+0x2a>
    4c76:	6849      	ldr	r1, [r1, #4]
    4c78:	780b      	ldrb	r3, [r1, #0]
    4c7a:	2b2a      	cmp	r3, #42	; 0x2a
    4c7c:	bf08      	it	eq
    4c7e:	3101      	addeq	r1, #1
    4c80:	f002 f8ef 	bl	6e62 <strcmp>
    4c84:	f1d0 0001 	rsbs	r0, r0, #1
    4c88:	bf38      	it	cc
    4c8a:	2000      	movcc	r0, #0
    4c8c:	bd08      	pop	{r3, pc}
    4c8e:	2001      	movs	r0, #1
    4c90:	bd08      	pop	{r3, pc}
    4c92:	2000      	movs	r0, #0
    4c94:	bd08      	pop	{r3, pc}

00004c96 <_ZNKSt9type_info10__do_catchEPKS_PPvj>:
    4c96:	f7ff bfe7 	b.w	4c68 <_ZNKSt9type_infoeqERKS_>
	...

00004c9c <_ZN10__cxxabiv121__vmi_class_type_infoD1Ev>:
    4c9c:	b510      	push	{r4, lr}
    4c9e:	4b03      	ldr	r3, [pc, #12]	; (4cac <_ZN10__cxxabiv121__vmi_class_type_infoD1Ev+0x10>)
    4ca0:	4604      	mov	r4, r0
    4ca2:	6003      	str	r3, [r0, #0]
    4ca4:	f7ff fef8 	bl	4a98 <_ZN10__cxxabiv117__class_type_infoD1Ev>
    4ca8:	4620      	mov	r0, r4
    4caa:	bd10      	pop	{r4, pc}
    4cac:	0000c720 	.word	0x0000c720

00004cb0 <_ZN10__cxxabiv121__vmi_class_type_infoD0Ev>:
    4cb0:	b510      	push	{r4, lr}
    4cb2:	4604      	mov	r4, r0
    4cb4:	f7ff fff2 	bl	4c9c <_ZN10__cxxabiv121__vmi_class_type_infoD1Ev>
    4cb8:	4620      	mov	r0, r4
    4cba:	f7ff ff3c 	bl	4b36 <_ZdlPv>
    4cbe:	4620      	mov	r0, r4
    4cc0:	bd10      	pop	{r4, pc}

00004cc2 <_ZNK10__cxxabiv121__vmi_class_type_info20__do_find_public_srcEiPKvPKNS_17__class_type_infoES2_>:
    4cc2:	e92d 47f3 	stmdb	sp!, {r0, r1, r4, r5, r6, r7, r8, r9, r10, lr}
    4cc6:	f8dd 9028 	ldr.w	r9, [sp, #40]	; 0x28
    4cca:	4604      	mov	r4, r0
    4ccc:	454a      	cmp	r2, r9
    4cce:	460f      	mov	r7, r1
    4cd0:	4616      	mov	r6, r2
    4cd2:	4698      	mov	r8, r3
    4cd4:	d105      	bne.n	4ce2 <_ZNK10__cxxabiv121__vmi_class_type_info20__do_find_public_srcEiPKvPKNS_17__class_type_infoES2_+0x20>
    4cd6:	4619      	mov	r1, r3
    4cd8:	f7ff ffc6 	bl	4c68 <_ZNKSt9type_infoeqERKS_>
    4cdc:	b108      	cbz	r0, 4ce2 <_ZNK10__cxxabiv121__vmi_class_type_info20__do_find_public_srcEiPKvPKNS_17__class_type_infoES2_+0x20>
    4cde:	2006      	movs	r0, #6
    4ce0:	e029      	b.n	4d36 <_ZNK10__cxxabiv121__vmi_class_type_info20__do_find_public_srcEiPKvPKNS_17__class_type_infoES2_+0x74>
    4ce2:	68e3      	ldr	r3, [r4, #12]
    4ce4:	eb04 04c3 	add.w	r4, r4, r3, lsl #3
    4ce8:	1e5d      	subs	r5, r3, #1
    4cea:	3404      	adds	r4, #4
    4cec:	1c6b      	adds	r3, r5, #1
    4cee:	d021      	beq.n	4d34 <_ZNK10__cxxabiv121__vmi_class_type_info20__do_find_public_srcEiPKvPKNS_17__class_type_infoES2_+0x72>
    4cf0:	68a0      	ldr	r0, [r4, #8]
    4cf2:	0783      	lsls	r3, r0, #30
    4cf4:	d51b      	bpl.n	4d2e <_ZNK10__cxxabiv121__vmi_class_type_info20__do_find_public_srcEiPKvPKNS_17__class_type_infoES2_+0x6c>
    4cf6:	f010 0a01 	ands.w	r10, r0, #1
    4cfa:	ea4f 2220 	mov.w	r2, r0, asr #8
    4cfe:	d003      	beq.n	4d08 <_ZNK10__cxxabiv121__vmi_class_type_info20__do_find_public_srcEiPKvPKNS_17__class_type_infoES2_+0x46>
    4d00:	1cf9      	adds	r1, r7, #3
    4d02:	d014      	beq.n	4d2e <_ZNK10__cxxabiv121__vmi_class_type_info20__do_find_public_srcEiPKvPKNS_17__class_type_infoES2_+0x6c>
    4d04:	6833      	ldr	r3, [r6, #0]
    4d06:	589a      	ldr	r2, [r3, r2]
    4d08:	6860      	ldr	r0, [r4, #4]
    4d0a:	4639      	mov	r1, r7
    4d0c:	6803      	ldr	r3, [r0, #0]
    4d0e:	f8cd 9000 	str.w	r9, [sp]
    4d12:	f8d3 c020 	ldr.w	r12, [r3, #32]
    4d16:	4432      	add	r2, r6
    4d18:	4643      	mov	r3, r8
    4d1a:	47e0      	blx	r12
    4d1c:	2803      	cmp	r0, #3
    4d1e:	d906      	bls.n	4d2e <_ZNK10__cxxabiv121__vmi_class_type_info20__do_find_public_srcEiPKvPKNS_17__class_type_infoES2_+0x6c>
    4d20:	f1ba 0f00 	cmp.w	r10, #0
    4d24:	d007      	beq.n	4d36 <_ZNK10__cxxabiv121__vmi_class_type_info20__do_find_public_srcEiPKvPKNS_17__class_type_infoES2_+0x74>
    4d26:	f040 0001 	orr.w	r0, r0, #1
    4d2a:	b2c0      	uxtb	r0, r0
    4d2c:	e003      	b.n	4d36 <_ZNK10__cxxabiv121__vmi_class_type_info20__do_find_public_srcEiPKvPKNS_17__class_type_infoES2_+0x74>
    4d2e:	3d01      	subs	r5, #1
    4d30:	3c08      	subs	r4, #8
    4d32:	e7db      	b.n	4cec <_ZNK10__cxxabiv121__vmi_class_type_info20__do_find_public_srcEiPKvPKNS_17__class_type_infoES2_+0x2a>
    4d34:	2001      	movs	r0, #1
    4d36:	b002      	add	sp, #8
    4d38:	e8bd 87f0 	ldmia.w	sp!, {r4, r5, r6, r7, r8, r9, r10, pc}

00004d3c <_ZNK10__cxxabiv117__class_type_info17__find_public_srcEiPKvPKS0_S2_>:
    4d3c:	b5f7      	push	{r0, r1, r2, r4, r5, r6, r7, lr}
    4d3e:	1e0d      	subs	r5, r1, #0
    4d40:	9c08      	ldr	r4, [sp, #32]
    4d42:	db05      	blt.n	4d50 <_ZNK10__cxxabiv117__class_type_info17__find_public_srcEiPKvPKS0_S2_+0x14>
    4d44:	1950      	adds	r0, r2, r5
    4d46:	4284      	cmp	r4, r0
    4d48:	bf14      	ite	ne
    4d4a:	2001      	movne	r0, #1
    4d4c:	2006      	moveq	r0, #6
    4d4e:	e007      	b.n	4d60 <_ZNK10__cxxabiv117__class_type_info17__find_public_srcEiPKvPKS0_S2_+0x24>
    4d50:	3502      	adds	r5, #2
    4d52:	d004      	beq.n	4d5e <_ZNK10__cxxabiv117__class_type_info17__find_public_srcEiPKvPKS0_S2_+0x22>
    4d54:	6805      	ldr	r5, [r0, #0]
    4d56:	9400      	str	r4, [sp, #0]
    4d58:	6a2c      	ldr	r4, [r5, #32]
    4d5a:	47a0      	blx	r4
    4d5c:	e000      	b.n	4d60 <_ZNK10__cxxabiv117__class_type_info17__find_public_srcEiPKvPKS0_S2_+0x24>
    4d5e:	2001      	movs	r0, #1
    4d60:	b003      	add	sp, #12
    4d62:	bdf0      	pop	{r4, r5, r6, r7, pc}

00004d64 <_ZNK10__cxxabiv121__vmi_class_type_info12__do_dyncastEiNS_17__class_type_info10__sub_kindEPKS1_PKvS4_S6_RNS1_16__dyncast_resultE>:
    4d64:	e92d 4ff0 	stmdb	sp!, {r4, r5, r6, r7, r8, r9, r10, r11, lr}
    4d68:	b08f      	sub	sp, #60	; 0x3c
    4d6a:	9c1b      	ldr	r4, [sp, #108]	; 0x6c
    4d6c:	9305      	str	r3, [sp, #20]
    4d6e:	68a3      	ldr	r3, [r4, #8]
    4d70:	4688      	mov	r8, r1
    4d72:	06d9      	lsls	r1, r3, #27
    4d74:	bf48      	it	mi
    4d76:	6883      	ldrmi	r3, [r0, #8]
    4d78:	4681      	mov	r9, r0
    4d7a:	9e18      	ldr	r6, [sp, #96]	; 0x60
    4d7c:	981a      	ldr	r0, [sp, #104]	; 0x68
    4d7e:	bf48      	it	mi
    4d80:	60a3      	strmi	r3, [r4, #8]
    4d82:	4286      	cmp	r6, r0
    4d84:	4693      	mov	r11, r2
    4d86:	d108      	bne.n	4d9a <_ZNK10__cxxabiv121__vmi_class_type_info12__do_dyncastEiNS_17__class_type_info10__sub_kindEPKS1_PKvS4_S6_RNS1_16__dyncast_resultE+0x36>
    4d88:	4648      	mov	r0, r9
    4d8a:	9919      	ldr	r1, [sp, #100]	; 0x64
    4d8c:	f7ff ff6c 	bl	4c68 <_ZNKSt9type_infoeqERKS_>
    4d90:	b118      	cbz	r0, 4d9a <_ZNK10__cxxabiv121__vmi_class_type_info12__do_dyncastEiNS_17__class_type_info10__sub_kindEPKS1_PKvS4_S6_RNS1_16__dyncast_resultE+0x36>
    4d92:	f884 b005 	strb.w	r11, [r4, #5]
    4d96:	2000      	movs	r0, #0
    4d98:	e119      	b.n	4fce <_ZNK10__cxxabiv121__vmi_class_type_info12__do_dyncastEiNS_17__class_type_info10__sub_kindEPKS1_PKvS4_S6_RNS1_16__dyncast_resultE+0x26a>
    4d9a:	4648      	mov	r0, r9
    4d9c:	9905      	ldr	r1, [sp, #20]
    4d9e:	f7ff ff63 	bl	4c68 <_ZNKSt9type_infoeqERKS_>
    4da2:	b1b8      	cbz	r0, 4dd4 <_ZNK10__cxxabiv121__vmi_class_type_info12__do_dyncastEiNS_17__class_type_info10__sub_kindEPKS1_PKvS4_S6_RNS1_16__dyncast_resultE+0x70>
    4da4:	9e18      	ldr	r6, [sp, #96]	; 0x60
    4da6:	f1b8 0f00 	cmp.w	r8, #0
    4daa:	6026      	str	r6, [r4, #0]
    4dac:	f884 b004 	strb.w	r11, [r4, #4]
    4db0:	db0a      	blt.n	4dc8 <_ZNK10__cxxabiv121__vmi_class_type_info12__do_dyncastEiNS_17__class_type_info10__sub_kindEPKS1_PKvS4_S6_RNS1_16__dyncast_resultE+0x64>
    4db2:	44b0      	add	r8, r6
    4db4:	9e1a      	ldr	r6, [sp, #104]	; 0x68
    4db6:	4546      	cmp	r6, r8
    4db8:	bf14      	ite	ne
    4dba:	f04f 0801 	movne.w	r8, #1
    4dbe:	f04f 0806 	moveq.w	r8, #6
    4dc2:	f884 8006 	strb.w	r8, [r4, #6]
    4dc6:	e7e6      	b.n	4d96 <_ZNK10__cxxabiv121__vmi_class_type_info12__do_dyncastEiNS_17__class_type_info10__sub_kindEPKS1_PKvS4_S6_RNS1_16__dyncast_resultE+0x32>
    4dc8:	f118 0f02 	cmn.w	r8, #2
    4dcc:	d1e3      	bne.n	4d96 <_ZNK10__cxxabiv121__vmi_class_type_info12__do_dyncastEiNS_17__class_type_info10__sub_kindEPKS1_PKvS4_S6_RNS1_16__dyncast_resultE+0x32>
    4dce:	2301      	movs	r3, #1
    4dd0:	71a3      	strb	r3, [r4, #6]
    4dd2:	e7e0      	b.n	4d96 <_ZNK10__cxxabiv121__vmi_class_type_info12__do_dyncastEiNS_17__class_type_info10__sub_kindEPKS1_PKvS4_S6_RNS1_16__dyncast_resultE+0x32>
    4dd4:	f1b8 0f00 	cmp.w	r8, #0
    4dd8:	bfa8      	it	ge
    4dda:	9e1a      	ldrge	r6, [sp, #104]	; 0x68
    4ddc:	f04f 0700 	mov.w	r7, #0
    4de0:	bfa6      	itte	ge
    4de2:	ebc8 0606 	rsbge	r6, r8, r6
    4de6:	9606      	strge	r6, [sp, #24]
    4de8:	9006      	strlt	r0, [sp, #24]
    4dea:	9709      	str	r7, [sp, #36]	; 0x24
    4dec:	2601      	movs	r6, #1
    4dee:	f8d9 300c 	ldr.w	r3, [r9, #12]
    4df2:	9607      	str	r6, [sp, #28]
    4df4:	eb09 0ac3 	add.w	r10, r9, r3, lsl #3
    4df8:	1e5e      	subs	r6, r3, #1
    4dfa:	9608      	str	r6, [sp, #32]
    4dfc:	f10a 0a04 	add.w	r10, r10, #4
    4e00:	9e08      	ldr	r6, [sp, #32]
    4e02:	3601      	adds	r6, #1
    4e04:	f000 809e 	beq.w	4f44 <_ZNK10__cxxabiv121__vmi_class_type_info12__do_dyncastEiNS_17__class_type_info10__sub_kindEPKS1_PKvS4_S6_RNS1_16__dyncast_resultE+0x1e0>
    4e08:	2300      	movs	r3, #0
    4e0a:	930b      	str	r3, [sp, #44]	; 0x2c
    4e0c:	f88d 3030 	strb.w	r3, [sp, #48]	; 0x30
    4e10:	f88d 3031 	strb.w	r3, [sp, #49]	; 0x31
    4e14:	f88d 3032 	strb.w	r3, [sp, #50]	; 0x32
    4e18:	f8da 3008 	ldr.w	r3, [r10, #8]
    4e1c:	68a5      	ldr	r5, [r4, #8]
    4e1e:	07da      	lsls	r2, r3, #31
    4e20:	950d      	str	r5, [sp, #52]	; 0x34
    4e22:	ea4f 2123 	mov.w	r1, r3, asr #8
    4e26:	d505      	bpl.n	4e34 <_ZNK10__cxxabiv121__vmi_class_type_info12__do_dyncastEiNS_17__class_type_info10__sub_kindEPKS1_PKvS4_S6_RNS1_16__dyncast_resultE+0xd0>
    4e28:	9e18      	ldr	r6, [sp, #96]	; 0x60
    4e2a:	f04b 0201 	orr.w	r2, r11, #1
    4e2e:	6830      	ldr	r0, [r6, #0]
    4e30:	5841      	ldr	r1, [r0, r1]
    4e32:	e000      	b.n	4e36 <_ZNK10__cxxabiv121__vmi_class_type_info12__do_dyncastEiNS_17__class_type_info10__sub_kindEPKS1_PKvS4_S6_RNS1_16__dyncast_resultE+0xd2>
    4e34:	465a      	mov	r2, r11
    4e36:	9e18      	ldr	r6, [sp, #96]	; 0x60
    4e38:	4431      	add	r1, r6
    4e3a:	9e06      	ldr	r6, [sp, #24]
    4e3c:	b136      	cbz	r6, 4e4c <_ZNK10__cxxabiv121__vmi_class_type_info12__do_dyncastEiNS_17__class_type_info10__sub_kindEPKS1_PKvS4_S6_RNS1_16__dyncast_resultE+0xe8>
    4e3e:	42b1      	cmp	r1, r6
    4e40:	9e07      	ldr	r6, [sp, #28]
    4e42:	bf94      	ite	ls
    4e44:	2000      	movls	r0, #0
    4e46:	2001      	movhi	r0, #1
    4e48:	42b0      	cmp	r0, r6
    4e4a:	d070      	beq.n	4f2e <_ZNK10__cxxabiv121__vmi_class_type_info12__do_dyncastEiNS_17__class_type_info10__sub_kindEPKS1_PKvS4_S6_RNS1_16__dyncast_resultE+0x1ca>
    4e4c:	079e      	lsls	r6, r3, #30
    4e4e:	d406      	bmi.n	4e5e <_ZNK10__cxxabiv121__vmi_class_type_info12__do_dyncastEiNS_17__class_type_info10__sub_kindEPKS1_PKvS4_S6_RNS1_16__dyncast_resultE+0xfa>
    4e50:	f118 0f02 	cmn.w	r8, #2
    4e54:	d101      	bne.n	4e5a <_ZNK10__cxxabiv121__vmi_class_type_info12__do_dyncastEiNS_17__class_type_info10__sub_kindEPKS1_PKvS4_S6_RNS1_16__dyncast_resultE+0xf6>
    4e56:	07ad      	lsls	r5, r5, #30
    4e58:	d06e      	beq.n	4f38 <_ZNK10__cxxabiv121__vmi_class_type_info12__do_dyncastEiNS_17__class_type_info10__sub_kindEPKS1_PKvS4_S6_RNS1_16__dyncast_resultE+0x1d4>
    4e5a:	f002 02fd 	and.w	r2, r2, #253	; 0xfd
    4e5e:	f8da 0004 	ldr.w	r0, [r10, #4]
    4e62:	9e19      	ldr	r6, [sp, #100]	; 0x64
    4e64:	6803      	ldr	r3, [r0, #0]
    4e66:	9601      	str	r6, [sp, #4]
    4e68:	9e1a      	ldr	r6, [sp, #104]	; 0x68
    4e6a:	9100      	str	r1, [sp, #0]
    4e6c:	a90b      	add	r1, sp, #44	; 0x2c
    4e6e:	9103      	str	r1, [sp, #12]
    4e70:	9602      	str	r6, [sp, #8]
    4e72:	69dd      	ldr	r5, [r3, #28]
    4e74:	4641      	mov	r1, r8
    4e76:	9b05      	ldr	r3, [sp, #20]
    4e78:	47a8      	blx	r5
    4e7a:	7962      	ldrb	r2, [r4, #5]
    4e7c:	f89d 1031 	ldrb.w	r1, [sp, #49]	; 0x31
    4e80:	f89d 5032 	ldrb.w	r5, [sp, #50]	; 0x32
    4e84:	4311      	orrs	r1, r2
    4e86:	2d06      	cmp	r5, #6
    4e88:	4603      	mov	r3, r0
    4e8a:	7161      	strb	r1, [r4, #5]
    4e8c:	d001      	beq.n	4e92 <_ZNK10__cxxabiv121__vmi_class_type_info12__do_dyncastEiNS_17__class_type_info10__sub_kindEPKS1_PKvS4_S6_RNS1_16__dyncast_resultE+0x12e>
    4e8e:	2d02      	cmp	r5, #2
    4e90:	d106      	bne.n	4ea0 <_ZNK10__cxxabiv121__vmi_class_type_info12__do_dyncastEiNS_17__class_type_info10__sub_kindEPKS1_PKvS4_S6_RNS1_16__dyncast_resultE+0x13c>
    4e92:	9b0b      	ldr	r3, [sp, #44]	; 0x2c
    4e94:	71a5      	strb	r5, [r4, #6]
    4e96:	6023      	str	r3, [r4, #0]
    4e98:	f89d 3030 	ldrb.w	r3, [sp, #48]	; 0x30
    4e9c:	7123      	strb	r3, [r4, #4]
    4e9e:	e096      	b.n	4fce <_ZNK10__cxxabiv121__vmi_class_type_info12__do_dyncastEiNS_17__class_type_info10__sub_kindEPKS1_PKvS4_S6_RNS1_16__dyncast_resultE+0x26a>
    4ea0:	6822      	ldr	r2, [r4, #0]
    4ea2:	b977      	cbnz	r7, 4ec2 <_ZNK10__cxxabiv121__vmi_class_type_info12__do_dyncastEiNS_17__class_type_info10__sub_kindEPKS1_PKvS4_S6_RNS1_16__dyncast_resultE+0x15e>
    4ea4:	b96a      	cbnz	r2, 4ec2 <_ZNK10__cxxabiv121__vmi_class_type_info12__do_dyncastEiNS_17__class_type_info10__sub_kindEPKS1_PKvS4_S6_RNS1_16__dyncast_resultE+0x15e>
    4ea6:	9a0b      	ldr	r2, [sp, #44]	; 0x2c
    4ea8:	f89d 5030 	ldrb.w	r5, [sp, #48]	; 0x30
    4eac:	6022      	str	r2, [r4, #0]
    4eae:	7125      	strb	r5, [r4, #4]
    4eb0:	2a00      	cmp	r2, #0
    4eb2:	d037      	beq.n	4f24 <_ZNK10__cxxabiv121__vmi_class_type_info12__do_dyncastEiNS_17__class_type_info10__sub_kindEPKS1_PKvS4_S6_RNS1_16__dyncast_resultE+0x1c0>
    4eb4:	2900      	cmp	r1, #0
    4eb6:	d035      	beq.n	4f24 <_ZNK10__cxxabiv121__vmi_class_type_info12__do_dyncastEiNS_17__class_type_info10__sub_kindEPKS1_PKvS4_S6_RNS1_16__dyncast_resultE+0x1c0>
    4eb8:	f8d9 2008 	ldr.w	r2, [r9, #8]
    4ebc:	07d2      	lsls	r2, r2, #31
    4ebe:	d431      	bmi.n	4f24 <_ZNK10__cxxabiv121__vmi_class_type_info12__do_dyncastEiNS_17__class_type_info10__sub_kindEPKS1_PKvS4_S6_RNS1_16__dyncast_resultE+0x1c0>
    4ec0:	e085      	b.n	4fce <_ZNK10__cxxabiv121__vmi_class_type_info12__do_dyncastEiNS_17__class_type_info10__sub_kindEPKS1_PKvS4_S6_RNS1_16__dyncast_resultE+0x26a>
    4ec2:	b152      	cbz	r2, 4eda <_ZNK10__cxxabiv121__vmi_class_type_info12__do_dyncastEiNS_17__class_type_info10__sub_kindEPKS1_PKvS4_S6_RNS1_16__dyncast_resultE+0x176>
    4ec4:	9b0b      	ldr	r3, [sp, #44]	; 0x2c
    4ec6:	429a      	cmp	r2, r3
    4ec8:	d105      	bne.n	4ed6 <_ZNK10__cxxabiv121__vmi_class_type_info12__do_dyncastEiNS_17__class_type_info10__sub_kindEPKS1_PKvS4_S6_RNS1_16__dyncast_resultE+0x172>
    4eca:	7923      	ldrb	r3, [r4, #4]
    4ecc:	f89d 2030 	ldrb.w	r2, [sp, #48]	; 0x30
    4ed0:	4313      	orrs	r3, r2
    4ed2:	7123      	strb	r3, [r4, #4]
    4ed4:	e025      	b.n	4f22 <_ZNK10__cxxabiv121__vmi_class_type_info12__do_dyncastEiNS_17__class_type_info10__sub_kindEPKS1_PKvS4_S6_RNS1_16__dyncast_resultE+0x1be>
    4ed6:	b91b      	cbnz	r3, 4ee0 <_ZNK10__cxxabiv121__vmi_class_type_info12__do_dyncastEiNS_17__class_type_info10__sub_kindEPKS1_PKvS4_S6_RNS1_16__dyncast_resultE+0x17c>
    4ed8:	b910      	cbnz	r0, 4ee0 <_ZNK10__cxxabiv121__vmi_class_type_info12__do_dyncastEiNS_17__class_type_info10__sub_kindEPKS1_PKvS4_S6_RNS1_16__dyncast_resultE+0x17c>
    4eda:	9b0b      	ldr	r3, [sp, #44]	; 0x2c
    4edc:	b30b      	cbz	r3, 4f22 <_ZNK10__cxxabiv121__vmi_class_type_info12__do_dyncastEiNS_17__class_type_info10__sub_kindEPKS1_PKvS4_S6_RNS1_16__dyncast_resultE+0x1be>
    4ede:	b307      	cbz	r7, 4f22 <_ZNK10__cxxabiv121__vmi_class_type_info12__do_dyncastEiNS_17__class_type_info10__sub_kindEPKS1_PKvS4_S6_RNS1_16__dyncast_resultE+0x1be>
    4ee0:	2903      	cmp	r1, #3
    4ee2:	79a6      	ldrb	r6, [r4, #6]
    4ee4:	d904      	bls.n	4ef0 <_ZNK10__cxxabiv121__vmi_class_type_info12__do_dyncastEiNS_17__class_type_info10__sub_kindEPKS1_PKvS4_S6_RNS1_16__dyncast_resultE+0x18c>
    4ee6:	07cb      	lsls	r3, r1, #31
    4ee8:	d534      	bpl.n	4f54 <_ZNK10__cxxabiv121__vmi_class_type_info12__do_dyncastEiNS_17__class_type_info10__sub_kindEPKS1_PKvS4_S6_RNS1_16__dyncast_resultE+0x1f0>
    4eea:	68a3      	ldr	r3, [r4, #8]
    4eec:	0799      	lsls	r1, r3, #30
    4eee:	d531      	bpl.n	4f54 <_ZNK10__cxxabiv121__vmi_class_type_info12__do_dyncastEiNS_17__class_type_info10__sub_kindEPKS1_PKvS4_S6_RNS1_16__dyncast_resultE+0x1f0>
    4ef0:	2e00      	cmp	r6, #0
    4ef2:	d043      	beq.n	4f7c <_ZNK10__cxxabiv121__vmi_class_type_info12__do_dyncastEiNS_17__class_type_info10__sub_kindEPKS1_PKvS4_S6_RNS1_16__dyncast_resultE+0x218>
    4ef4:	2d00      	cmp	r5, #0
    4ef6:	d04a      	beq.n	4f8e <_ZNK10__cxxabiv121__vmi_class_type_info12__do_dyncastEiNS_17__class_type_info10__sub_kindEPKS1_PKvS4_S6_RNS1_16__dyncast_resultE+0x22a>
    4ef8:	ea86 0305 	eor.w	r3, r6, r5
    4efc:	b2db      	uxtb	r3, r3
    4efe:	2b03      	cmp	r3, #3
    4f00:	d92f      	bls.n	4f62 <_ZNK10__cxxabiv121__vmi_class_type_info12__do_dyncastEiNS_17__class_type_info10__sub_kindEPKS1_PKvS4_S6_RNS1_16__dyncast_resultE+0x1fe>
    4f02:	2d03      	cmp	r5, #3
    4f04:	d906      	bls.n	4f14 <_ZNK10__cxxabiv121__vmi_class_type_info12__do_dyncastEiNS_17__class_type_info10__sub_kindEPKS1_PKvS4_S6_RNS1_16__dyncast_resultE+0x1b0>
    4f06:	9b0b      	ldr	r3, [sp, #44]	; 0x2c
    4f08:	462e      	mov	r6, r5
    4f0a:	6023      	str	r3, [r4, #0]
    4f0c:	f89d 3030 	ldrb.w	r3, [sp, #48]	; 0x30
    4f10:	2700      	movs	r7, #0
    4f12:	7123      	strb	r3, [r4, #4]
    4f14:	07b3      	lsls	r3, r6, #30
    4f16:	71a6      	strb	r6, [r4, #6]
    4f18:	f53f af3d 	bmi.w	4d96 <_ZNK10__cxxabiv121__vmi_class_type_info12__do_dyncastEiNS_17__class_type_info10__sub_kindEPKS1_PKvS4_S6_RNS1_16__dyncast_resultE+0x32>
    4f1c:	f016 0001 	ands.w	r0, r6, #1
    4f20:	d055      	beq.n	4fce <_ZNK10__cxxabiv121__vmi_class_type_info12__do_dyncastEiNS_17__class_type_info10__sub_kindEPKS1_PKvS4_S6_RNS1_16__dyncast_resultE+0x26a>
    4f22:	463b      	mov	r3, r7
    4f24:	7962      	ldrb	r2, [r4, #5]
    4f26:	2a04      	cmp	r2, #4
    4f28:	d004      	beq.n	4f34 <_ZNK10__cxxabiv121__vmi_class_type_info12__do_dyncastEiNS_17__class_type_info10__sub_kindEPKS1_PKvS4_S6_RNS1_16__dyncast_resultE+0x1d0>
    4f2a:	461f      	mov	r7, r3
    4f2c:	e004      	b.n	4f38 <_ZNK10__cxxabiv121__vmi_class_type_info12__do_dyncastEiNS_17__class_type_info10__sub_kindEPKS1_PKvS4_S6_RNS1_16__dyncast_resultE+0x1d4>
    4f2e:	2601      	movs	r6, #1
    4f30:	9609      	str	r6, [sp, #36]	; 0x24
    4f32:	e001      	b.n	4f38 <_ZNK10__cxxabiv121__vmi_class_type_info12__do_dyncastEiNS_17__class_type_info10__sub_kindEPKS1_PKvS4_S6_RNS1_16__dyncast_resultE+0x1d4>
    4f34:	4618      	mov	r0, r3
    4f36:	e04a      	b.n	4fce <_ZNK10__cxxabiv121__vmi_class_type_info12__do_dyncastEiNS_17__class_type_info10__sub_kindEPKS1_PKvS4_S6_RNS1_16__dyncast_resultE+0x26a>
    4f38:	9e08      	ldr	r6, [sp, #32]
    4f3a:	f1aa 0a08 	sub.w	r10, r10, #8
    4f3e:	3e01      	subs	r6, #1
    4f40:	9608      	str	r6, [sp, #32]
    4f42:	e75d      	b.n	4e00 <_ZNK10__cxxabiv121__vmi_class_type_info12__do_dyncastEiNS_17__class_type_info10__sub_kindEPKS1_PKvS4_S6_RNS1_16__dyncast_resultE+0x9c>
    4f44:	9e09      	ldr	r6, [sp, #36]	; 0x24
    4f46:	b11e      	cbz	r6, 4f50 <_ZNK10__cxxabiv121__vmi_class_type_info12__do_dyncastEiNS_17__class_type_info10__sub_kindEPKS1_PKvS4_S6_RNS1_16__dyncast_resultE+0x1ec>
    4f48:	9e07      	ldr	r6, [sp, #28]
    4f4a:	b10e      	cbz	r6, 4f50 <_ZNK10__cxxabiv121__vmi_class_type_info12__do_dyncastEiNS_17__class_type_info10__sub_kindEPKS1_PKvS4_S6_RNS1_16__dyncast_resultE+0x1ec>
    4f4c:	2600      	movs	r6, #0
    4f4e:	e74e      	b.n	4dee <_ZNK10__cxxabiv121__vmi_class_type_info12__do_dyncastEiNS_17__class_type_info10__sub_kindEPKS1_PKvS4_S6_RNS1_16__dyncast_resultE+0x8a>
    4f50:	4638      	mov	r0, r7
    4f52:	e03c      	b.n	4fce <_ZNK10__cxxabiv121__vmi_class_type_info12__do_dyncastEiNS_17__class_type_info10__sub_kindEPKS1_PKvS4_S6_RNS1_16__dyncast_resultE+0x26a>
    4f54:	2e00      	cmp	r6, #0
    4f56:	bf08      	it	eq
    4f58:	2601      	moveq	r6, #1
    4f5a:	2d00      	cmp	r5, #0
    4f5c:	bf08      	it	eq
    4f5e:	2501      	moveq	r5, #1
    4f60:	e7ca      	b.n	4ef8 <_ZNK10__cxxabiv121__vmi_class_type_info12__do_dyncastEiNS_17__class_type_info10__sub_kindEPKS1_PKvS4_S6_RNS1_16__dyncast_resultE+0x194>
    4f62:	4035      	ands	r5, r6
    4f64:	b2ed      	uxtb	r5, r5
    4f66:	2300      	movs	r3, #0
    4f68:	2d03      	cmp	r5, #3
    4f6a:	6023      	str	r3, [r4, #0]
    4f6c:	d903      	bls.n	4f76 <_ZNK10__cxxabiv121__vmi_class_type_info12__do_dyncastEiNS_17__class_type_info10__sub_kindEPKS1_PKvS4_S6_RNS1_16__dyncast_resultE+0x212>
    4f6e:	2302      	movs	r3, #2
    4f70:	71a3      	strb	r3, [r4, #6]
    4f72:	2001      	movs	r0, #1
    4f74:	e02b      	b.n	4fce <_ZNK10__cxxabiv121__vmi_class_type_info12__do_dyncastEiNS_17__class_type_info10__sub_kindEPKS1_PKvS4_S6_RNS1_16__dyncast_resultE+0x26a>
    4f76:	2301      	movs	r3, #1
    4f78:	71a3      	strb	r3, [r4, #6]
    4f7a:	e7d3      	b.n	4f24 <_ZNK10__cxxabiv121__vmi_class_type_info12__do_dyncastEiNS_17__class_type_info10__sub_kindEPKS1_PKvS4_S6_RNS1_16__dyncast_resultE+0x1c0>
    4f7c:	2d03      	cmp	r5, #3
    4f7e:	d913      	bls.n	4fa8 <_ZNK10__cxxabiv121__vmi_class_type_info12__do_dyncastEiNS_17__class_type_info10__sub_kindEPKS1_PKvS4_S6_RNS1_16__dyncast_resultE+0x244>
    4f80:	07eb      	lsls	r3, r5, #31
    4f82:	d50d      	bpl.n	4fa0 <_ZNK10__cxxabiv121__vmi_class_type_info12__do_dyncastEiNS_17__class_type_info10__sub_kindEPKS1_PKvS4_S6_RNS1_16__dyncast_resultE+0x23c>
    4f84:	f8d9 3008 	ldr.w	r3, [r9, #8]
    4f88:	079e      	lsls	r6, r3, #30
    4f8a:	d509      	bpl.n	4fa0 <_ZNK10__cxxabiv121__vmi_class_type_info12__do_dyncastEiNS_17__class_type_info10__sub_kindEPKS1_PKvS4_S6_RNS1_16__dyncast_resultE+0x23c>
    4f8c:	e00c      	b.n	4fa8 <_ZNK10__cxxabiv121__vmi_class_type_info12__do_dyncastEiNS_17__class_type_info10__sub_kindEPKS1_PKvS4_S6_RNS1_16__dyncast_resultE+0x244>
    4f8e:	2e03      	cmp	r6, #3
    4f90:	d913      	bls.n	4fba <_ZNK10__cxxabiv121__vmi_class_type_info12__do_dyncastEiNS_17__class_type_info10__sub_kindEPKS1_PKvS4_S6_RNS1_16__dyncast_resultE+0x256>
    4f92:	07f1      	lsls	r1, r6, #31
    4f94:	d506      	bpl.n	4fa4 <_ZNK10__cxxabiv121__vmi_class_type_info12__do_dyncastEiNS_17__class_type_info10__sub_kindEPKS1_PKvS4_S6_RNS1_16__dyncast_resultE+0x240>
    4f96:	f8d9 3008 	ldr.w	r3, [r9, #8]
    4f9a:	079a      	lsls	r2, r3, #30
    4f9c:	d40d      	bmi.n	4fba <_ZNK10__cxxabiv121__vmi_class_type_info12__do_dyncastEiNS_17__class_type_info10__sub_kindEPKS1_PKvS4_S6_RNS1_16__dyncast_resultE+0x256>
    4f9e:	e001      	b.n	4fa4 <_ZNK10__cxxabiv121__vmi_class_type_info12__do_dyncastEiNS_17__class_type_info10__sub_kindEPKS1_PKvS4_S6_RNS1_16__dyncast_resultE+0x240>
    4fa0:	2601      	movs	r6, #1
    4fa2:	e7a9      	b.n	4ef8 <_ZNK10__cxxabiv121__vmi_class_type_info12__do_dyncastEiNS_17__class_type_info10__sub_kindEPKS1_PKvS4_S6_RNS1_16__dyncast_resultE+0x194>
    4fa4:	2501      	movs	r5, #1
    4fa6:	e7a7      	b.n	4ef8 <_ZNK10__cxxabiv121__vmi_class_type_info12__do_dyncastEiNS_17__class_type_info10__sub_kindEPKS1_PKvS4_S6_RNS1_16__dyncast_resultE+0x194>
    4fa8:	9e1a      	ldr	r6, [sp, #104]	; 0x68
    4faa:	9805      	ldr	r0, [sp, #20]
    4fac:	9600      	str	r6, [sp, #0]
    4fae:	4641      	mov	r1, r8
    4fb0:	9b19      	ldr	r3, [sp, #100]	; 0x64
    4fb2:	f7ff fec3 	bl	4d3c <_ZNK10__cxxabiv117__class_type_info17__find_public_srcEiPKvPKS0_S2_>
    4fb6:	4606      	mov	r6, r0
    4fb8:	e79c      	b.n	4ef4 <_ZNK10__cxxabiv121__vmi_class_type_info12__do_dyncastEiNS_17__class_type_info10__sub_kindEPKS1_PKvS4_S6_RNS1_16__dyncast_resultE+0x190>
    4fba:	981a      	ldr	r0, [sp, #104]	; 0x68
    4fbc:	4641      	mov	r1, r8
    4fbe:	9000      	str	r0, [sp, #0]
    4fc0:	9a0b      	ldr	r2, [sp, #44]	; 0x2c
    4fc2:	9805      	ldr	r0, [sp, #20]
    4fc4:	9b19      	ldr	r3, [sp, #100]	; 0x64
    4fc6:	f7ff feb9 	bl	4d3c <_ZNK10__cxxabiv117__class_type_info17__find_public_srcEiPKvPKS0_S2_>
    4fca:	4605      	mov	r5, r0
    4fcc:	e794      	b.n	4ef8 <_ZNK10__cxxabiv121__vmi_class_type_info12__do_dyncastEiNS_17__class_type_info10__sub_kindEPKS1_PKvS4_S6_RNS1_16__dyncast_resultE+0x194>
    4fce:	b00f      	add	sp, #60	; 0x3c
    4fd0:	e8bd 8ff0 	ldmia.w	sp!, {r4, r5, r6, r7, r8, r9, r10, r11, pc}

00004fd4 <_ZNK10__cxxabiv121__vmi_class_type_info11__do_upcastEPKNS_17__class_type_infoEPKvRNS1_15__upcast_resultE>:
    4fd4:	e92d 4ff0 	stmdb	sp!, {r4, r5, r6, r7, r8, r9, r10, r11, lr}
    4fd8:	b087      	sub	sp, #28
    4fda:	4606      	mov	r6, r0
    4fdc:	9101      	str	r1, [sp, #4]
    4fde:	4617      	mov	r7, r2
    4fe0:	461c      	mov	r4, r3
    4fe2:	f7ff fd6c 	bl	4abe <_ZNK10__cxxabiv117__class_type_info11__do_upcastEPKS0_PKvRNS0_15__upcast_resultE>
    4fe6:	2800      	cmp	r0, #0
    4fe8:	d17d      	bne.n	50e6 <_ZNK10__cxxabiv121__vmi_class_type_info11__do_upcastEPKNS_17__class_type_infoEPKvRNS1_15__upcast_resultE+0x112>
    4fea:	f8d4 8008 	ldr.w	r8, [r4, #8]
    4fee:	68f5      	ldr	r5, [r6, #12]
    4ff0:	f018 0f10 	tst.w	r8, #16
    4ff4:	f105 39ff 	add.w	r9, r5, #4294967295	; 0xffffffff
    4ff8:	bf18      	it	ne
    4ffa:	f8d6 8008 	ldrne.w	r8, [r6, #8]
    4ffe:	3502      	adds	r5, #2
    5000:	eb06 05c5 	add.w	r5, r6, r5, lsl #3
    5004:	f1b9 3fff 	cmp.w	r9, #4294967295	; 0xffffffff
    5008:	d066      	beq.n	50d8 <_ZNK10__cxxabiv121__vmi_class_type_info11__do_upcastEPKNS_17__class_type_infoEPKvRNS1_15__upcast_resultE+0x104>
    500a:	f855 2c04 	ldr.w	r2, [r5, #-4]
    500e:	2300      	movs	r3, #0
    5010:	9302      	str	r3, [sp, #8]
    5012:	f88d 300c 	strb.w	r3, [sp, #12]
    5016:	9305      	str	r3, [sp, #20]
    5018:	f3c2 0340 	ubfx	r3, r2, #1, #1
    501c:	f8cd 8010 	str.w	r8, [sp, #16]
    5020:	f002 0b01 	and.w	r11, r2, #1
    5024:	9300      	str	r3, [sp, #0]
    5026:	b913      	cbnz	r3, 502e <_ZNK10__cxxabiv121__vmi_class_type_info11__do_upcastEPKNS_17__class_type_infoEPKvRNS1_15__upcast_resultE+0x5a>
    5028:	f018 0f01 	tst.w	r8, #1
    502c:	d050      	beq.n	50d0 <_ZNK10__cxxabiv121__vmi_class_type_info11__do_upcastEPKNS_17__class_type_infoEPKvRNS1_15__upcast_resultE+0xfc>
    502e:	b13f      	cbz	r7, 5040 <_ZNK10__cxxabiv121__vmi_class_type_info11__do_upcastEPKNS_17__class_type_infoEPKvRNS1_15__upcast_resultE+0x6c>
    5030:	1212      	asrs	r2, r2, #8
    5032:	f1bb 0f00 	cmp.w	r11, #0
    5036:	d001      	beq.n	503c <_ZNK10__cxxabiv121__vmi_class_type_info11__do_upcastEPKNS_17__class_type_infoEPKvRNS1_15__upcast_resultE+0x68>
    5038:	683b      	ldr	r3, [r7, #0]
    503a:	589a      	ldr	r2, [r3, r2]
    503c:	443a      	add	r2, r7
    503e:	e000      	b.n	5042 <_ZNK10__cxxabiv121__vmi_class_type_info11__do_upcastEPKNS_17__class_type_infoEPKvRNS1_15__upcast_resultE+0x6e>
    5040:	463a      	mov	r2, r7
    5042:	f855 0c08 	ldr.w	r0, [r5, #-8]
    5046:	f10d 0a08 	add.w	r10, sp, #8
    504a:	6803      	ldr	r3, [r0, #0]
    504c:	9901      	ldr	r1, [sp, #4]
    504e:	f8d3 c018 	ldr.w	r12, [r3, #24]
    5052:	4653      	mov	r3, r10
    5054:	47e0      	blx	r12
    5056:	2800      	cmp	r0, #0
    5058:	d03a      	beq.n	50d0 <_ZNK10__cxxabiv121__vmi_class_type_info11__do_upcastEPKNS_17__class_type_infoEPKvRNS1_15__upcast_resultE+0xfc>
    505a:	9b05      	ldr	r3, [sp, #20]
    505c:	2b08      	cmp	r3, #8
    505e:	d105      	bne.n	506c <_ZNK10__cxxabiv121__vmi_class_type_info11__do_upcastEPKNS_17__class_type_infoEPKvRNS1_15__upcast_resultE+0x98>
    5060:	f1bb 0f00 	cmp.w	r11, #0
    5064:	d002      	beq.n	506c <_ZNK10__cxxabiv121__vmi_class_type_info11__do_upcastEPKNS_17__class_type_infoEPKvRNS1_15__upcast_resultE+0x98>
    5066:	f855 3c08 	ldr.w	r3, [r5, #-8]
    506a:	9305      	str	r3, [sp, #20]
    506c:	f89d 300c 	ldrb.w	r3, [sp, #12]
    5070:	2b03      	cmp	r3, #3
    5072:	d902      	bls.n	507a <_ZNK10__cxxabiv121__vmi_class_type_info11__do_upcastEPKNS_17__class_type_infoEPKvRNS1_15__upcast_resultE+0xa6>
    5074:	9a00      	ldr	r2, [sp, #0]
    5076:	2a00      	cmp	r2, #0
    5078:	d037      	beq.n	50ea <_ZNK10__cxxabiv121__vmi_class_type_info11__do_upcastEPKNS_17__class_type_infoEPKvRNS1_15__upcast_resultE+0x116>
    507a:	68e1      	ldr	r1, [r4, #12]
    507c:	b999      	cbnz	r1, 50a6 <_ZNK10__cxxabiv121__vmi_class_type_info11__do_upcastEPKNS_17__class_type_infoEPKvRNS1_15__upcast_resultE+0xd2>
    507e:	e89a 000f 	ldmia.w	r10, {r0, r1, r2, r3}
    5082:	e884 000f 	stmia.w	r4, {r0, r1, r2, r3}
    5086:	7923      	ldrb	r3, [r4, #4]
    5088:	2b03      	cmp	r3, #3
    508a:	d92c      	bls.n	50e6 <_ZNK10__cxxabiv121__vmi_class_type_info11__do_upcastEPKNS_17__class_type_infoEPKvRNS1_15__upcast_resultE+0x112>
    508c:	079a      	lsls	r2, r3, #30
    508e:	d503      	bpl.n	5098 <_ZNK10__cxxabiv121__vmi_class_type_info11__do_upcastEPKNS_17__class_type_infoEPKvRNS1_15__upcast_resultE+0xc4>
    5090:	68b3      	ldr	r3, [r6, #8]
    5092:	f013 0f01 	tst.w	r3, #1
    5096:	e004      	b.n	50a2 <_ZNK10__cxxabiv121__vmi_class_type_info11__do_upcastEPKNS_17__class_type_infoEPKvRNS1_15__upcast_resultE+0xce>
    5098:	07db      	lsls	r3, r3, #31
    509a:	d524      	bpl.n	50e6 <_ZNK10__cxxabiv121__vmi_class_type_info11__do_upcastEPKNS_17__class_type_infoEPKvRNS1_15__upcast_resultE+0x112>
    509c:	68b3      	ldr	r3, [r6, #8]
    509e:	f013 0f02 	tst.w	r3, #2
    50a2:	d115      	bne.n	50d0 <_ZNK10__cxxabiv121__vmi_class_type_info11__do_upcastEPKNS_17__class_type_infoEPKvRNS1_15__upcast_resultE+0xfc>
    50a4:	e01f      	b.n	50e6 <_ZNK10__cxxabiv121__vmi_class_type_info11__do_upcastEPKNS_17__class_type_infoEPKvRNS1_15__upcast_resultE+0x112>
    50a6:	6823      	ldr	r3, [r4, #0]
    50a8:	9a02      	ldr	r2, [sp, #8]
    50aa:	4293      	cmp	r3, r2
    50ac:	d002      	beq.n	50b4 <_ZNK10__cxxabiv121__vmi_class_type_info11__do_upcastEPKNS_17__class_type_infoEPKvRNS1_15__upcast_resultE+0xe0>
    50ae:	2300      	movs	r3, #0
    50b0:	6023      	str	r3, [r4, #0]
    50b2:	e016      	b.n	50e2 <_ZNK10__cxxabiv121__vmi_class_type_info11__do_upcastEPKNS_17__class_type_infoEPKvRNS1_15__upcast_resultE+0x10e>
    50b4:	b93b      	cbnz	r3, 50c6 <_ZNK10__cxxabiv121__vmi_class_type_info11__do_upcastEPKNS_17__class_type_infoEPKvRNS1_15__upcast_resultE+0xf2>
    50b6:	9805      	ldr	r0, [sp, #20]
    50b8:	2808      	cmp	r0, #8
    50ba:	d012      	beq.n	50e2 <_ZNK10__cxxabiv121__vmi_class_type_info11__do_upcastEPKNS_17__class_type_infoEPKvRNS1_15__upcast_resultE+0x10e>
    50bc:	2908      	cmp	r1, #8
    50be:	d010      	beq.n	50e2 <_ZNK10__cxxabiv121__vmi_class_type_info11__do_upcastEPKNS_17__class_type_infoEPKvRNS1_15__upcast_resultE+0x10e>
    50c0:	f7ff fdd2 	bl	4c68 <_ZNKSt9type_infoeqERKS_>
    50c4:	b168      	cbz	r0, 50e2 <_ZNK10__cxxabiv121__vmi_class_type_info11__do_upcastEPKNS_17__class_type_infoEPKvRNS1_15__upcast_resultE+0x10e>
    50c6:	7923      	ldrb	r3, [r4, #4]
    50c8:	f89d 200c 	ldrb.w	r2, [sp, #12]
    50cc:	4313      	orrs	r3, r2
    50ce:	7123      	strb	r3, [r4, #4]
    50d0:	f109 39ff 	add.w	r9, r9, #4294967295	; 0xffffffff
    50d4:	3d08      	subs	r5, #8
    50d6:	e795      	b.n	5004 <_ZNK10__cxxabiv121__vmi_class_type_info11__do_upcastEPKNS_17__class_type_infoEPKvRNS1_15__upcast_resultE+0x30>
    50d8:	7920      	ldrb	r0, [r4, #4]
    50da:	3000      	adds	r0, #0
    50dc:	bf18      	it	ne
    50de:	2001      	movne	r0, #1
    50e0:	e008      	b.n	50f4 <_ZNK10__cxxabiv121__vmi_class_type_info11__do_upcastEPKNS_17__class_type_infoEPKvRNS1_15__upcast_resultE+0x120>
    50e2:	2302      	movs	r3, #2
    50e4:	7123      	strb	r3, [r4, #4]
    50e6:	2001      	movs	r0, #1
    50e8:	e004      	b.n	50f4 <_ZNK10__cxxabiv121__vmi_class_type_info11__do_upcastEPKNS_17__class_type_infoEPKvRNS1_15__upcast_resultE+0x120>
    50ea:	f023 0302 	bic.w	r3, r3, #2
    50ee:	f88d 300c 	strb.w	r3, [sp, #12]
    50f2:	e7c2      	b.n	507a <_ZNK10__cxxabiv121__vmi_class_type_info11__do_upcastEPKNS_17__class_type_infoEPKvRNS1_15__upcast_resultE+0xa6>
    50f4:	b007      	add	sp, #28
    50f6:	e8bd 8ff0 	ldmia.w	sp!, {r4, r5, r6, r7, r8, r9, r10, r11, pc}
	...

000050fc <__aeabi_drsub>:
    50fc:	f081 4100 	eor.w	r1, r1, #2147483648	; 0x80000000
    5100:	e002      	b.n	5108 <__adddf3>
    5102:	bf00      	nop

00005104 <__aeabi_dsub>:
    5104:	f083 4300 	eor.w	r3, r3, #2147483648	; 0x80000000

00005108 <__adddf3>:
    5108:	b530      	push	{r4, r5, lr}
    510a:	ea4f 0441 	mov.w	r4, r1, lsl #1
    510e:	ea4f 0543 	mov.w	r5, r3, lsl #1
    5112:	ea94 0f05 	teq	r4, r5
    5116:	bf08      	it	eq
    5118:	ea90 0f02 	teqeq	r0, r2
    511c:	bf1f      	itttt	ne
    511e:	ea54 0c00 	orrsne.w	r12, r4, r0
    5122:	ea55 0c02 	orrsne.w	r12, r5, r2
    5126:	ea7f 5c64 	mvnsne.w	r12, r4, asr #21
    512a:	ea7f 5c65 	mvnsne.w	r12, r5, asr #21
    512e:	f000 80e2 	beq.w	52f6 <__adddf3+0x1ee>
    5132:	ea4f 5454 	mov.w	r4, r4, lsr #21
    5136:	ebd4 5555 	rsbs	r5, r4, r5, lsr #21
    513a:	bfb8      	it	lt
    513c:	426d      	neglt	r5, r5
    513e:	dd0c      	ble.n	515a <__adddf3+0x52>
    5140:	442c      	add	r4, r5
    5142:	ea80 0202 	eor.w	r2, r0, r2
    5146:	ea81 0303 	eor.w	r3, r1, r3
    514a:	ea82 0000 	eor.w	r0, r2, r0
    514e:	ea83 0101 	eor.w	r1, r3, r1
    5152:	ea80 0202 	eor.w	r2, r0, r2
    5156:	ea81 0303 	eor.w	r3, r1, r3
    515a:	2d36      	cmp	r5, #54	; 0x36
    515c:	bf88      	it	hi
    515e:	bd30      	pophi	{r4, r5, pc}
    5160:	f011 4f00 	tst.w	r1, #2147483648	; 0x80000000
    5164:	ea4f 3101 	mov.w	r1, r1, lsl #12
    5168:	f44f 1c80 	mov.w	r12, #1048576	; 0x100000
    516c:	ea4c 3111 	orr.w	r1, r12, r1, lsr #12
    5170:	d002      	beq.n	5178 <__adddf3+0x70>
    5172:	4240      	negs	r0, r0
    5174:	eb61 0141 	sbc.w	r1, r1, r1, lsl #1
    5178:	f013 4f00 	tst.w	r3, #2147483648	; 0x80000000
    517c:	ea4f 3303 	mov.w	r3, r3, lsl #12
    5180:	ea4c 3313 	orr.w	r3, r12, r3, lsr #12
    5184:	d002      	beq.n	518c <__adddf3+0x84>
    5186:	4252      	negs	r2, r2
    5188:	eb63 0343 	sbc.w	r3, r3, r3, lsl #1
    518c:	ea94 0f05 	teq	r4, r5
    5190:	f000 80a7 	beq.w	52e2 <__adddf3+0x1da>
    5194:	f1a4 0401 	sub.w	r4, r4, #1
    5198:	f1d5 0e20 	rsbs	lr, r5, #32
    519c:	db0d      	blt.n	51ba <__adddf3+0xb2>
    519e:	fa02 fc0e 	lsl.w	r12, r2, lr
    51a2:	fa22 f205 	lsr.w	r2, r2, r5
    51a6:	1880      	adds	r0, r0, r2
    51a8:	f141 0100 	adc.w	r1, r1, #0
    51ac:	fa03 f20e 	lsl.w	r2, r3, lr
    51b0:	1880      	adds	r0, r0, r2
    51b2:	fa43 f305 	asr.w	r3, r3, r5
    51b6:	4159      	adcs	r1, r3
    51b8:	e00e      	b.n	51d8 <__adddf3+0xd0>
    51ba:	f1a5 0520 	sub.w	r5, r5, #32
    51be:	f10e 0e20 	add.w	lr, lr, #32
    51c2:	2a01      	cmp	r2, #1
    51c4:	fa03 fc0e 	lsl.w	r12, r3, lr
    51c8:	bf28      	it	cs
    51ca:	f04c 0c02 	orrcs.w	r12, r12, #2
    51ce:	fa43 f305 	asr.w	r3, r3, r5
    51d2:	18c0      	adds	r0, r0, r3
    51d4:	eb51 71e3 	adcs.w	r1, r1, r3, asr #31
    51d8:	f001 4500 	and.w	r5, r1, #2147483648	; 0x80000000
    51dc:	d507      	bpl.n	51ee <__adddf3+0xe6>
    51de:	f04f 0e00 	mov.w	lr, #0
    51e2:	f1dc 0c00 	rsbs	r12, r12, #0
    51e6:	eb7e 0000 	sbcs.w	r0, lr, r0
    51ea:	eb6e 0101 	sbc.w	r1, lr, r1
    51ee:	f5b1 1f80 	cmp.w	r1, #1048576	; 0x100000
    51f2:	d31b      	bcc.n	522c <__adddf3+0x124>
    51f4:	f5b1 1f00 	cmp.w	r1, #2097152	; 0x200000
    51f8:	d30c      	bcc.n	5214 <__adddf3+0x10c>
    51fa:	0849      	lsrs	r1, r1, #1
    51fc:	ea5f 0030 	movs.w	r0, r0, rrx
    5200:	ea4f 0c3c 	mov.w	r12, r12, rrx
    5204:	f104 0401 	add.w	r4, r4, #1
    5208:	ea4f 5244 	mov.w	r2, r4, lsl #21
    520c:	f512 0f80 	cmn.w	r2, #4194304	; 0x400000
    5210:	f080 809a 	bcs.w	5348 <__adddf3+0x240>
    5214:	f1bc 4f00 	cmp.w	r12, #2147483648	; 0x80000000
    5218:	bf08      	it	eq
    521a:	ea5f 0c50 	movseq.w	r12, r0, lsr #1
    521e:	f150 0000 	adcs.w	r0, r0, #0
    5222:	eb41 5104 	adc.w	r1, r1, r4, lsl #20
    5226:	ea41 0105 	orr.w	r1, r1, r5
    522a:	bd30      	pop	{r4, r5, pc}
    522c:	ea5f 0c4c 	movs.w	r12, r12, lsl #1
    5230:	4140      	adcs	r0, r0
    5232:	eb41 0101 	adc.w	r1, r1, r1
    5236:	f411 1f80 	tst.w	r1, #1048576	; 0x100000
    523a:	f1a4 0401 	sub.w	r4, r4, #1
    523e:	d1e9      	bne.n	5214 <__adddf3+0x10c>
    5240:	f091 0f00 	teq	r1, #0
    5244:	bf04      	itt	eq
    5246:	4601      	moveq	r1, r0
    5248:	2000      	moveq	r0, #0
    524a:	fab1 f381 	clz	r3, r1
    524e:	bf08      	it	eq
    5250:	3320      	addeq	r3, #32
    5252:	f1a3 030b 	sub.w	r3, r3, #11
    5256:	f1b3 0220 	subs.w	r2, r3, #32
    525a:	da0c      	bge.n	5276 <__adddf3+0x16e>
    525c:	320c      	adds	r2, #12
    525e:	dd08      	ble.n	5272 <__adddf3+0x16a>
    5260:	f102 0c14 	add.w	r12, r2, #20
    5264:	f1c2 020c 	rsb	r2, r2, #12
    5268:	fa01 f00c 	lsl.w	r0, r1, r12
    526c:	fa21 f102 	lsr.w	r1, r1, r2
    5270:	e00c      	b.n	528c <__adddf3+0x184>
    5272:	f102 0214 	add.w	r2, r2, #20
    5276:	bfd8      	it	le
    5278:	f1c2 0c20 	rsble	r12, r2, #32
    527c:	fa01 f102 	lsl.w	r1, r1, r2
    5280:	fa20 fc0c 	lsr.w	r12, r0, r12
    5284:	bfdc      	itt	le
    5286:	ea41 010c 	orrle.w	r1, r1, r12
    528a:	4090      	lslle	r0, r2
    528c:	1ae4      	subs	r4, r4, r3
    528e:	bfa2      	ittt	ge
    5290:	eb01 5104 	addge.w	r1, r1, r4, lsl #20
    5294:	4329      	orrge	r1, r5
    5296:	bd30      	popge	{r4, r5, pc}
    5298:	ea6f 0404 	mvn.w	r4, r4
    529c:	3c1f      	subs	r4, #31
    529e:	da1c      	bge.n	52da <__adddf3+0x1d2>
    52a0:	340c      	adds	r4, #12
    52a2:	dc0e      	bgt.n	52c2 <__adddf3+0x1ba>
    52a4:	f104 0414 	add.w	r4, r4, #20
    52a8:	f1c4 0220 	rsb	r2, r4, #32
    52ac:	fa20 f004 	lsr.w	r0, r0, r4
    52b0:	fa01 f302 	lsl.w	r3, r1, r2
    52b4:	ea40 0003 	orr.w	r0, r0, r3
    52b8:	fa21 f304 	lsr.w	r3, r1, r4
    52bc:	ea45 0103 	orr.w	r1, r5, r3
    52c0:	bd30      	pop	{r4, r5, pc}
    52c2:	f1c4 040c 	rsb	r4, r4, #12
    52c6:	f1c4 0220 	rsb	r2, r4, #32
    52ca:	fa20 f002 	lsr.w	r0, r0, r2
    52ce:	fa01 f304 	lsl.w	r3, r1, r4
    52d2:	ea40 0003 	orr.w	r0, r0, r3
    52d6:	4629      	mov	r1, r5
    52d8:	bd30      	pop	{r4, r5, pc}
    52da:	fa21 f004 	lsr.w	r0, r1, r4
    52de:	4629      	mov	r1, r5
    52e0:	bd30      	pop	{r4, r5, pc}
    52e2:	f094 0f00 	teq	r4, #0
    52e6:	f483 1380 	eor.w	r3, r3, #1048576	; 0x100000
    52ea:	bf06      	itte	eq
    52ec:	f481 1180 	eoreq.w	r1, r1, #1048576	; 0x100000
    52f0:	3401      	addeq	r4, #1
    52f2:	3d01      	subne	r5, #1
    52f4:	e74e      	b.n	5194 <__adddf3+0x8c>
    52f6:	ea7f 5c64 	mvns.w	r12, r4, asr #21
    52fa:	bf18      	it	ne
    52fc:	ea7f 5c65 	mvnsne.w	r12, r5, asr #21
    5300:	d029      	beq.n	5356 <__adddf3+0x24e>
    5302:	ea94 0f05 	teq	r4, r5
    5306:	bf08      	it	eq
    5308:	ea90 0f02 	teqeq	r0, r2
    530c:	d005      	beq.n	531a <__adddf3+0x212>
    530e:	ea54 0c00 	orrs.w	r12, r4, r0
    5312:	bf04      	itt	eq
    5314:	4619      	moveq	r1, r3
    5316:	4610      	moveq	r0, r2
    5318:	bd30      	pop	{r4, r5, pc}
    531a:	ea91 0f03 	teq	r1, r3
    531e:	bf1e      	ittt	ne
    5320:	2100      	movne	r1, #0
    5322:	2000      	movne	r0, #0
    5324:	bd30      	popne	{r4, r5, pc}
    5326:	ea5f 5c54 	movs.w	r12, r4, lsr #21
    532a:	d105      	bne.n	5338 <__adddf3+0x230>
    532c:	0040      	lsls	r0, r0, #1
    532e:	4149      	adcs	r1, r1
    5330:	bf28      	it	cs
    5332:	f041 4100 	orrcs.w	r1, r1, #2147483648	; 0x80000000
    5336:	bd30      	pop	{r4, r5, pc}
    5338:	f514 0480 	adds.w	r4, r4, #4194304	; 0x400000
    533c:	bf3c      	itt	cc
    533e:	f501 1180 	addcc.w	r1, r1, #1048576	; 0x100000
    5342:	bd30      	popcc	{r4, r5, pc}
    5344:	f001 4500 	and.w	r5, r1, #2147483648	; 0x80000000
    5348:	f045 41fe 	orr.w	r1, r5, #2130706432	; 0x7f000000
    534c:	f441 0170 	orr.w	r1, r1, #15728640	; 0xf00000
    5350:	f04f 0000 	mov.w	r0, #0
    5354:	bd30      	pop	{r4, r5, pc}
    5356:	ea7f 5c64 	mvns.w	r12, r4, asr #21
    535a:	bf1a      	itte	ne
    535c:	4619      	movne	r1, r3
    535e:	4610      	movne	r0, r2
    5360:	ea7f 5c65 	mvnseq.w	r12, r5, asr #21
    5364:	bf1c      	itt	ne
    5366:	460b      	movne	r3, r1
    5368:	4602      	movne	r2, r0
    536a:	ea50 3401 	orrs.w	r4, r0, r1, lsl #12
    536e:	bf06      	itte	eq
    5370:	ea52 3503 	orrseq.w	r5, r2, r3, lsl #12
    5374:	ea91 0f03 	teqeq	r1, r3
    5378:	f441 2100 	orrne.w	r1, r1, #524288	; 0x80000
    537c:	bd30      	pop	{r4, r5, pc}
    537e:	bf00      	nop

00005380 <__aeabi_ui2d>:
    5380:	f090 0f00 	teq	r0, #0
    5384:	bf04      	itt	eq
    5386:	2100      	moveq	r1, #0
    5388:	4770      	bxeq	lr
    538a:	b530      	push	{r4, r5, lr}
    538c:	f44f 6480 	mov.w	r4, #1024	; 0x400
    5390:	f104 0432 	add.w	r4, r4, #50	; 0x32
    5394:	f04f 0500 	mov.w	r5, #0
    5398:	f04f 0100 	mov.w	r1, #0
    539c:	e750      	b.n	5240 <__adddf3+0x138>
    539e:	bf00      	nop

000053a0 <__aeabi_i2d>:
    53a0:	f090 0f00 	teq	r0, #0
    53a4:	bf04      	itt	eq
    53a6:	2100      	moveq	r1, #0
    53a8:	4770      	bxeq	lr
    53aa:	b530      	push	{r4, r5, lr}
    53ac:	f44f 6480 	mov.w	r4, #1024	; 0x400
    53b0:	f104 0432 	add.w	r4, r4, #50	; 0x32
    53b4:	f010 4500 	ands.w	r5, r0, #2147483648	; 0x80000000
    53b8:	bf48      	it	mi
    53ba:	4240      	negmi	r0, r0
    53bc:	f04f 0100 	mov.w	r1, #0
    53c0:	e73e      	b.n	5240 <__adddf3+0x138>
    53c2:	bf00      	nop

000053c4 <__aeabi_f2d>:
    53c4:	0042      	lsls	r2, r0, #1
    53c6:	ea4f 01e2 	mov.w	r1, r2, asr #3
    53ca:	ea4f 0131 	mov.w	r1, r1, rrx
    53ce:	ea4f 7002 	mov.w	r0, r2, lsl #28
    53d2:	bf1f      	itttt	ne
    53d4:	f012 437f 	andsne.w	r3, r2, #4278190080	; 0xff000000
    53d8:	f093 4f7f 	teqne	r3, #4278190080	; 0xff000000
    53dc:	f081 5160 	eorne.w	r1, r1, #939524096	; 0x38000000
    53e0:	4770      	bxne	lr
    53e2:	f092 0f00 	teq	r2, #0
    53e6:	bf14      	ite	ne
    53e8:	f093 4f7f 	teqne	r3, #4278190080	; 0xff000000
    53ec:	4770      	bxeq	lr
    53ee:	b530      	push	{r4, r5, lr}
    53f0:	f44f 7460 	mov.w	r4, #896	; 0x380
    53f4:	f001 4500 	and.w	r5, r1, #2147483648	; 0x80000000
    53f8:	f021 4100 	bic.w	r1, r1, #2147483648	; 0x80000000
    53fc:	e720      	b.n	5240 <__adddf3+0x138>
    53fe:	bf00      	nop

00005400 <__aeabi_ul2d>:
    5400:	ea50 0201 	orrs.w	r2, r0, r1
    5404:	bf08      	it	eq
    5406:	4770      	bxeq	lr
    5408:	b530      	push	{r4, r5, lr}
    540a:	f04f 0500 	mov.w	r5, #0
    540e:	e00a      	b.n	5426 <__aeabi_l2d+0x16>

00005410 <__aeabi_l2d>:
    5410:	ea50 0201 	orrs.w	r2, r0, r1
    5414:	bf08      	it	eq
    5416:	4770      	bxeq	lr
    5418:	b530      	push	{r4, r5, lr}
    541a:	f011 4500 	ands.w	r5, r1, #2147483648	; 0x80000000
    541e:	d502      	bpl.n	5426 <__aeabi_l2d+0x16>
    5420:	4240      	negs	r0, r0
    5422:	eb61 0141 	sbc.w	r1, r1, r1, lsl #1
    5426:	f44f 6480 	mov.w	r4, #1024	; 0x400
    542a:	f104 0432 	add.w	r4, r4, #50	; 0x32
    542e:	ea5f 5c91 	movs.w	r12, r1, lsr #22
    5432:	f43f aedc 	beq.w	51ee <__adddf3+0xe6>
    5436:	f04f 0203 	mov.w	r2, #3
    543a:	ea5f 0cdc 	movs.w	r12, r12, lsr #3
    543e:	bf18      	it	ne
    5440:	3203      	addne	r2, #3
    5442:	ea5f 0cdc 	movs.w	r12, r12, lsr #3
    5446:	bf18      	it	ne
    5448:	3203      	addne	r2, #3
    544a:	eb02 02dc 	add.w	r2, r2, r12, lsr #3
    544e:	f1c2 0320 	rsb	r3, r2, #32
    5452:	fa00 fc03 	lsl.w	r12, r0, r3
    5456:	fa20 f002 	lsr.w	r0, r0, r2
    545a:	fa01 fe03 	lsl.w	lr, r1, r3
    545e:	ea40 000e 	orr.w	r0, r0, lr
    5462:	fa21 f102 	lsr.w	r1, r1, r2
    5466:	4414      	add	r4, r2
    5468:	e6c1      	b.n	51ee <__adddf3+0xe6>
    546a:	bf00      	nop

0000546c <__aeabi_dmul>:
    546c:	b570      	push	{r4, r5, r6, lr}
    546e:	f04f 0cff 	mov.w	r12, #255	; 0xff
    5472:	f44c 6ce0 	orr.w	r12, r12, #1792	; 0x700
    5476:	ea1c 5411 	ands.w	r4, r12, r1, lsr #20
    547a:	bf1d      	ittte	ne
    547c:	ea1c 5513 	andsne.w	r5, r12, r3, lsr #20
    5480:	ea94 0f0c 	teqne	r4, r12
    5484:	ea95 0f0c 	teqne	r5, r12
    5488:	f000 f8de 	bleq	5648 <__aeabi_dmul+0x1dc>
    548c:	442c      	add	r4, r5
    548e:	ea81 0603 	eor.w	r6, r1, r3
    5492:	ea21 514c 	bic.w	r1, r1, r12, lsl #21
    5496:	ea23 534c 	bic.w	r3, r3, r12, lsl #21
    549a:	ea50 3501 	orrs.w	r5, r0, r1, lsl #12
    549e:	bf18      	it	ne
    54a0:	ea52 3503 	orrsne.w	r5, r2, r3, lsl #12
    54a4:	f441 1180 	orr.w	r1, r1, #1048576	; 0x100000
    54a8:	f443 1380 	orr.w	r3, r3, #1048576	; 0x100000
    54ac:	d038      	beq.n	5520 <__aeabi_dmul+0xb4>
    54ae:	fba0 ce02 	umull	r12, lr, r0, r2
    54b2:	f04f 0500 	mov.w	r5, #0
    54b6:	fbe1 e502 	umlal	lr, r5, r1, r2
    54ba:	f006 4200 	and.w	r2, r6, #2147483648	; 0x80000000
    54be:	fbe0 e503 	umlal	lr, r5, r0, r3
    54c2:	f04f 0600 	mov.w	r6, #0
    54c6:	fbe1 5603 	umlal	r5, r6, r1, r3
    54ca:	f09c 0f00 	teq	r12, #0
    54ce:	bf18      	it	ne
    54d0:	f04e 0e01 	orrne.w	lr, lr, #1
    54d4:	f1a4 04ff 	sub.w	r4, r4, #255	; 0xff
    54d8:	f5b6 7f00 	cmp.w	r6, #512	; 0x200
    54dc:	f564 7440 	sbc.w	r4, r4, #768	; 0x300
    54e0:	d204      	bcs.n	54ec <__aeabi_dmul+0x80>
    54e2:	ea5f 0e4e 	movs.w	lr, lr, lsl #1
    54e6:	416d      	adcs	r5, r5
    54e8:	eb46 0606 	adc.w	r6, r6, r6
    54ec:	ea42 21c6 	orr.w	r1, r2, r6, lsl #11
    54f0:	ea41 5155 	orr.w	r1, r1, r5, lsr #21
    54f4:	ea4f 20c5 	mov.w	r0, r5, lsl #11
    54f8:	ea40 505e 	orr.w	r0, r0, lr, lsr #21
    54fc:	ea4f 2ece 	mov.w	lr, lr, lsl #11
    5500:	f1b4 0cfd 	subs.w	r12, r4, #253	; 0xfd
    5504:	bf88      	it	hi
    5506:	f5bc 6fe0 	cmphi.w	r12, #1792	; 0x700
    550a:	d81e      	bhi.n	554a <__aeabi_dmul+0xde>
    550c:	f1be 4f00 	cmp.w	lr, #2147483648	; 0x80000000
    5510:	bf08      	it	eq
    5512:	ea5f 0e50 	movseq.w	lr, r0, lsr #1
    5516:	f150 0000 	adcs.w	r0, r0, #0
    551a:	eb41 5104 	adc.w	r1, r1, r4, lsl #20
    551e:	bd70      	pop	{r4, r5, r6, pc}
    5520:	f006 4600 	and.w	r6, r6, #2147483648	; 0x80000000
    5524:	ea46 0101 	orr.w	r1, r6, r1
    5528:	ea40 0002 	orr.w	r0, r0, r2
    552c:	ea81 0103 	eor.w	r1, r1, r3
    5530:	ebb4 045c 	subs.w	r4, r4, r12, lsr #1
    5534:	bfc2      	ittt	gt
    5536:	ebd4 050c 	rsbsgt	r5, r4, r12
    553a:	ea41 5104 	orrgt.w	r1, r1, r4, lsl #20
    553e:	bd70      	popgt	{r4, r5, r6, pc}
    5540:	f441 1180 	orr.w	r1, r1, #1048576	; 0x100000
    5544:	f04f 0e00 	mov.w	lr, #0
    5548:	3c01      	subs	r4, #1
    554a:	f300 80ab 	bgt.w	56a4 <__aeabi_dmul+0x238>
    554e:	f114 0f36 	cmn.w	r4, #54	; 0x36
    5552:	bfde      	ittt	le
    5554:	2000      	movle	r0, #0
    5556:	f001 4100 	andle.w	r1, r1, #2147483648	; 0x80000000
    555a:	bd70      	pople	{r4, r5, r6, pc}
    555c:	f1c4 0400 	rsb	r4, r4, #0
    5560:	3c20      	subs	r4, #32
    5562:	da35      	bge.n	55d0 <__aeabi_dmul+0x164>
    5564:	340c      	adds	r4, #12
    5566:	dc1b      	bgt.n	55a0 <__aeabi_dmul+0x134>
    5568:	f104 0414 	add.w	r4, r4, #20
    556c:	f1c4 0520 	rsb	r5, r4, #32
    5570:	fa00 f305 	lsl.w	r3, r0, r5
    5574:	fa20 f004 	lsr.w	r0, r0, r4
    5578:	fa01 f205 	lsl.w	r2, r1, r5
    557c:	ea40 0002 	orr.w	r0, r0, r2
    5580:	f001 4200 	and.w	r2, r1, #2147483648	; 0x80000000
    5584:	f021 4100 	bic.w	r1, r1, #2147483648	; 0x80000000
    5588:	eb10 70d3 	adds.w	r0, r0, r3, lsr #31
    558c:	fa21 f604 	lsr.w	r6, r1, r4
    5590:	eb42 0106 	adc.w	r1, r2, r6
    5594:	ea5e 0e43 	orrs.w	lr, lr, r3, lsl #1
    5598:	bf08      	it	eq
    559a:	ea20 70d3 	biceq.w	r0, r0, r3, lsr #31
    559e:	bd70      	pop	{r4, r5, r6, pc}
    55a0:	f1c4 040c 	rsb	r4, r4, #12
    55a4:	f1c4 0520 	rsb	r5, r4, #32
    55a8:	fa00 f304 	lsl.w	r3, r0, r4
    55ac:	fa20 f005 	lsr.w	r0, r0, r5
    55b0:	fa01 f204 	lsl.w	r2, r1, r4
    55b4:	ea40 0002 	orr.w	r0, r0, r2
    55b8:	f001 4100 	and.w	r1, r1, #2147483648	; 0x80000000
    55bc:	eb10 70d3 	adds.w	r0, r0, r3, lsr #31
    55c0:	f141 0100 	adc.w	r1, r1, #0
    55c4:	ea5e 0e43 	orrs.w	lr, lr, r3, lsl #1
    55c8:	bf08      	it	eq
    55ca:	ea20 70d3 	biceq.w	r0, r0, r3, lsr #31
    55ce:	bd70      	pop	{r4, r5, r6, pc}
    55d0:	f1c4 0520 	rsb	r5, r4, #32
    55d4:	fa00 f205 	lsl.w	r2, r0, r5
    55d8:	ea4e 0e02 	orr.w	lr, lr, r2
    55dc:	fa20 f304 	lsr.w	r3, r0, r4
    55e0:	fa01 f205 	lsl.w	r2, r1, r5
    55e4:	ea43 0302 	orr.w	r3, r3, r2
    55e8:	fa21 f004 	lsr.w	r0, r1, r4
    55ec:	f001 4100 	and.w	r1, r1, #2147483648	; 0x80000000
    55f0:	fa21 f204 	lsr.w	r2, r1, r4
    55f4:	ea20 0002 	bic.w	r0, r0, r2
    55f8:	eb00 70d3 	add.w	r0, r0, r3, lsr #31
    55fc:	ea5e 0e43 	orrs.w	lr, lr, r3, lsl #1
    5600:	bf08      	it	eq
    5602:	ea20 70d3 	biceq.w	r0, r0, r3, lsr #31
    5606:	bd70      	pop	{r4, r5, r6, pc}
    5608:	f094 0f00 	teq	r4, #0
    560c:	d10f      	bne.n	562e <__aeabi_dmul+0x1c2>
    560e:	f001 4600 	and.w	r6, r1, #2147483648	; 0x80000000
    5612:	0040      	lsls	r0, r0, #1
    5614:	eb41 0101 	adc.w	r1, r1, r1
    5618:	f411 1f80 	tst.w	r1, #1048576	; 0x100000
    561c:	bf08      	it	eq
    561e:	3c01      	subeq	r4, #1
    5620:	d0f7      	beq.n	5612 <__aeabi_dmul+0x1a6>
    5622:	ea41 0106 	orr.w	r1, r1, r6
    5626:	f095 0f00 	teq	r5, #0
    562a:	bf18      	it	ne
    562c:	4770      	bxne	lr
    562e:	f003 4600 	and.w	r6, r3, #2147483648	; 0x80000000
    5632:	0052      	lsls	r2, r2, #1
    5634:	eb43 0303 	adc.w	r3, r3, r3
    5638:	f413 1f80 	tst.w	r3, #1048576	; 0x100000
    563c:	bf08      	it	eq
    563e:	3d01      	subeq	r5, #1
    5640:	d0f7      	beq.n	5632 <__aeabi_dmul+0x1c6>
    5642:	ea43 0306 	orr.w	r3, r3, r6
    5646:	4770      	bx	lr
    5648:	ea94 0f0c 	teq	r4, r12
    564c:	ea0c 5513 	and.w	r5, r12, r3, lsr #20
    5650:	bf18      	it	ne
    5652:	ea95 0f0c 	teqne	r5, r12
    5656:	d00c      	beq.n	5672 <__aeabi_dmul+0x206>
    5658:	ea50 0641 	orrs.w	r6, r0, r1, lsl #1
    565c:	bf18      	it	ne
    565e:	ea52 0643 	orrsne.w	r6, r2, r3, lsl #1
    5662:	d1d1      	bne.n	5608 <__aeabi_dmul+0x19c>
    5664:	ea81 0103 	eor.w	r1, r1, r3
    5668:	f001 4100 	and.w	r1, r1, #2147483648	; 0x80000000
    566c:	f04f 0000 	mov.w	r0, #0
    5670:	bd70      	pop	{r4, r5, r6, pc}
    5672:	ea50 0641 	orrs.w	r6, r0, r1, lsl #1
    5676:	bf06      	itte	eq
    5678:	4610      	moveq	r0, r2
    567a:	4619      	moveq	r1, r3
    567c:	ea52 0643 	orrsne.w	r6, r2, r3, lsl #1
    5680:	d019      	beq.n	56b6 <__aeabi_dmul+0x24a>
    5682:	ea94 0f0c 	teq	r4, r12
    5686:	d102      	bne.n	568e <__aeabi_dmul+0x222>
    5688:	ea50 3601 	orrs.w	r6, r0, r1, lsl #12
    568c:	d113      	bne.n	56b6 <__aeabi_dmul+0x24a>
    568e:	ea95 0f0c 	teq	r5, r12
    5692:	d105      	bne.n	56a0 <__aeabi_dmul+0x234>
    5694:	ea52 3603 	orrs.w	r6, r2, r3, lsl #12
    5698:	bf1c      	itt	ne
    569a:	4610      	movne	r0, r2
    569c:	4619      	movne	r1, r3
    569e:	d10a      	bne.n	56b6 <__aeabi_dmul+0x24a>
    56a0:	ea81 0103 	eor.w	r1, r1, r3
    56a4:	f001 4100 	and.w	r1, r1, #2147483648	; 0x80000000
    56a8:	f041 41fe 	orr.w	r1, r1, #2130706432	; 0x7f000000
    56ac:	f441 0170 	orr.w	r1, r1, #15728640	; 0xf00000
    56b0:	f04f 0000 	mov.w	r0, #0
    56b4:	bd70      	pop	{r4, r5, r6, pc}
    56b6:	f041 41fe 	orr.w	r1, r1, #2130706432	; 0x7f000000
    56ba:	f441 0178 	orr.w	r1, r1, #16252928	; 0xf80000
    56be:	bd70      	pop	{r4, r5, r6, pc}

000056c0 <__aeabi_ddiv>:
    56c0:	b570      	push	{r4, r5, r6, lr}
    56c2:	f04f 0cff 	mov.w	r12, #255	; 0xff
    56c6:	f44c 6ce0 	orr.w	r12, r12, #1792	; 0x700
    56ca:	ea1c 5411 	ands.w	r4, r12, r1, lsr #20
    56ce:	bf1d      	ittte	ne
    56d0:	ea1c 5513 	andsne.w	r5, r12, r3, lsr #20
    56d4:	ea94 0f0c 	teqne	r4, r12
    56d8:	ea95 0f0c 	teqne	r5, r12
    56dc:	f000 f8a7 	bleq	582e <__aeabi_ddiv+0x16e>
    56e0:	eba4 0405 	sub.w	r4, r4, r5
    56e4:	ea81 0e03 	eor.w	lr, r1, r3
    56e8:	ea52 3503 	orrs.w	r5, r2, r3, lsl #12
    56ec:	ea4f 3101 	mov.w	r1, r1, lsl #12
    56f0:	f000 8088 	beq.w	5804 <__aeabi_ddiv+0x144>
    56f4:	ea4f 3303 	mov.w	r3, r3, lsl #12
    56f8:	f04f 5580 	mov.w	r5, #268435456	; 0x10000000
    56fc:	ea45 1313 	orr.w	r3, r5, r3, lsr #4
    5700:	ea43 6312 	orr.w	r3, r3, r2, lsr #24
    5704:	ea4f 2202 	mov.w	r2, r2, lsl #8
    5708:	ea45 1511 	orr.w	r5, r5, r1, lsr #4
    570c:	ea45 6510 	orr.w	r5, r5, r0, lsr #24
    5710:	ea4f 2600 	mov.w	r6, r0, lsl #8
    5714:	f00e 4100 	and.w	r1, lr, #2147483648	; 0x80000000
    5718:	429d      	cmp	r5, r3
    571a:	bf08      	it	eq
    571c:	4296      	cmpeq	r6, r2
    571e:	f144 04fd 	adc.w	r4, r4, #253	; 0xfd
    5722:	f504 7440 	add.w	r4, r4, #768	; 0x300
    5726:	d202      	bcs.n	572e <__aeabi_ddiv+0x6e>
    5728:	085b      	lsrs	r3, r3, #1
    572a:	ea4f 0232 	mov.w	r2, r2, rrx
    572e:	1ab6      	subs	r6, r6, r2
    5730:	eb65 0503 	sbc.w	r5, r5, r3
    5734:	085b      	lsrs	r3, r3, #1
    5736:	ea4f 0232 	mov.w	r2, r2, rrx
    573a:	f44f 1080 	mov.w	r0, #1048576	; 0x100000
    573e:	f44f 2c00 	mov.w	r12, #524288	; 0x80000
    5742:	ebb6 0e02 	subs.w	lr, r6, r2
    5746:	eb75 0e03 	sbcs.w	lr, r5, r3
    574a:	bf22      	ittt	cs
    574c:	1ab6      	subcs	r6, r6, r2
    574e:	4675      	movcs	r5, lr
    5750:	ea40 000c 	orrcs.w	r0, r0, r12
    5754:	085b      	lsrs	r3, r3, #1
    5756:	ea4f 0232 	mov.w	r2, r2, rrx
    575a:	ebb6 0e02 	subs.w	lr, r6, r2
    575e:	eb75 0e03 	sbcs.w	lr, r5, r3
    5762:	bf22      	ittt	cs
    5764:	1ab6      	subcs	r6, r6, r2
    5766:	4675      	movcs	r5, lr
    5768:	ea40 005c 	orrcs.w	r0, r0, r12, lsr #1
    576c:	085b      	lsrs	r3, r3, #1
    576e:	ea4f 0232 	mov.w	r2, r2, rrx
    5772:	ebb6 0e02 	subs.w	lr, r6, r2
    5776:	eb75 0e03 	sbcs.w	lr, r5, r3
    577a:	bf22      	ittt	cs
    577c:	1ab6      	subcs	r6, r6, r2
    577e:	4675      	movcs	r5, lr
    5780:	ea40 009c 	orrcs.w	r0, r0, r12, lsr #2
    5784:	085b      	lsrs	r3, r3, #1
    5786:	ea4f 0232 	mov.w	r2, r2, rrx
    578a:	ebb6 0e02 	subs.w	lr, r6, r2
    578e:	eb75 0e03 	sbcs.w	lr, r5, r3
    5792:	bf22      	ittt	cs
    5794:	1ab6      	subcs	r6, r6, r2
    5796:	4675      	movcs	r5, lr
    5798:	ea40 00dc 	orrcs.w	r0, r0, r12, lsr #3
    579c:	ea55 0e06 	orrs.w	lr, r5, r6
    57a0:	d018      	beq.n	57d4 <__aeabi_ddiv+0x114>
    57a2:	ea4f 1505 	mov.w	r5, r5, lsl #4
    57a6:	ea45 7516 	orr.w	r5, r5, r6, lsr #28
    57aa:	ea4f 1606 	mov.w	r6, r6, lsl #4
    57ae:	ea4f 03c3 	mov.w	r3, r3, lsl #3
    57b2:	ea43 7352 	orr.w	r3, r3, r2, lsr #29
    57b6:	ea4f 02c2 	mov.w	r2, r2, lsl #3
    57ba:	ea5f 1c1c 	movs.w	r12, r12, lsr #4
    57be:	d1c0      	bne.n	5742 <__aeabi_ddiv+0x82>
    57c0:	f411 1f80 	tst.w	r1, #1048576	; 0x100000
    57c4:	d10b      	bne.n	57de <__aeabi_ddiv+0x11e>
    57c6:	ea41 0100 	orr.w	r1, r1, r0
    57ca:	f04f 0000 	mov.w	r0, #0
    57ce:	f04f 4c00 	mov.w	r12, #2147483648	; 0x80000000
    57d2:	e7b6      	b.n	5742 <__aeabi_ddiv+0x82>
    57d4:	f411 1f80 	tst.w	r1, #1048576	; 0x100000
    57d8:	bf04      	itt	eq
    57da:	4301      	orreq	r1, r0
    57dc:	2000      	moveq	r0, #0
    57de:	f1b4 0cfd 	subs.w	r12, r4, #253	; 0xfd
    57e2:	bf88      	it	hi
    57e4:	f5bc 6fe0 	cmphi.w	r12, #1792	; 0x700
    57e8:	f63f aeaf 	bhi.w	554a <__aeabi_dmul+0xde>
    57ec:	ebb5 0c03 	subs.w	r12, r5, r3
    57f0:	bf04      	itt	eq
    57f2:	ebb6 0c02 	subseq.w	r12, r6, r2
    57f6:	ea5f 0c50 	movseq.w	r12, r0, lsr #1
    57fa:	f150 0000 	adcs.w	r0, r0, #0
    57fe:	eb41 5104 	adc.w	r1, r1, r4, lsl #20
    5802:	bd70      	pop	{r4, r5, r6, pc}
    5804:	f00e 4e00 	and.w	lr, lr, #2147483648	; 0x80000000
    5808:	ea4e 3111 	orr.w	r1, lr, r1, lsr #12
    580c:	eb14 045c 	adds.w	r4, r4, r12, lsr #1
    5810:	bfc2      	ittt	gt
    5812:	ebd4 050c 	rsbsgt	r5, r4, r12
    5816:	ea41 5104 	orrgt.w	r1, r1, r4, lsl #20
    581a:	bd70      	popgt	{r4, r5, r6, pc}
    581c:	f441 1180 	orr.w	r1, r1, #1048576	; 0x100000
    5820:	f04f 0e00 	mov.w	lr, #0
    5824:	3c01      	subs	r4, #1
    5826:	e690      	b.n	554a <__aeabi_dmul+0xde>
    5828:	ea45 0e06 	orr.w	lr, r5, r6
    582c:	e68d      	b.n	554a <__aeabi_dmul+0xde>
    582e:	ea0c 5513 	and.w	r5, r12, r3, lsr #20
    5832:	ea94 0f0c 	teq	r4, r12
    5836:	bf08      	it	eq
    5838:	ea95 0f0c 	teqeq	r5, r12
    583c:	f43f af3b 	beq.w	56b6 <__aeabi_dmul+0x24a>
    5840:	ea94 0f0c 	teq	r4, r12
    5844:	d10a      	bne.n	585c <__aeabi_ddiv+0x19c>
    5846:	ea50 3401 	orrs.w	r4, r0, r1, lsl #12
    584a:	f47f af34 	bne.w	56b6 <__aeabi_dmul+0x24a>
    584e:	ea95 0f0c 	teq	r5, r12
    5852:	f47f af25 	bne.w	56a0 <__aeabi_dmul+0x234>
    5856:	4610      	mov	r0, r2
    5858:	4619      	mov	r1, r3
    585a:	e72c      	b.n	56b6 <__aeabi_dmul+0x24a>
    585c:	ea95 0f0c 	teq	r5, r12
    5860:	d106      	bne.n	5870 <__aeabi_ddiv+0x1b0>
    5862:	ea52 3503 	orrs.w	r5, r2, r3, lsl #12
    5866:	f43f aefd 	beq.w	5664 <__aeabi_dmul+0x1f8>
    586a:	4610      	mov	r0, r2
    586c:	4619      	mov	r1, r3
    586e:	e722      	b.n	56b6 <__aeabi_dmul+0x24a>
    5870:	ea50 0641 	orrs.w	r6, r0, r1, lsl #1
    5874:	bf18      	it	ne
    5876:	ea52 0643 	orrsne.w	r6, r2, r3, lsl #1
    587a:	f47f aec5 	bne.w	5608 <__aeabi_dmul+0x19c>
    587e:	ea50 0441 	orrs.w	r4, r0, r1, lsl #1
    5882:	f47f af0d 	bne.w	56a0 <__aeabi_dmul+0x234>
    5886:	ea52 0543 	orrs.w	r5, r2, r3, lsl #1
    588a:	f47f aeeb 	bne.w	5664 <__aeabi_dmul+0x1f8>
    588e:	e712      	b.n	56b6 <__aeabi_dmul+0x24a>

00005890 <__gedf2>:
    5890:	f04f 3cff 	mov.w	r12, #4294967295	; 0xffffffff
    5894:	e006      	b.n	58a4 <__cmpdf2+0x4>
    5896:	bf00      	nop

00005898 <__ledf2>:
    5898:	f04f 0c01 	mov.w	r12, #1
    589c:	e002      	b.n	58a4 <__cmpdf2+0x4>
    589e:	bf00      	nop

000058a0 <__cmpdf2>:
    58a0:	f04f 0c01 	mov.w	r12, #1
    58a4:	f84d cd04 	str.w	r12, [sp, #-4]!
    58a8:	ea4f 0c41 	mov.w	r12, r1, lsl #1
    58ac:	ea7f 5c6c 	mvns.w	r12, r12, asr #21
    58b0:	ea4f 0c43 	mov.w	r12, r3, lsl #1
    58b4:	bf18      	it	ne
    58b6:	ea7f 5c6c 	mvnsne.w	r12, r12, asr #21
    58ba:	d01b      	beq.n	58f4 <__cmpdf2+0x54>
    58bc:	b001      	add	sp, #4
    58be:	ea50 0c41 	orrs.w	r12, r0, r1, lsl #1
    58c2:	bf0c      	ite	eq
    58c4:	ea52 0c43 	orrseq.w	r12, r2, r3, lsl #1
    58c8:	ea91 0f03 	teqne	r1, r3
    58cc:	bf02      	ittt	eq
    58ce:	ea90 0f02 	teqeq	r0, r2
    58d2:	2000      	moveq	r0, #0
    58d4:	4770      	bxeq	lr
    58d6:	f110 0f00 	cmn.w	r0, #0
    58da:	ea91 0f03 	teq	r1, r3
    58de:	bf58      	it	pl
    58e0:	4299      	cmppl	r1, r3
    58e2:	bf08      	it	eq
    58e4:	4290      	cmpeq	r0, r2
    58e6:	bf2c      	ite	cs
    58e8:	17d8      	asrcs	r0, r3, #31
    58ea:	ea6f 70e3 	mvncc.w	r0, r3, asr #31
    58ee:	f040 0001 	orr.w	r0, r0, #1
    58f2:	4770      	bx	lr
    58f4:	ea4f 0c41 	mov.w	r12, r1, lsl #1
    58f8:	ea7f 5c6c 	mvns.w	r12, r12, asr #21
    58fc:	d102      	bne.n	5904 <__cmpdf2+0x64>
    58fe:	ea50 3c01 	orrs.w	r12, r0, r1, lsl #12
    5902:	d107      	bne.n	5914 <__cmpdf2+0x74>
    5904:	ea4f 0c43 	mov.w	r12, r3, lsl #1
    5908:	ea7f 5c6c 	mvns.w	r12, r12, asr #21
    590c:	d1d6      	bne.n	58bc <__cmpdf2+0x1c>
    590e:	ea52 3c03 	orrs.w	r12, r2, r3, lsl #12
    5912:	d0d3      	beq.n	58bc <__cmpdf2+0x1c>
    5914:	f85d 0b04 	ldr.w	r0, [sp], #4
    5918:	4770      	bx	lr
    591a:	bf00      	nop

0000591c <__aeabi_cdrcmple>:
    591c:	4684      	mov	r12, r0
    591e:	4610      	mov	r0, r2
    5920:	4662      	mov	r2, r12
    5922:	468c      	mov	r12, r1
    5924:	4619      	mov	r1, r3
    5926:	4663      	mov	r3, r12
    5928:	e000      	b.n	592c <__aeabi_cdcmpeq>
    592a:	bf00      	nop

0000592c <__aeabi_cdcmpeq>:
    592c:	b501      	push	{r0, lr}
    592e:	f7ff ffb7 	bl	58a0 <__cmpdf2>
    5932:	2800      	cmp	r0, #0
    5934:	bf48      	it	mi
    5936:	f110 0f00 	cmnmi.w	r0, #0
    593a:	bd01      	pop	{r0, pc}

0000593c <__aeabi_dcmpeq>:
    593c:	f84d ed08 	str.w	lr, [sp, #-8]!
    5940:	f7ff fff4 	bl	592c <__aeabi_cdcmpeq>
    5944:	bf0c      	ite	eq
    5946:	2001      	moveq	r0, #1
    5948:	2000      	movne	r0, #0
    594a:	f85d fb08 	ldr.w	pc, [sp], #8
    594e:	bf00      	nop

00005950 <__aeabi_dcmplt>:
    5950:	f84d ed08 	str.w	lr, [sp, #-8]!
    5954:	f7ff ffea 	bl	592c <__aeabi_cdcmpeq>
    5958:	bf34      	ite	cc
    595a:	2001      	movcc	r0, #1
    595c:	2000      	movcs	r0, #0
    595e:	f85d fb08 	ldr.w	pc, [sp], #8
    5962:	bf00      	nop

00005964 <__aeabi_dcmple>:
    5964:	f84d ed08 	str.w	lr, [sp, #-8]!
    5968:	f7ff ffe0 	bl	592c <__aeabi_cdcmpeq>
    596c:	bf94      	ite	ls
    596e:	2001      	movls	r0, #1
    5970:	2000      	movhi	r0, #0
    5972:	f85d fb08 	ldr.w	pc, [sp], #8
    5976:	bf00      	nop

00005978 <__aeabi_dcmpge>:
    5978:	f84d ed08 	str.w	lr, [sp, #-8]!
    597c:	f7ff ffce 	bl	591c <__aeabi_cdrcmple>
    5980:	bf94      	ite	ls
    5982:	2001      	movls	r0, #1
    5984:	2000      	movhi	r0, #0
    5986:	f85d fb08 	ldr.w	pc, [sp], #8
    598a:	bf00      	nop

0000598c <__aeabi_dcmpgt>:
    598c:	f84d ed08 	str.w	lr, [sp, #-8]!
    5990:	f7ff ffc4 	bl	591c <__aeabi_cdrcmple>
    5994:	bf34      	ite	cc
    5996:	2001      	movcc	r0, #1
    5998:	2000      	movcs	r0, #0
    599a:	f85d fb08 	ldr.w	pc, [sp], #8
    599e:	bf00      	nop

000059a0 <__aeabi_d2iz>:
    59a0:	ea4f 0241 	mov.w	r2, r1, lsl #1
    59a4:	f512 1200 	adds.w	r2, r2, #2097152	; 0x200000
    59a8:	d215      	bcs.n	59d6 <__aeabi_d2iz+0x36>
    59aa:	d511      	bpl.n	59d0 <__aeabi_d2iz+0x30>
    59ac:	f46f 7378 	mvn.w	r3, #992	; 0x3e0
    59b0:	ebb3 5262 	subs.w	r2, r3, r2, asr #21
    59b4:	d912      	bls.n	59dc <__aeabi_d2iz+0x3c>
    59b6:	ea4f 23c1 	mov.w	r3, r1, lsl #11
    59ba:	f043 4300 	orr.w	r3, r3, #2147483648	; 0x80000000
    59be:	ea43 5350 	orr.w	r3, r3, r0, lsr #21
    59c2:	f011 4f00 	tst.w	r1, #2147483648	; 0x80000000
    59c6:	fa23 f002 	lsr.w	r0, r3, r2
    59ca:	bf18      	it	ne
    59cc:	4240      	negne	r0, r0
    59ce:	4770      	bx	lr
    59d0:	f04f 0000 	mov.w	r0, #0
    59d4:	4770      	bx	lr
    59d6:	ea50 3001 	orrs.w	r0, r0, r1, lsl #12
    59da:	d105      	bne.n	59e8 <__aeabi_d2iz+0x48>
    59dc:	f011 4000 	ands.w	r0, r1, #2147483648	; 0x80000000
    59e0:	bf08      	it	eq
    59e2:	f06f 4000 	mvneq.w	r0, #2147483648	; 0x80000000
    59e6:	4770      	bx	lr
    59e8:	f04f 0000 	mov.w	r0, #0
    59ec:	4770      	bx	lr
    59ee:	bf00      	nop

000059f0 <__aeabi_d2f>:
    59f0:	ea4f 0241 	mov.w	r2, r1, lsl #1
    59f4:	f1b2 43e0 	subs.w	r3, r2, #1879048192	; 0x70000000
    59f8:	bf24      	itt	cs
    59fa:	f5b3 1c00 	subscs.w	r12, r3, #2097152	; 0x200000
    59fe:	f1dc 5cfe 	rsbscs	r12, r12, #532676608	; 0x1fc00000
    5a02:	d90d      	bls.n	5a20 <__aeabi_d2f+0x30>
    5a04:	f001 4c00 	and.w	r12, r1, #2147483648	; 0x80000000
    5a08:	ea4f 02c0 	mov.w	r2, r0, lsl #3
    5a0c:	ea4c 7050 	orr.w	r0, r12, r0, lsr #29
    5a10:	f1b2 4f00 	cmp.w	r2, #2147483648	; 0x80000000
    5a14:	eb40 0083 	adc.w	r0, r0, r3, lsl #2
    5a18:	bf08      	it	eq
    5a1a:	f020 0001 	biceq.w	r0, r0, #1
    5a1e:	4770      	bx	lr
    5a20:	f011 4f80 	tst.w	r1, #1073741824	; 0x40000000
    5a24:	d121      	bne.n	5a6a <__aeabi_d2f+0x7a>
    5a26:	f113 7238 	adds.w	r2, r3, #48234496	; 0x2e00000
    5a2a:	bfbc      	itt	lt
    5a2c:	f001 4000 	andlt.w	r0, r1, #2147483648	; 0x80000000
    5a30:	4770      	bxlt	lr
    5a32:	f441 1180 	orr.w	r1, r1, #1048576	; 0x100000
    5a36:	ea4f 5252 	mov.w	r2, r2, lsr #21
    5a3a:	f1c2 0218 	rsb	r2, r2, #24
    5a3e:	f1c2 0c20 	rsb	r12, r2, #32
    5a42:	fa10 f30c 	lsls.w	r3, r0, r12
    5a46:	fa20 f002 	lsr.w	r0, r0, r2
    5a4a:	bf18      	it	ne
    5a4c:	f040 0001 	orrne.w	r0, r0, #1
    5a50:	ea4f 23c1 	mov.w	r3, r1, lsl #11
    5a54:	ea4f 23d3 	mov.w	r3, r3, lsr #11
    5a58:	fa03 fc0c 	lsl.w	r12, r3, r12
    5a5c:	ea40 000c 	orr.w	r0, r0, r12
    5a60:	fa23 f302 	lsr.w	r3, r3, r2
    5a64:	ea4f 0343 	mov.w	r3, r3, lsl #1
    5a68:	e7cc      	b.n	5a04 <__aeabi_d2f+0x14>
    5a6a:	ea7f 5362 	mvns.w	r3, r2, asr #21
    5a6e:	d107      	bne.n	5a80 <__aeabi_d2f+0x90>
    5a70:	ea50 3301 	orrs.w	r3, r0, r1, lsl #12
    5a74:	bf1e      	ittt	ne
    5a76:	f04f 40fe 	movne.w	r0, #2130706432	; 0x7f000000
    5a7a:	f440 0040 	orrne.w	r0, r0, #12582912	; 0xc00000
    5a7e:	4770      	bxne	lr
    5a80:	f001 4000 	and.w	r0, r1, #2147483648	; 0x80000000
    5a84:	f040 40fe 	orr.w	r0, r0, #2130706432	; 0x7f000000
    5a88:	f440 0000 	orr.w	r0, r0, #8388608	; 0x800000
    5a8c:	4770      	bx	lr
    5a8e:	bf00      	nop

00005a90 <__aeabi_frsub>:
    5a90:	f080 4000 	eor.w	r0, r0, #2147483648	; 0x80000000
    5a94:	e002      	b.n	5a9c <__addsf3>
    5a96:	bf00      	nop

00005a98 <__aeabi_fsub>:
    5a98:	f081 4100 	eor.w	r1, r1, #2147483648	; 0x80000000

00005a9c <__addsf3>:
    5a9c:	0042      	lsls	r2, r0, #1
    5a9e:	bf1f      	itttt	ne
    5aa0:	ea5f 0341 	movsne.w	r3, r1, lsl #1
    5aa4:	ea92 0f03 	teqne	r2, r3
    5aa8:	ea7f 6c22 	mvnsne.w	r12, r2, asr #24
    5aac:	ea7f 6c23 	mvnsne.w	r12, r3, asr #24
    5ab0:	d06a      	beq.n	5b88 <__addsf3+0xec>
    5ab2:	ea4f 6212 	mov.w	r2, r2, lsr #24
    5ab6:	ebd2 6313 	rsbs	r3, r2, r3, lsr #24
    5aba:	bfc1      	itttt	gt
    5abc:	18d2      	addgt	r2, r2, r3
    5abe:	4041      	eorgt	r1, r0
    5ac0:	4048      	eorgt	r0, r1
    5ac2:	4041      	eorgt	r1, r0
    5ac4:	bfb8      	it	lt
    5ac6:	425b      	neglt	r3, r3
    5ac8:	2b19      	cmp	r3, #25
    5aca:	bf88      	it	hi
    5acc:	4770      	bxhi	lr
    5ace:	f010 4f00 	tst.w	r0, #2147483648	; 0x80000000
    5ad2:	f440 0000 	orr.w	r0, r0, #8388608	; 0x800000
    5ad6:	f020 407f 	bic.w	r0, r0, #4278190080	; 0xff000000
    5ada:	bf18      	it	ne
    5adc:	4240      	negne	r0, r0
    5ade:	f011 4f00 	tst.w	r1, #2147483648	; 0x80000000
    5ae2:	f441 0100 	orr.w	r1, r1, #8388608	; 0x800000
    5ae6:	f021 417f 	bic.w	r1, r1, #4278190080	; 0xff000000
    5aea:	bf18      	it	ne
    5aec:	4249      	negne	r1, r1
    5aee:	ea92 0f03 	teq	r2, r3
    5af2:	d03f      	beq.n	5b74 <__addsf3+0xd8>
    5af4:	f1a2 0201 	sub.w	r2, r2, #1
    5af8:	fa41 fc03 	asr.w	r12, r1, r3
    5afc:	eb10 000c 	adds.w	r0, r0, r12
    5b00:	f1c3 0320 	rsb	r3, r3, #32
    5b04:	fa01 f103 	lsl.w	r1, r1, r3
    5b08:	f000 4300 	and.w	r3, r0, #2147483648	; 0x80000000
    5b0c:	d502      	bpl.n	5b14 <__addsf3+0x78>
    5b0e:	4249      	negs	r1, r1
    5b10:	eb60 0040 	sbc.w	r0, r0, r0, lsl #1
    5b14:	f5b0 0f00 	cmp.w	r0, #8388608	; 0x800000
    5b18:	d313      	bcc.n	5b42 <__addsf3+0xa6>
    5b1a:	f1b0 7f80 	cmp.w	r0, #16777216	; 0x1000000
    5b1e:	d306      	bcc.n	5b2e <__addsf3+0x92>
    5b20:	0840      	lsrs	r0, r0, #1
    5b22:	ea4f 0131 	mov.w	r1, r1, rrx
    5b26:	f102 0201 	add.w	r2, r2, #1
    5b2a:	2afe      	cmp	r2, #254	; 0xfe
    5b2c:	d251      	bcs.n	5bd2 <__addsf3+0x136>
    5b2e:	f1b1 4f00 	cmp.w	r1, #2147483648	; 0x80000000
    5b32:	eb40 50c2 	adc.w	r0, r0, r2, lsl #23
    5b36:	bf08      	it	eq
    5b38:	f020 0001 	biceq.w	r0, r0, #1
    5b3c:	ea40 0003 	orr.w	r0, r0, r3
    5b40:	4770      	bx	lr
    5b42:	0049      	lsls	r1, r1, #1
    5b44:	eb40 0000 	adc.w	r0, r0, r0
    5b48:	f410 0f00 	tst.w	r0, #8388608	; 0x800000
    5b4c:	f1a2 0201 	sub.w	r2, r2, #1
    5b50:	d1ed      	bne.n	5b2e <__addsf3+0x92>
    5b52:	fab0 fc80 	clz	r12, r0
    5b56:	f1ac 0c08 	sub.w	r12, r12, #8
    5b5a:	ebb2 020c 	subs.w	r2, r2, r12
    5b5e:	fa00 f00c 	lsl.w	r0, r0, r12
    5b62:	bfaa      	itet	ge
    5b64:	eb00 50c2 	addge.w	r0, r0, r2, lsl #23
    5b68:	4252      	neglt	r2, r2
    5b6a:	4318      	orrge	r0, r3
    5b6c:	bfbc      	itt	lt
    5b6e:	40d0      	lsrlt	r0, r2
    5b70:	4318      	orrlt	r0, r3
    5b72:	4770      	bx	lr
    5b74:	f092 0f00 	teq	r2, #0
    5b78:	f481 0100 	eor.w	r1, r1, #8388608	; 0x800000
    5b7c:	bf06      	itte	eq
    5b7e:	f480 0000 	eoreq.w	r0, r0, #8388608	; 0x800000
    5b82:	3201      	addeq	r2, #1
    5b84:	3b01      	subne	r3, #1
    5b86:	e7b5      	b.n	5af4 <__addsf3+0x58>
    5b88:	ea4f 0341 	mov.w	r3, r1, lsl #1
    5b8c:	ea7f 6c22 	mvns.w	r12, r2, asr #24
    5b90:	bf18      	it	ne
    5b92:	ea7f 6c23 	mvnsne.w	r12, r3, asr #24
    5b96:	d021      	beq.n	5bdc <__addsf3+0x140>
    5b98:	ea92 0f03 	teq	r2, r3
    5b9c:	d004      	beq.n	5ba8 <__addsf3+0x10c>
    5b9e:	f092 0f00 	teq	r2, #0
    5ba2:	bf08      	it	eq
    5ba4:	4608      	moveq	r0, r1
    5ba6:	4770      	bx	lr
    5ba8:	ea90 0f01 	teq	r0, r1
    5bac:	bf1c      	itt	ne
    5bae:	2000      	movne	r0, #0
    5bb0:	4770      	bxne	lr
    5bb2:	f012 4f7f 	tst.w	r2, #4278190080	; 0xff000000
    5bb6:	d104      	bne.n	5bc2 <__addsf3+0x126>
    5bb8:	0040      	lsls	r0, r0, #1
    5bba:	bf28      	it	cs
    5bbc:	f040 4000 	orrcs.w	r0, r0, #2147483648	; 0x80000000
    5bc0:	4770      	bx	lr
    5bc2:	f112 7200 	adds.w	r2, r2, #33554432	; 0x2000000
    5bc6:	bf3c      	itt	cc
    5bc8:	f500 0000 	addcc.w	r0, r0, #8388608	; 0x800000
    5bcc:	4770      	bxcc	lr
    5bce:	f000 4300 	and.w	r3, r0, #2147483648	; 0x80000000
    5bd2:	f043 40fe 	orr.w	r0, r3, #2130706432	; 0x7f000000
    5bd6:	f440 0000 	orr.w	r0, r0, #8388608	; 0x800000
    5bda:	4770      	bx	lr
    5bdc:	ea7f 6222 	mvns.w	r2, r2, asr #24
    5be0:	bf16      	itet	ne
    5be2:	4608      	movne	r0, r1
    5be4:	ea7f 6323 	mvnseq.w	r3, r3, asr #24
    5be8:	4601      	movne	r1, r0
    5bea:	0242      	lsls	r2, r0, #9
    5bec:	bf06      	itte	eq
    5bee:	ea5f 2341 	movseq.w	r3, r1, lsl #9
    5bf2:	ea90 0f01 	teqeq	r0, r1
    5bf6:	f440 0080 	orrne.w	r0, r0, #4194304	; 0x400000
    5bfa:	4770      	bx	lr

00005bfc <__aeabi_ui2f>:
    5bfc:	f04f 0300 	mov.w	r3, #0
    5c00:	e004      	b.n	5c0c <__aeabi_i2f+0x8>
    5c02:	bf00      	nop

00005c04 <__aeabi_i2f>:
    5c04:	f010 4300 	ands.w	r3, r0, #2147483648	; 0x80000000
    5c08:	bf48      	it	mi
    5c0a:	4240      	negmi	r0, r0
    5c0c:	ea5f 0c00 	movs.w	r12, r0
    5c10:	bf08      	it	eq
    5c12:	4770      	bxeq	lr
    5c14:	f043 4396 	orr.w	r3, r3, #1258291200	; 0x4b000000
    5c18:	4601      	mov	r1, r0
    5c1a:	f04f 0000 	mov.w	r0, #0
    5c1e:	e01c      	b.n	5c5a <__aeabi_l2f+0x2a>

00005c20 <__aeabi_ul2f>:
    5c20:	ea50 0201 	orrs.w	r2, r0, r1
    5c24:	bf08      	it	eq
    5c26:	4770      	bxeq	lr
    5c28:	f04f 0300 	mov.w	r3, #0
    5c2c:	e00a      	b.n	5c44 <__aeabi_l2f+0x14>
    5c2e:	bf00      	nop

00005c30 <__aeabi_l2f>:
    5c30:	ea50 0201 	orrs.w	r2, r0, r1
    5c34:	bf08      	it	eq
    5c36:	4770      	bxeq	lr
    5c38:	f011 4300 	ands.w	r3, r1, #2147483648	; 0x80000000
    5c3c:	d502      	bpl.n	5c44 <__aeabi_l2f+0x14>
    5c3e:	4240      	negs	r0, r0
    5c40:	eb61 0141 	sbc.w	r1, r1, r1, lsl #1
    5c44:	ea5f 0c01 	movs.w	r12, r1
    5c48:	bf02      	ittt	eq
    5c4a:	4684      	moveq	r12, r0
    5c4c:	4601      	moveq	r1, r0
    5c4e:	2000      	moveq	r0, #0
    5c50:	f043 43b6 	orr.w	r3, r3, #1526726656	; 0x5b000000
    5c54:	bf08      	it	eq
    5c56:	f1a3 5380 	subeq.w	r3, r3, #268435456	; 0x10000000
    5c5a:	f5a3 0300 	sub.w	r3, r3, #8388608	; 0x800000
    5c5e:	fabc f28c 	clz	r2, r12
    5c62:	3a08      	subs	r2, #8
    5c64:	eba3 53c2 	sub.w	r3, r3, r2, lsl #23
    5c68:	db10      	blt.n	5c8c <__aeabi_l2f+0x5c>
    5c6a:	fa01 fc02 	lsl.w	r12, r1, r2
    5c6e:	4463      	add	r3, r12
    5c70:	fa00 fc02 	lsl.w	r12, r0, r2
    5c74:	f1c2 0220 	rsb	r2, r2, #32
    5c78:	f1bc 4f00 	cmp.w	r12, #2147483648	; 0x80000000
    5c7c:	fa20 f202 	lsr.w	r2, r0, r2
    5c80:	eb43 0002 	adc.w	r0, r3, r2
    5c84:	bf08      	it	eq
    5c86:	f020 0001 	biceq.w	r0, r0, #1
    5c8a:	4770      	bx	lr
    5c8c:	f102 0220 	add.w	r2, r2, #32
    5c90:	fa01 fc02 	lsl.w	r12, r1, r2
    5c94:	f1c2 0220 	rsb	r2, r2, #32
    5c98:	ea50 004c 	orrs.w	r0, r0, r12, lsl #1
    5c9c:	fa21 f202 	lsr.w	r2, r1, r2
    5ca0:	eb43 0002 	adc.w	r0, r3, r2
    5ca4:	bf08      	it	eq
    5ca6:	ea20 70dc 	biceq.w	r0, r0, r12, lsr #31
    5caa:	4770      	bx	lr

00005cac <__aeabi_fmul>:
    5cac:	f04f 0cff 	mov.w	r12, #255	; 0xff
    5cb0:	ea1c 52d0 	ands.w	r2, r12, r0, lsr #23
    5cb4:	bf1e      	ittt	ne
    5cb6:	ea1c 53d1 	andsne.w	r3, r12, r1, lsr #23
    5cba:	ea92 0f0c 	teqne	r2, r12
    5cbe:	ea93 0f0c 	teqne	r3, r12
    5cc2:	d06f      	beq.n	5da4 <__aeabi_fmul+0xf8>
    5cc4:	441a      	add	r2, r3
    5cc6:	ea80 0c01 	eor.w	r12, r0, r1
    5cca:	0240      	lsls	r0, r0, #9
    5ccc:	bf18      	it	ne
    5cce:	ea5f 2141 	movsne.w	r1, r1, lsl #9
    5cd2:	d01e      	beq.n	5d12 <__aeabi_fmul+0x66>
    5cd4:	f04f 6300 	mov.w	r3, #134217728	; 0x8000000
    5cd8:	ea43 1050 	orr.w	r0, r3, r0, lsr #5
    5cdc:	ea43 1151 	orr.w	r1, r3, r1, lsr #5
    5ce0:	fba0 3101 	umull	r3, r1, r0, r1
    5ce4:	f00c 4000 	and.w	r0, r12, #2147483648	; 0x80000000
    5ce8:	f5b1 0f00 	cmp.w	r1, #8388608	; 0x800000
    5cec:	bf3e      	ittt	cc
    5cee:	0049      	lslcc	r1, r1, #1
    5cf0:	ea41 71d3 	orrcc.w	r1, r1, r3, lsr #31
    5cf4:	005b      	lslcc	r3, r3, #1
    5cf6:	ea40 0001 	orr.w	r0, r0, r1
    5cfa:	f162 027f 	sbc.w	r2, r2, #127	; 0x7f
    5cfe:	2afd      	cmp	r2, #253	; 0xfd
    5d00:	d81d      	bhi.n	5d3e <__aeabi_fmul+0x92>
    5d02:	f1b3 4f00 	cmp.w	r3, #2147483648	; 0x80000000
    5d06:	eb40 50c2 	adc.w	r0, r0, r2, lsl #23
    5d0a:	bf08      	it	eq
    5d0c:	f020 0001 	biceq.w	r0, r0, #1
    5d10:	4770      	bx	lr
    5d12:	f090 0f00 	teq	r0, #0
    5d16:	f00c 4c00 	and.w	r12, r12, #2147483648	; 0x80000000
    5d1a:	bf08      	it	eq
    5d1c:	0249      	lsleq	r1, r1, #9
    5d1e:	ea4c 2050 	orr.w	r0, r12, r0, lsr #9
    5d22:	ea40 2051 	orr.w	r0, r0, r1, lsr #9
    5d26:	3a7f      	subs	r2, #127	; 0x7f
    5d28:	bfc2      	ittt	gt
    5d2a:	f1d2 03ff 	rsbsgt	r3, r2, #255	; 0xff
    5d2e:	ea40 50c2 	orrgt.w	r0, r0, r2, lsl #23
    5d32:	4770      	bxgt	lr
    5d34:	f440 0000 	orr.w	r0, r0, #8388608	; 0x800000
    5d38:	f04f 0300 	mov.w	r3, #0
    5d3c:	3a01      	subs	r2, #1
    5d3e:	dc5d      	bgt.n	5dfc <__aeabi_fmul+0x150>
    5d40:	f112 0f19 	cmn.w	r2, #25
    5d44:	bfdc      	itt	le
    5d46:	f000 4000 	andle.w	r0, r0, #2147483648	; 0x80000000
    5d4a:	4770      	bxle	lr
    5d4c:	f1c2 0200 	rsb	r2, r2, #0
    5d50:	0041      	lsls	r1, r0, #1
    5d52:	fa21 f102 	lsr.w	r1, r1, r2
    5d56:	f1c2 0220 	rsb	r2, r2, #32
    5d5a:	fa00 fc02 	lsl.w	r12, r0, r2
    5d5e:	ea5f 0031 	movs.w	r0, r1, rrx
    5d62:	f140 0000 	adc.w	r0, r0, #0
    5d66:	ea53 034c 	orrs.w	r3, r3, r12, lsl #1
    5d6a:	bf08      	it	eq
    5d6c:	ea20 70dc 	biceq.w	r0, r0, r12, lsr #31
    5d70:	4770      	bx	lr
    5d72:	f092 0f00 	teq	r2, #0
    5d76:	f000 4c00 	and.w	r12, r0, #2147483648	; 0x80000000
    5d7a:	bf02      	ittt	eq
    5d7c:	0040      	lsleq	r0, r0, #1
    5d7e:	f410 0f00 	tsteq.w	r0, #8388608	; 0x800000
    5d82:	3a01      	subeq	r2, #1
    5d84:	d0f9      	beq.n	5d7a <__aeabi_fmul+0xce>
    5d86:	ea40 000c 	orr.w	r0, r0, r12
    5d8a:	f093 0f00 	teq	r3, #0
    5d8e:	f001 4c00 	and.w	r12, r1, #2147483648	; 0x80000000
    5d92:	bf02      	ittt	eq
    5d94:	0049      	lsleq	r1, r1, #1
    5d96:	f411 0f00 	tsteq.w	r1, #8388608	; 0x800000
    5d9a:	3b01      	subeq	r3, #1
    5d9c:	d0f9      	beq.n	5d92 <__aeabi_fmul+0xe6>
    5d9e:	ea41 010c 	orr.w	r1, r1, r12
    5da2:	e78f      	b.n	5cc4 <__aeabi_fmul+0x18>
    5da4:	ea0c 53d1 	and.w	r3, r12, r1, lsr #23
    5da8:	ea92 0f0c 	teq	r2, r12
    5dac:	bf18      	it	ne
    5dae:	ea93 0f0c 	teqne	r3, r12
    5db2:	d00a      	beq.n	5dca <__aeabi_fmul+0x11e>
    5db4:	f030 4c00 	bics.w	r12, r0, #2147483648	; 0x80000000
    5db8:	bf18      	it	ne
    5dba:	f031 4c00 	bicsne.w	r12, r1, #2147483648	; 0x80000000
    5dbe:	d1d8      	bne.n	5d72 <__aeabi_fmul+0xc6>
    5dc0:	ea80 0001 	eor.w	r0, r0, r1
    5dc4:	f000 4000 	and.w	r0, r0, #2147483648	; 0x80000000
    5dc8:	4770      	bx	lr
    5dca:	f090 0f00 	teq	r0, #0
    5dce:	bf17      	itett	ne
    5dd0:	f090 4f00 	teqne	r0, #2147483648	; 0x80000000
    5dd4:	4608      	moveq	r0, r1
    5dd6:	f091 0f00 	teqne	r1, #0
    5dda:	f091 4f00 	teqne	r1, #2147483648	; 0x80000000
    5dde:	d014      	beq.n	5e0a <__aeabi_fmul+0x15e>
    5de0:	ea92 0f0c 	teq	r2, r12
    5de4:	d101      	bne.n	5dea <__aeabi_fmul+0x13e>
    5de6:	0242      	lsls	r2, r0, #9
    5de8:	d10f      	bne.n	5e0a <__aeabi_fmul+0x15e>
    5dea:	ea93 0f0c 	teq	r3, r12
    5dee:	d103      	bne.n	5df8 <__aeabi_fmul+0x14c>
    5df0:	024b      	lsls	r3, r1, #9
    5df2:	bf18      	it	ne
    5df4:	4608      	movne	r0, r1
    5df6:	d108      	bne.n	5e0a <__aeabi_fmul+0x15e>
    5df8:	ea80 0001 	eor.w	r0, r0, r1
    5dfc:	f000 4000 	and.w	r0, r0, #2147483648	; 0x80000000
    5e00:	f040 40fe 	orr.w	r0, r0, #2130706432	; 0x7f000000
    5e04:	f440 0000 	orr.w	r0, r0, #8388608	; 0x800000
    5e08:	4770      	bx	lr
    5e0a:	f040 40fe 	orr.w	r0, r0, #2130706432	; 0x7f000000
    5e0e:	f440 0040 	orr.w	r0, r0, #12582912	; 0xc00000
    5e12:	4770      	bx	lr

00005e14 <__aeabi_fdiv>:
    5e14:	f04f 0cff 	mov.w	r12, #255	; 0xff
    5e18:	ea1c 52d0 	ands.w	r2, r12, r0, lsr #23
    5e1c:	bf1e      	ittt	ne
    5e1e:	ea1c 53d1 	andsne.w	r3, r12, r1, lsr #23
    5e22:	ea92 0f0c 	teqne	r2, r12
    5e26:	ea93 0f0c 	teqne	r3, r12
    5e2a:	d069      	beq.n	5f00 <__aeabi_fdiv+0xec>
    5e2c:	eba2 0203 	sub.w	r2, r2, r3
    5e30:	ea80 0c01 	eor.w	r12, r0, r1
    5e34:	0249      	lsls	r1, r1, #9
    5e36:	ea4f 2040 	mov.w	r0, r0, lsl #9
    5e3a:	d037      	beq.n	5eac <__aeabi_fdiv+0x98>
    5e3c:	f04f 5380 	mov.w	r3, #268435456	; 0x10000000
    5e40:	ea43 1111 	orr.w	r1, r3, r1, lsr #4
    5e44:	ea43 1310 	orr.w	r3, r3, r0, lsr #4
    5e48:	f00c 4000 	and.w	r0, r12, #2147483648	; 0x80000000
    5e4c:	428b      	cmp	r3, r1
    5e4e:	bf38      	it	cc
    5e50:	005b      	lslcc	r3, r3, #1
    5e52:	f142 027d 	adc.w	r2, r2, #125	; 0x7d
    5e56:	f44f 0c00 	mov.w	r12, #8388608	; 0x800000
    5e5a:	428b      	cmp	r3, r1
    5e5c:	bf24      	itt	cs
    5e5e:	1a5b      	subcs	r3, r3, r1
    5e60:	ea40 000c 	orrcs.w	r0, r0, r12
    5e64:	ebb3 0f51 	cmp.w	r3, r1, lsr #1
    5e68:	bf24      	itt	cs
    5e6a:	eba3 0351 	subcs.w	r3, r3, r1, lsr #1
    5e6e:	ea40 005c 	orrcs.w	r0, r0, r12, lsr #1
    5e72:	ebb3 0f91 	cmp.w	r3, r1, lsr #2
    5e76:	bf24      	itt	cs
    5e78:	eba3 0391 	subcs.w	r3, r3, r1, lsr #2
    5e7c:	ea40 009c 	orrcs.w	r0, r0, r12, lsr #2
    5e80:	ebb3 0fd1 	cmp.w	r3, r1, lsr #3
    5e84:	bf24      	itt	cs
    5e86:	eba3 03d1 	subcs.w	r3, r3, r1, lsr #3
    5e8a:	ea40 00dc 	orrcs.w	r0, r0, r12, lsr #3
    5e8e:	011b      	lsls	r3, r3, #4
    5e90:	bf18      	it	ne
    5e92:	ea5f 1c1c 	movsne.w	r12, r12, lsr #4
    5e96:	d1e0      	bne.n	5e5a <__aeabi_fdiv+0x46>
    5e98:	2afd      	cmp	r2, #253	; 0xfd
    5e9a:	f63f af50 	bhi.w	5d3e <__aeabi_fmul+0x92>
    5e9e:	428b      	cmp	r3, r1
    5ea0:	eb40 50c2 	adc.w	r0, r0, r2, lsl #23
    5ea4:	bf08      	it	eq
    5ea6:	f020 0001 	biceq.w	r0, r0, #1
    5eaa:	4770      	bx	lr
    5eac:	f00c 4c00 	and.w	r12, r12, #2147483648	; 0x80000000
    5eb0:	ea4c 2050 	orr.w	r0, r12, r0, lsr #9
    5eb4:	327f      	adds	r2, #127	; 0x7f
    5eb6:	bfc2      	ittt	gt
    5eb8:	f1d2 03ff 	rsbsgt	r3, r2, #255	; 0xff
    5ebc:	ea40 50c2 	orrgt.w	r0, r0, r2, lsl #23
    5ec0:	4770      	bxgt	lr
    5ec2:	f440 0000 	orr.w	r0, r0, #8388608	; 0x800000
    5ec6:	f04f 0300 	mov.w	r3, #0
    5eca:	3a01      	subs	r2, #1
    5ecc:	e737      	b.n	5d3e <__aeabi_fmul+0x92>
    5ece:	f092 0f00 	teq	r2, #0
    5ed2:	f000 4c00 	and.w	r12, r0, #2147483648	; 0x80000000
    5ed6:	bf02      	ittt	eq
    5ed8:	0040      	lsleq	r0, r0, #1
    5eda:	f410 0f00 	tsteq.w	r0, #8388608	; 0x800000
    5ede:	3a01      	subeq	r2, #1
    5ee0:	d0f9      	beq.n	5ed6 <__aeabi_fdiv+0xc2>
    5ee2:	ea40 000c 	orr.w	r0, r0, r12
    5ee6:	f093 0f00 	teq	r3, #0
    5eea:	f001 4c00 	and.w	r12, r1, #2147483648	; 0x80000000
    5eee:	bf02      	ittt	eq
    5ef0:	0049      	lsleq	r1, r1, #1
    5ef2:	f411 0f00 	tsteq.w	r1, #8388608	; 0x800000
    5ef6:	3b01      	subeq	r3, #1
    5ef8:	d0f9      	beq.n	5eee <__aeabi_fdiv+0xda>
    5efa:	ea41 010c 	orr.w	r1, r1, r12
    5efe:	e795      	b.n	5e2c <__aeabi_fdiv+0x18>
    5f00:	ea0c 53d1 	and.w	r3, r12, r1, lsr #23
    5f04:	ea92 0f0c 	teq	r2, r12
    5f08:	d108      	bne.n	5f1c <__aeabi_fdiv+0x108>
    5f0a:	0242      	lsls	r2, r0, #9
    5f0c:	f47f af7d 	bne.w	5e0a <__aeabi_fmul+0x15e>
    5f10:	ea93 0f0c 	teq	r3, r12
    5f14:	f47f af70 	bne.w	5df8 <__aeabi_fmul+0x14c>
    5f18:	4608      	mov	r0, r1
    5f1a:	e776      	b.n	5e0a <__aeabi_fmul+0x15e>
    5f1c:	ea93 0f0c 	teq	r3, r12
    5f20:	d104      	bne.n	5f2c <__aeabi_fdiv+0x118>
    5f22:	024b      	lsls	r3, r1, #9
    5f24:	f43f af4c 	beq.w	5dc0 <__aeabi_fmul+0x114>
    5f28:	4608      	mov	r0, r1
    5f2a:	e76e      	b.n	5e0a <__aeabi_fmul+0x15e>
    5f2c:	f030 4c00 	bics.w	r12, r0, #2147483648	; 0x80000000
    5f30:	bf18      	it	ne
    5f32:	f031 4c00 	bicsne.w	r12, r1, #2147483648	; 0x80000000
    5f36:	d1ca      	bne.n	5ece <__aeabi_fdiv+0xba>
    5f38:	f030 4200 	bics.w	r2, r0, #2147483648	; 0x80000000
    5f3c:	f47f af5c 	bne.w	5df8 <__aeabi_fmul+0x14c>
    5f40:	f031 4300 	bics.w	r3, r1, #2147483648	; 0x80000000
    5f44:	f47f af3c 	bne.w	5dc0 <__aeabi_fmul+0x114>
    5f48:	e75f      	b.n	5e0a <__aeabi_fmul+0x15e>
    5f4a:	bf00      	nop

00005f4c <__gesf2>:
    5f4c:	f04f 3cff 	mov.w	r12, #4294967295	; 0xffffffff
    5f50:	e006      	b.n	5f60 <__cmpsf2+0x4>
    5f52:	bf00      	nop

00005f54 <__lesf2>:
    5f54:	f04f 0c01 	mov.w	r12, #1
    5f58:	e002      	b.n	5f60 <__cmpsf2+0x4>
    5f5a:	bf00      	nop

00005f5c <__cmpsf2>:
    5f5c:	f04f 0c01 	mov.w	r12, #1
    5f60:	f84d cd04 	str.w	r12, [sp, #-4]!
    5f64:	ea4f 0240 	mov.w	r2, r0, lsl #1
    5f68:	ea4f 0341 	mov.w	r3, r1, lsl #1
    5f6c:	ea7f 6c22 	mvns.w	r12, r2, asr #24
    5f70:	bf18      	it	ne
    5f72:	ea7f 6c23 	mvnsne.w	r12, r3, asr #24
    5f76:	d011      	beq.n	5f9c <__cmpsf2+0x40>
    5f78:	b001      	add	sp, #4
    5f7a:	ea52 0c53 	orrs.w	r12, r2, r3, lsr #1
    5f7e:	bf18      	it	ne
    5f80:	ea90 0f01 	teqne	r0, r1
    5f84:	bf58      	it	pl
    5f86:	ebb2 0003 	subspl.w	r0, r2, r3
    5f8a:	bf88      	it	hi
    5f8c:	17c8      	asrhi	r0, r1, #31
    5f8e:	bf38      	it	cc
    5f90:	ea6f 70e1 	mvncc.w	r0, r1, asr #31
    5f94:	bf18      	it	ne
    5f96:	f040 0001 	orrne.w	r0, r0, #1
    5f9a:	4770      	bx	lr
    5f9c:	ea7f 6c22 	mvns.w	r12, r2, asr #24
    5fa0:	d102      	bne.n	5fa8 <__cmpsf2+0x4c>
    5fa2:	ea5f 2c40 	movs.w	r12, r0, lsl #9
    5fa6:	d105      	bne.n	5fb4 <__cmpsf2+0x58>
    5fa8:	ea7f 6c23 	mvns.w	r12, r3, asr #24
    5fac:	d1e4      	bne.n	5f78 <__cmpsf2+0x1c>
    5fae:	ea5f 2c41 	movs.w	r12, r1, lsl #9
    5fb2:	d0e1      	beq.n	5f78 <__cmpsf2+0x1c>
    5fb4:	f85d 0b04 	ldr.w	r0, [sp], #4
    5fb8:	4770      	bx	lr
    5fba:	bf00      	nop

00005fbc <__aeabi_cfrcmple>:
    5fbc:	4684      	mov	r12, r0
    5fbe:	4608      	mov	r0, r1
    5fc0:	4661      	mov	r1, r12
    5fc2:	e7ff      	b.n	5fc4 <__aeabi_cfcmpeq>

00005fc4 <__aeabi_cfcmpeq>:
    5fc4:	b50f      	push	{r0, r1, r2, r3, lr}
    5fc6:	f7ff ffc9 	bl	5f5c <__cmpsf2>
    5fca:	2800      	cmp	r0, #0
    5fcc:	bf48      	it	mi
    5fce:	f110 0f00 	cmnmi.w	r0, #0
    5fd2:	bd0f      	pop	{r0, r1, r2, r3, pc}

00005fd4 <__aeabi_fcmpeq>:
    5fd4:	f84d ed08 	str.w	lr, [sp, #-8]!
    5fd8:	f7ff fff4 	bl	5fc4 <__aeabi_cfcmpeq>
    5fdc:	bf0c      	ite	eq
    5fde:	2001      	moveq	r0, #1
    5fe0:	2000      	movne	r0, #0
    5fe2:	f85d fb08 	ldr.w	pc, [sp], #8
    5fe6:	bf00      	nop

00005fe8 <__aeabi_fcmplt>:
    5fe8:	f84d ed08 	str.w	lr, [sp, #-8]!
    5fec:	f7ff ffea 	bl	5fc4 <__aeabi_cfcmpeq>
    5ff0:	bf34      	ite	cc
    5ff2:	2001      	movcc	r0, #1
    5ff4:	2000      	movcs	r0, #0
    5ff6:	f85d fb08 	ldr.w	pc, [sp], #8
    5ffa:	bf00      	nop

00005ffc <__aeabi_fcmple>:
    5ffc:	f84d ed08 	str.w	lr, [sp, #-8]!
    6000:	f7ff ffe0 	bl	5fc4 <__aeabi_cfcmpeq>
    6004:	bf94      	ite	ls
    6006:	2001      	movls	r0, #1
    6008:	2000      	movhi	r0, #0
    600a:	f85d fb08 	ldr.w	pc, [sp], #8
    600e:	bf00      	nop

00006010 <__aeabi_fcmpge>:
    6010:	f84d ed08 	str.w	lr, [sp, #-8]!
    6014:	f7ff ffd2 	bl	5fbc <__aeabi_cfrcmple>
    6018:	bf94      	ite	ls
    601a:	2001      	movls	r0, #1
    601c:	2000      	movhi	r0, #0
    601e:	f85d fb08 	ldr.w	pc, [sp], #8
    6022:	bf00      	nop

00006024 <__aeabi_fcmpgt>:
    6024:	f84d ed08 	str.w	lr, [sp, #-8]!
    6028:	f7ff ffc8 	bl	5fbc <__aeabi_cfrcmple>
    602c:	bf34      	ite	cc
    602e:	2001      	movcc	r0, #1
    6030:	2000      	movcs	r0, #0
    6032:	f85d fb08 	ldr.w	pc, [sp], #8
    6036:	bf00      	nop

00006038 <__aeabi_f2iz>:
    6038:	ea4f 0240 	mov.w	r2, r0, lsl #1
    603c:	f1b2 4ffe 	cmp.w	r2, #2130706432	; 0x7f000000
    6040:	d30f      	bcc.n	6062 <__aeabi_f2iz+0x2a>
    6042:	f04f 039e 	mov.w	r3, #158	; 0x9e
    6046:	ebb3 6212 	subs.w	r2, r3, r2, lsr #24
    604a:	d90d      	bls.n	6068 <__aeabi_f2iz+0x30>
    604c:	ea4f 2300 	mov.w	r3, r0, lsl #8
    6050:	f043 4300 	orr.w	r3, r3, #2147483648	; 0x80000000
    6054:	f010 4f00 	tst.w	r0, #2147483648	; 0x80000000
    6058:	fa23 f002 	lsr.w	r0, r3, r2
    605c:	bf18      	it	ne
    605e:	4240      	negne	r0, r0
    6060:	4770      	bx	lr
    6062:	f04f 0000 	mov.w	r0, #0
    6066:	4770      	bx	lr
    6068:	f112 0f61 	cmn.w	r2, #97	; 0x61
    606c:	d101      	bne.n	6072 <__aeabi_f2iz+0x3a>
    606e:	0242      	lsls	r2, r0, #9
    6070:	d105      	bne.n	607e <__aeabi_f2iz+0x46>
    6072:	f010 4000 	ands.w	r0, r0, #2147483648	; 0x80000000
    6076:	bf08      	it	eq
    6078:	f06f 4000 	mvneq.w	r0, #2147483648	; 0x80000000
    607c:	4770      	bx	lr
    607e:	f04f 0000 	mov.w	r0, #0
    6082:	4770      	bx	lr

00006084 <__cxa_atexit>:
    6084:	b570      	push	{r4, r5, r6, lr}
    6086:	4c06      	ldr	r4, [pc, #24]	; (60a0 <__cxa_atexit+0x1c>)
    6088:	4606      	mov	r6, r0
    608a:	460d      	mov	r5, r1
    608c:	4613      	mov	r3, r2
    608e:	b12c      	cbz	r4, 609c <__cxa_atexit+0x18>
    6090:	4631      	mov	r1, r6
    6092:	462a      	mov	r2, r5
    6094:	2002      	movs	r0, #2
    6096:	f3af 8000 	nop.w
    609a:	bd70      	pop	{r4, r5, r6, pc}
    609c:	4620      	mov	r0, r4
    609e:	bd70      	pop	{r4, r5, r6, pc}
    60a0:	00000000 	.word	0x00000000

000060a4 <__errno>:
    60a4:	4b01      	ldr	r3, [pc, #4]	; (60ac <__errno+0x8>)
    60a6:	6818      	ldr	r0, [r3, #0]
    60a8:	4770      	bx	lr
    60aa:	bf00      	nop
    60ac:	100001c0 	.word	0x100001c0

000060b0 <_fclose_r>:
    60b0:	b570      	push	{r4, r5, r6, lr}
    60b2:	4605      	mov	r5, r0
    60b4:	460c      	mov	r4, r1
    60b6:	b909      	cbnz	r1, 60bc <_fclose_r+0xc>
    60b8:	2000      	movs	r0, #0
    60ba:	bd70      	pop	{r4, r5, r6, pc}
    60bc:	b118      	cbz	r0, 60c6 <_fclose_r+0x16>
    60be:	6983      	ldr	r3, [r0, #24]
    60c0:	b90b      	cbnz	r3, 60c6 <_fclose_r+0x16>
    60c2:	f000 f997 	bl	63f4 <__sinit>
    60c6:	4b20      	ldr	r3, [pc, #128]	; (6148 <_fclose_r+0x98>)
    60c8:	429c      	cmp	r4, r3
    60ca:	d101      	bne.n	60d0 <_fclose_r+0x20>
    60cc:	686c      	ldr	r4, [r5, #4]
    60ce:	e008      	b.n	60e2 <_fclose_r+0x32>
    60d0:	4b1e      	ldr	r3, [pc, #120]	; (614c <_fclose_r+0x9c>)
    60d2:	429c      	cmp	r4, r3
    60d4:	d101      	bne.n	60da <_fclose_r+0x2a>
    60d6:	68ac      	ldr	r4, [r5, #8]
    60d8:	e003      	b.n	60e2 <_fclose_r+0x32>
    60da:	4b1d      	ldr	r3, [pc, #116]	; (6150 <_fclose_r+0xa0>)
    60dc:	429c      	cmp	r4, r3
    60de:	bf08      	it	eq
    60e0:	68ec      	ldreq	r4, [r5, #12]
    60e2:	f9b4 300c 	ldrsh.w	r3, [r4, #12]
    60e6:	2b00      	cmp	r3, #0
    60e8:	d0e6      	beq.n	60b8 <_fclose_r+0x8>
    60ea:	4628      	mov	r0, r5
    60ec:	4621      	mov	r1, r4
    60ee:	f000 f8bd 	bl	626c <_fflush_r>
    60f2:	6b23      	ldr	r3, [r4, #48]	; 0x30
    60f4:	4606      	mov	r6, r0
    60f6:	b133      	cbz	r3, 6106 <_fclose_r+0x56>
    60f8:	4628      	mov	r0, r5
    60fa:	6a21      	ldr	r1, [r4, #32]
    60fc:	4798      	blx	r3
    60fe:	2800      	cmp	r0, #0
    6100:	bfb8      	it	lt
    6102:	f04f 36ff 	movlt.w	r6, #4294967295	; 0xffffffff
    6106:	89a3      	ldrh	r3, [r4, #12]
    6108:	061b      	lsls	r3, r3, #24
    610a:	d503      	bpl.n	6114 <_fclose_r+0x64>
    610c:	4628      	mov	r0, r5
    610e:	6921      	ldr	r1, [r4, #16]
    6110:	f000 fbd2 	bl	68b8 <_free_r>
    6114:	6b61      	ldr	r1, [r4, #52]	; 0x34
    6116:	b141      	cbz	r1, 612a <_fclose_r+0x7a>
    6118:	f104 0344 	add.w	r3, r4, #68	; 0x44
    611c:	4299      	cmp	r1, r3
    611e:	d002      	beq.n	6126 <_fclose_r+0x76>
    6120:	4628      	mov	r0, r5
    6122:	f000 fbc9 	bl	68b8 <_free_r>
    6126:	2300      	movs	r3, #0
    6128:	6363      	str	r3, [r4, #52]	; 0x34
    612a:	6ca1      	ldr	r1, [r4, #72]	; 0x48
    612c:	b121      	cbz	r1, 6138 <_fclose_r+0x88>
    612e:	4628      	mov	r0, r5
    6130:	f000 fbc2 	bl	68b8 <_free_r>
    6134:	2300      	movs	r3, #0
    6136:	64a3      	str	r3, [r4, #72]	; 0x48
    6138:	f000 f9c6 	bl	64c8 <__sfp_lock_acquire>
    613c:	2300      	movs	r3, #0
    613e:	81a3      	strh	r3, [r4, #12]
    6140:	f000 f9c3 	bl	64ca <__sfp_lock_release>
    6144:	4630      	mov	r0, r6
    6146:	bd70      	pop	{r4, r5, r6, pc}
    6148:	0000c748 	.word	0x0000c748
    614c:	0000c768 	.word	0x0000c768
    6150:	0000c788 	.word	0x0000c788

00006154 <fclose>:
    6154:	4b02      	ldr	r3, [pc, #8]	; (6160 <fclose+0xc>)
    6156:	4601      	mov	r1, r0
    6158:	6818      	ldr	r0, [r3, #0]
    615a:	f7ff bfa9 	b.w	60b0 <_fclose_r>
    615e:	bf00      	nop
    6160:	100001c0 	.word	0x100001c0

00006164 <__sflush_r>:
    6164:	898a      	ldrh	r2, [r1, #12]
    6166:	e92d 41f0 	stmdb	sp!, {r4, r5, r6, r7, r8, lr}
    616a:	4605      	mov	r5, r0
    616c:	0710      	lsls	r0, r2, #28
    616e:	460c      	mov	r4, r1
    6170:	d457      	bmi.n	6222 <__sflush_r+0xbe>
    6172:	684b      	ldr	r3, [r1, #4]
    6174:	2b00      	cmp	r3, #0
    6176:	dc02      	bgt.n	617e <__sflush_r+0x1a>
    6178:	6c0b      	ldr	r3, [r1, #64]	; 0x40
    617a:	2b00      	cmp	r3, #0
    617c:	dd18      	ble.n	61b0 <__sflush_r+0x4c>
    617e:	6ae6      	ldr	r6, [r4, #44]	; 0x2c
    6180:	b1b6      	cbz	r6, 61b0 <__sflush_r+0x4c>
    6182:	f402 5280 	and.w	r2, r2, #4096	; 0x1000
    6186:	2300      	movs	r3, #0
    6188:	b292      	uxth	r2, r2
    618a:	682f      	ldr	r7, [r5, #0]
    618c:	602b      	str	r3, [r5, #0]
    618e:	b10a      	cbz	r2, 6194 <__sflush_r+0x30>
    6190:	6d62      	ldr	r2, [r4, #84]	; 0x54
    6192:	e010      	b.n	61b6 <__sflush_r+0x52>
    6194:	6a21      	ldr	r1, [r4, #32]
    6196:	4628      	mov	r0, r5
    6198:	2301      	movs	r3, #1
    619a:	47b0      	blx	r6
    619c:	1c41      	adds	r1, r0, #1
    619e:	4602      	mov	r2, r0
    61a0:	d109      	bne.n	61b6 <__sflush_r+0x52>
    61a2:	682b      	ldr	r3, [r5, #0]
    61a4:	b13b      	cbz	r3, 61b6 <__sflush_r+0x52>
    61a6:	2b1d      	cmp	r3, #29
    61a8:	d001      	beq.n	61ae <__sflush_r+0x4a>
    61aa:	2b16      	cmp	r3, #22
    61ac:	d146      	bne.n	623c <__sflush_r+0xd8>
    61ae:	602f      	str	r7, [r5, #0]
    61b0:	2000      	movs	r0, #0
    61b2:	e8bd 81f0 	ldmia.w	sp!, {r4, r5, r6, r7, r8, pc}
    61b6:	89a3      	ldrh	r3, [r4, #12]
    61b8:	075b      	lsls	r3, r3, #29
    61ba:	d505      	bpl.n	61c8 <__sflush_r+0x64>
    61bc:	6863      	ldr	r3, [r4, #4]
    61be:	1ad2      	subs	r2, r2, r3
    61c0:	6b63      	ldr	r3, [r4, #52]	; 0x34
    61c2:	b10b      	cbz	r3, 61c8 <__sflush_r+0x64>
    61c4:	6c23      	ldr	r3, [r4, #64]	; 0x40
    61c6:	1ad2      	subs	r2, r2, r3
    61c8:	6ae6      	ldr	r6, [r4, #44]	; 0x2c
    61ca:	4628      	mov	r0, r5
    61cc:	6a21      	ldr	r1, [r4, #32]
    61ce:	2300      	movs	r3, #0
    61d0:	47b0      	blx	r6
    61d2:	1c46      	adds	r6, r0, #1
    61d4:	89a2      	ldrh	r2, [r4, #12]
    61d6:	d105      	bne.n	61e4 <__sflush_r+0x80>
    61d8:	682b      	ldr	r3, [r5, #0]
    61da:	b11b      	cbz	r3, 61e4 <__sflush_r+0x80>
    61dc:	2b1d      	cmp	r3, #29
    61de:	d001      	beq.n	61e4 <__sflush_r+0x80>
    61e0:	2b16      	cmp	r3, #22
    61e2:	d119      	bne.n	6218 <__sflush_r+0xb4>
    61e4:	2300      	movs	r3, #0
    61e6:	6063      	str	r3, [r4, #4]
    61e8:	6923      	ldr	r3, [r4, #16]
    61ea:	04d1      	lsls	r1, r2, #19
    61ec:	6023      	str	r3, [r4, #0]
    61ee:	d504      	bpl.n	61fa <__sflush_r+0x96>
    61f0:	1c42      	adds	r2, r0, #1
    61f2:	d101      	bne.n	61f8 <__sflush_r+0x94>
    61f4:	682b      	ldr	r3, [r5, #0]
    61f6:	b903      	cbnz	r3, 61fa <__sflush_r+0x96>
    61f8:	6560      	str	r0, [r4, #84]	; 0x54
    61fa:	6b61      	ldr	r1, [r4, #52]	; 0x34
    61fc:	602f      	str	r7, [r5, #0]
    61fe:	2900      	cmp	r1, #0
    6200:	d0d6      	beq.n	61b0 <__sflush_r+0x4c>
    6202:	f104 0344 	add.w	r3, r4, #68	; 0x44
    6206:	4299      	cmp	r1, r3
    6208:	d002      	beq.n	6210 <__sflush_r+0xac>
    620a:	4628      	mov	r0, r5
    620c:	f000 fb54 	bl	68b8 <_free_r>
    6210:	2000      	movs	r0, #0
    6212:	6360      	str	r0, [r4, #52]	; 0x34
    6214:	e8bd 81f0 	ldmia.w	sp!, {r4, r5, r6, r7, r8, pc}
    6218:	f042 0240 	orr.w	r2, r2, #64	; 0x40
    621c:	81a2      	strh	r2, [r4, #12]
    621e:	e8bd 81f0 	ldmia.w	sp!, {r4, r5, r6, r7, r8, pc}
    6222:	690e      	ldr	r6, [r1, #16]
    6224:	2e00      	cmp	r6, #0
    6226:	d0c3      	beq.n	61b0 <__sflush_r+0x4c>
    6228:	680b      	ldr	r3, [r1, #0]
    622a:	600e      	str	r6, [r1, #0]
    622c:	ebc6 0803 	rsb	r8, r6, r3
    6230:	0793      	lsls	r3, r2, #30
    6232:	bf0c      	ite	eq
    6234:	694b      	ldreq	r3, [r1, #20]
    6236:	2300      	movne	r3, #0
    6238:	608b      	str	r3, [r1, #8]
    623a:	e012      	b.n	6262 <__sflush_r+0xfe>
    623c:	89a3      	ldrh	r3, [r4, #12]
    623e:	f04f 30ff 	mov.w	r0, #4294967295	; 0xffffffff
    6242:	f043 0340 	orr.w	r3, r3, #64	; 0x40
    6246:	81a3      	strh	r3, [r4, #12]
    6248:	e8bd 81f0 	ldmia.w	sp!, {r4, r5, r6, r7, r8, pc}
    624c:	6aa7      	ldr	r7, [r4, #40]	; 0x28
    624e:	4628      	mov	r0, r5
    6250:	6a21      	ldr	r1, [r4, #32]
    6252:	4632      	mov	r2, r6
    6254:	4643      	mov	r3, r8
    6256:	47b8      	blx	r7
    6258:	2800      	cmp	r0, #0
    625a:	ddef      	ble.n	623c <__sflush_r+0xd8>
    625c:	4406      	add	r6, r0
    625e:	ebc0 0808 	rsb	r8, r0, r8
    6262:	f1b8 0f00 	cmp.w	r8, #0
    6266:	dcf1      	bgt.n	624c <__sflush_r+0xe8>
    6268:	e7a2      	b.n	61b0 <__sflush_r+0x4c>
	...

0000626c <_fflush_r>:
    626c:	b538      	push	{r3, r4, r5, lr}
    626e:	690b      	ldr	r3, [r1, #16]
    6270:	4605      	mov	r5, r0
    6272:	460c      	mov	r4, r1
    6274:	b1db      	cbz	r3, 62ae <_fflush_r+0x42>
    6276:	b118      	cbz	r0, 6280 <_fflush_r+0x14>
    6278:	6983      	ldr	r3, [r0, #24]
    627a:	b90b      	cbnz	r3, 6280 <_fflush_r+0x14>
    627c:	f000 f8ba 	bl	63f4 <__sinit>
    6280:	4b0c      	ldr	r3, [pc, #48]	; (62b4 <_fflush_r+0x48>)
    6282:	429c      	cmp	r4, r3
    6284:	d101      	bne.n	628a <_fflush_r+0x1e>
    6286:	686c      	ldr	r4, [r5, #4]
    6288:	e008      	b.n	629c <_fflush_r+0x30>
    628a:	4b0b      	ldr	r3, [pc, #44]	; (62b8 <_fflush_r+0x4c>)
    628c:	429c      	cmp	r4, r3
    628e:	d101      	bne.n	6294 <_fflush_r+0x28>
    6290:	68ac      	ldr	r4, [r5, #8]
    6292:	e003      	b.n	629c <_fflush_r+0x30>
    6294:	4b09      	ldr	r3, [pc, #36]	; (62bc <_fflush_r+0x50>)
    6296:	429c      	cmp	r4, r3
    6298:	bf08      	it	eq
    629a:	68ec      	ldreq	r4, [r5, #12]
    629c:	f9b4 300c 	ldrsh.w	r3, [r4, #12]
    62a0:	b12b      	cbz	r3, 62ae <_fflush_r+0x42>
    62a2:	4628      	mov	r0, r5
    62a4:	4621      	mov	r1, r4
    62a6:	e8bd 4038 	ldmia.w	sp!, {r3, r4, r5, lr}
    62aa:	f7ff bf5b 	b.w	6164 <__sflush_r>
    62ae:	2000      	movs	r0, #0
    62b0:	bd38      	pop	{r3, r4, r5, pc}
    62b2:	bf00      	nop
    62b4:	0000c748 	.word	0x0000c748
    62b8:	0000c768 	.word	0x0000c768
    62bc:	0000c788 	.word	0x0000c788

000062c0 <fflush>:
    62c0:	4601      	mov	r1, r0
    62c2:	b920      	cbnz	r0, 62ce <fflush+0xe>
    62c4:	4b04      	ldr	r3, [pc, #16]	; (62d8 <fflush+0x18>)
    62c6:	4905      	ldr	r1, [pc, #20]	; (62dc <fflush+0x1c>)
    62c8:	6818      	ldr	r0, [r3, #0]
    62ca:	f000 ba35 	b.w	6738 <_fwalk_reent>
    62ce:	4b04      	ldr	r3, [pc, #16]	; (62e0 <fflush+0x20>)
    62d0:	6818      	ldr	r0, [r3, #0]
    62d2:	f7ff bfcb 	b.w	626c <_fflush_r>
    62d6:	bf00      	nop
    62d8:	0000c7ac 	.word	0x0000c7ac
    62dc:	0000626d 	.word	0x0000626d
    62e0:	100001c0 	.word	0x100001c0

000062e4 <_fgetc_r>:
    62e4:	b538      	push	{r3, r4, r5, lr}
    62e6:	460c      	mov	r4, r1
    62e8:	4605      	mov	r5, r0
    62ea:	b118      	cbz	r0, 62f4 <_fgetc_r+0x10>
    62ec:	6983      	ldr	r3, [r0, #24]
    62ee:	b90b      	cbnz	r3, 62f4 <_fgetc_r+0x10>
    62f0:	f000 f880 	bl	63f4 <__sinit>
    62f4:	4b0e      	ldr	r3, [pc, #56]	; (6330 <_fgetc_r+0x4c>)
    62f6:	429c      	cmp	r4, r3
    62f8:	d101      	bne.n	62fe <_fgetc_r+0x1a>
    62fa:	686c      	ldr	r4, [r5, #4]
    62fc:	e008      	b.n	6310 <_fgetc_r+0x2c>
    62fe:	4b0d      	ldr	r3, [pc, #52]	; (6334 <_fgetc_r+0x50>)
    6300:	429c      	cmp	r4, r3
    6302:	d101      	bne.n	6308 <_fgetc_r+0x24>
    6304:	68ac      	ldr	r4, [r5, #8]
    6306:	e003      	b.n	6310 <_fgetc_r+0x2c>
    6308:	4b0b      	ldr	r3, [pc, #44]	; (6338 <_fgetc_r+0x54>)
    630a:	429c      	cmp	r4, r3
    630c:	bf08      	it	eq
    630e:	68ec      	ldreq	r4, [r5, #12]
    6310:	6863      	ldr	r3, [r4, #4]
    6312:	3b01      	subs	r3, #1
    6314:	2b00      	cmp	r3, #0
    6316:	6063      	str	r3, [r4, #4]
    6318:	da05      	bge.n	6326 <_fgetc_r+0x42>
    631a:	4628      	mov	r0, r5
    631c:	4621      	mov	r1, r4
    631e:	e8bd 4038 	ldmia.w	sp!, {r3, r4, r5, lr}
    6322:	f000 bc3f 	b.w	6ba4 <__srget_r>
    6326:	6823      	ldr	r3, [r4, #0]
    6328:	1c5a      	adds	r2, r3, #1
    632a:	6022      	str	r2, [r4, #0]
    632c:	7818      	ldrb	r0, [r3, #0]
    632e:	bd38      	pop	{r3, r4, r5, pc}
    6330:	0000c748 	.word	0x0000c748
    6334:	0000c768 	.word	0x0000c768
    6338:	0000c788 	.word	0x0000c788

0000633c <fgetc>:
    633c:	4b02      	ldr	r3, [pc, #8]	; (6348 <fgetc+0xc>)
    633e:	4601      	mov	r1, r0
    6340:	6818      	ldr	r0, [r3, #0]
    6342:	f7ff bfcf 	b.w	62e4 <_fgetc_r>
    6346:	bf00      	nop
    6348:	100001c0 	.word	0x100001c0

0000634c <_cleanup_r>:
    634c:	b5f8      	push	{r3, r4, r5, r6, r7, lr}
    634e:	4607      	mov	r7, r0
    6350:	f100 0448 	add.w	r4, r0, #72	; 0x48
    6354:	b194      	cbz	r4, 637c <_cleanup_r+0x30>
    6356:	68a5      	ldr	r5, [r4, #8]
    6358:	6866      	ldr	r6, [r4, #4]
    635a:	3e01      	subs	r6, #1
    635c:	d40c      	bmi.n	6378 <_cleanup_r+0x2c>
    635e:	89ab      	ldrh	r3, [r5, #12]
    6360:	2b01      	cmp	r3, #1
    6362:	d907      	bls.n	6374 <_cleanup_r+0x28>
    6364:	f9b5 300e 	ldrsh.w	r3, [r5, #14]
    6368:	3301      	adds	r3, #1
    636a:	d003      	beq.n	6374 <_cleanup_r+0x28>
    636c:	4638      	mov	r0, r7
    636e:	4629      	mov	r1, r5
    6370:	f7ff ff7c 	bl	626c <_fflush_r>
    6374:	3568      	adds	r5, #104	; 0x68
    6376:	e7f0      	b.n	635a <_cleanup_r+0xe>
    6378:	6824      	ldr	r4, [r4, #0]
    637a:	e7eb      	b.n	6354 <_cleanup_r+0x8>
    637c:	bdf8      	pop	{r3, r4, r5, r6, r7, pc}
	...

00006380 <std.isra.0>:
    6380:	2300      	movs	r3, #0
    6382:	b510      	push	{r4, lr}
    6384:	4604      	mov	r4, r0
    6386:	6003      	str	r3, [r0, #0]
    6388:	6043      	str	r3, [r0, #4]
    638a:	6083      	str	r3, [r0, #8]
    638c:	8181      	strh	r1, [r0, #12]
    638e:	6643      	str	r3, [r0, #100]	; 0x64
    6390:	81c2      	strh	r2, [r0, #14]
    6392:	6103      	str	r3, [r0, #16]
    6394:	6143      	str	r3, [r0, #20]
    6396:	6183      	str	r3, [r0, #24]
    6398:	4619      	mov	r1, r3
    639a:	305c      	adds	r0, #92	; 0x5c
    639c:	2208      	movs	r2, #8
    639e:	f000 fa82 	bl	68a6 <memset>
    63a2:	4b05      	ldr	r3, [pc, #20]	; (63b8 <std.isra.0+0x38>)
    63a4:	6224      	str	r4, [r4, #32]
    63a6:	6263      	str	r3, [r4, #36]	; 0x24
    63a8:	4b04      	ldr	r3, [pc, #16]	; (63bc <std.isra.0+0x3c>)
    63aa:	62a3      	str	r3, [r4, #40]	; 0x28
    63ac:	4b04      	ldr	r3, [pc, #16]	; (63c0 <std.isra.0+0x40>)
    63ae:	62e3      	str	r3, [r4, #44]	; 0x2c
    63b0:	4b04      	ldr	r3, [pc, #16]	; (63c4 <std.isra.0+0x44>)
    63b2:	6323      	str	r3, [r4, #48]	; 0x30
    63b4:	bd10      	pop	{r4, pc}
    63b6:	bf00      	nop
    63b8:	00006dd9 	.word	0x00006dd9
    63bc:	00006dff 	.word	0x00006dff
    63c0:	00006e37 	.word	0x00006e37
    63c4:	00006e5b 	.word	0x00006e5b

000063c8 <__sfmoreglue>:
    63c8:	b570      	push	{r4, r5, r6, lr}
    63ca:	1e4b      	subs	r3, r1, #1
    63cc:	2568      	movs	r5, #104	; 0x68
    63ce:	435d      	muls	r5, r3
    63d0:	460e      	mov	r6, r1
    63d2:	f105 0174 	add.w	r1, r5, #116	; 0x74
    63d6:	f000 fab3 	bl	6940 <_malloc_r>
    63da:	4604      	mov	r4, r0
    63dc:	b140      	cbz	r0, 63f0 <__sfmoreglue+0x28>
    63de:	2100      	movs	r1, #0
    63e0:	e880 0042 	stmia.w	r0, {r1, r6}
    63e4:	300c      	adds	r0, #12
    63e6:	60a0      	str	r0, [r4, #8]
    63e8:	f105 0268 	add.w	r2, r5, #104	; 0x68
    63ec:	f000 fa5b 	bl	68a6 <memset>
    63f0:	4620      	mov	r0, r4
    63f2:	bd70      	pop	{r4, r5, r6, pc}

000063f4 <__sinit>:
    63f4:	6983      	ldr	r3, [r0, #24]
    63f6:	b510      	push	{r4, lr}
    63f8:	4604      	mov	r4, r0
    63fa:	bb33      	cbnz	r3, 644a <__sinit+0x56>
    63fc:	6483      	str	r3, [r0, #72]	; 0x48
    63fe:	64c3      	str	r3, [r0, #76]	; 0x4c
    6400:	6503      	str	r3, [r0, #80]	; 0x50
    6402:	4b12      	ldr	r3, [pc, #72]	; (644c <__sinit+0x58>)
    6404:	4a12      	ldr	r2, [pc, #72]	; (6450 <__sinit+0x5c>)
    6406:	681b      	ldr	r3, [r3, #0]
    6408:	6282      	str	r2, [r0, #40]	; 0x28
    640a:	4298      	cmp	r0, r3
    640c:	bf04      	itt	eq
    640e:	2301      	moveq	r3, #1
    6410:	6183      	streq	r3, [r0, #24]
    6412:	f000 f81f 	bl	6454 <__sfp>
    6416:	6060      	str	r0, [r4, #4]
    6418:	4620      	mov	r0, r4
    641a:	f000 f81b 	bl	6454 <__sfp>
    641e:	60a0      	str	r0, [r4, #8]
    6420:	4620      	mov	r0, r4
    6422:	f000 f817 	bl	6454 <__sfp>
    6426:	2104      	movs	r1, #4
    6428:	60e0      	str	r0, [r4, #12]
    642a:	2200      	movs	r2, #0
    642c:	6860      	ldr	r0, [r4, #4]
    642e:	f7ff ffa7 	bl	6380 <std.isra.0>
    6432:	68a0      	ldr	r0, [r4, #8]
    6434:	2109      	movs	r1, #9
    6436:	2201      	movs	r2, #1
    6438:	f7ff ffa2 	bl	6380 <std.isra.0>
    643c:	68e0      	ldr	r0, [r4, #12]
    643e:	2112      	movs	r1, #18
    6440:	2202      	movs	r2, #2
    6442:	f7ff ff9d 	bl	6380 <std.isra.0>
    6446:	2301      	movs	r3, #1
    6448:	61a3      	str	r3, [r4, #24]
    644a:	bd10      	pop	{r4, pc}
    644c:	0000c7ac 	.word	0x0000c7ac
    6450:	0000634d 	.word	0x0000634d

00006454 <__sfp>:
    6454:	b5f8      	push	{r3, r4, r5, r6, r7, lr}
    6456:	4b1b      	ldr	r3, [pc, #108]	; (64c4 <__sfp+0x70>)
    6458:	4607      	mov	r7, r0
    645a:	681e      	ldr	r6, [r3, #0]
    645c:	69b3      	ldr	r3, [r6, #24]
    645e:	b913      	cbnz	r3, 6466 <__sfp+0x12>
    6460:	4630      	mov	r0, r6
    6462:	f7ff ffc7 	bl	63f4 <__sinit>
    6466:	3648      	adds	r6, #72	; 0x48
    6468:	68b4      	ldr	r4, [r6, #8]
    646a:	6873      	ldr	r3, [r6, #4]
    646c:	3b01      	subs	r3, #1
    646e:	d404      	bmi.n	647a <__sfp+0x26>
    6470:	f9b4 500c 	ldrsh.w	r5, [r4, #12]
    6474:	b175      	cbz	r5, 6494 <__sfp+0x40>
    6476:	3468      	adds	r4, #104	; 0x68
    6478:	e7f8      	b.n	646c <__sfp+0x18>
    647a:	6833      	ldr	r3, [r6, #0]
    647c:	b92b      	cbnz	r3, 648a <__sfp+0x36>
    647e:	4638      	mov	r0, r7
    6480:	2104      	movs	r1, #4
    6482:	f7ff ffa1 	bl	63c8 <__sfmoreglue>
    6486:	6030      	str	r0, [r6, #0]
    6488:	b108      	cbz	r0, 648e <__sfp+0x3a>
    648a:	6836      	ldr	r6, [r6, #0]
    648c:	e7ec      	b.n	6468 <__sfp+0x14>
    648e:	230c      	movs	r3, #12
    6490:	603b      	str	r3, [r7, #0]
    6492:	bdf8      	pop	{r3, r4, r5, r6, r7, pc}
    6494:	f64f 73ff 	movw	r3, #65535	; 0xffff
    6498:	81e3      	strh	r3, [r4, #14]
    649a:	2301      	movs	r3, #1
    649c:	81a3      	strh	r3, [r4, #12]
    649e:	6665      	str	r5, [r4, #100]	; 0x64
    64a0:	6025      	str	r5, [r4, #0]
    64a2:	60a5      	str	r5, [r4, #8]
    64a4:	6065      	str	r5, [r4, #4]
    64a6:	6125      	str	r5, [r4, #16]
    64a8:	6165      	str	r5, [r4, #20]
    64aa:	61a5      	str	r5, [r4, #24]
    64ac:	f104 005c 	add.w	r0, r4, #92	; 0x5c
    64b0:	4629      	mov	r1, r5
    64b2:	2208      	movs	r2, #8
    64b4:	f000 f9f7 	bl	68a6 <memset>
    64b8:	6365      	str	r5, [r4, #52]	; 0x34
    64ba:	63a5      	str	r5, [r4, #56]	; 0x38
    64bc:	64a5      	str	r5, [r4, #72]	; 0x48
    64be:	64e5      	str	r5, [r4, #76]	; 0x4c
    64c0:	4620      	mov	r0, r4
    64c2:	bdf8      	pop	{r3, r4, r5, r6, r7, pc}
    64c4:	0000c7ac 	.word	0x0000c7ac

000064c8 <__sfp_lock_acquire>:
    64c8:	4770      	bx	lr

000064ca <__sfp_lock_release>:
    64ca:	4770      	bx	lr

000064cc <_fopen_r>:
    64cc:	b5f7      	push	{r0, r1, r2, r4, r5, r6, r7, lr}
    64ce:	460f      	mov	r7, r1
    64d0:	4611      	mov	r1, r2
    64d2:	aa01      	add	r2, sp, #4
    64d4:	4605      	mov	r5, r0
    64d6:	f002 fffb 	bl	94d0 <__sflags>
    64da:	4606      	mov	r6, r0
    64dc:	b908      	cbnz	r0, 64e2 <_fopen_r+0x16>
    64de:	2000      	movs	r0, #0
    64e0:	e029      	b.n	6536 <_fopen_r+0x6a>
    64e2:	4628      	mov	r0, r5
    64e4:	f7ff ffb6 	bl	6454 <__sfp>
    64e8:	4604      	mov	r4, r0
    64ea:	2800      	cmp	r0, #0
    64ec:	d0f7      	beq.n	64de <_fopen_r+0x12>
    64ee:	4628      	mov	r0, r5
    64f0:	4639      	mov	r1, r7
    64f2:	9a01      	ldr	r2, [sp, #4]
    64f4:	f44f 73db 	mov.w	r3, #438	; 0x1b6
    64f8:	f000 fa76 	bl	69e8 <_open_r>
    64fc:	2800      	cmp	r0, #0
    64fe:	da06      	bge.n	650e <_fopen_r+0x42>
    6500:	2500      	movs	r5, #0
    6502:	f7ff ffe1 	bl	64c8 <__sfp_lock_acquire>
    6506:	81a5      	strh	r5, [r4, #12]
    6508:	f7ff ffdf 	bl	64ca <__sfp_lock_release>
    650c:	e7e7      	b.n	64de <_fopen_r+0x12>
    650e:	4b0b      	ldr	r3, [pc, #44]	; (653c <_fopen_r+0x70>)
    6510:	81e0      	strh	r0, [r4, #14]
    6512:	6263      	str	r3, [r4, #36]	; 0x24
    6514:	4b0a      	ldr	r3, [pc, #40]	; (6540 <_fopen_r+0x74>)
    6516:	81a6      	strh	r6, [r4, #12]
    6518:	62a3      	str	r3, [r4, #40]	; 0x28
    651a:	4b0a      	ldr	r3, [pc, #40]	; (6544 <_fopen_r+0x78>)
    651c:	6224      	str	r4, [r4, #32]
    651e:	62e3      	str	r3, [r4, #44]	; 0x2c
    6520:	4b09      	ldr	r3, [pc, #36]	; (6548 <_fopen_r+0x7c>)
    6522:	6323      	str	r3, [r4, #48]	; 0x30
    6524:	05f3      	lsls	r3, r6, #23
    6526:	d505      	bpl.n	6534 <_fopen_r+0x68>
    6528:	4628      	mov	r0, r5
    652a:	4621      	mov	r1, r4
    652c:	2200      	movs	r2, #0
    652e:	2302      	movs	r3, #2
    6530:	f000 f856 	bl	65e0 <_fseek_r>
    6534:	4620      	mov	r0, r4
    6536:	b003      	add	sp, #12
    6538:	bdf0      	pop	{r4, r5, r6, r7, pc}
    653a:	bf00      	nop
    653c:	00006dd9 	.word	0x00006dd9
    6540:	00006dff 	.word	0x00006dff
    6544:	00006e37 	.word	0x00006e37
    6548:	00006e5b 	.word	0x00006e5b

0000654c <fopen>:
    654c:	460a      	mov	r2, r1
    654e:	4903      	ldr	r1, [pc, #12]	; (655c <fopen+0x10>)
    6550:	4603      	mov	r3, r0
    6552:	6808      	ldr	r0, [r1, #0]
    6554:	4619      	mov	r1, r3
    6556:	f7ff bfb9 	b.w	64cc <_fopen_r>
    655a:	bf00      	nop
    655c:	100001c0 	.word	0x100001c0

00006560 <fiprintf>:
    6560:	b40e      	push	{r1, r2, r3}
    6562:	b503      	push	{r0, r1, lr}
    6564:	4601      	mov	r1, r0
    6566:	ab03      	add	r3, sp, #12
    6568:	4805      	ldr	r0, [pc, #20]	; (6580 <fiprintf+0x20>)
    656a:	f853 2b04 	ldr.w	r2, [r3], #4
    656e:	6800      	ldr	r0, [r0, #0]
    6570:	9301      	str	r3, [sp, #4]
    6572:	f001 f809 	bl	7588 <_vfiprintf_r>
    6576:	b002      	add	sp, #8
    6578:	f85d eb04 	ldr.w	lr, [sp], #4
    657c:	b003      	add	sp, #12
    657e:	4770      	bx	lr
    6580:	100001c0 	.word	0x100001c0

00006584 <_fputc_r>:
    6584:	b570      	push	{r4, r5, r6, lr}
    6586:	460e      	mov	r6, r1
    6588:	4614      	mov	r4, r2
    658a:	4605      	mov	r5, r0
    658c:	b118      	cbz	r0, 6596 <_fputc_r+0x12>
    658e:	6983      	ldr	r3, [r0, #24]
    6590:	b90b      	cbnz	r3, 6596 <_fputc_r+0x12>
    6592:	f7ff ff2f 	bl	63f4 <__sinit>
    6596:	4b0a      	ldr	r3, [pc, #40]	; (65c0 <_fputc_r+0x3c>)
    6598:	429c      	cmp	r4, r3
    659a:	bf08      	it	eq
    659c:	686c      	ldreq	r4, [r5, #4]
    659e:	d008      	beq.n	65b2 <_fputc_r+0x2e>
    65a0:	4b08      	ldr	r3, [pc, #32]	; (65c4 <_fputc_r+0x40>)
    65a2:	429c      	cmp	r4, r3
    65a4:	bf08      	it	eq
    65a6:	68ac      	ldreq	r4, [r5, #8]
    65a8:	d003      	beq.n	65b2 <_fputc_r+0x2e>
    65aa:	4b07      	ldr	r3, [pc, #28]	; (65c8 <_fputc_r+0x44>)
    65ac:	429c      	cmp	r4, r3
    65ae:	bf08      	it	eq
    65b0:	68ec      	ldreq	r4, [r5, #12]
    65b2:	4628      	mov	r0, r5
    65b4:	4631      	mov	r1, r6
    65b6:	4622      	mov	r2, r4
    65b8:	e8bd 4070 	ldmia.w	sp!, {r4, r5, r6, lr}
    65bc:	f000 ba26 	b.w	6a0c <_putc_r>
    65c0:	0000c748 	.word	0x0000c748
    65c4:	0000c768 	.word	0x0000c768
    65c8:	0000c788 	.word	0x0000c788

000065cc <fputc>:
    65cc:	460a      	mov	r2, r1
    65ce:	4903      	ldr	r1, [pc, #12]	; (65dc <fputc+0x10>)
    65d0:	4603      	mov	r3, r0
    65d2:	6808      	ldr	r0, [r1, #0]
    65d4:	4619      	mov	r1, r3
    65d6:	f7ff bfd5 	b.w	6584 <_fputc_r>
    65da:	bf00      	nop
    65dc:	100001c0 	.word	0x100001c0

000065e0 <_fseek_r>:
    65e0:	f000 b800 	b.w	65e4 <_fseeko_r>

000065e4 <_fseeko_r>:
    65e4:	e92d 43f8 	stmdb	sp!, {r3, r4, r5, r6, r7, r8, r9, lr}
    65e8:	460c      	mov	r4, r1
    65ea:	4691      	mov	r9, r2
    65ec:	461e      	mov	r6, r3
    65ee:	4605      	mov	r5, r0
    65f0:	b118      	cbz	r0, 65fa <_fseeko_r+0x16>
    65f2:	6983      	ldr	r3, [r0, #24]
    65f4:	b90b      	cbnz	r3, 65fa <_fseeko_r+0x16>
    65f6:	f7ff fefd 	bl	63f4 <__sinit>
    65fa:	4b3e      	ldr	r3, [pc, #248]	; (66f4 <_fseeko_r+0x110>)
    65fc:	429c      	cmp	r4, r3
    65fe:	d101      	bne.n	6604 <_fseeko_r+0x20>
    6600:	686c      	ldr	r4, [r5, #4]
    6602:	e008      	b.n	6616 <_fseeko_r+0x32>
    6604:	4b3c      	ldr	r3, [pc, #240]	; (66f8 <_fseeko_r+0x114>)
    6606:	429c      	cmp	r4, r3
    6608:	d101      	bne.n	660e <_fseeko_r+0x2a>
    660a:	68ac      	ldr	r4, [r5, #8]
    660c:	e003      	b.n	6616 <_fseeko_r+0x32>
    660e:	4b3b      	ldr	r3, [pc, #236]	; (66fc <_fseeko_r+0x118>)
    6610:	429c      	cmp	r4, r3
    6612:	bf08      	it	eq
    6614:	68ec      	ldreq	r4, [r5, #12]
    6616:	89a3      	ldrh	r3, [r4, #12]
    6618:	f403 7384 	and.w	r3, r3, #264	; 0x108
    661c:	f5b3 7f84 	cmp.w	r3, #264	; 0x108
    6620:	d103      	bne.n	662a <_fseeko_r+0x46>
    6622:	4628      	mov	r0, r5
    6624:	4621      	mov	r1, r4
    6626:	f7ff fe21 	bl	626c <_fflush_r>
    662a:	f8d4 802c 	ldr.w	r8, [r4, #44]	; 0x2c
    662e:	231d      	movs	r3, #29
    6630:	f1b8 0f00 	cmp.w	r8, #0
    6634:	d02b      	beq.n	668e <_fseeko_r+0xaa>
    6636:	2e01      	cmp	r6, #1
    6638:	d004      	beq.n	6644 <_fseeko_r+0x60>
    663a:	2e02      	cmp	r6, #2
    663c:	d02b      	beq.n	6696 <_fseeko_r+0xb2>
    663e:	b356      	cbz	r6, 6696 <_fseeko_r+0xb2>
    6640:	2316      	movs	r3, #22
    6642:	e024      	b.n	668e <_fseeko_r+0xaa>
    6644:	4628      	mov	r0, r5
    6646:	4621      	mov	r1, r4
    6648:	f7ff fe10 	bl	626c <_fflush_r>
    664c:	89a2      	ldrh	r2, [r4, #12]
    664e:	f402 5280 	and.w	r2, r2, #4096	; 0x1000
    6652:	b292      	uxth	r2, r2
    6654:	b10a      	cbz	r2, 665a <_fseeko_r+0x76>
    6656:	6d60      	ldr	r0, [r4, #84]	; 0x54
    6658:	e005      	b.n	6666 <_fseeko_r+0x82>
    665a:	6a21      	ldr	r1, [r4, #32]
    665c:	4628      	mov	r0, r5
    665e:	4633      	mov	r3, r6
    6660:	47c0      	blx	r8
    6662:	1c41      	adds	r1, r0, #1
    6664:	d014      	beq.n	6690 <_fseeko_r+0xac>
    6666:	89a3      	ldrh	r3, [r4, #12]
    6668:	075a      	lsls	r2, r3, #29
    666a:	d506      	bpl.n	667a <_fseeko_r+0x96>
    666c:	6863      	ldr	r3, [r4, #4]
    666e:	1ac0      	subs	r0, r0, r3
    6670:	6b63      	ldr	r3, [r4, #52]	; 0x34
    6672:	b14b      	cbz	r3, 6688 <_fseeko_r+0xa4>
    6674:	6c23      	ldr	r3, [r4, #64]	; 0x40
    6676:	1ac0      	subs	r0, r0, r3
    6678:	e006      	b.n	6688 <_fseeko_r+0xa4>
    667a:	071b      	lsls	r3, r3, #28
    667c:	d504      	bpl.n	6688 <_fseeko_r+0xa4>
    667e:	6823      	ldr	r3, [r4, #0]
    6680:	b113      	cbz	r3, 6688 <_fseeko_r+0xa4>
    6682:	6922      	ldr	r2, [r4, #16]
    6684:	1a9b      	subs	r3, r3, r2
    6686:	4418      	add	r0, r3
    6688:	4481      	add	r9, r0
    668a:	2600      	movs	r6, #0
    668c:	e003      	b.n	6696 <_fseeko_r+0xb2>
    668e:	602b      	str	r3, [r5, #0]
    6690:	f04f 37ff 	mov.w	r7, #4294967295	; 0xffffffff
    6694:	e02b      	b.n	66ee <_fseeko_r+0x10a>
    6696:	6923      	ldr	r3, [r4, #16]
    6698:	b91b      	cbnz	r3, 66a2 <_fseeko_r+0xbe>
    669a:	4628      	mov	r0, r5
    669c:	4621      	mov	r1, r4
    669e:	f000 f88f 	bl	67c0 <__smakebuf_r>
    66a2:	4628      	mov	r0, r5
    66a4:	4621      	mov	r1, r4
    66a6:	f7ff fde1 	bl	626c <_fflush_r>
    66aa:	4607      	mov	r7, r0
    66ac:	2800      	cmp	r0, #0
    66ae:	d1ef      	bne.n	6690 <_fseeko_r+0xac>
    66b0:	4628      	mov	r0, r5
    66b2:	6a21      	ldr	r1, [r4, #32]
    66b4:	464a      	mov	r2, r9
    66b6:	4633      	mov	r3, r6
    66b8:	47c0      	blx	r8
    66ba:	3001      	adds	r0, #1
    66bc:	d0e8      	beq.n	6690 <_fseeko_r+0xac>
    66be:	6b61      	ldr	r1, [r4, #52]	; 0x34
    66c0:	b141      	cbz	r1, 66d4 <_fseeko_r+0xf0>
    66c2:	f104 0344 	add.w	r3, r4, #68	; 0x44
    66c6:	4299      	cmp	r1, r3
    66c8:	d002      	beq.n	66d0 <_fseeko_r+0xec>
    66ca:	4628      	mov	r0, r5
    66cc:	f000 f8f4 	bl	68b8 <_free_r>
    66d0:	2300      	movs	r3, #0
    66d2:	6363      	str	r3, [r4, #52]	; 0x34
    66d4:	6923      	ldr	r3, [r4, #16]
    66d6:	2100      	movs	r1, #0
    66d8:	6023      	str	r3, [r4, #0]
    66da:	89a3      	ldrh	r3, [r4, #12]
    66dc:	6061      	str	r1, [r4, #4]
    66de:	f423 6302 	bic.w	r3, r3, #2080	; 0x820
    66e2:	81a3      	strh	r3, [r4, #12]
    66e4:	f104 005c 	add.w	r0, r4, #92	; 0x5c
    66e8:	2208      	movs	r2, #8
    66ea:	f000 f8dc 	bl	68a6 <memset>
    66ee:	4638      	mov	r0, r7
    66f0:	e8bd 83f8 	ldmia.w	sp!, {r3, r4, r5, r6, r7, r8, r9, pc}
    66f4:	0000c748 	.word	0x0000c748
    66f8:	0000c768 	.word	0x0000c768
    66fc:	0000c788 	.word	0x0000c788

00006700 <_fwalk>:
    6700:	e92d 41f0 	stmdb	sp!, {r4, r5, r6, r7, r8, lr}
    6704:	4688      	mov	r8, r1
    6706:	f100 0448 	add.w	r4, r0, #72	; 0x48
    670a:	2600      	movs	r6, #0
    670c:	b18c      	cbz	r4, 6732 <_fwalk+0x32>
    670e:	68a5      	ldr	r5, [r4, #8]
    6710:	6867      	ldr	r7, [r4, #4]
    6712:	3f01      	subs	r7, #1
    6714:	d40b      	bmi.n	672e <_fwalk+0x2e>
    6716:	89ab      	ldrh	r3, [r5, #12]
    6718:	2b01      	cmp	r3, #1
    671a:	d906      	bls.n	672a <_fwalk+0x2a>
    671c:	f9b5 300e 	ldrsh.w	r3, [r5, #14]
    6720:	3301      	adds	r3, #1
    6722:	d002      	beq.n	672a <_fwalk+0x2a>
    6724:	4628      	mov	r0, r5
    6726:	47c0      	blx	r8
    6728:	4306      	orrs	r6, r0
    672a:	3568      	adds	r5, #104	; 0x68
    672c:	e7f1      	b.n	6712 <_fwalk+0x12>
    672e:	6824      	ldr	r4, [r4, #0]
    6730:	e7ec      	b.n	670c <_fwalk+0xc>
    6732:	4630      	mov	r0, r6
    6734:	e8bd 81f0 	ldmia.w	sp!, {r4, r5, r6, r7, r8, pc}

00006738 <_fwalk_reent>:
    6738:	e92d 43f8 	stmdb	sp!, {r3, r4, r5, r6, r7, r8, r9, lr}
    673c:	4680      	mov	r8, r0
    673e:	4689      	mov	r9, r1
    6740:	f100 0448 	add.w	r4, r0, #72	; 0x48
    6744:	2600      	movs	r6, #0
    6746:	b194      	cbz	r4, 676e <_fwalk_reent+0x36>
    6748:	68a5      	ldr	r5, [r4, #8]
    674a:	6867      	ldr	r7, [r4, #4]
    674c:	3f01      	subs	r7, #1
    674e:	d40c      	bmi.n	676a <_fwalk_reent+0x32>
    6750:	89ab      	ldrh	r3, [r5, #12]
    6752:	2b01      	cmp	r3, #1
    6754:	d907      	bls.n	6766 <_fwalk_reent+0x2e>
    6756:	f9b5 300e 	ldrsh.w	r3, [r5, #14]
    675a:	3301      	adds	r3, #1
    675c:	d003      	beq.n	6766 <_fwalk_reent+0x2e>
    675e:	4640      	mov	r0, r8
    6760:	4629      	mov	r1, r5
    6762:	47c8      	blx	r9
    6764:	4306      	orrs	r6, r0
    6766:	3568      	adds	r5, #104	; 0x68
    6768:	e7f0      	b.n	674c <_fwalk_reent+0x14>
    676a:	6824      	ldr	r4, [r4, #0]
    676c:	e7eb      	b.n	6746 <_fwalk_reent+0xe>
    676e:	4630      	mov	r0, r6
    6770:	e8bd 83f8 	ldmia.w	sp!, {r3, r4, r5, r6, r7, r8, r9, pc}

00006774 <__libc_init_array>:
    6774:	b570      	push	{r4, r5, r6, lr}
    6776:	4b0e      	ldr	r3, [pc, #56]	; (67b0 <__libc_init_array+0x3c>)
    6778:	4d0e      	ldr	r5, [pc, #56]	; (67b4 <__libc_init_array+0x40>)
    677a:	2400      	movs	r4, #0
    677c:	1aed      	subs	r5, r5, r3
    677e:	10ad      	asrs	r5, r5, #2
    6780:	461e      	mov	r6, r3
    6782:	42ac      	cmp	r4, r5
    6784:	d004      	beq.n	6790 <__libc_init_array+0x1c>
    6786:	f856 2024 	ldr.w	r2, [r6, r4, lsl #2]
    678a:	4790      	blx	r2
    678c:	3401      	adds	r4, #1
    678e:	e7f8      	b.n	6782 <__libc_init_array+0xe>
    6790:	f004 fe7c 	bl	b48c <_init>
    6794:	4d08      	ldr	r5, [pc, #32]	; (67b8 <__libc_init_array+0x44>)
    6796:	4b09      	ldr	r3, [pc, #36]	; (67bc <__libc_init_array+0x48>)
    6798:	2400      	movs	r4, #0
    679a:	1aed      	subs	r5, r5, r3
    679c:	10ad      	asrs	r5, r5, #2
    679e:	461e      	mov	r6, r3
    67a0:	42ac      	cmp	r4, r5
    67a2:	d004      	beq.n	67ae <__libc_init_array+0x3a>
    67a4:	f856 2024 	ldr.w	r2, [r6, r4, lsl #2]
    67a8:	4790      	blx	r2
    67aa:	3401      	adds	r4, #1
    67ac:	e7f8      	b.n	67a0 <__libc_init_array+0x2c>
    67ae:	bd70      	pop	{r4, r5, r6, pc}
    67b0:	10000200 	.word	0x10000200
    67b4:	10000200 	.word	0x10000200
    67b8:	10000208 	.word	0x10000208
    67bc:	10000200 	.word	0x10000200

000067c0 <__smakebuf_r>:
    67c0:	b5f0      	push	{r4, r5, r6, r7, lr}
    67c2:	898b      	ldrh	r3, [r1, #12]
    67c4:	b091      	sub	sp, #68	; 0x44
    67c6:	079e      	lsls	r6, r3, #30
    67c8:	4605      	mov	r5, r0
    67ca:	460c      	mov	r4, r1
    67cc:	d425      	bmi.n	681a <__smakebuf_r+0x5a>
    67ce:	f9b1 100e 	ldrsh.w	r1, [r1, #14]
    67d2:	2900      	cmp	r1, #0
    67d4:	da08      	bge.n	67e8 <__smakebuf_r+0x28>
    67d6:	89a3      	ldrh	r3, [r4, #12]
    67d8:	2700      	movs	r7, #0
    67da:	f013 0f80 	tst.w	r3, #128	; 0x80
    67de:	bf14      	ite	ne
    67e0:	2640      	movne	r6, #64	; 0x40
    67e2:	f44f 6680 	moveq.w	r6, #1024	; 0x400
    67e6:	e00d      	b.n	6804 <__smakebuf_r+0x44>
    67e8:	aa01      	add	r2, sp, #4
    67ea:	f002 fea9 	bl	9540 <_fstat_r>
    67ee:	2800      	cmp	r0, #0
    67f0:	dbf1      	blt.n	67d6 <__smakebuf_r+0x16>
    67f2:	9f02      	ldr	r7, [sp, #8]
    67f4:	f44f 6680 	mov.w	r6, #1024	; 0x400
    67f8:	f407 4770 	and.w	r7, r7, #61440	; 0xf000
    67fc:	f5b7 5100 	subs.w	r1, r7, #8192	; 0x2000
    6800:	424f      	negs	r7, r1
    6802:	414f      	adcs	r7, r1
    6804:	4628      	mov	r0, r5
    6806:	4631      	mov	r1, r6
    6808:	f000 f89a 	bl	6940 <_malloc_r>
    680c:	b960      	cbnz	r0, 6828 <__smakebuf_r+0x68>
    680e:	89a3      	ldrh	r3, [r4, #12]
    6810:	059a      	lsls	r2, r3, #22
    6812:	d41d      	bmi.n	6850 <__smakebuf_r+0x90>
    6814:	f043 0302 	orr.w	r3, r3, #2
    6818:	81a3      	strh	r3, [r4, #12]
    681a:	f104 0347 	add.w	r3, r4, #71	; 0x47
    681e:	6023      	str	r3, [r4, #0]
    6820:	6123      	str	r3, [r4, #16]
    6822:	2301      	movs	r3, #1
    6824:	6163      	str	r3, [r4, #20]
    6826:	e013      	b.n	6850 <__smakebuf_r+0x90>
    6828:	4b0a      	ldr	r3, [pc, #40]	; (6854 <__smakebuf_r+0x94>)
    682a:	62ab      	str	r3, [r5, #40]	; 0x28
    682c:	89a3      	ldrh	r3, [r4, #12]
    682e:	6020      	str	r0, [r4, #0]
    6830:	f043 0380 	orr.w	r3, r3, #128	; 0x80
    6834:	81a3      	strh	r3, [r4, #12]
    6836:	6120      	str	r0, [r4, #16]
    6838:	6166      	str	r6, [r4, #20]
    683a:	b14f      	cbz	r7, 6850 <__smakebuf_r+0x90>
    683c:	4628      	mov	r0, r5
    683e:	f9b4 100e 	ldrsh.w	r1, [r4, #14]
    6842:	f002 fe8f 	bl	9564 <_isatty_r>
    6846:	b118      	cbz	r0, 6850 <__smakebuf_r+0x90>
    6848:	89a3      	ldrh	r3, [r4, #12]
    684a:	f043 0301 	orr.w	r3, r3, #1
    684e:	81a3      	strh	r3, [r4, #12]
    6850:	b011      	add	sp, #68	; 0x44
    6852:	bdf0      	pop	{r4, r5, r6, r7, pc}
    6854:	0000634d 	.word	0x0000634d

00006858 <malloc>:
    6858:	4b02      	ldr	r3, [pc, #8]	; (6864 <malloc+0xc>)
    685a:	4601      	mov	r1, r0
    685c:	6818      	ldr	r0, [r3, #0]
    685e:	f000 b86f 	b.w	6940 <_malloc_r>
    6862:	bf00      	nop
    6864:	100001c0 	.word	0x100001c0

00006868 <free>:
    6868:	4b02      	ldr	r3, [pc, #8]	; (6874 <free+0xc>)
    686a:	4601      	mov	r1, r0
    686c:	6818      	ldr	r0, [r3, #0]
    686e:	f000 b823 	b.w	68b8 <_free_r>
    6872:	bf00      	nop
    6874:	100001c0 	.word	0x100001c0

00006878 <memchr>:
    6878:	b510      	push	{r4, lr}
    687a:	b2c9      	uxtb	r1, r1
    687c:	4402      	add	r2, r0
    687e:	4290      	cmp	r0, r2
    6880:	4603      	mov	r3, r0
    6882:	d005      	beq.n	6890 <memchr+0x18>
    6884:	781c      	ldrb	r4, [r3, #0]
    6886:	3001      	adds	r0, #1
    6888:	428c      	cmp	r4, r1
    688a:	d1f8      	bne.n	687e <memchr+0x6>
    688c:	4618      	mov	r0, r3
    688e:	bd10      	pop	{r4, pc}
    6890:	2000      	movs	r0, #0
    6892:	bd10      	pop	{r4, pc}

00006894 <memcpy>:
    6894:	b510      	push	{r4, lr}
    6896:	2300      	movs	r3, #0
    6898:	4293      	cmp	r3, r2
    689a:	d003      	beq.n	68a4 <memcpy+0x10>
    689c:	5ccc      	ldrb	r4, [r1, r3]
    689e:	54c4      	strb	r4, [r0, r3]
    68a0:	3301      	adds	r3, #1
    68a2:	e7f9      	b.n	6898 <memcpy+0x4>
    68a4:	bd10      	pop	{r4, pc}

000068a6 <memset>:
    68a6:	4402      	add	r2, r0
    68a8:	4603      	mov	r3, r0
    68aa:	4293      	cmp	r3, r2
    68ac:	d002      	beq.n	68b4 <memset+0xe>
    68ae:	f803 1b01 	strb.w	r1, [r3], #1
    68b2:	e7fa      	b.n	68aa <memset+0x4>
    68b4:	4770      	bx	lr
	...

000068b8 <_free_r>:
    68b8:	b530      	push	{r4, r5, lr}
    68ba:	2900      	cmp	r1, #0
    68bc:	d03c      	beq.n	6938 <_free_r+0x80>
    68be:	f851 2c04 	ldr.w	r2, [r1, #-4]
    68c2:	1f0b      	subs	r3, r1, #4
    68c4:	491d      	ldr	r1, [pc, #116]	; (693c <_free_r+0x84>)
    68c6:	2a00      	cmp	r2, #0
    68c8:	bfb8      	it	lt
    68ca:	189b      	addlt	r3, r3, r2
    68cc:	680a      	ldr	r2, [r1, #0]
    68ce:	460c      	mov	r4, r1
    68d0:	b912      	cbnz	r2, 68d8 <_free_r+0x20>
    68d2:	605a      	str	r2, [r3, #4]
    68d4:	600b      	str	r3, [r1, #0]
    68d6:	bd30      	pop	{r4, r5, pc}
    68d8:	4293      	cmp	r3, r2
    68da:	d20d      	bcs.n	68f8 <_free_r+0x40>
    68dc:	6819      	ldr	r1, [r3, #0]
    68de:	1858      	adds	r0, r3, r1
    68e0:	4290      	cmp	r0, r2
    68e2:	d103      	bne.n	68ec <_free_r+0x34>
    68e4:	585a      	ldr	r2, [r3, r1]
    68e6:	4411      	add	r1, r2
    68e8:	6842      	ldr	r2, [r0, #4]
    68ea:	6019      	str	r1, [r3, #0]
    68ec:	605a      	str	r2, [r3, #4]
    68ee:	6023      	str	r3, [r4, #0]
    68f0:	bd30      	pop	{r4, r5, pc}
    68f2:	4299      	cmp	r1, r3
    68f4:	d803      	bhi.n	68fe <_free_r+0x46>
    68f6:	460a      	mov	r2, r1
    68f8:	6851      	ldr	r1, [r2, #4]
    68fa:	2900      	cmp	r1, #0
    68fc:	d1f9      	bne.n	68f2 <_free_r+0x3a>
    68fe:	6814      	ldr	r4, [r2, #0]
    6900:	1915      	adds	r5, r2, r4
    6902:	429d      	cmp	r5, r3
    6904:	d10a      	bne.n	691c <_free_r+0x64>
    6906:	681b      	ldr	r3, [r3, #0]
    6908:	4423      	add	r3, r4
    690a:	18d0      	adds	r0, r2, r3
    690c:	4288      	cmp	r0, r1
    690e:	6013      	str	r3, [r2, #0]
    6910:	d112      	bne.n	6938 <_free_r+0x80>
    6912:	6808      	ldr	r0, [r1, #0]
    6914:	4403      	add	r3, r0
    6916:	6013      	str	r3, [r2, #0]
    6918:	684b      	ldr	r3, [r1, #4]
    691a:	e00c      	b.n	6936 <_free_r+0x7e>
    691c:	d902      	bls.n	6924 <_free_r+0x6c>
    691e:	230c      	movs	r3, #12
    6920:	6003      	str	r3, [r0, #0]
    6922:	bd30      	pop	{r4, r5, pc}
    6924:	6818      	ldr	r0, [r3, #0]
    6926:	181c      	adds	r4, r3, r0
    6928:	428c      	cmp	r4, r1
    692a:	d103      	bne.n	6934 <_free_r+0x7c>
    692c:	680c      	ldr	r4, [r1, #0]
    692e:	6849      	ldr	r1, [r1, #4]
    6930:	4420      	add	r0, r4
    6932:	6018      	str	r0, [r3, #0]
    6934:	6059      	str	r1, [r3, #4]
    6936:	6053      	str	r3, [r2, #4]
    6938:	bd30      	pop	{r4, r5, pc}
    693a:	bf00      	nop
    693c:	1000071c 	.word	0x1000071c

00006940 <_malloc_r>:
    6940:	b570      	push	{r4, r5, r6, lr}
    6942:	1ccd      	adds	r5, r1, #3
    6944:	f025 0503 	bic.w	r5, r5, #3
    6948:	3508      	adds	r5, #8
    694a:	2d0c      	cmp	r5, #12
    694c:	bf38      	it	cc
    694e:	250c      	movcc	r5, #12
    6950:	2d00      	cmp	r5, #0
    6952:	4606      	mov	r6, r0
    6954:	db3f      	blt.n	69d6 <_malloc_r+0x96>
    6956:	428d      	cmp	r5, r1
    6958:	d33d      	bcc.n	69d6 <_malloc_r+0x96>
    695a:	4b21      	ldr	r3, [pc, #132]	; (69e0 <_malloc_r+0xa0>)
    695c:	681c      	ldr	r4, [r3, #0]
    695e:	4618      	mov	r0, r3
    6960:	4621      	mov	r1, r4
    6962:	b1a1      	cbz	r1, 698e <_malloc_r+0x4e>
    6964:	680b      	ldr	r3, [r1, #0]
    6966:	1b5b      	subs	r3, r3, r5
    6968:	d40e      	bmi.n	6988 <_malloc_r+0x48>
    696a:	2b0b      	cmp	r3, #11
    696c:	d903      	bls.n	6976 <_malloc_r+0x36>
    696e:	600b      	str	r3, [r1, #0]
    6970:	18cc      	adds	r4, r1, r3
    6972:	50cd      	str	r5, [r1, r3]
    6974:	e01f      	b.n	69b6 <_malloc_r+0x76>
    6976:	428c      	cmp	r4, r1
    6978:	d102      	bne.n	6980 <_malloc_r+0x40>
    697a:	6862      	ldr	r2, [r4, #4]
    697c:	6002      	str	r2, [r0, #0]
    697e:	e01a      	b.n	69b6 <_malloc_r+0x76>
    6980:	684b      	ldr	r3, [r1, #4]
    6982:	6063      	str	r3, [r4, #4]
    6984:	460c      	mov	r4, r1
    6986:	e016      	b.n	69b6 <_malloc_r+0x76>
    6988:	460c      	mov	r4, r1
    698a:	6849      	ldr	r1, [r1, #4]
    698c:	e7e9      	b.n	6962 <_malloc_r+0x22>
    698e:	4c15      	ldr	r4, [pc, #84]	; (69e4 <_malloc_r+0xa4>)
    6990:	6823      	ldr	r3, [r4, #0]
    6992:	b91b      	cbnz	r3, 699c <_malloc_r+0x5c>
    6994:	4630      	mov	r0, r6
    6996:	f000 f931 	bl	6bfc <_sbrk_r>
    699a:	6020      	str	r0, [r4, #0]
    699c:	4629      	mov	r1, r5
    699e:	4630      	mov	r0, r6
    69a0:	f000 f92c 	bl	6bfc <_sbrk_r>
    69a4:	1c43      	adds	r3, r0, #1
    69a6:	4601      	mov	r1, r0
    69a8:	d015      	beq.n	69d6 <_malloc_r+0x96>
    69aa:	1cc4      	adds	r4, r0, #3
    69ac:	f024 0403 	bic.w	r4, r4, #3
    69b0:	4284      	cmp	r4, r0
    69b2:	d10a      	bne.n	69ca <_malloc_r+0x8a>
    69b4:	6025      	str	r5, [r4, #0]
    69b6:	f104 000b 	add.w	r0, r4, #11
    69ba:	1d23      	adds	r3, r4, #4
    69bc:	f020 0007 	bic.w	r0, r0, #7
    69c0:	1ac3      	subs	r3, r0, r3
    69c2:	d00b      	beq.n	69dc <_malloc_r+0x9c>
    69c4:	425a      	negs	r2, r3
    69c6:	50e2      	str	r2, [r4, r3]
    69c8:	bd70      	pop	{r4, r5, r6, pc}
    69ca:	4630      	mov	r0, r6
    69cc:	1a61      	subs	r1, r4, r1
    69ce:	f000 f915 	bl	6bfc <_sbrk_r>
    69d2:	3001      	adds	r0, #1
    69d4:	d1ee      	bne.n	69b4 <_malloc_r+0x74>
    69d6:	230c      	movs	r3, #12
    69d8:	6033      	str	r3, [r6, #0]
    69da:	2000      	movs	r0, #0
    69dc:	bd70      	pop	{r4, r5, r6, pc}
    69de:	bf00      	nop
    69e0:	1000071c 	.word	0x1000071c
    69e4:	10000718 	.word	0x10000718

000069e8 <_open_r>:
    69e8:	b538      	push	{r3, r4, r5, lr}
    69ea:	4c07      	ldr	r4, [pc, #28]	; (6a08 <_open_r+0x20>)
    69ec:	4605      	mov	r5, r0
    69ee:	2000      	movs	r0, #0
    69f0:	6020      	str	r0, [r4, #0]
    69f2:	4608      	mov	r0, r1
    69f4:	4611      	mov	r1, r2
    69f6:	461a      	mov	r2, r3
    69f8:	f7fd f91c 	bl	3c34 <_open>
    69fc:	1c43      	adds	r3, r0, #1
    69fe:	d102      	bne.n	6a06 <_open_r+0x1e>
    6a00:	6823      	ldr	r3, [r4, #0]
    6a02:	b103      	cbz	r3, 6a06 <_open_r+0x1e>
    6a04:	602b      	str	r3, [r5, #0]
    6a06:	bd38      	pop	{r3, r4, r5, pc}
    6a08:	10000a38 	.word	0x10000a38

00006a0c <_putc_r>:
    6a0c:	b570      	push	{r4, r5, r6, lr}
    6a0e:	460e      	mov	r6, r1
    6a10:	4614      	mov	r4, r2
    6a12:	4605      	mov	r5, r0
    6a14:	b118      	cbz	r0, 6a1e <_putc_r+0x12>
    6a16:	6983      	ldr	r3, [r0, #24]
    6a18:	b90b      	cbnz	r3, 6a1e <_putc_r+0x12>
    6a1a:	f7ff fceb 	bl	63f4 <__sinit>
    6a1e:	4b16      	ldr	r3, [pc, #88]	; (6a78 <_putc_r+0x6c>)
    6a20:	429c      	cmp	r4, r3
    6a22:	d101      	bne.n	6a28 <_putc_r+0x1c>
    6a24:	686c      	ldr	r4, [r5, #4]
    6a26:	e008      	b.n	6a3a <_putc_r+0x2e>
    6a28:	4b14      	ldr	r3, [pc, #80]	; (6a7c <_putc_r+0x70>)
    6a2a:	429c      	cmp	r4, r3
    6a2c:	d101      	bne.n	6a32 <_putc_r+0x26>
    6a2e:	68ac      	ldr	r4, [r5, #8]
    6a30:	e003      	b.n	6a3a <_putc_r+0x2e>
    6a32:	4b13      	ldr	r3, [pc, #76]	; (6a80 <_putc_r+0x74>)
    6a34:	429c      	cmp	r4, r3
    6a36:	bf08      	it	eq
    6a38:	68ec      	ldreq	r4, [r5, #12]
    6a3a:	68a3      	ldr	r3, [r4, #8]
    6a3c:	3b01      	subs	r3, #1
    6a3e:	2b00      	cmp	r3, #0
    6a40:	60a3      	str	r3, [r4, #8]
    6a42:	da11      	bge.n	6a68 <_putc_r+0x5c>
    6a44:	69a2      	ldr	r2, [r4, #24]
    6a46:	4293      	cmp	r3, r2
    6a48:	db07      	blt.n	6a5a <_putc_r+0x4e>
    6a4a:	6823      	ldr	r3, [r4, #0]
    6a4c:	701e      	strb	r6, [r3, #0]
    6a4e:	6823      	ldr	r3, [r4, #0]
    6a50:	7819      	ldrb	r1, [r3, #0]
    6a52:	290a      	cmp	r1, #10
    6a54:	d10b      	bne.n	6a6e <_putc_r+0x62>
    6a56:	4628      	mov	r0, r5
    6a58:	e001      	b.n	6a5e <_putc_r+0x52>
    6a5a:	4628      	mov	r0, r5
    6a5c:	4631      	mov	r1, r6
    6a5e:	4622      	mov	r2, r4
    6a60:	e8bd 4070 	ldmia.w	sp!, {r4, r5, r6, lr}
    6a64:	f001 bdfe 	b.w	8664 <__swbuf_r>
    6a68:	6823      	ldr	r3, [r4, #0]
    6a6a:	701e      	strb	r6, [r3, #0]
    6a6c:	6823      	ldr	r3, [r4, #0]
    6a6e:	1c5a      	adds	r2, r3, #1
    6a70:	6022      	str	r2, [r4, #0]
    6a72:	7818      	ldrb	r0, [r3, #0]
    6a74:	bd70      	pop	{r4, r5, r6, pc}
    6a76:	bf00      	nop
    6a78:	0000c748 	.word	0x0000c748
    6a7c:	0000c768 	.word	0x0000c768
    6a80:	0000c788 	.word	0x0000c788

00006a84 <lflush>:
    6a84:	8983      	ldrh	r3, [r0, #12]
    6a86:	f003 0309 	and.w	r3, r3, #9
    6a8a:	2b09      	cmp	r3, #9
    6a8c:	d101      	bne.n	6a92 <lflush+0xe>
    6a8e:	f7ff bc17 	b.w	62c0 <fflush>
    6a92:	2000      	movs	r0, #0
    6a94:	4770      	bx	lr
	...

00006a98 <__srefill_r>:
    6a98:	b5f8      	push	{r3, r4, r5, r6, r7, lr}
    6a9a:	460c      	mov	r4, r1
    6a9c:	4605      	mov	r5, r0
    6a9e:	b118      	cbz	r0, 6aa8 <__srefill_r+0x10>
    6aa0:	6983      	ldr	r3, [r0, #24]
    6aa2:	b90b      	cbnz	r3, 6aa8 <__srefill_r+0x10>
    6aa4:	f7ff fca6 	bl	63f4 <__sinit>
    6aa8:	4b39      	ldr	r3, [pc, #228]	; (6b90 <__srefill_r+0xf8>)
    6aaa:	429c      	cmp	r4, r3
    6aac:	d101      	bne.n	6ab2 <__srefill_r+0x1a>
    6aae:	686c      	ldr	r4, [r5, #4]
    6ab0:	e008      	b.n	6ac4 <__srefill_r+0x2c>
    6ab2:	4b38      	ldr	r3, [pc, #224]	; (6b94 <__srefill_r+0xfc>)
    6ab4:	429c      	cmp	r4, r3
    6ab6:	d101      	bne.n	6abc <__srefill_r+0x24>
    6ab8:	68ac      	ldr	r4, [r5, #8]
    6aba:	e003      	b.n	6ac4 <__srefill_r+0x2c>
    6abc:	4b36      	ldr	r3, [pc, #216]	; (6b98 <__srefill_r+0x100>)
    6abe:	429c      	cmp	r4, r3
    6ac0:	bf08      	it	eq
    6ac2:	68ec      	ldreq	r4, [r5, #12]
    6ac4:	89a2      	ldrh	r2, [r4, #12]
    6ac6:	2300      	movs	r3, #0
    6ac8:	6063      	str	r3, [r4, #4]
    6aca:	b293      	uxth	r3, r2
    6acc:	069e      	lsls	r6, r3, #26
    6ace:	d45a      	bmi.n	6b86 <__srefill_r+0xee>
    6ad0:	0758      	lsls	r0, r3, #29
    6ad2:	d41a      	bmi.n	6b0a <__srefill_r+0x72>
    6ad4:	06d9      	lsls	r1, r3, #27
    6ad6:	d405      	bmi.n	6ae4 <__srefill_r+0x4c>
    6ad8:	2309      	movs	r3, #9
    6ada:	f042 0240 	orr.w	r2, r2, #64	; 0x40
    6ade:	602b      	str	r3, [r5, #0]
    6ae0:	81a2      	strh	r2, [r4, #12]
    6ae2:	e050      	b.n	6b86 <__srefill_r+0xee>
    6ae4:	071a      	lsls	r2, r3, #28
    6ae6:	d50b      	bpl.n	6b00 <__srefill_r+0x68>
    6ae8:	4628      	mov	r0, r5
    6aea:	4621      	mov	r1, r4
    6aec:	f7ff fbbe 	bl	626c <_fflush_r>
    6af0:	2800      	cmp	r0, #0
    6af2:	d148      	bne.n	6b86 <__srefill_r+0xee>
    6af4:	89a3      	ldrh	r3, [r4, #12]
    6af6:	60a0      	str	r0, [r4, #8]
    6af8:	f023 0308 	bic.w	r3, r3, #8
    6afc:	81a3      	strh	r3, [r4, #12]
    6afe:	61a0      	str	r0, [r4, #24]
    6b00:	89a3      	ldrh	r3, [r4, #12]
    6b02:	f043 0304 	orr.w	r3, r3, #4
    6b06:	81a3      	strh	r3, [r4, #12]
    6b08:	e010      	b.n	6b2c <__srefill_r+0x94>
    6b0a:	6b61      	ldr	r1, [r4, #52]	; 0x34
    6b0c:	b171      	cbz	r1, 6b2c <__srefill_r+0x94>
    6b0e:	f104 0344 	add.w	r3, r4, #68	; 0x44
    6b12:	4299      	cmp	r1, r3
    6b14:	d002      	beq.n	6b1c <__srefill_r+0x84>
    6b16:	4628      	mov	r0, r5
    6b18:	f7ff fece 	bl	68b8 <_free_r>
    6b1c:	6c23      	ldr	r3, [r4, #64]	; 0x40
    6b1e:	2000      	movs	r0, #0
    6b20:	6360      	str	r0, [r4, #52]	; 0x34
    6b22:	6063      	str	r3, [r4, #4]
    6b24:	b113      	cbz	r3, 6b2c <__srefill_r+0x94>
    6b26:	6be3      	ldr	r3, [r4, #60]	; 0x3c
    6b28:	6023      	str	r3, [r4, #0]
    6b2a:	bdf8      	pop	{r3, r4, r5, r6, r7, pc}
    6b2c:	6923      	ldr	r3, [r4, #16]
    6b2e:	b91b      	cbnz	r3, 6b38 <__srefill_r+0xa0>
    6b30:	4628      	mov	r0, r5
    6b32:	4621      	mov	r1, r4
    6b34:	f7ff fe44 	bl	67c0 <__smakebuf_r>
    6b38:	89a7      	ldrh	r7, [r4, #12]
    6b3a:	b2be      	uxth	r6, r7
    6b3c:	07b3      	lsls	r3, r6, #30
    6b3e:	d00f      	beq.n	6b60 <__srefill_r+0xc8>
    6b40:	2301      	movs	r3, #1
    6b42:	81a3      	strh	r3, [r4, #12]
    6b44:	4b15      	ldr	r3, [pc, #84]	; (6b9c <__srefill_r+0x104>)
    6b46:	4916      	ldr	r1, [pc, #88]	; (6ba0 <__srefill_r+0x108>)
    6b48:	6818      	ldr	r0, [r3, #0]
    6b4a:	f006 0609 	and.w	r6, r6, #9
    6b4e:	f7ff fdd7 	bl	6700 <_fwalk>
    6b52:	2e09      	cmp	r6, #9
    6b54:	81a7      	strh	r7, [r4, #12]
    6b56:	d103      	bne.n	6b60 <__srefill_r+0xc8>
    6b58:	4628      	mov	r0, r5
    6b5a:	4621      	mov	r1, r4
    6b5c:	f7ff fb02 	bl	6164 <__sflush_r>
    6b60:	6922      	ldr	r2, [r4, #16]
    6b62:	6a66      	ldr	r6, [r4, #36]	; 0x24
    6b64:	6022      	str	r2, [r4, #0]
    6b66:	4628      	mov	r0, r5
    6b68:	6a21      	ldr	r1, [r4, #32]
    6b6a:	6963      	ldr	r3, [r4, #20]
    6b6c:	47b0      	blx	r6
    6b6e:	2800      	cmp	r0, #0
    6b70:	6060      	str	r0, [r4, #4]
    6b72:	dc0b      	bgt.n	6b8c <__srefill_r+0xf4>
    6b74:	89a3      	ldrh	r3, [r4, #12]
    6b76:	bf17      	itett	ne
    6b78:	2200      	movne	r2, #0
    6b7a:	f043 0320 	orreq.w	r3, r3, #32
    6b7e:	f043 0340 	orrne.w	r3, r3, #64	; 0x40
    6b82:	6062      	strne	r2, [r4, #4]
    6b84:	81a3      	strh	r3, [r4, #12]
    6b86:	f04f 30ff 	mov.w	r0, #4294967295	; 0xffffffff
    6b8a:	bdf8      	pop	{r3, r4, r5, r6, r7, pc}
    6b8c:	2000      	movs	r0, #0
    6b8e:	bdf8      	pop	{r3, r4, r5, r6, r7, pc}
    6b90:	0000c748 	.word	0x0000c748
    6b94:	0000c768 	.word	0x0000c768
    6b98:	0000c788 	.word	0x0000c788
    6b9c:	0000c7ac 	.word	0x0000c7ac
    6ba0:	00006a85 	.word	0x00006a85

00006ba4 <__srget_r>:
    6ba4:	b538      	push	{r3, r4, r5, lr}
    6ba6:	460c      	mov	r4, r1
    6ba8:	4605      	mov	r5, r0
    6baa:	b118      	cbz	r0, 6bb4 <__srget_r+0x10>
    6bac:	6983      	ldr	r3, [r0, #24]
    6bae:	b90b      	cbnz	r3, 6bb4 <__srget_r+0x10>
    6bb0:	f7ff fc20 	bl	63f4 <__sinit>
    6bb4:	4b0e      	ldr	r3, [pc, #56]	; (6bf0 <__srget_r+0x4c>)
    6bb6:	429c      	cmp	r4, r3
    6bb8:	d101      	bne.n	6bbe <__srget_r+0x1a>
    6bba:	686c      	ldr	r4, [r5, #4]
    6bbc:	e008      	b.n	6bd0 <__srget_r+0x2c>
    6bbe:	4b0d      	ldr	r3, [pc, #52]	; (6bf4 <__srget_r+0x50>)
    6bc0:	429c      	cmp	r4, r3
    6bc2:	d101      	bne.n	6bc8 <__srget_r+0x24>
    6bc4:	68ac      	ldr	r4, [r5, #8]
    6bc6:	e003      	b.n	6bd0 <__srget_r+0x2c>
    6bc8:	4b0b      	ldr	r3, [pc, #44]	; (6bf8 <__srget_r+0x54>)
    6bca:	429c      	cmp	r4, r3
    6bcc:	bf08      	it	eq
    6bce:	68ec      	ldreq	r4, [r5, #12]
    6bd0:	4628      	mov	r0, r5
    6bd2:	4621      	mov	r1, r4
    6bd4:	f7ff ff60 	bl	6a98 <__srefill_r>
    6bd8:	b938      	cbnz	r0, 6bea <__srget_r+0x46>
    6bda:	6863      	ldr	r3, [r4, #4]
    6bdc:	3b01      	subs	r3, #1
    6bde:	6063      	str	r3, [r4, #4]
    6be0:	6823      	ldr	r3, [r4, #0]
    6be2:	1c5a      	adds	r2, r3, #1
    6be4:	6022      	str	r2, [r4, #0]
    6be6:	7818      	ldrb	r0, [r3, #0]
    6be8:	bd38      	pop	{r3, r4, r5, pc}
    6bea:	f04f 30ff 	mov.w	r0, #4294967295	; 0xffffffff
    6bee:	bd38      	pop	{r3, r4, r5, pc}
    6bf0:	0000c748 	.word	0x0000c748
    6bf4:	0000c768 	.word	0x0000c768
    6bf8:	0000c788 	.word	0x0000c788

00006bfc <_sbrk_r>:
    6bfc:	b538      	push	{r3, r4, r5, lr}
    6bfe:	4c06      	ldr	r4, [pc, #24]	; (6c18 <_sbrk_r+0x1c>)
    6c00:	2300      	movs	r3, #0
    6c02:	4605      	mov	r5, r0
    6c04:	4608      	mov	r0, r1
    6c06:	6023      	str	r3, [r4, #0]
    6c08:	f004 fc22 	bl	b450 <_sbrk>
    6c0c:	1c43      	adds	r3, r0, #1
    6c0e:	d102      	bne.n	6c16 <_sbrk_r+0x1a>
    6c10:	6823      	ldr	r3, [r4, #0]
    6c12:	b103      	cbz	r3, 6c16 <_sbrk_r+0x1a>
    6c14:	602b      	str	r3, [r5, #0]
    6c16:	bd38      	pop	{r3, r4, r5, pc}
    6c18:	10000a38 	.word	0x10000a38

00006c1c <setbuf>:
    6c1c:	2900      	cmp	r1, #0
    6c1e:	bf0c      	ite	eq
    6c20:	2202      	moveq	r2, #2
    6c22:	2200      	movne	r2, #0
    6c24:	f44f 6380 	mov.w	r3, #1024	; 0x400
    6c28:	f000 b800 	b.w	6c2c <setvbuf>

00006c2c <setvbuf>:
    6c2c:	e92d 41f0 	stmdb	sp!, {r4, r5, r6, r7, r8, lr}
    6c30:	461e      	mov	r6, r3
    6c32:	4b3d      	ldr	r3, [pc, #244]	; (6d28 <setvbuf+0xfc>)
    6c34:	4604      	mov	r4, r0
    6c36:	681d      	ldr	r5, [r3, #0]
    6c38:	460f      	mov	r7, r1
    6c3a:	4690      	mov	r8, r2
    6c3c:	b125      	cbz	r5, 6c48 <setvbuf+0x1c>
    6c3e:	69ab      	ldr	r3, [r5, #24]
    6c40:	b913      	cbnz	r3, 6c48 <setvbuf+0x1c>
    6c42:	4628      	mov	r0, r5
    6c44:	f7ff fbd6 	bl	63f4 <__sinit>
    6c48:	4b38      	ldr	r3, [pc, #224]	; (6d2c <setvbuf+0x100>)
    6c4a:	429c      	cmp	r4, r3
    6c4c:	d101      	bne.n	6c52 <setvbuf+0x26>
    6c4e:	686c      	ldr	r4, [r5, #4]
    6c50:	e008      	b.n	6c64 <setvbuf+0x38>
    6c52:	4b37      	ldr	r3, [pc, #220]	; (6d30 <setvbuf+0x104>)
    6c54:	429c      	cmp	r4, r3
    6c56:	d101      	bne.n	6c5c <setvbuf+0x30>
    6c58:	68ac      	ldr	r4, [r5, #8]
    6c5a:	e003      	b.n	6c64 <setvbuf+0x38>
    6c5c:	4b35      	ldr	r3, [pc, #212]	; (6d34 <setvbuf+0x108>)
    6c5e:	429c      	cmp	r4, r3
    6c60:	bf08      	it	eq
    6c62:	68ec      	ldreq	r4, [r5, #12]
    6c64:	f1b8 0f02 	cmp.w	r8, #2
    6c68:	d859      	bhi.n	6d1e <setvbuf+0xf2>
    6c6a:	2e00      	cmp	r6, #0
    6c6c:	db57      	blt.n	6d1e <setvbuf+0xf2>
    6c6e:	4628      	mov	r0, r5
    6c70:	4621      	mov	r1, r4
    6c72:	f7ff fafb 	bl	626c <_fflush_r>
    6c76:	2300      	movs	r3, #0
    6c78:	6063      	str	r3, [r4, #4]
    6c7a:	61a3      	str	r3, [r4, #24]
    6c7c:	89a3      	ldrh	r3, [r4, #12]
    6c7e:	061b      	lsls	r3, r3, #24
    6c80:	d503      	bpl.n	6c8a <setvbuf+0x5e>
    6c82:	4628      	mov	r0, r5
    6c84:	6921      	ldr	r1, [r4, #16]
    6c86:	f7ff fe17 	bl	68b8 <_free_r>
    6c8a:	89a3      	ldrh	r3, [r4, #12]
    6c8c:	f1b8 0f02 	cmp.w	r8, #2
    6c90:	f023 0383 	bic.w	r3, r3, #131	; 0x83
    6c94:	81a3      	strh	r3, [r4, #12]
    6c96:	d012      	beq.n	6cbe <setvbuf+0x92>
    6c98:	bb37      	cbnz	r7, 6ce8 <setvbuf+0xbc>
    6c9a:	2e00      	cmp	r6, #0
    6c9c:	bf08      	it	eq
    6c9e:	f44f 6680 	moveq.w	r6, #1024	; 0x400
    6ca2:	4630      	mov	r0, r6
    6ca4:	f7ff fdd8 	bl	6858 <malloc>
    6ca8:	4607      	mov	r7, r0
    6caa:	b9c8      	cbnz	r0, 6ce0 <setvbuf+0xb4>
    6cac:	f44f 6080 	mov.w	r0, #1024	; 0x400
    6cb0:	f7ff fdd2 	bl	6858 <malloc>
    6cb4:	4607      	mov	r7, r0
    6cb6:	b988      	cbnz	r0, 6cdc <setvbuf+0xb0>
    6cb8:	f04f 30ff 	mov.w	r0, #4294967295	; 0xffffffff
    6cbc:	e000      	b.n	6cc0 <setvbuf+0x94>
    6cbe:	2000      	movs	r0, #0
    6cc0:	89a3      	ldrh	r3, [r4, #12]
    6cc2:	f043 0302 	orr.w	r3, r3, #2
    6cc6:	81a3      	strh	r3, [r4, #12]
    6cc8:	2300      	movs	r3, #0
    6cca:	60a3      	str	r3, [r4, #8]
    6ccc:	f104 0347 	add.w	r3, r4, #71	; 0x47
    6cd0:	6023      	str	r3, [r4, #0]
    6cd2:	6123      	str	r3, [r4, #16]
    6cd4:	2301      	movs	r3, #1
    6cd6:	6163      	str	r3, [r4, #20]
    6cd8:	e8bd 81f0 	ldmia.w	sp!, {r4, r5, r6, r7, r8, pc}
    6cdc:	f44f 6680 	mov.w	r6, #1024	; 0x400
    6ce0:	89a3      	ldrh	r3, [r4, #12]
    6ce2:	f043 0380 	orr.w	r3, r3, #128	; 0x80
    6ce6:	81a3      	strh	r3, [r4, #12]
    6ce8:	f1b8 0f01 	cmp.w	r8, #1
    6cec:	d105      	bne.n	6cfa <setvbuf+0xce>
    6cee:	89a3      	ldrh	r3, [r4, #12]
    6cf0:	f043 0301 	orr.w	r3, r3, #1
    6cf4:	81a3      	strh	r3, [r4, #12]
    6cf6:	4273      	negs	r3, r6
    6cf8:	61a3      	str	r3, [r4, #24]
    6cfa:	4b0f      	ldr	r3, [pc, #60]	; (6d38 <setvbuf+0x10c>)
    6cfc:	62ab      	str	r3, [r5, #40]	; 0x28
    6cfe:	89a3      	ldrh	r3, [r4, #12]
    6d00:	6027      	str	r7, [r4, #0]
    6d02:	f003 0008 	and.w	r0, r3, #8
    6d06:	b280      	uxth	r0, r0
    6d08:	6127      	str	r7, [r4, #16]
    6d0a:	6166      	str	r6, [r4, #20]
    6d0c:	b148      	cbz	r0, 6d22 <setvbuf+0xf6>
    6d0e:	f013 0f03 	tst.w	r3, #3
    6d12:	bf18      	it	ne
    6d14:	2600      	movne	r6, #0
    6d16:	60a6      	str	r6, [r4, #8]
    6d18:	2000      	movs	r0, #0
    6d1a:	e8bd 81f0 	ldmia.w	sp!, {r4, r5, r6, r7, r8, pc}
    6d1e:	f04f 30ff 	mov.w	r0, #4294967295	; 0xffffffff
    6d22:	e8bd 81f0 	ldmia.w	sp!, {r4, r5, r6, r7, r8, pc}
    6d26:	bf00      	nop
    6d28:	100001c0 	.word	0x100001c0
    6d2c:	0000c748 	.word	0x0000c748
    6d30:	0000c768 	.word	0x0000c768
    6d34:	0000c788 	.word	0x0000c788
    6d38:	0000634d 	.word	0x0000634d

00006d3c <siprintf>:
    6d3c:	b40e      	push	{r1, r2, r3}
    6d3e:	b500      	push	{lr}
    6d40:	f44f 7102 	mov.w	r1, #520	; 0x208
    6d44:	b09c      	sub	sp, #112	; 0x70
    6d46:	f8ad 1014 	strh.w	r1, [sp, #20]
    6d4a:	f06f 4100 	mvn.w	r1, #2147483648	; 0x80000000
    6d4e:	9104      	str	r1, [sp, #16]
    6d50:	9107      	str	r1, [sp, #28]
    6d52:	f64f 71ff 	movw	r1, #65535	; 0xffff
    6d56:	ab1d      	add	r3, sp, #116	; 0x74
    6d58:	f8ad 1016 	strh.w	r1, [sp, #22]
    6d5c:	4908      	ldr	r1, [pc, #32]	; (6d80 <siprintf+0x44>)
    6d5e:	f853 2b04 	ldr.w	r2, [r3], #4
    6d62:	9002      	str	r0, [sp, #8]
    6d64:	9006      	str	r0, [sp, #24]
    6d66:	6808      	ldr	r0, [r1, #0]
    6d68:	a902      	add	r1, sp, #8
    6d6a:	9301      	str	r3, [sp, #4]
    6d6c:	f000 f916 	bl	6f9c <_svfiprintf_r>
    6d70:	9b02      	ldr	r3, [sp, #8]
    6d72:	2200      	movs	r2, #0
    6d74:	701a      	strb	r2, [r3, #0]
    6d76:	b01c      	add	sp, #112	; 0x70
    6d78:	f85d eb04 	ldr.w	lr, [sp], #4
    6d7c:	b003      	add	sp, #12
    6d7e:	4770      	bx	lr
    6d80:	100001c0 	.word	0x100001c0

00006d84 <siscanf>:
    6d84:	b40e      	push	{r1, r2, r3}
    6d86:	b530      	push	{r4, r5, lr}
    6d88:	b09c      	sub	sp, #112	; 0x70
    6d8a:	ac1f      	add	r4, sp, #124	; 0x7c
    6d8c:	f44f 7201 	mov.w	r2, #516	; 0x204
    6d90:	f854 5b04 	ldr.w	r5, [r4], #4
    6d94:	f8ad 2014 	strh.w	r2, [sp, #20]
    6d98:	9002      	str	r0, [sp, #8]
    6d9a:	9006      	str	r0, [sp, #24]
    6d9c:	f000 f86b 	bl	6e76 <strlen>
    6da0:	4b0b      	ldr	r3, [pc, #44]	; (6dd0 <siscanf+0x4c>)
    6da2:	9003      	str	r0, [sp, #12]
    6da4:	930b      	str	r3, [sp, #44]	; 0x2c
    6da6:	2300      	movs	r3, #0
    6da8:	930f      	str	r3, [sp, #60]	; 0x3c
    6daa:	9314      	str	r3, [sp, #80]	; 0x50
    6dac:	f64f 73ff 	movw	r3, #65535	; 0xffff
    6db0:	f8ad 3016 	strh.w	r3, [sp, #22]
    6db4:	4b07      	ldr	r3, [pc, #28]	; (6dd4 <siscanf+0x50>)
    6db6:	9007      	str	r0, [sp, #28]
    6db8:	a902      	add	r1, sp, #8
    6dba:	6818      	ldr	r0, [r3, #0]
    6dbc:	462a      	mov	r2, r5
    6dbe:	4623      	mov	r3, r4
    6dc0:	9401      	str	r4, [sp, #4]
    6dc2:	f000 fa31 	bl	7228 <__ssvfiscanf_r>
    6dc6:	b01c      	add	sp, #112	; 0x70
    6dc8:	e8bd 4030 	ldmia.w	sp!, {r4, r5, lr}
    6dcc:	b003      	add	sp, #12
    6dce:	4770      	bx	lr
    6dd0:	00006dfb 	.word	0x00006dfb
    6dd4:	100001c0 	.word	0x100001c0

00006dd8 <__sread>:
    6dd8:	b510      	push	{r4, lr}
    6dda:	460c      	mov	r4, r1
    6ddc:	f9b1 100e 	ldrsh.w	r1, [r1, #14]
    6de0:	f003 f834 	bl	9e4c <_read_r>
    6de4:	2800      	cmp	r0, #0
    6de6:	db03      	blt.n	6df0 <__sread+0x18>
    6de8:	6d63      	ldr	r3, [r4, #84]	; 0x54
    6dea:	4403      	add	r3, r0
    6dec:	6563      	str	r3, [r4, #84]	; 0x54
    6dee:	bd10      	pop	{r4, pc}
    6df0:	89a3      	ldrh	r3, [r4, #12]
    6df2:	f423 5380 	bic.w	r3, r3, #4096	; 0x1000
    6df6:	81a3      	strh	r3, [r4, #12]
    6df8:	bd10      	pop	{r4, pc}

00006dfa <__seofread>:
    6dfa:	2000      	movs	r0, #0
    6dfc:	4770      	bx	lr

00006dfe <__swrite>:
    6dfe:	e92d 41f0 	stmdb	sp!, {r4, r5, r6, r7, r8, lr}
    6e02:	461d      	mov	r5, r3
    6e04:	898b      	ldrh	r3, [r1, #12]
    6e06:	4607      	mov	r7, r0
    6e08:	05db      	lsls	r3, r3, #23
    6e0a:	460c      	mov	r4, r1
    6e0c:	4616      	mov	r6, r2
    6e0e:	d505      	bpl.n	6e1c <__swrite+0x1e>
    6e10:	f9b1 100e 	ldrsh.w	r1, [r1, #14]
    6e14:	2200      	movs	r2, #0
    6e16:	2302      	movs	r3, #2
    6e18:	f002 fbb8 	bl	958c <_lseek_r>
    6e1c:	89a3      	ldrh	r3, [r4, #12]
    6e1e:	4638      	mov	r0, r7
    6e20:	f423 5380 	bic.w	r3, r3, #4096	; 0x1000
    6e24:	81a3      	strh	r3, [r4, #12]
    6e26:	f9b4 100e 	ldrsh.w	r1, [r4, #14]
    6e2a:	4632      	mov	r2, r6
    6e2c:	462b      	mov	r3, r5
    6e2e:	e8bd 41f0 	ldmia.w	sp!, {r4, r5, r6, r7, r8, lr}
    6e32:	f001 bc6b 	b.w	870c <_write_r>

00006e36 <__sseek>:
    6e36:	b510      	push	{r4, lr}
    6e38:	460c      	mov	r4, r1
    6e3a:	f9b1 100e 	ldrsh.w	r1, [r1, #14]
    6e3e:	f002 fba5 	bl	958c <_lseek_r>
    6e42:	1c43      	adds	r3, r0, #1
    6e44:	89a3      	ldrh	r3, [r4, #12]
    6e46:	d103      	bne.n	6e50 <__sseek+0x1a>
    6e48:	f423 5380 	bic.w	r3, r3, #4096	; 0x1000
    6e4c:	81a3      	strh	r3, [r4, #12]
    6e4e:	bd10      	pop	{r4, pc}
    6e50:	f443 5380 	orr.w	r3, r3, #4096	; 0x1000
    6e54:	81a3      	strh	r3, [r4, #12]
    6e56:	6560      	str	r0, [r4, #84]	; 0x54
    6e58:	bd10      	pop	{r4, pc}

00006e5a <__sclose>:
    6e5a:	f9b1 100e 	ldrsh.w	r1, [r1, #14]
    6e5e:	f001 bcd5 	b.w	880c <_close_r>

00006e62 <strcmp>:
    6e62:	f810 2b01 	ldrb.w	r2, [r0], #1
    6e66:	f811 3b01 	ldrb.w	r3, [r1], #1
    6e6a:	2a01      	cmp	r2, #1
    6e6c:	bf28      	it	cs
    6e6e:	429a      	cmpcs	r2, r3
    6e70:	d0f7      	beq.n	6e62 <strcmp>
    6e72:	1ad0      	subs	r0, r2, r3
    6e74:	4770      	bx	lr

00006e76 <strlen>:
    6e76:	4603      	mov	r3, r0
    6e78:	f813 2b01 	ldrb.w	r2, [r3], #1
    6e7c:	2a00      	cmp	r2, #0
    6e7e:	d1fb      	bne.n	6e78 <strlen+0x2>
    6e80:	1a18      	subs	r0, r3, r0
    6e82:	3801      	subs	r0, #1
    6e84:	4770      	bx	lr

00006e86 <strncmp>:
    6e86:	b570      	push	{r4, r5, r6, lr}
    6e88:	b18a      	cbz	r2, 6eae <strncmp+0x28>
    6e8a:	460b      	mov	r3, r1
    6e8c:	4605      	mov	r5, r0
    6e8e:	781c      	ldrb	r4, [r3, #0]
    6e90:	f810 6b01 	ldrb.w	r6, [r0], #1
    6e94:	3101      	adds	r1, #1
    6e96:	42b4      	cmp	r4, r6
    6e98:	d101      	bne.n	6e9e <strncmp+0x18>
    6e9a:	2a01      	cmp	r2, #1
    6e9c:	d103      	bne.n	6ea6 <strncmp+0x20>
    6e9e:	7828      	ldrb	r0, [r5, #0]
    6ea0:	781b      	ldrb	r3, [r3, #0]
    6ea2:	1ac0      	subs	r0, r0, r3
    6ea4:	bd70      	pop	{r4, r5, r6, pc}
    6ea6:	3a01      	subs	r2, #1
    6ea8:	2c00      	cmp	r4, #0
    6eaa:	d1ee      	bne.n	6e8a <strncmp+0x4>
    6eac:	e7f7      	b.n	6e9e <strncmp+0x18>
    6eae:	4610      	mov	r0, r2
    6eb0:	bd70      	pop	{r4, r5, r6, pc}

00006eb2 <strstr>:
    6eb2:	b530      	push	{r4, r5, lr}
    6eb4:	7803      	ldrb	r3, [r0, #0]
    6eb6:	b10b      	cbz	r3, 6ebc <strstr+0xa>
    6eb8:	4604      	mov	r4, r0
    6eba:	e004      	b.n	6ec6 <strstr+0x14>
    6ebc:	780b      	ldrb	r3, [r1, #0]
    6ebe:	2b00      	cmp	r3, #0
    6ec0:	bf18      	it	ne
    6ec2:	2000      	movne	r0, #0
    6ec4:	bd30      	pop	{r4, r5, pc}
    6ec6:	4622      	mov	r2, r4
    6ec8:	7810      	ldrb	r0, [r2, #0]
    6eca:	3401      	adds	r4, #1
    6ecc:	b138      	cbz	r0, 6ede <strstr+0x2c>
    6ece:	2300      	movs	r3, #0
    6ed0:	5cc8      	ldrb	r0, [r1, r3]
    6ed2:	b128      	cbz	r0, 6ee0 <strstr+0x2e>
    6ed4:	5cd5      	ldrb	r5, [r2, r3]
    6ed6:	4285      	cmp	r5, r0
    6ed8:	d1f5      	bne.n	6ec6 <strstr+0x14>
    6eda:	3301      	adds	r3, #1
    6edc:	e7f8      	b.n	6ed0 <strstr+0x1e>
    6ede:	bd30      	pop	{r4, r5, pc}
    6ee0:	4610      	mov	r0, r2
    6ee2:	bd30      	pop	{r4, r5, pc}

00006ee4 <__ssputs_r>:
    6ee4:	e92d 47f0 	stmdb	sp!, {r4, r5, r6, r7, r8, r9, r10, lr}
    6ee8:	688d      	ldr	r5, [r1, #8]
    6eea:	4681      	mov	r9, r0
    6eec:	42ab      	cmp	r3, r5
    6eee:	460c      	mov	r4, r1
    6ef0:	4692      	mov	r10, r2
    6ef2:	461f      	mov	r7, r3
    6ef4:	d343      	bcc.n	6f7e <__ssputs_r+0x9a>
    6ef6:	898b      	ldrh	r3, [r1, #12]
    6ef8:	f413 6f90 	tst.w	r3, #1152	; 0x480
    6efc:	d03d      	beq.n	6f7a <__ssputs_r+0x96>
    6efe:	6826      	ldr	r6, [r4, #0]
    6f00:	6909      	ldr	r1, [r1, #16]
    6f02:	2202      	movs	r2, #2
    6f04:	ebc1 0806 	rsb	r8, r1, r6
    6f08:	6966      	ldr	r6, [r4, #20]
    6f0a:	eb06 0646 	add.w	r6, r6, r6, lsl #1
    6f0e:	fb96 f6f2 	sdiv	r6, r6, r2
    6f12:	f108 0201 	add.w	r2, r8, #1
    6f16:	443a      	add	r2, r7
    6f18:	4296      	cmp	r6, r2
    6f1a:	bf38      	it	cc
    6f1c:	4616      	movcc	r6, r2
    6f1e:	055b      	lsls	r3, r3, #21
    6f20:	d50f      	bpl.n	6f42 <__ssputs_r+0x5e>
    6f22:	4631      	mov	r1, r6
    6f24:	f7ff fd0c 	bl	6940 <_malloc_r>
    6f28:	4605      	mov	r5, r0
    6f2a:	b198      	cbz	r0, 6f54 <__ssputs_r+0x70>
    6f2c:	6921      	ldr	r1, [r4, #16]
    6f2e:	4642      	mov	r2, r8
    6f30:	f7ff fcb0 	bl	6894 <memcpy>
    6f34:	89a3      	ldrh	r3, [r4, #12]
    6f36:	f423 6390 	bic.w	r3, r3, #1152	; 0x480
    6f3a:	f043 0380 	orr.w	r3, r3, #128	; 0x80
    6f3e:	81a3      	strh	r3, [r4, #12]
    6f40:	e013      	b.n	6f6a <__ssputs_r+0x86>
    6f42:	4632      	mov	r2, r6
    6f44:	f002 ff5b 	bl	9dfe <_realloc_r>
    6f48:	4605      	mov	r5, r0
    6f4a:	b970      	cbnz	r0, 6f6a <__ssputs_r+0x86>
    6f4c:	4648      	mov	r0, r9
    6f4e:	6921      	ldr	r1, [r4, #16]
    6f50:	f7ff fcb2 	bl	68b8 <_free_r>
    6f54:	230c      	movs	r3, #12
    6f56:	f8c9 3000 	str.w	r3, [r9]
    6f5a:	89a3      	ldrh	r3, [r4, #12]
    6f5c:	f04f 30ff 	mov.w	r0, #4294967295	; 0xffffffff
    6f60:	f043 0340 	orr.w	r3, r3, #64	; 0x40
    6f64:	81a3      	strh	r3, [r4, #12]
    6f66:	e8bd 87f0 	ldmia.w	sp!, {r4, r5, r6, r7, r8, r9, r10, pc}
    6f6a:	6125      	str	r5, [r4, #16]
    6f6c:	6166      	str	r6, [r4, #20]
    6f6e:	4445      	add	r5, r8
    6f70:	ebc8 0606 	rsb	r6, r8, r6
    6f74:	6025      	str	r5, [r4, #0]
    6f76:	60a6      	str	r6, [r4, #8]
    6f78:	463d      	mov	r5, r7
    6f7a:	42af      	cmp	r7, r5
    6f7c:	d200      	bcs.n	6f80 <__ssputs_r+0x9c>
    6f7e:	463d      	mov	r5, r7
    6f80:	462a      	mov	r2, r5
    6f82:	6820      	ldr	r0, [r4, #0]
    6f84:	4651      	mov	r1, r10
    6f86:	f002 fb13 	bl	95b0 <memmove>
    6f8a:	68a3      	ldr	r3, [r4, #8]
    6f8c:	2000      	movs	r0, #0
    6f8e:	1b5b      	subs	r3, r3, r5
    6f90:	60a3      	str	r3, [r4, #8]
    6f92:	6823      	ldr	r3, [r4, #0]
    6f94:	441d      	add	r5, r3
    6f96:	6025      	str	r5, [r4, #0]
    6f98:	e8bd 87f0 	ldmia.w	sp!, {r4, r5, r6, r7, r8, r9, r10, pc}

00006f9c <_svfiprintf_r>:
    6f9c:	e92d 43f0 	stmdb	sp!, {r4, r5, r6, r7, r8, r9, lr}
    6fa0:	b09d      	sub	sp, #116	; 0x74
    6fa2:	9303      	str	r3, [sp, #12]
    6fa4:	898b      	ldrh	r3, [r1, #12]
    6fa6:	4607      	mov	r7, r0
    6fa8:	061c      	lsls	r4, r3, #24
    6faa:	460d      	mov	r5, r1
    6fac:	4616      	mov	r6, r2
    6fae:	d50c      	bpl.n	6fca <_svfiprintf_r+0x2e>
    6fb0:	690b      	ldr	r3, [r1, #16]
    6fb2:	b953      	cbnz	r3, 6fca <_svfiprintf_r+0x2e>
    6fb4:	2140      	movs	r1, #64	; 0x40
    6fb6:	f7ff fcc3 	bl	6940 <_malloc_r>
    6fba:	6028      	str	r0, [r5, #0]
    6fbc:	6128      	str	r0, [r5, #16]
    6fbe:	b910      	cbnz	r0, 6fc6 <_svfiprintf_r+0x2a>
    6fc0:	230c      	movs	r3, #12
    6fc2:	603b      	str	r3, [r7, #0]
    6fc4:	e0c7      	b.n	7156 <_svfiprintf_r+0x1ba>
    6fc6:	2340      	movs	r3, #64	; 0x40
    6fc8:	616b      	str	r3, [r5, #20]
    6fca:	2300      	movs	r3, #0
    6fcc:	9309      	str	r3, [sp, #36]	; 0x24
    6fce:	2320      	movs	r3, #32
    6fd0:	f88d 3029 	strb.w	r3, [sp, #41]	; 0x29
    6fd4:	2330      	movs	r3, #48	; 0x30
    6fd6:	f88d 302a 	strb.w	r3, [sp, #42]	; 0x2a
    6fda:	4633      	mov	r3, r6
    6fdc:	461c      	mov	r4, r3
    6fde:	f813 2b01 	ldrb.w	r2, [r3], #1
    6fe2:	b91a      	cbnz	r2, 6fec <_svfiprintf_r+0x50>
    6fe4:	ebb4 0906 	subs.w	r9, r4, r6
    6fe8:	d00f      	beq.n	700a <_svfiprintf_r+0x6e>
    6fea:	e002      	b.n	6ff2 <_svfiprintf_r+0x56>
    6fec:	2a25      	cmp	r2, #37	; 0x25
    6fee:	d1f5      	bne.n	6fdc <_svfiprintf_r+0x40>
    6ff0:	e7f8      	b.n	6fe4 <_svfiprintf_r+0x48>
    6ff2:	4638      	mov	r0, r7
    6ff4:	4629      	mov	r1, r5
    6ff6:	4632      	mov	r2, r6
    6ff8:	464b      	mov	r3, r9
    6ffa:	f7ff ff73 	bl	6ee4 <__ssputs_r>
    6ffe:	3001      	adds	r0, #1
    7000:	f000 80a4 	beq.w	714c <_svfiprintf_r+0x1b0>
    7004:	9b09      	ldr	r3, [sp, #36]	; 0x24
    7006:	444b      	add	r3, r9
    7008:	9309      	str	r3, [sp, #36]	; 0x24
    700a:	7823      	ldrb	r3, [r4, #0]
    700c:	2b00      	cmp	r3, #0
    700e:	f000 809d 	beq.w	714c <_svfiprintf_r+0x1b0>
    7012:	2300      	movs	r3, #0
    7014:	f04f 32ff 	mov.w	r2, #4294967295	; 0xffffffff
    7018:	9304      	str	r3, [sp, #16]
    701a:	9307      	str	r3, [sp, #28]
    701c:	9205      	str	r2, [sp, #20]
    701e:	9306      	str	r3, [sp, #24]
    7020:	f88d 3053 	strb.w	r3, [sp, #83]	; 0x53
    7024:	931a      	str	r3, [sp, #104]	; 0x68
    7026:	f104 0901 	add.w	r9, r4, #1
    702a:	4e4d      	ldr	r6, [pc, #308]	; (7160 <_svfiprintf_r+0x1c4>)
    702c:	464c      	mov	r4, r9
    702e:	4630      	mov	r0, r6
    7030:	7821      	ldrb	r1, [r4, #0]
    7032:	2205      	movs	r2, #5
    7034:	f7ff fc20 	bl	6878 <memchr>
    7038:	f109 0901 	add.w	r9, r9, #1
    703c:	9b04      	ldr	r3, [sp, #16]
    703e:	b128      	cbz	r0, 704c <_svfiprintf_r+0xb0>
    7040:	1b86      	subs	r6, r0, r6
    7042:	2001      	movs	r0, #1
    7044:	40b0      	lsls	r0, r6
    7046:	4303      	orrs	r3, r0
    7048:	9304      	str	r3, [sp, #16]
    704a:	e7ee      	b.n	702a <_svfiprintf_r+0x8e>
    704c:	06d9      	lsls	r1, r3, #27
    704e:	bf44      	itt	mi
    7050:	2220      	movmi	r2, #32
    7052:	f88d 2053 	strbmi.w	r2, [sp, #83]	; 0x53
    7056:	071a      	lsls	r2, r3, #28
    7058:	bf44      	itt	mi
    705a:	222b      	movmi	r2, #43	; 0x2b
    705c:	f88d 2053 	strbmi.w	r2, [sp, #83]	; 0x53
    7060:	7822      	ldrb	r2, [r4, #0]
    7062:	2a2a      	cmp	r2, #42	; 0x2a
    7064:	d002      	beq.n	706c <_svfiprintf_r+0xd0>
    7066:	9b07      	ldr	r3, [sp, #28]
    7068:	4621      	mov	r1, r4
    706a:	e00e      	b.n	708a <_svfiprintf_r+0xee>
    706c:	9a03      	ldr	r2, [sp, #12]
    706e:	1d11      	adds	r1, r2, #4
    7070:	6812      	ldr	r2, [r2, #0]
    7072:	9103      	str	r1, [sp, #12]
    7074:	2a00      	cmp	r2, #0
    7076:	db01      	blt.n	707c <_svfiprintf_r+0xe0>
    7078:	9207      	str	r2, [sp, #28]
    707a:	e004      	b.n	7086 <_svfiprintf_r+0xea>
    707c:	4252      	negs	r2, r2
    707e:	f043 0302 	orr.w	r3, r3, #2
    7082:	9207      	str	r2, [sp, #28]
    7084:	9304      	str	r3, [sp, #16]
    7086:	3401      	adds	r4, #1
    7088:	e00a      	b.n	70a0 <_svfiprintf_r+0x104>
    708a:	460c      	mov	r4, r1
    708c:	7822      	ldrb	r2, [r4, #0]
    708e:	3101      	adds	r1, #1
    7090:	3a30      	subs	r2, #48	; 0x30
    7092:	2a09      	cmp	r2, #9
    7094:	d803      	bhi.n	709e <_svfiprintf_r+0x102>
    7096:	200a      	movs	r0, #10
    7098:	fb00 2303 	mla	r3, r0, r3, r2
    709c:	e7f5      	b.n	708a <_svfiprintf_r+0xee>
    709e:	9307      	str	r3, [sp, #28]
    70a0:	7823      	ldrb	r3, [r4, #0]
    70a2:	2b2e      	cmp	r3, #46	; 0x2e
    70a4:	d119      	bne.n	70da <_svfiprintf_r+0x13e>
    70a6:	7863      	ldrb	r3, [r4, #1]
    70a8:	2b2a      	cmp	r3, #42	; 0x2a
    70aa:	d109      	bne.n	70c0 <_svfiprintf_r+0x124>
    70ac:	9b03      	ldr	r3, [sp, #12]
    70ae:	3402      	adds	r4, #2
    70b0:	1d1a      	adds	r2, r3, #4
    70b2:	681b      	ldr	r3, [r3, #0]
    70b4:	9203      	str	r2, [sp, #12]
    70b6:	2b00      	cmp	r3, #0
    70b8:	bfb8      	it	lt
    70ba:	f04f 33ff 	movlt.w	r3, #4294967295	; 0xffffffff
    70be:	e00b      	b.n	70d8 <_svfiprintf_r+0x13c>
    70c0:	1c61      	adds	r1, r4, #1
    70c2:	2300      	movs	r3, #0
    70c4:	460c      	mov	r4, r1
    70c6:	7822      	ldrb	r2, [r4, #0]
    70c8:	3101      	adds	r1, #1
    70ca:	3a30      	subs	r2, #48	; 0x30
    70cc:	2a09      	cmp	r2, #9
    70ce:	d803      	bhi.n	70d8 <_svfiprintf_r+0x13c>
    70d0:	200a      	movs	r0, #10
    70d2:	fb00 2303 	mla	r3, r0, r3, r2
    70d6:	e7f5      	b.n	70c4 <_svfiprintf_r+0x128>
    70d8:	9305      	str	r3, [sp, #20]
    70da:	4e22      	ldr	r6, [pc, #136]	; (7164 <_svfiprintf_r+0x1c8>)
    70dc:	7821      	ldrb	r1, [r4, #0]
    70de:	4630      	mov	r0, r6
    70e0:	2203      	movs	r2, #3
    70e2:	f7ff fbc9 	bl	6878 <memchr>
    70e6:	b130      	cbz	r0, 70f6 <_svfiprintf_r+0x15a>
    70e8:	1b86      	subs	r6, r0, r6
    70ea:	2040      	movs	r0, #64	; 0x40
    70ec:	40b0      	lsls	r0, r6
    70ee:	9b04      	ldr	r3, [sp, #16]
    70f0:	3401      	adds	r4, #1
    70f2:	4303      	orrs	r3, r0
    70f4:	9304      	str	r3, [sp, #16]
    70f6:	7821      	ldrb	r1, [r4, #0]
    70f8:	481b      	ldr	r0, [pc, #108]	; (7168 <_svfiprintf_r+0x1cc>)
    70fa:	2206      	movs	r2, #6
    70fc:	1c66      	adds	r6, r4, #1
    70fe:	f88d 1028 	strb.w	r1, [sp, #40]	; 0x28
    7102:	f7ff fbb9 	bl	6878 <memchr>
    7106:	b188      	cbz	r0, 712c <_svfiprintf_r+0x190>
    7108:	4b18      	ldr	r3, [pc, #96]	; (716c <_svfiprintf_r+0x1d0>)
    710a:	b933      	cbnz	r3, 711a <_svfiprintf_r+0x17e>
    710c:	9b03      	ldr	r3, [sp, #12]
    710e:	3307      	adds	r3, #7
    7110:	f023 0307 	bic.w	r3, r3, #7
    7114:	3308      	adds	r3, #8
    7116:	9303      	str	r3, [sp, #12]
    7118:	e014      	b.n	7144 <_svfiprintf_r+0x1a8>
    711a:	ab03      	add	r3, sp, #12
    711c:	9300      	str	r3, [sp, #0]
    711e:	4638      	mov	r0, r7
    7120:	a904      	add	r1, sp, #16
    7122:	462a      	mov	r2, r5
    7124:	4b12      	ldr	r3, [pc, #72]	; (7170 <_svfiprintf_r+0x1d4>)
    7126:	f000 fbc7 	bl	78b8 <_printf_float>
    712a:	e007      	b.n	713c <_svfiprintf_r+0x1a0>
    712c:	ab03      	add	r3, sp, #12
    712e:	9300      	str	r3, [sp, #0]
    7130:	4638      	mov	r0, r7
    7132:	a904      	add	r1, sp, #16
    7134:	462a      	mov	r2, r5
    7136:	4b0e      	ldr	r3, [pc, #56]	; (7170 <_svfiprintf_r+0x1d4>)
    7138:	f000 fe3e 	bl	7db8 <_printf_i>
    713c:	f1b0 3fff 	cmp.w	r0, #4294967295	; 0xffffffff
    7140:	4680      	mov	r8, r0
    7142:	d003      	beq.n	714c <_svfiprintf_r+0x1b0>
    7144:	9b09      	ldr	r3, [sp, #36]	; 0x24
    7146:	4443      	add	r3, r8
    7148:	9309      	str	r3, [sp, #36]	; 0x24
    714a:	e746      	b.n	6fda <_svfiprintf_r+0x3e>
    714c:	89ab      	ldrh	r3, [r5, #12]
    714e:	065b      	lsls	r3, r3, #25
    7150:	d401      	bmi.n	7156 <_svfiprintf_r+0x1ba>
    7152:	9809      	ldr	r0, [sp, #36]	; 0x24
    7154:	e001      	b.n	715a <_svfiprintf_r+0x1be>
    7156:	f04f 30ff 	mov.w	r0, #4294967295	; 0xffffffff
    715a:	b01d      	add	sp, #116	; 0x74
    715c:	e8bd 83f0 	ldmia.w	sp!, {r4, r5, r6, r7, r8, r9, pc}
    7160:	0000c7b0 	.word	0x0000c7b0
    7164:	0000c7b6 	.word	0x0000c7b6
    7168:	0000c7ba 	.word	0x0000c7ba
    716c:	000078b9 	.word	0x000078b9
    7170:	00006ee5 	.word	0x00006ee5

00007174 <_sungetc_r>:
    7174:	b538      	push	{r3, r4, r5, lr}
    7176:	1c4b      	adds	r3, r1, #1
    7178:	4614      	mov	r4, r2
    717a:	d102      	bne.n	7182 <_sungetc_r+0xe>
    717c:	f04f 30ff 	mov.w	r0, #4294967295	; 0xffffffff
    7180:	bd38      	pop	{r3, r4, r5, pc}
    7182:	8993      	ldrh	r3, [r2, #12]
    7184:	b2cd      	uxtb	r5, r1
    7186:	f023 0320 	bic.w	r3, r3, #32
    718a:	8193      	strh	r3, [r2, #12]
    718c:	6b53      	ldr	r3, [r2, #52]	; 0x34
    718e:	6852      	ldr	r2, [r2, #4]
    7190:	b183      	cbz	r3, 71b4 <_sungetc_r+0x40>
    7192:	6ba3      	ldr	r3, [r4, #56]	; 0x38
    7194:	429a      	cmp	r2, r3
    7196:	da07      	bge.n	71a8 <_sungetc_r+0x34>
    7198:	6823      	ldr	r3, [r4, #0]
    719a:	1e5a      	subs	r2, r3, #1
    719c:	6022      	str	r2, [r4, #0]
    719e:	f803 5c01 	strb.w	r5, [r3, #-1]
    71a2:	6863      	ldr	r3, [r4, #4]
    71a4:	3301      	adds	r3, #1
    71a6:	e01f      	b.n	71e8 <_sungetc_r+0x74>
    71a8:	4621      	mov	r1, r4
    71aa:	f000 f98b 	bl	74c4 <__submore>
    71ae:	2800      	cmp	r0, #0
    71b0:	d0f2      	beq.n	7198 <_sungetc_r+0x24>
    71b2:	e7e3      	b.n	717c <_sungetc_r+0x8>
    71b4:	6921      	ldr	r1, [r4, #16]
    71b6:	6823      	ldr	r3, [r4, #0]
    71b8:	b151      	cbz	r1, 71d0 <_sungetc_r+0x5c>
    71ba:	428b      	cmp	r3, r1
    71bc:	d908      	bls.n	71d0 <_sungetc_r+0x5c>
    71be:	f813 0c01 	ldrb.w	r0, [r3, #-1]
    71c2:	42a8      	cmp	r0, r5
    71c4:	d104      	bne.n	71d0 <_sungetc_r+0x5c>
    71c6:	3b01      	subs	r3, #1
    71c8:	3201      	adds	r2, #1
    71ca:	6023      	str	r3, [r4, #0]
    71cc:	6062      	str	r2, [r4, #4]
    71ce:	bd38      	pop	{r3, r4, r5, pc}
    71d0:	63e3      	str	r3, [r4, #60]	; 0x3c
    71d2:	f104 0344 	add.w	r3, r4, #68	; 0x44
    71d6:	6363      	str	r3, [r4, #52]	; 0x34
    71d8:	2303      	movs	r3, #3
    71da:	63a3      	str	r3, [r4, #56]	; 0x38
    71dc:	4623      	mov	r3, r4
    71de:	6422      	str	r2, [r4, #64]	; 0x40
    71e0:	f803 5f46 	strb.w	r5, [r3, #70]!
    71e4:	6023      	str	r3, [r4, #0]
    71e6:	2301      	movs	r3, #1
    71e8:	6063      	str	r3, [r4, #4]
    71ea:	4628      	mov	r0, r5
    71ec:	bd38      	pop	{r3, r4, r5, pc}

000071ee <__ssrefill_r>:
    71ee:	b510      	push	{r4, lr}
    71f0:	460c      	mov	r4, r1
    71f2:	6b49      	ldr	r1, [r1, #52]	; 0x34
    71f4:	b169      	cbz	r1, 7212 <__ssrefill_r+0x24>
    71f6:	f104 0344 	add.w	r3, r4, #68	; 0x44
    71fa:	4299      	cmp	r1, r3
    71fc:	d001      	beq.n	7202 <__ssrefill_r+0x14>
    71fe:	f7ff fb5b 	bl	68b8 <_free_r>
    7202:	6c23      	ldr	r3, [r4, #64]	; 0x40
    7204:	2000      	movs	r0, #0
    7206:	6360      	str	r0, [r4, #52]	; 0x34
    7208:	6063      	str	r3, [r4, #4]
    720a:	b113      	cbz	r3, 7212 <__ssrefill_r+0x24>
    720c:	6be3      	ldr	r3, [r4, #60]	; 0x3c
    720e:	6023      	str	r3, [r4, #0]
    7210:	bd10      	pop	{r4, pc}
    7212:	6923      	ldr	r3, [r4, #16]
    7214:	f04f 30ff 	mov.w	r0, #4294967295	; 0xffffffff
    7218:	6023      	str	r3, [r4, #0]
    721a:	2300      	movs	r3, #0
    721c:	6063      	str	r3, [r4, #4]
    721e:	89a3      	ldrh	r3, [r4, #12]
    7220:	f043 0320 	orr.w	r3, r3, #32
    7224:	81a3      	strh	r3, [r4, #12]
    7226:	bd10      	pop	{r4, pc}

00007228 <__ssvfiscanf_r>:
    7228:	e92d 47f0 	stmdb	sp!, {r4, r5, r6, r7, r8, r9, r10, lr}
    722c:	f5ad 7d24 	sub.w	sp, sp, #656	; 0x290
    7230:	9301      	str	r3, [sp, #4]
    7232:	2300      	movs	r3, #0
    7234:	9346      	str	r3, [sp, #280]	; 0x118
    7236:	9347      	str	r3, [sp, #284]	; 0x11c
    7238:	4b9d      	ldr	r3, [pc, #628]	; (74b0 <__ssvfiscanf_r+0x288>)
    723a:	f10d 090c 	add.w	r9, sp, #12
    723e:	93a2      	str	r3, [sp, #648]	; 0x288
    7240:	4b9c      	ldr	r3, [pc, #624]	; (74b4 <__ssvfiscanf_r+0x28c>)
    7242:	4607      	mov	r7, r0
    7244:	460c      	mov	r4, r1
    7246:	4690      	mov	r8, r2
    7248:	f8cd 9120 	str.w	r9, [sp, #288]	; 0x120
    724c:	93a3      	str	r3, [sp, #652]	; 0x28c
    724e:	f898 5000 	ldrb.w	r5, [r8]
    7252:	2d00      	cmp	r5, #0
    7254:	f000 8124 	beq.w	74a0 <__ssvfiscanf_r+0x278>
    7258:	4997      	ldr	r1, [pc, #604]	; (74b8 <__ssvfiscanf_r+0x290>)
    725a:	680b      	ldr	r3, [r1, #0]
    725c:	468a      	mov	r10, r1
    725e:	442b      	add	r3, r5
    7260:	785a      	ldrb	r2, [r3, #1]
    7262:	f002 0208 	and.w	r2, r2, #8
    7266:	f002 03ff 	and.w	r3, r2, #255	; 0xff
    726a:	b1ea      	cbz	r2, 72a8 <__ssvfiscanf_r+0x80>
    726c:	6863      	ldr	r3, [r4, #4]
    726e:	2b00      	cmp	r3, #0
    7270:	dd10      	ble.n	7294 <__ssvfiscanf_r+0x6c>
    7272:	6823      	ldr	r3, [r4, #0]
    7274:	f8da 2000 	ldr.w	r2, [r10]
    7278:	7819      	ldrb	r1, [r3, #0]
    727a:	440a      	add	r2, r1
    727c:	7852      	ldrb	r2, [r2, #1]
    727e:	0715      	lsls	r5, r2, #28
    7280:	d50e      	bpl.n	72a0 <__ssvfiscanf_r+0x78>
    7282:	9a47      	ldr	r2, [sp, #284]	; 0x11c
    7284:	3301      	adds	r3, #1
    7286:	3201      	adds	r2, #1
    7288:	9247      	str	r2, [sp, #284]	; 0x11c
    728a:	6862      	ldr	r2, [r4, #4]
    728c:	6023      	str	r3, [r4, #0]
    728e:	3a01      	subs	r2, #1
    7290:	6062      	str	r2, [r4, #4]
    7292:	e7eb      	b.n	726c <__ssvfiscanf_r+0x44>
    7294:	9ba3      	ldr	r3, [sp, #652]	; 0x28c
    7296:	4638      	mov	r0, r7
    7298:	4621      	mov	r1, r4
    729a:	4798      	blx	r3
    729c:	2800      	cmp	r0, #0
    729e:	d0e8      	beq.n	7272 <__ssvfiscanf_r+0x4a>
    72a0:	f108 0601 	add.w	r6, r8, #1
    72a4:	46b0      	mov	r8, r6
    72a6:	e7d2      	b.n	724e <__ssvfiscanf_r+0x26>
    72a8:	2d25      	cmp	r5, #37	; 0x25
    72aa:	f108 0601 	add.w	r6, r8, #1
    72ae:	d14f      	bne.n	7350 <__ssvfiscanf_r+0x128>
    72b0:	9345      	str	r3, [sp, #276]	; 0x114
    72b2:	9343      	str	r3, [sp, #268]	; 0x10c
    72b4:	f898 3001 	ldrb.w	r3, [r8, #1]
    72b8:	2b2a      	cmp	r3, #42	; 0x2a
    72ba:	d103      	bne.n	72c4 <__ssvfiscanf_r+0x9c>
    72bc:	2310      	movs	r3, #16
    72be:	9343      	str	r3, [sp, #268]	; 0x10c
    72c0:	f108 0602 	add.w	r6, r8, #2
    72c4:	7831      	ldrb	r1, [r6, #0]
    72c6:	4635      	mov	r5, r6
    72c8:	f1a1 0330 	sub.w	r3, r1, #48	; 0x30
    72cc:	2b09      	cmp	r3, #9
    72ce:	f106 0601 	add.w	r6, r6, #1
    72d2:	d806      	bhi.n	72e2 <__ssvfiscanf_r+0xba>
    72d4:	9b45      	ldr	r3, [sp, #276]	; 0x114
    72d6:	220a      	movs	r2, #10
    72d8:	fb02 1303 	mla	r3, r2, r3, r1
    72dc:	3b30      	subs	r3, #48	; 0x30
    72de:	9345      	str	r3, [sp, #276]	; 0x114
    72e0:	e7f0      	b.n	72c4 <__ssvfiscanf_r+0x9c>
    72e2:	f8df 81dc 	ldr.w	r8, [pc, #476]	; 74c0 <__ssvfiscanf_r+0x298>
    72e6:	2203      	movs	r2, #3
    72e8:	4640      	mov	r0, r8
    72ea:	f7ff fac5 	bl	6878 <memchr>
    72ee:	b140      	cbz	r0, 7302 <__ssvfiscanf_r+0xda>
    72f0:	ebc8 0800 	rsb	r8, r8, r0
    72f4:	2001      	movs	r0, #1
    72f6:	fa00 f008 	lsl.w	r0, r0, r8
    72fa:	9b43      	ldr	r3, [sp, #268]	; 0x10c
    72fc:	4635      	mov	r5, r6
    72fe:	4303      	orrs	r3, r0
    7300:	9343      	str	r3, [sp, #268]	; 0x10c
    7302:	1c6e      	adds	r6, r5, #1
    7304:	782d      	ldrb	r5, [r5, #0]
    7306:	2d67      	cmp	r5, #103	; 0x67
    7308:	d80f      	bhi.n	732a <__ssvfiscanf_r+0x102>
    730a:	2d65      	cmp	r5, #101	; 0x65
    730c:	d278      	bcs.n	7400 <__ssvfiscanf_r+0x1d8>
    730e:	2d5b      	cmp	r5, #91	; 0x5b
    7310:	d054      	beq.n	73bc <__ssvfiscanf_r+0x194>
    7312:	d805      	bhi.n	7320 <__ssvfiscanf_r+0xf8>
    7314:	2d00      	cmp	r5, #0
    7316:	f000 80c5 	beq.w	74a4 <__ssvfiscanf_r+0x27c>
    731a:	2d25      	cmp	r5, #37	; 0x25
    731c:	d018      	beq.n	7350 <__ssvfiscanf_r+0x128>
    731e:	e071      	b.n	7404 <__ssvfiscanf_r+0x1dc>
    7320:	2d63      	cmp	r5, #99	; 0x63
    7322:	d057      	beq.n	73d4 <__ssvfiscanf_r+0x1ac>
    7324:	2d64      	cmp	r5, #100	; 0x64
    7326:	d03f      	beq.n	73a8 <__ssvfiscanf_r+0x180>
    7328:	e06c      	b.n	7404 <__ssvfiscanf_r+0x1dc>
    732a:	2d70      	cmp	r5, #112	; 0x70
    732c:	d032      	beq.n	7394 <__ssvfiscanf_r+0x16c>
    732e:	d807      	bhi.n	7340 <__ssvfiscanf_r+0x118>
    7330:	2d6e      	cmp	r5, #110	; 0x6e
    7332:	d055      	beq.n	73e0 <__ssvfiscanf_r+0x1b8>
    7334:	d83a      	bhi.n	73ac <__ssvfiscanf_r+0x184>
    7336:	2d69      	cmp	r5, #105	; 0x69
    7338:	d164      	bne.n	7404 <__ssvfiscanf_r+0x1dc>
    733a:	2300      	movs	r3, #0
    733c:	9344      	str	r3, [sp, #272]	; 0x110
    733e:	e039      	b.n	73b4 <__ssvfiscanf_r+0x18c>
    7340:	2d75      	cmp	r5, #117	; 0x75
    7342:	d031      	beq.n	73a8 <__ssvfiscanf_r+0x180>
    7344:	2d78      	cmp	r5, #120	; 0x78
    7346:	d029      	beq.n	739c <__ssvfiscanf_r+0x174>
    7348:	2d73      	cmp	r5, #115	; 0x73
    734a:	d15b      	bne.n	7404 <__ssvfiscanf_r+0x1dc>
    734c:	2302      	movs	r3, #2
    734e:	e03f      	b.n	73d0 <__ssvfiscanf_r+0x1a8>
    7350:	6863      	ldr	r3, [r4, #4]
    7352:	2b00      	cmp	r3, #0
    7354:	dd0d      	ble.n	7372 <__ssvfiscanf_r+0x14a>
    7356:	6823      	ldr	r3, [r4, #0]
    7358:	781a      	ldrb	r2, [r3, #0]
    735a:	42aa      	cmp	r2, r5
    735c:	f040 80a0 	bne.w	74a0 <__ssvfiscanf_r+0x278>
    7360:	3301      	adds	r3, #1
    7362:	6862      	ldr	r2, [r4, #4]
    7364:	6023      	str	r3, [r4, #0]
    7366:	9b47      	ldr	r3, [sp, #284]	; 0x11c
    7368:	3a01      	subs	r2, #1
    736a:	3301      	adds	r3, #1
    736c:	6062      	str	r2, [r4, #4]
    736e:	9347      	str	r3, [sp, #284]	; 0x11c
    7370:	e798      	b.n	72a4 <__ssvfiscanf_r+0x7c>
    7372:	9ba3      	ldr	r3, [sp, #652]	; 0x28c
    7374:	4638      	mov	r0, r7
    7376:	4621      	mov	r1, r4
    7378:	4798      	blx	r3
    737a:	2800      	cmp	r0, #0
    737c:	d0eb      	beq.n	7356 <__ssvfiscanf_r+0x12e>
    737e:	9846      	ldr	r0, [sp, #280]	; 0x118
    7380:	2800      	cmp	r0, #0
    7382:	f000 808f 	beq.w	74a4 <__ssvfiscanf_r+0x27c>
    7386:	89a3      	ldrh	r3, [r4, #12]
    7388:	f013 0f40 	tst.w	r3, #64	; 0x40
    738c:	bf18      	it	ne
    738e:	f04f 30ff 	movne.w	r0, #4294967295	; 0xffffffff
    7392:	e089      	b.n	74a8 <__ssvfiscanf_r+0x280>
    7394:	9b43      	ldr	r3, [sp, #268]	; 0x10c
    7396:	f043 0320 	orr.w	r3, r3, #32
    739a:	9343      	str	r3, [sp, #268]	; 0x10c
    739c:	9b43      	ldr	r3, [sp, #268]	; 0x10c
    739e:	f443 7300 	orr.w	r3, r3, #512	; 0x200
    73a2:	9343      	str	r3, [sp, #268]	; 0x10c
    73a4:	2310      	movs	r3, #16
    73a6:	e002      	b.n	73ae <__ssvfiscanf_r+0x186>
    73a8:	230a      	movs	r3, #10
    73aa:	e000      	b.n	73ae <__ssvfiscanf_r+0x186>
    73ac:	2308      	movs	r3, #8
    73ae:	2d6e      	cmp	r5, #110	; 0x6e
    73b0:	9344      	str	r3, [sp, #272]	; 0x110
    73b2:	dc01      	bgt.n	73b8 <__ssvfiscanf_r+0x190>
    73b4:	2303      	movs	r3, #3
    73b6:	e00b      	b.n	73d0 <__ssvfiscanf_r+0x1a8>
    73b8:	2304      	movs	r3, #4
    73ba:	e009      	b.n	73d0 <__ssvfiscanf_r+0x1a8>
    73bc:	4631      	mov	r1, r6
    73be:	4648      	mov	r0, r9
    73c0:	f002 fd78 	bl	9eb4 <__sccl>
    73c4:	9b43      	ldr	r3, [sp, #268]	; 0x10c
    73c6:	4606      	mov	r6, r0
    73c8:	f043 0340 	orr.w	r3, r3, #64	; 0x40
    73cc:	9343      	str	r3, [sp, #268]	; 0x10c
    73ce:	2301      	movs	r3, #1
    73d0:	9349      	str	r3, [sp, #292]	; 0x124
    73d2:	e01b      	b.n	740c <__ssvfiscanf_r+0x1e4>
    73d4:	9b43      	ldr	r3, [sp, #268]	; 0x10c
    73d6:	f043 0340 	orr.w	r3, r3, #64	; 0x40
    73da:	9343      	str	r3, [sp, #268]	; 0x10c
    73dc:	2300      	movs	r3, #0
    73de:	e7f7      	b.n	73d0 <__ssvfiscanf_r+0x1a8>
    73e0:	9a43      	ldr	r2, [sp, #268]	; 0x10c
    73e2:	06d0      	lsls	r0, r2, #27
    73e4:	f53f af5e 	bmi.w	72a4 <__ssvfiscanf_r+0x7c>
    73e8:	f012 0f01 	tst.w	r2, #1
    73ec:	9a01      	ldr	r2, [sp, #4]
    73ee:	9b47      	ldr	r3, [sp, #284]	; 0x11c
    73f0:	f102 0104 	add.w	r1, r2, #4
    73f4:	9101      	str	r1, [sp, #4]
    73f6:	6812      	ldr	r2, [r2, #0]
    73f8:	bf14      	ite	ne
    73fa:	8013      	strhne	r3, [r2, #0]
    73fc:	6013      	streq	r3, [r2, #0]
    73fe:	e751      	b.n	72a4 <__ssvfiscanf_r+0x7c>
    7400:	2305      	movs	r3, #5
    7402:	e7e5      	b.n	73d0 <__ssvfiscanf_r+0x1a8>
    7404:	2303      	movs	r3, #3
    7406:	9349      	str	r3, [sp, #292]	; 0x124
    7408:	230a      	movs	r3, #10
    740a:	9344      	str	r3, [sp, #272]	; 0x110
    740c:	6863      	ldr	r3, [r4, #4]
    740e:	2b00      	cmp	r3, #0
    7410:	dd03      	ble.n	741a <__ssvfiscanf_r+0x1f2>
    7412:	9b43      	ldr	r3, [sp, #268]	; 0x10c
    7414:	0659      	lsls	r1, r3, #25
    7416:	d511      	bpl.n	743c <__ssvfiscanf_r+0x214>
    7418:	e018      	b.n	744c <__ssvfiscanf_r+0x224>
    741a:	9ba3      	ldr	r3, [sp, #652]	; 0x28c
    741c:	4638      	mov	r0, r7
    741e:	4621      	mov	r1, r4
    7420:	4798      	blx	r3
    7422:	2800      	cmp	r0, #0
    7424:	d0f5      	beq.n	7412 <__ssvfiscanf_r+0x1ea>
    7426:	e7aa      	b.n	737e <__ssvfiscanf_r+0x156>
    7428:	9a47      	ldr	r2, [sp, #284]	; 0x11c
    742a:	3201      	adds	r2, #1
    742c:	9247      	str	r2, [sp, #284]	; 0x11c
    742e:	6862      	ldr	r2, [r4, #4]
    7430:	3a01      	subs	r2, #1
    7432:	2a00      	cmp	r2, #0
    7434:	6062      	str	r2, [r4, #4]
    7436:	dd13      	ble.n	7460 <__ssvfiscanf_r+0x238>
    7438:	3301      	adds	r3, #1
    743a:	6023      	str	r3, [r4, #0]
    743c:	6823      	ldr	r3, [r4, #0]
    743e:	f8da 2000 	ldr.w	r2, [r10]
    7442:	7819      	ldrb	r1, [r3, #0]
    7444:	440a      	add	r2, r1
    7446:	7852      	ldrb	r2, [r2, #1]
    7448:	0712      	lsls	r2, r2, #28
    744a:	d4ed      	bmi.n	7428 <__ssvfiscanf_r+0x200>
    744c:	9b49      	ldr	r3, [sp, #292]	; 0x124
    744e:	2b02      	cmp	r3, #2
    7450:	dc0d      	bgt.n	746e <__ssvfiscanf_r+0x246>
    7452:	4638      	mov	r0, r7
    7454:	a943      	add	r1, sp, #268	; 0x10c
    7456:	4622      	mov	r2, r4
    7458:	ab01      	add	r3, sp, #4
    745a:	f000 ffad 	bl	83b8 <_scanf_chars>
    745e:	e019      	b.n	7494 <__ssvfiscanf_r+0x26c>
    7460:	9ba3      	ldr	r3, [sp, #652]	; 0x28c
    7462:	4638      	mov	r0, r7
    7464:	4621      	mov	r1, r4
    7466:	4798      	blx	r3
    7468:	2800      	cmp	r0, #0
    746a:	d0e7      	beq.n	743c <__ssvfiscanf_r+0x214>
    746c:	e787      	b.n	737e <__ssvfiscanf_r+0x156>
    746e:	2b04      	cmp	r3, #4
    7470:	dc06      	bgt.n	7480 <__ssvfiscanf_r+0x258>
    7472:	4638      	mov	r0, r7
    7474:	a943      	add	r1, sp, #268	; 0x10c
    7476:	4622      	mov	r2, r4
    7478:	ab01      	add	r3, sp, #4
    747a:	f000 fffd 	bl	8478 <_scanf_i>
    747e:	e009      	b.n	7494 <__ssvfiscanf_r+0x26c>
    7480:	4b0e      	ldr	r3, [pc, #56]	; (74bc <__ssvfiscanf_r+0x294>)
    7482:	2b00      	cmp	r3, #0
    7484:	f43f af0e 	beq.w	72a4 <__ssvfiscanf_r+0x7c>
    7488:	4638      	mov	r0, r7
    748a:	a943      	add	r1, sp, #268	; 0x10c
    748c:	4622      	mov	r2, r4
    748e:	ab01      	add	r3, sp, #4
    7490:	f000 fda6 	bl	7fe0 <_scanf_float>
    7494:	2801      	cmp	r0, #1
    7496:	d003      	beq.n	74a0 <__ssvfiscanf_r+0x278>
    7498:	2802      	cmp	r0, #2
    749a:	f47f af03 	bne.w	72a4 <__ssvfiscanf_r+0x7c>
    749e:	e76e      	b.n	737e <__ssvfiscanf_r+0x156>
    74a0:	9846      	ldr	r0, [sp, #280]	; 0x118
    74a2:	e001      	b.n	74a8 <__ssvfiscanf_r+0x280>
    74a4:	f04f 30ff 	mov.w	r0, #4294967295	; 0xffffffff
    74a8:	f50d 7d24 	add.w	sp, sp, #656	; 0x290
    74ac:	e8bd 87f0 	ldmia.w	sp!, {r4, r5, r6, r7, r8, r9, r10, pc}
    74b0:	00007175 	.word	0x00007175
    74b4:	000071ef 	.word	0x000071ef
    74b8:	100001c4 	.word	0x100001c4
    74bc:	00007fe1 	.word	0x00007fe1
    74c0:	0000c7b6 	.word	0x0000c7b6

000074c4 <__submore>:
    74c4:	e92d 41f0 	stmdb	sp!, {r4, r5, r6, r7, r8, lr}
    74c8:	460c      	mov	r4, r1
    74ca:	6b49      	ldr	r1, [r1, #52]	; 0x34
    74cc:	f104 0344 	add.w	r3, r4, #68	; 0x44
    74d0:	4299      	cmp	r1, r3
    74d2:	d11a      	bne.n	750a <__submore+0x46>
    74d4:	f44f 6180 	mov.w	r1, #1024	; 0x400
    74d8:	f7ff fa32 	bl	6940 <_malloc_r>
    74dc:	b918      	cbnz	r0, 74e6 <__submore+0x22>
    74de:	f04f 30ff 	mov.w	r0, #4294967295	; 0xffffffff
    74e2:	e8bd 81f0 	ldmia.w	sp!, {r4, r5, r6, r7, r8, pc}
    74e6:	f44f 6380 	mov.w	r3, #1024	; 0x400
    74ea:	63a3      	str	r3, [r4, #56]	; 0x38
    74ec:	f894 3046 	ldrb.w	r3, [r4, #70]	; 0x46
    74f0:	6360      	str	r0, [r4, #52]	; 0x34
    74f2:	f880 33ff 	strb.w	r3, [r0, #1023]	; 0x3ff
    74f6:	f894 3045 	ldrb.w	r3, [r4, #69]	; 0x45
    74fa:	f200 30fd 	addw	r0, r0, #1021	; 0x3fd
    74fe:	7043      	strb	r3, [r0, #1]
    7500:	f894 3044 	ldrb.w	r3, [r4, #68]	; 0x44
    7504:	7003      	strb	r3, [r0, #0]
    7506:	6020      	str	r0, [r4, #0]
    7508:	e012      	b.n	7530 <__submore+0x6c>
    750a:	6ba6      	ldr	r6, [r4, #56]	; 0x38
    750c:	0077      	lsls	r7, r6, #1
    750e:	463a      	mov	r2, r7
    7510:	f002 fc75 	bl	9dfe <_realloc_r>
    7514:	4605      	mov	r5, r0
    7516:	2800      	cmp	r0, #0
    7518:	d0e1      	beq.n	74de <__submore+0x1a>
    751a:	eb00 0806 	add.w	r8, r0, r6
    751e:	4640      	mov	r0, r8
    7520:	4629      	mov	r1, r5
    7522:	4632      	mov	r2, r6
    7524:	f7ff f9b6 	bl	6894 <memcpy>
    7528:	f8c4 8000 	str.w	r8, [r4]
    752c:	6365      	str	r5, [r4, #52]	; 0x34
    752e:	63a7      	str	r7, [r4, #56]	; 0x38
    7530:	2000      	movs	r0, #0
    7532:	e8bd 81f0 	ldmia.w	sp!, {r4, r5, r6, r7, r8, pc}

00007536 <__sfputc_r>:
    7536:	6893      	ldr	r3, [r2, #8]
    7538:	b510      	push	{r4, lr}
    753a:	3b01      	subs	r3, #1
    753c:	2b00      	cmp	r3, #0
    753e:	6093      	str	r3, [r2, #8]
    7540:	da05      	bge.n	754e <__sfputc_r+0x18>
    7542:	6994      	ldr	r4, [r2, #24]
    7544:	42a3      	cmp	r3, r4
    7546:	db08      	blt.n	755a <__sfputc_r+0x24>
    7548:	b2cb      	uxtb	r3, r1
    754a:	2b0a      	cmp	r3, #10
    754c:	d005      	beq.n	755a <__sfputc_r+0x24>
    754e:	6813      	ldr	r3, [r2, #0]
    7550:	1c58      	adds	r0, r3, #1
    7552:	6010      	str	r0, [r2, #0]
    7554:	7019      	strb	r1, [r3, #0]
    7556:	b2c8      	uxtb	r0, r1
    7558:	bd10      	pop	{r4, pc}
    755a:	e8bd 4010 	ldmia.w	sp!, {r4, lr}
    755e:	f001 b881 	b.w	8664 <__swbuf_r>

00007562 <__sfputs_r>:
    7562:	b5f8      	push	{r3, r4, r5, r6, r7, lr}
    7564:	4605      	mov	r5, r0
    7566:	460e      	mov	r6, r1
    7568:	4614      	mov	r4, r2
    756a:	18d7      	adds	r7, r2, r3
    756c:	42bc      	cmp	r4, r7
    756e:	d008      	beq.n	7582 <__sfputs_r+0x20>
    7570:	4628      	mov	r0, r5
    7572:	f814 1b01 	ldrb.w	r1, [r4], #1
    7576:	4632      	mov	r2, r6
    7578:	f7ff ffdd 	bl	7536 <__sfputc_r>
    757c:	1c43      	adds	r3, r0, #1
    757e:	d1f5      	bne.n	756c <__sfputs_r+0xa>
    7580:	e000      	b.n	7584 <__sfputs_r+0x22>
    7582:	2000      	movs	r0, #0
    7584:	bdf8      	pop	{r3, r4, r5, r6, r7, pc}
	...

00007588 <_vfiprintf_r>:
    7588:	e92d 43f0 	stmdb	sp!, {r4, r5, r6, r7, r8, r9, lr}
    758c:	b09d      	sub	sp, #116	; 0x74
    758e:	460d      	mov	r5, r1
    7590:	4617      	mov	r7, r2
    7592:	9303      	str	r3, [sp, #12]
    7594:	4606      	mov	r6, r0
    7596:	b118      	cbz	r0, 75a0 <_vfiprintf_r+0x18>
    7598:	6983      	ldr	r3, [r0, #24]
    759a:	b90b      	cbnz	r3, 75a0 <_vfiprintf_r+0x18>
    759c:	f7fe ff2a 	bl	63f4 <__sinit>
    75a0:	4b73      	ldr	r3, [pc, #460]	; (7770 <_vfiprintf_r+0x1e8>)
    75a2:	429d      	cmp	r5, r3
    75a4:	d101      	bne.n	75aa <_vfiprintf_r+0x22>
    75a6:	6875      	ldr	r5, [r6, #4]
    75a8:	e008      	b.n	75bc <_vfiprintf_r+0x34>
    75aa:	4b72      	ldr	r3, [pc, #456]	; (7774 <_vfiprintf_r+0x1ec>)
    75ac:	429d      	cmp	r5, r3
    75ae:	d101      	bne.n	75b4 <_vfiprintf_r+0x2c>
    75b0:	68b5      	ldr	r5, [r6, #8]
    75b2:	e003      	b.n	75bc <_vfiprintf_r+0x34>
    75b4:	4b70      	ldr	r3, [pc, #448]	; (7778 <_vfiprintf_r+0x1f0>)
    75b6:	429d      	cmp	r5, r3
    75b8:	bf08      	it	eq
    75ba:	68f5      	ldreq	r5, [r6, #12]
    75bc:	89ab      	ldrh	r3, [r5, #12]
    75be:	0718      	lsls	r0, r3, #28
    75c0:	d50a      	bpl.n	75d8 <_vfiprintf_r+0x50>
    75c2:	692b      	ldr	r3, [r5, #16]
    75c4:	b143      	cbz	r3, 75d8 <_vfiprintf_r+0x50>
    75c6:	2300      	movs	r3, #0
    75c8:	9309      	str	r3, [sp, #36]	; 0x24
    75ca:	2320      	movs	r3, #32
    75cc:	f88d 3029 	strb.w	r3, [sp, #41]	; 0x29
    75d0:	2330      	movs	r3, #48	; 0x30
    75d2:	f88d 302a 	strb.w	r3, [sp, #42]	; 0x2a
    75d6:	e038      	b.n	764a <_vfiprintf_r+0xc2>
    75d8:	4630      	mov	r0, r6
    75da:	4629      	mov	r1, r5
    75dc:	f001 f8a8 	bl	8730 <__swsetup_r>
    75e0:	2800      	cmp	r0, #0
    75e2:	d0f0      	beq.n	75c6 <_vfiprintf_r+0x3e>
    75e4:	f04f 30ff 	mov.w	r0, #4294967295	; 0xffffffff
    75e8:	e0be      	b.n	7768 <_vfiprintf_r+0x1e0>
    75ea:	9a03      	ldr	r2, [sp, #12]
    75ec:	1d11      	adds	r1, r2, #4
    75ee:	6812      	ldr	r2, [r2, #0]
    75f0:	9103      	str	r1, [sp, #12]
    75f2:	2a00      	cmp	r2, #0
    75f4:	db70      	blt.n	76d8 <_vfiprintf_r+0x150>
    75f6:	9207      	str	r2, [sp, #28]
    75f8:	3401      	adds	r4, #1
    75fa:	7823      	ldrb	r3, [r4, #0]
    75fc:	2b2e      	cmp	r3, #46	; 0x2e
    75fe:	d07d      	beq.n	76fc <_vfiprintf_r+0x174>
    7600:	4f5e      	ldr	r7, [pc, #376]	; (777c <_vfiprintf_r+0x1f4>)
    7602:	7821      	ldrb	r1, [r4, #0]
    7604:	4638      	mov	r0, r7
    7606:	2203      	movs	r2, #3
    7608:	f7ff f936 	bl	6878 <memchr>
    760c:	b130      	cbz	r0, 761c <_vfiprintf_r+0x94>
    760e:	1bc7      	subs	r7, r0, r7
    7610:	2040      	movs	r0, #64	; 0x40
    7612:	40b8      	lsls	r0, r7
    7614:	9b04      	ldr	r3, [sp, #16]
    7616:	3401      	adds	r4, #1
    7618:	4303      	orrs	r3, r0
    761a:	9304      	str	r3, [sp, #16]
    761c:	7821      	ldrb	r1, [r4, #0]
    761e:	4858      	ldr	r0, [pc, #352]	; (7780 <_vfiprintf_r+0x1f8>)
    7620:	2206      	movs	r2, #6
    7622:	1c67      	adds	r7, r4, #1
    7624:	f88d 1028 	strb.w	r1, [sp, #40]	; 0x28
    7628:	f7ff f926 	bl	6878 <memchr>
    762c:	2800      	cmp	r0, #0
    762e:	f000 8089 	beq.w	7744 <_vfiprintf_r+0x1bc>
    7632:	4b54      	ldr	r3, [pc, #336]	; (7784 <_vfiprintf_r+0x1fc>)
    7634:	2b00      	cmp	r3, #0
    7636:	d17c      	bne.n	7732 <_vfiprintf_r+0x1aa>
    7638:	9b03      	ldr	r3, [sp, #12]
    763a:	3307      	adds	r3, #7
    763c:	f023 0307 	bic.w	r3, r3, #7
    7640:	3308      	adds	r3, #8
    7642:	9303      	str	r3, [sp, #12]
    7644:	9b09      	ldr	r3, [sp, #36]	; 0x24
    7646:	4443      	add	r3, r8
    7648:	9309      	str	r3, [sp, #36]	; 0x24
    764a:	463b      	mov	r3, r7
    764c:	461c      	mov	r4, r3
    764e:	f813 2b01 	ldrb.w	r2, [r3], #1
    7652:	b91a      	cbnz	r2, 765c <_vfiprintf_r+0xd4>
    7654:	ebb4 0907 	subs.w	r9, r4, r7
    7658:	d00e      	beq.n	7678 <_vfiprintf_r+0xf0>
    765a:	e002      	b.n	7662 <_vfiprintf_r+0xda>
    765c:	2a25      	cmp	r2, #37	; 0x25
    765e:	d1f5      	bne.n	764c <_vfiprintf_r+0xc4>
    7660:	e7f8      	b.n	7654 <_vfiprintf_r+0xcc>
    7662:	4630      	mov	r0, r6
    7664:	4629      	mov	r1, r5
    7666:	463a      	mov	r2, r7
    7668:	464b      	mov	r3, r9
    766a:	f7ff ff7a 	bl	7562 <__sfputs_r>
    766e:	3001      	adds	r0, #1
    7670:	d075      	beq.n	775e <_vfiprintf_r+0x1d6>
    7672:	9b09      	ldr	r3, [sp, #36]	; 0x24
    7674:	444b      	add	r3, r9
    7676:	9309      	str	r3, [sp, #36]	; 0x24
    7678:	7823      	ldrb	r3, [r4, #0]
    767a:	2b00      	cmp	r3, #0
    767c:	d06f      	beq.n	775e <_vfiprintf_r+0x1d6>
    767e:	2300      	movs	r3, #0
    7680:	f04f 32ff 	mov.w	r2, #4294967295	; 0xffffffff
    7684:	9304      	str	r3, [sp, #16]
    7686:	9307      	str	r3, [sp, #28]
    7688:	9205      	str	r2, [sp, #20]
    768a:	9306      	str	r3, [sp, #24]
    768c:	f88d 3053 	strb.w	r3, [sp, #83]	; 0x53
    7690:	931a      	str	r3, [sp, #104]	; 0x68
    7692:	f104 0901 	add.w	r9, r4, #1
    7696:	4f3c      	ldr	r7, [pc, #240]	; (7788 <_vfiprintf_r+0x200>)
    7698:	464c      	mov	r4, r9
    769a:	4638      	mov	r0, r7
    769c:	7821      	ldrb	r1, [r4, #0]
    769e:	2205      	movs	r2, #5
    76a0:	f7ff f8ea 	bl	6878 <memchr>
    76a4:	f109 0901 	add.w	r9, r9, #1
    76a8:	9b04      	ldr	r3, [sp, #16]
    76aa:	b128      	cbz	r0, 76b8 <_vfiprintf_r+0x130>
    76ac:	1bc7      	subs	r7, r0, r7
    76ae:	2001      	movs	r0, #1
    76b0:	40b8      	lsls	r0, r7
    76b2:	4303      	orrs	r3, r0
    76b4:	9304      	str	r3, [sp, #16]
    76b6:	e7ee      	b.n	7696 <_vfiprintf_r+0x10e>
    76b8:	06d9      	lsls	r1, r3, #27
    76ba:	bf44      	itt	mi
    76bc:	2220      	movmi	r2, #32
    76be:	f88d 2053 	strbmi.w	r2, [sp, #83]	; 0x53
    76c2:	071a      	lsls	r2, r3, #28
    76c4:	bf44      	itt	mi
    76c6:	222b      	movmi	r2, #43	; 0x2b
    76c8:	f88d 2053 	strbmi.w	r2, [sp, #83]	; 0x53
    76cc:	7822      	ldrb	r2, [r4, #0]
    76ce:	2a2a      	cmp	r2, #42	; 0x2a
    76d0:	d08b      	beq.n	75ea <_vfiprintf_r+0x62>
    76d2:	9b07      	ldr	r3, [sp, #28]
    76d4:	4621      	mov	r1, r4
    76d6:	e005      	b.n	76e4 <_vfiprintf_r+0x15c>
    76d8:	4252      	negs	r2, r2
    76da:	f043 0302 	orr.w	r3, r3, #2
    76de:	9207      	str	r2, [sp, #28]
    76e0:	9304      	str	r3, [sp, #16]
    76e2:	e789      	b.n	75f8 <_vfiprintf_r+0x70>
    76e4:	460c      	mov	r4, r1
    76e6:	7822      	ldrb	r2, [r4, #0]
    76e8:	3101      	adds	r1, #1
    76ea:	3a30      	subs	r2, #48	; 0x30
    76ec:	2a09      	cmp	r2, #9
    76ee:	d803      	bhi.n	76f8 <_vfiprintf_r+0x170>
    76f0:	200a      	movs	r0, #10
    76f2:	fb00 2303 	mla	r3, r0, r3, r2
    76f6:	e7f5      	b.n	76e4 <_vfiprintf_r+0x15c>
    76f8:	9307      	str	r3, [sp, #28]
    76fa:	e77e      	b.n	75fa <_vfiprintf_r+0x72>
    76fc:	7863      	ldrb	r3, [r4, #1]
    76fe:	2b2a      	cmp	r3, #42	; 0x2a
    7700:	d109      	bne.n	7716 <_vfiprintf_r+0x18e>
    7702:	9b03      	ldr	r3, [sp, #12]
    7704:	3402      	adds	r4, #2
    7706:	1d1a      	adds	r2, r3, #4
    7708:	681b      	ldr	r3, [r3, #0]
    770a:	9203      	str	r2, [sp, #12]
    770c:	2b00      	cmp	r3, #0
    770e:	bfb8      	it	lt
    7710:	f04f 33ff 	movlt.w	r3, #4294967295	; 0xffffffff
    7714:	e00b      	b.n	772e <_vfiprintf_r+0x1a6>
    7716:	1c61      	adds	r1, r4, #1
    7718:	2300      	movs	r3, #0
    771a:	460c      	mov	r4, r1
    771c:	7822      	ldrb	r2, [r4, #0]
    771e:	3101      	adds	r1, #1
    7720:	3a30      	subs	r2, #48	; 0x30
    7722:	2a09      	cmp	r2, #9
    7724:	d803      	bhi.n	772e <_vfiprintf_r+0x1a6>
    7726:	200a      	movs	r0, #10
    7728:	fb00 2303 	mla	r3, r0, r3, r2
    772c:	e7f5      	b.n	771a <_vfiprintf_r+0x192>
    772e:	9305      	str	r3, [sp, #20]
    7730:	e766      	b.n	7600 <_vfiprintf_r+0x78>
    7732:	ab03      	add	r3, sp, #12
    7734:	9300      	str	r3, [sp, #0]
    7736:	4630      	mov	r0, r6
    7738:	a904      	add	r1, sp, #16
    773a:	462a      	mov	r2, r5
    773c:	4b13      	ldr	r3, [pc, #76]	; (778c <_vfiprintf_r+0x204>)
    773e:	f000 f8bb 	bl	78b8 <_printf_float>
    7742:	e007      	b.n	7754 <_vfiprintf_r+0x1cc>
    7744:	ab03      	add	r3, sp, #12
    7746:	9300      	str	r3, [sp, #0]
    7748:	4630      	mov	r0, r6
    774a:	a904      	add	r1, sp, #16
    774c:	462a      	mov	r2, r5
    774e:	4b0f      	ldr	r3, [pc, #60]	; (778c <_vfiprintf_r+0x204>)
    7750:	f000 fb32 	bl	7db8 <_printf_i>
    7754:	f1b0 3fff 	cmp.w	r0, #4294967295	; 0xffffffff
    7758:	4680      	mov	r8, r0
    775a:	f47f af73 	bne.w	7644 <_vfiprintf_r+0xbc>
    775e:	89ab      	ldrh	r3, [r5, #12]
    7760:	065b      	lsls	r3, r3, #25
    7762:	f53f af3f 	bmi.w	75e4 <_vfiprintf_r+0x5c>
    7766:	9809      	ldr	r0, [sp, #36]	; 0x24
    7768:	b01d      	add	sp, #116	; 0x74
    776a:	e8bd 83f0 	ldmia.w	sp!, {r4, r5, r6, r7, r8, r9, pc}
    776e:	bf00      	nop
    7770:	0000c748 	.word	0x0000c748
    7774:	0000c768 	.word	0x0000c768
    7778:	0000c788 	.word	0x0000c788
    777c:	0000c7b6 	.word	0x0000c7b6
    7780:	0000c7ba 	.word	0x0000c7ba
    7784:	000078b9 	.word	0x000078b9
    7788:	0000c7b0 	.word	0x0000c7b0
    778c:	00007563 	.word	0x00007563

00007790 <__cvt>:
    7790:	e92d 47f0 	stmdb	sp!, {r4, r5, r6, r7, r8, r9, r10, lr}
    7794:	2b00      	cmp	r3, #0
    7796:	b088      	sub	sp, #32
    7798:	4614      	mov	r4, r2
    779a:	461d      	mov	r5, r3
    779c:	9e10      	ldr	r6, [sp, #64]	; 0x40
    779e:	9912      	ldr	r1, [sp, #72]	; 0x48
    77a0:	9f13      	ldr	r7, [sp, #76]	; 0x4c
    77a2:	da05      	bge.n	77b0 <__cvt+0x20>
    77a4:	f105 4300 	add.w	r3, r5, #2147483648	; 0x80000000
    77a8:	461d      	mov	r5, r3
    77aa:	4614      	mov	r4, r2
    77ac:	232d      	movs	r3, #45	; 0x2d
    77ae:	e000      	b.n	77b2 <__cvt+0x22>
    77b0:	2300      	movs	r3, #0
    77b2:	700b      	strb	r3, [r1, #0]
    77b4:	9b14      	ldr	r3, [sp, #80]	; 0x50
    77b6:	f023 0a20 	bic.w	r10, r3, #32
    77ba:	f1ba 0f46 	cmp.w	r10, #70	; 0x46
    77be:	d004      	beq.n	77ca <__cvt+0x3a>
    77c0:	f1ba 0f45 	cmp.w	r10, #69	; 0x45
    77c4:	d103      	bne.n	77ce <__cvt+0x3e>
    77c6:	3601      	adds	r6, #1
    77c8:	e001      	b.n	77ce <__cvt+0x3e>
    77ca:	2303      	movs	r3, #3
    77cc:	e000      	b.n	77d0 <__cvt+0x40>
    77ce:	2302      	movs	r3, #2
    77d0:	e88d 00c8 	stmia.w	sp, {r3, r6, r7}
    77d4:	ab06      	add	r3, sp, #24
    77d6:	9303      	str	r3, [sp, #12]
    77d8:	ab07      	add	r3, sp, #28
    77da:	9304      	str	r3, [sp, #16]
    77dc:	4622      	mov	r2, r4
    77de:	462b      	mov	r3, r5
    77e0:	f001 f8b6 	bl	8950 <_dtoa_r>
    77e4:	f1ba 0f47 	cmp.w	r10, #71	; 0x47
    77e8:	4680      	mov	r8, r0
    77ea:	d102      	bne.n	77f2 <__cvt+0x62>
    77ec:	9b11      	ldr	r3, [sp, #68]	; 0x44
    77ee:	07db      	lsls	r3, r3, #31
    77f0:	d525      	bpl.n	783e <__cvt+0xae>
    77f2:	f1ba 0f46 	cmp.w	r10, #70	; 0x46
    77f6:	eb08 0906 	add.w	r9, r8, r6
    77fa:	d10f      	bne.n	781c <__cvt+0x8c>
    77fc:	f898 3000 	ldrb.w	r3, [r8]
    7800:	2b30      	cmp	r3, #48	; 0x30
    7802:	d109      	bne.n	7818 <__cvt+0x88>
    7804:	4620      	mov	r0, r4
    7806:	4629      	mov	r1, r5
    7808:	2200      	movs	r2, #0
    780a:	2300      	movs	r3, #0
    780c:	f7fe f896 	bl	593c <__aeabi_dcmpeq>
    7810:	b910      	cbnz	r0, 7818 <__cvt+0x88>
    7812:	f1c6 0601 	rsb	r6, r6, #1
    7816:	603e      	str	r6, [r7, #0]
    7818:	683b      	ldr	r3, [r7, #0]
    781a:	4499      	add	r9, r3
    781c:	4620      	mov	r0, r4
    781e:	4629      	mov	r1, r5
    7820:	2200      	movs	r2, #0
    7822:	2300      	movs	r3, #0
    7824:	f7fe f88a 	bl	593c <__aeabi_dcmpeq>
    7828:	b108      	cbz	r0, 782e <__cvt+0x9e>
    782a:	f8cd 901c 	str.w	r9, [sp, #28]
    782e:	9b07      	ldr	r3, [sp, #28]
    7830:	454b      	cmp	r3, r9
    7832:	d204      	bcs.n	783e <__cvt+0xae>
    7834:	1c5a      	adds	r2, r3, #1
    7836:	9207      	str	r2, [sp, #28]
    7838:	2230      	movs	r2, #48	; 0x30
    783a:	701a      	strb	r2, [r3, #0]
    783c:	e7f7      	b.n	782e <__cvt+0x9e>
    783e:	9b07      	ldr	r3, [sp, #28]
    7840:	4640      	mov	r0, r8
    7842:	ebc8 0203 	rsb	r2, r8, r3
    7846:	9b15      	ldr	r3, [sp, #84]	; 0x54
    7848:	601a      	str	r2, [r3, #0]
    784a:	b008      	add	sp, #32
    784c:	e8bd 87f0 	ldmia.w	sp!, {r4, r5, r6, r7, r8, r9, r10, pc}

00007850 <__exponent>:
    7850:	b573      	push	{r0, r1, r4, r5, r6, lr}
    7852:	4603      	mov	r3, r0
    7854:	2900      	cmp	r1, #0
    7856:	f803 2b02 	strb.w	r2, [r3], #2
    785a:	da03      	bge.n	7864 <__exponent+0x14>
    785c:	4249      	negs	r1, r1
    785e:	461a      	mov	r2, r3
    7860:	242d      	movs	r4, #45	; 0x2d
    7862:	e001      	b.n	7868 <__exponent+0x18>
    7864:	461a      	mov	r2, r3
    7866:	242b      	movs	r4, #43	; 0x2b
    7868:	2909      	cmp	r1, #9
    786a:	7044      	strb	r4, [r0, #1]
    786c:	dd1b      	ble.n	78a6 <__exponent+0x56>
    786e:	f10d 0406 	add.w	r4, sp, #6
    7872:	260a      	movs	r6, #10
    7874:	fb91 f5f6 	sdiv	r5, r1, r6
    7878:	fb06 1115 	mls	r1, r6, r5, r1
    787c:	2d09      	cmp	r5, #9
    787e:	f101 0130 	add.w	r1, r1, #48	; 0x30
    7882:	4623      	mov	r3, r4
    7884:	f804 1901 	strb.w	r1, [r4], #-1
    7888:	4629      	mov	r1, r5
    788a:	dcf2      	bgt.n	7872 <__exponent+0x22>
    788c:	f105 0130 	add.w	r1, r5, #48	; 0x30
    7890:	f803 1d01 	strb.w	r1, [r3, #-1]!
    7894:	f10d 0107 	add.w	r1, sp, #7
    7898:	428b      	cmp	r3, r1
    789a:	d20a      	bcs.n	78b2 <__exponent+0x62>
    789c:	f813 1b01 	ldrb.w	r1, [r3], #1
    78a0:	f802 1b01 	strb.w	r1, [r2], #1
    78a4:	e7f6      	b.n	7894 <__exponent+0x44>
    78a6:	2430      	movs	r4, #48	; 0x30
    78a8:	461a      	mov	r2, r3
    78aa:	4421      	add	r1, r4
    78ac:	f802 4b02 	strb.w	r4, [r2], #2
    78b0:	7059      	strb	r1, [r3, #1]
    78b2:	1a10      	subs	r0, r2, r0
    78b4:	b002      	add	sp, #8
    78b6:	bd70      	pop	{r4, r5, r6, pc}

000078b8 <_printf_float>:
    78b8:	e92d 4ff0 	stmdb	sp!, {r4, r5, r6, r7, r8, r9, r10, r11, lr}
    78bc:	b08f      	sub	sp, #60	; 0x3c
    78be:	460c      	mov	r4, r1
    78c0:	4616      	mov	r6, r2
    78c2:	461f      	mov	r7, r3
    78c4:	f8dd 9060 	ldr.w	r9, [sp, #96]	; 0x60
    78c8:	4605      	mov	r5, r0
    78ca:	f001 fe5b 	bl	9584 <_localeconv_r>
    78ce:	f8d0 a000 	ldr.w	r10, [r0]
    78d2:	4650      	mov	r0, r10
    78d4:	f7ff facf 	bl	6e76 <strlen>
    78d8:	2300      	movs	r3, #0
    78da:	930c      	str	r3, [sp, #48]	; 0x30
    78dc:	f8d9 3000 	ldr.w	r3, [r9]
    78e0:	9009      	str	r0, [sp, #36]	; 0x24
    78e2:	3307      	adds	r3, #7
    78e4:	f023 0307 	bic.w	r3, r3, #7
    78e8:	f103 0208 	add.w	r2, r3, #8
    78ec:	e9d3 0100 	ldrd	r0, r1, [r3]
    78f0:	f894 8018 	ldrb.w	r8, [r4, #24]
    78f4:	f8c9 2000 	str.w	r2, [r9]
    78f8:	e9c4 0112 	strd	r0, r1, [r4, #72]	; 0x48
    78fc:	f002 fab8 	bl	9e70 <__fpclassifyd>
    7900:	2801      	cmp	r0, #1
    7902:	e9d4 0112 	ldrd	r0, r1, [r4, #72]	; 0x48
    7906:	d117      	bne.n	7938 <_printf_float+0x80>
    7908:	2200      	movs	r2, #0
    790a:	2300      	movs	r3, #0
    790c:	f7fe f820 	bl	5950 <__aeabi_dcmplt>
    7910:	b110      	cbz	r0, 7918 <_printf_float+0x60>
    7912:	232d      	movs	r3, #45	; 0x2d
    7914:	f884 3043 	strb.w	r3, [r4, #67]	; 0x43
    7918:	4b90      	ldr	r3, [pc, #576]	; (7b5c <_printf_float+0x2a4>)
    791a:	4a91      	ldr	r2, [pc, #580]	; (7b60 <_printf_float+0x2a8>)
    791c:	f1b8 0f47 	cmp.w	r8, #71	; 0x47
    7920:	bf8c      	ite	hi
    7922:	4691      	movhi	r9, r2
    7924:	4699      	movls	r9, r3
    7926:	2303      	movs	r3, #3
    7928:	6123      	str	r3, [r4, #16]
    792a:	6823      	ldr	r3, [r4, #0]
    792c:	f023 0304 	bic.w	r3, r3, #4
    7930:	6023      	str	r3, [r4, #0]
    7932:	f04f 0b00 	mov.w	r11, #0
    7936:	e086      	b.n	7a46 <_printf_float+0x18e>
    7938:	f002 fa9a 	bl	9e70 <__fpclassifyd>
    793c:	6823      	ldr	r3, [r4, #0]
    793e:	b948      	cbnz	r0, 7954 <_printf_float+0x9c>
    7940:	4a88      	ldr	r2, [pc, #544]	; (7b64 <_printf_float+0x2ac>)
    7942:	4989      	ldr	r1, [pc, #548]	; (7b68 <_printf_float+0x2b0>)
    7944:	f1b8 0f47 	cmp.w	r8, #71	; 0x47
    7948:	bf8c      	ite	hi
    794a:	4689      	movhi	r9, r1
    794c:	4691      	movls	r9, r2
    794e:	2203      	movs	r2, #3
    7950:	6122      	str	r2, [r4, #16]
    7952:	e7eb      	b.n	792c <_printf_float+0x74>
    7954:	6862      	ldr	r2, [r4, #4]
    7956:	f028 0b20 	bic.w	r11, r8, #32
    795a:	1c51      	adds	r1, r2, #1
    795c:	d101      	bne.n	7962 <_printf_float+0xaa>
    795e:	2206      	movs	r2, #6
    7960:	e004      	b.n	796c <_printf_float+0xb4>
    7962:	f1bb 0f47 	cmp.w	r11, #71	; 0x47
    7966:	d102      	bne.n	796e <_printf_float+0xb6>
    7968:	b90a      	cbnz	r2, 796e <_printf_float+0xb6>
    796a:	2201      	movs	r2, #1
    796c:	6062      	str	r2, [r4, #4]
    796e:	6860      	ldr	r0, [r4, #4]
    7970:	f443 6180 	orr.w	r1, r3, #1024	; 0x400
    7974:	e88d 0003 	stmia.w	sp, {r0, r1}
    7978:	e9d4 2312 	ldrd	r2, r3, [r4, #72]	; 0x48
    797c:	f10d 002b 	add.w	r0, sp, #43	; 0x2b
    7980:	9002      	str	r0, [sp, #8]
    7982:	a80b      	add	r0, sp, #44	; 0x2c
    7984:	9003      	str	r0, [sp, #12]
    7986:	a80c      	add	r0, sp, #48	; 0x30
    7988:	9005      	str	r0, [sp, #20]
    798a:	2000      	movs	r0, #0
    798c:	6021      	str	r1, [r4, #0]
    798e:	9006      	str	r0, [sp, #24]
    7990:	f8cd 8010 	str.w	r8, [sp, #16]
    7994:	4628      	mov	r0, r5
    7996:	f7ff fefb 	bl	7790 <__cvt>
    799a:	f1bb 0f47 	cmp.w	r11, #71	; 0x47
    799e:	4681      	mov	r9, r0
    79a0:	990b      	ldr	r1, [sp, #44]	; 0x2c
    79a2:	d109      	bne.n	79b8 <_printf_float+0x100>
    79a4:	1cc8      	adds	r0, r1, #3
    79a6:	db02      	blt.n	79ae <_printf_float+0xf6>
    79a8:	6863      	ldr	r3, [r4, #4]
    79aa:	4299      	cmp	r1, r3
    79ac:	dd30      	ble.n	7a10 <_printf_float+0x158>
    79ae:	f1a8 0802 	sub.w	r8, r8, #2
    79b2:	fa5f f888 	uxtb.w	r8, r8
    79b6:	e002      	b.n	79be <_printf_float+0x106>
    79b8:	f1b8 0f65 	cmp.w	r8, #101	; 0x65
    79bc:	d812      	bhi.n	79e4 <_printf_float+0x12c>
    79be:	3901      	subs	r1, #1
    79c0:	4642      	mov	r2, r8
    79c2:	f104 0050 	add.w	r0, r4, #80	; 0x50
    79c6:	910b      	str	r1, [sp, #44]	; 0x2c
    79c8:	f7ff ff42 	bl	7850 <__exponent>
    79cc:	9a0c      	ldr	r2, [sp, #48]	; 0x30
    79ce:	4683      	mov	r11, r0
    79d0:	1883      	adds	r3, r0, r2
    79d2:	2a01      	cmp	r2, #1
    79d4:	6123      	str	r3, [r4, #16]
    79d6:	dc02      	bgt.n	79de <_printf_float+0x126>
    79d8:	6822      	ldr	r2, [r4, #0]
    79da:	07d2      	lsls	r2, r2, #31
    79dc:	d52d      	bpl.n	7a3a <_printf_float+0x182>
    79de:	3301      	adds	r3, #1
    79e0:	6123      	str	r3, [r4, #16]
    79e2:	e02a      	b.n	7a3a <_printf_float+0x182>
    79e4:	f1b8 0f66 	cmp.w	r8, #102	; 0x66
    79e8:	d114      	bne.n	7a14 <_printf_float+0x15c>
    79ea:	2900      	cmp	r1, #0
    79ec:	6863      	ldr	r3, [r4, #4]
    79ee:	dd07      	ble.n	7a00 <_printf_float+0x148>
    79f0:	6121      	str	r1, [r4, #16]
    79f2:	b913      	cbnz	r3, 79fa <_printf_float+0x142>
    79f4:	6822      	ldr	r2, [r4, #0]
    79f6:	07d0      	lsls	r0, r2, #31
    79f8:	d51c      	bpl.n	7a34 <_printf_float+0x17c>
    79fa:	3301      	adds	r3, #1
    79fc:	440b      	add	r3, r1
    79fe:	e018      	b.n	7a32 <_printf_float+0x17a>
    7a00:	b913      	cbnz	r3, 7a08 <_printf_float+0x150>
    7a02:	6822      	ldr	r2, [r4, #0]
    7a04:	07d2      	lsls	r2, r2, #31
    7a06:	d501      	bpl.n	7a0c <_printf_float+0x154>
    7a08:	3302      	adds	r3, #2
    7a0a:	e012      	b.n	7a32 <_printf_float+0x17a>
    7a0c:	2301      	movs	r3, #1
    7a0e:	e010      	b.n	7a32 <_printf_float+0x17a>
    7a10:	f04f 0867 	mov.w	r8, #103	; 0x67
    7a14:	9a0c      	ldr	r2, [sp, #48]	; 0x30
    7a16:	4291      	cmp	r1, r2
    7a18:	db05      	blt.n	7a26 <_printf_float+0x16e>
    7a1a:	6823      	ldr	r3, [r4, #0]
    7a1c:	6121      	str	r1, [r4, #16]
    7a1e:	07d8      	lsls	r0, r3, #31
    7a20:	d508      	bpl.n	7a34 <_printf_float+0x17c>
    7a22:	1c4b      	adds	r3, r1, #1
    7a24:	e005      	b.n	7a32 <_printf_float+0x17a>
    7a26:	2900      	cmp	r1, #0
    7a28:	bfd4      	ite	le
    7a2a:	f1c1 0302 	rsble	r3, r1, #2
    7a2e:	2301      	movgt	r3, #1
    7a30:	4413      	add	r3, r2
    7a32:	6123      	str	r3, [r4, #16]
    7a34:	65a1      	str	r1, [r4, #88]	; 0x58
    7a36:	f04f 0b00 	mov.w	r11, #0
    7a3a:	f89d 302b 	ldrb.w	r3, [sp, #43]	; 0x2b
    7a3e:	b113      	cbz	r3, 7a46 <_printf_float+0x18e>
    7a40:	232d      	movs	r3, #45	; 0x2d
    7a42:	f884 3043 	strb.w	r3, [r4, #67]	; 0x43
    7a46:	9700      	str	r7, [sp, #0]
    7a48:	4628      	mov	r0, r5
    7a4a:	4621      	mov	r1, r4
    7a4c:	aa0d      	add	r2, sp, #52	; 0x34
    7a4e:	4633      	mov	r3, r6
    7a50:	f000 f940 	bl	7cd4 <_printf_common>
    7a54:	3001      	adds	r0, #1
    7a56:	d102      	bne.n	7a5e <_printf_float+0x1a6>
    7a58:	f04f 30ff 	mov.w	r0, #4294967295	; 0xffffffff
    7a5c:	e136      	b.n	7ccc <_printf_float+0x414>
    7a5e:	6823      	ldr	r3, [r4, #0]
    7a60:	055a      	lsls	r2, r3, #21
    7a62:	d404      	bmi.n	7a6e <_printf_float+0x1b6>
    7a64:	4628      	mov	r0, r5
    7a66:	4631      	mov	r1, r6
    7a68:	464a      	mov	r2, r9
    7a6a:	6923      	ldr	r3, [r4, #16]
    7a6c:	e108      	b.n	7c80 <_printf_float+0x3c8>
    7a6e:	f1b8 0f65 	cmp.w	r8, #101	; 0x65
    7a72:	f240 80cb 	bls.w	7c0c <_printf_float+0x354>
    7a76:	e9d4 0112 	ldrd	r0, r1, [r4, #72]	; 0x48
    7a7a:	2200      	movs	r2, #0
    7a7c:	2300      	movs	r3, #0
    7a7e:	f7fd ff5d 	bl	593c <__aeabi_dcmpeq>
    7a82:	2800      	cmp	r0, #0
    7a84:	d02a      	beq.n	7adc <_printf_float+0x224>
    7a86:	4628      	mov	r0, r5
    7a88:	4631      	mov	r1, r6
    7a8a:	4a38      	ldr	r2, [pc, #224]	; (7b6c <_printf_float+0x2b4>)
    7a8c:	2301      	movs	r3, #1
    7a8e:	47b8      	blx	r7
    7a90:	3001      	adds	r0, #1
    7a92:	d0e1      	beq.n	7a58 <_printf_float+0x1a0>
    7a94:	9b0c      	ldr	r3, [sp, #48]	; 0x30
    7a96:	9a0b      	ldr	r2, [sp, #44]	; 0x2c
    7a98:	429a      	cmp	r2, r3
    7a9a:	db07      	blt.n	7aac <_printf_float+0x1f4>
    7a9c:	6823      	ldr	r3, [r4, #0]
    7a9e:	07d8      	lsls	r0, r3, #31
    7aa0:	d404      	bmi.n	7aac <_printf_float+0x1f4>
    7aa2:	6823      	ldr	r3, [r4, #0]
    7aa4:	079b      	lsls	r3, r3, #30
    7aa6:	f100 80f8 	bmi.w	7c9a <_printf_float+0x3e2>
    7aaa:	e0fd      	b.n	7ca8 <_printf_float+0x3f0>
    7aac:	4628      	mov	r0, r5
    7aae:	4631      	mov	r1, r6
    7ab0:	4652      	mov	r2, r10
    7ab2:	9b09      	ldr	r3, [sp, #36]	; 0x24
    7ab4:	47b8      	blx	r7
    7ab6:	3001      	adds	r0, #1
    7ab8:	d0ce      	beq.n	7a58 <_printf_float+0x1a0>
    7aba:	f04f 0800 	mov.w	r8, #0
    7abe:	9b0c      	ldr	r3, [sp, #48]	; 0x30
    7ac0:	3b01      	subs	r3, #1
    7ac2:	4598      	cmp	r8, r3
    7ac4:	daed      	bge.n	7aa2 <_printf_float+0x1ea>
    7ac6:	4628      	mov	r0, r5
    7ac8:	4631      	mov	r1, r6
    7aca:	f104 021a 	add.w	r2, r4, #26
    7ace:	2301      	movs	r3, #1
    7ad0:	47b8      	blx	r7
    7ad2:	3001      	adds	r0, #1
    7ad4:	d0c0      	beq.n	7a58 <_printf_float+0x1a0>
    7ad6:	f108 0801 	add.w	r8, r8, #1
    7ada:	e7f0      	b.n	7abe <_printf_float+0x206>
    7adc:	9b0b      	ldr	r3, [sp, #44]	; 0x2c
    7ade:	2b00      	cmp	r3, #0
    7ae0:	dc28      	bgt.n	7b34 <_printf_float+0x27c>
    7ae2:	4628      	mov	r0, r5
    7ae4:	4631      	mov	r1, r6
    7ae6:	4a21      	ldr	r2, [pc, #132]	; (7b6c <_printf_float+0x2b4>)
    7ae8:	2301      	movs	r3, #1
    7aea:	47b8      	blx	r7
    7aec:	3001      	adds	r0, #1
    7aee:	d0b3      	beq.n	7a58 <_printf_float+0x1a0>
    7af0:	9b0b      	ldr	r3, [sp, #44]	; 0x2c
    7af2:	b923      	cbnz	r3, 7afe <_printf_float+0x246>
    7af4:	9b0c      	ldr	r3, [sp, #48]	; 0x30
    7af6:	b913      	cbnz	r3, 7afe <_printf_float+0x246>
    7af8:	6823      	ldr	r3, [r4, #0]
    7afa:	07d9      	lsls	r1, r3, #31
    7afc:	d5d1      	bpl.n	7aa2 <_printf_float+0x1ea>
    7afe:	4628      	mov	r0, r5
    7b00:	4631      	mov	r1, r6
    7b02:	4652      	mov	r2, r10
    7b04:	9b09      	ldr	r3, [sp, #36]	; 0x24
    7b06:	47b8      	blx	r7
    7b08:	3001      	adds	r0, #1
    7b0a:	d0a5      	beq.n	7a58 <_printf_float+0x1a0>
    7b0c:	f04f 0800 	mov.w	r8, #0
    7b10:	9b0b      	ldr	r3, [sp, #44]	; 0x2c
    7b12:	4628      	mov	r0, r5
    7b14:	425b      	negs	r3, r3
    7b16:	4598      	cmp	r8, r3
    7b18:	4631      	mov	r1, r6
    7b1a:	da08      	bge.n	7b2e <_printf_float+0x276>
    7b1c:	f104 021a 	add.w	r2, r4, #26
    7b20:	2301      	movs	r3, #1
    7b22:	47b8      	blx	r7
    7b24:	3001      	adds	r0, #1
    7b26:	d097      	beq.n	7a58 <_printf_float+0x1a0>
    7b28:	f108 0801 	add.w	r8, r8, #1
    7b2c:	e7f0      	b.n	7b10 <_printf_float+0x258>
    7b2e:	464a      	mov	r2, r9
    7b30:	9b0c      	ldr	r3, [sp, #48]	; 0x30
    7b32:	e0a5      	b.n	7c80 <_printf_float+0x3c8>
    7b34:	6da3      	ldr	r3, [r4, #88]	; 0x58
    7b36:	9a0c      	ldr	r2, [sp, #48]	; 0x30
    7b38:	429a      	cmp	r2, r3
    7b3a:	bfb4      	ite	lt
    7b3c:	4693      	movlt	r11, r2
    7b3e:	469b      	movge	r11, r3
    7b40:	f1bb 0f00 	cmp.w	r11, #0
    7b44:	dc02      	bgt.n	7b4c <_printf_float+0x294>
    7b46:	f04f 0800 	mov.w	r8, #0
    7b4a:	e01c      	b.n	7b86 <_printf_float+0x2ce>
    7b4c:	4628      	mov	r0, r5
    7b4e:	4631      	mov	r1, r6
    7b50:	464a      	mov	r2, r9
    7b52:	465b      	mov	r3, r11
    7b54:	47b8      	blx	r7
    7b56:	3001      	adds	r0, #1
    7b58:	d1f5      	bne.n	7b46 <_printf_float+0x28e>
    7b5a:	e77d      	b.n	7a58 <_printf_float+0x1a0>
    7b5c:	0000c7c1 	.word	0x0000c7c1
    7b60:	0000c7c5 	.word	0x0000c7c5
    7b64:	0000c7c9 	.word	0x0000c7c9
    7b68:	0000c7cd 	.word	0x0000c7cd
    7b6c:	0000c81a 	.word	0x0000c81a
    7b70:	4628      	mov	r0, r5
    7b72:	4631      	mov	r1, r6
    7b74:	f104 021a 	add.w	r2, r4, #26
    7b78:	2301      	movs	r3, #1
    7b7a:	47b8      	blx	r7
    7b7c:	3001      	adds	r0, #1
    7b7e:	f43f af6b 	beq.w	7a58 <_printf_float+0x1a0>
    7b82:	f108 0801 	add.w	r8, r8, #1
    7b86:	6da3      	ldr	r3, [r4, #88]	; 0x58
    7b88:	ea2b 72eb 	bic.w	r2, r11, r11, asr #31
    7b8c:	1a9a      	subs	r2, r3, r2
    7b8e:	4590      	cmp	r8, r2
    7b90:	dbee      	blt.n	7b70 <_printf_float+0x2b8>
    7b92:	eb09 0803 	add.w	r8, r9, r3
    7b96:	9a0b      	ldr	r2, [sp, #44]	; 0x2c
    7b98:	9b0c      	ldr	r3, [sp, #48]	; 0x30
    7b9a:	429a      	cmp	r2, r3
    7b9c:	db0f      	blt.n	7bbe <_printf_float+0x306>
    7b9e:	6823      	ldr	r3, [r4, #0]
    7ba0:	07da      	lsls	r2, r3, #31
    7ba2:	d40c      	bmi.n	7bbe <_printf_float+0x306>
    7ba4:	9b0c      	ldr	r3, [sp, #48]	; 0x30
    7ba6:	9a0b      	ldr	r2, [sp, #44]	; 0x2c
    7ba8:	4499      	add	r9, r3
    7baa:	ebc8 0909 	rsb	r9, r8, r9
    7bae:	1a9b      	subs	r3, r3, r2
    7bb0:	4599      	cmp	r9, r3
    7bb2:	bfa8      	it	ge
    7bb4:	4699      	movge	r9, r3
    7bb6:	f1b9 0f00 	cmp.w	r9, #0
    7bba:	dc08      	bgt.n	7bce <_printf_float+0x316>
    7bbc:	e00f      	b.n	7bde <_printf_float+0x326>
    7bbe:	4628      	mov	r0, r5
    7bc0:	4631      	mov	r1, r6
    7bc2:	4652      	mov	r2, r10
    7bc4:	9b09      	ldr	r3, [sp, #36]	; 0x24
    7bc6:	47b8      	blx	r7
    7bc8:	3001      	adds	r0, #1
    7bca:	d1eb      	bne.n	7ba4 <_printf_float+0x2ec>
    7bcc:	e744      	b.n	7a58 <_printf_float+0x1a0>
    7bce:	4628      	mov	r0, r5
    7bd0:	4631      	mov	r1, r6
    7bd2:	4642      	mov	r2, r8
    7bd4:	464b      	mov	r3, r9
    7bd6:	47b8      	blx	r7
    7bd8:	3001      	adds	r0, #1
    7bda:	f43f af3d 	beq.w	7a58 <_printf_float+0x1a0>
    7bde:	f04f 0800 	mov.w	r8, #0
    7be2:	e00a      	b.n	7bfa <_printf_float+0x342>
    7be4:	4628      	mov	r0, r5
    7be6:	4631      	mov	r1, r6
    7be8:	f104 021a 	add.w	r2, r4, #26
    7bec:	2301      	movs	r3, #1
    7bee:	47b8      	blx	r7
    7bf0:	3001      	adds	r0, #1
    7bf2:	f43f af31 	beq.w	7a58 <_printf_float+0x1a0>
    7bf6:	f108 0801 	add.w	r8, r8, #1
    7bfa:	9b0b      	ldr	r3, [sp, #44]	; 0x2c
    7bfc:	9a0c      	ldr	r2, [sp, #48]	; 0x30
    7bfe:	ea29 71e9 	bic.w	r1, r9, r9, asr #31
    7c02:	1ad3      	subs	r3, r2, r3
    7c04:	1a5b      	subs	r3, r3, r1
    7c06:	4598      	cmp	r8, r3
    7c08:	dbec      	blt.n	7be4 <_printf_float+0x32c>
    7c0a:	e74a      	b.n	7aa2 <_printf_float+0x1ea>
    7c0c:	9a0c      	ldr	r2, [sp, #48]	; 0x30
    7c0e:	2a01      	cmp	r2, #1
    7c10:	dc01      	bgt.n	7c16 <_printf_float+0x35e>
    7c12:	07db      	lsls	r3, r3, #31
    7c14:	d539      	bpl.n	7c8a <_printf_float+0x3d2>
    7c16:	4628      	mov	r0, r5
    7c18:	4631      	mov	r1, r6
    7c1a:	464a      	mov	r2, r9
    7c1c:	2301      	movs	r3, #1
    7c1e:	47b8      	blx	r7
    7c20:	3001      	adds	r0, #1
    7c22:	f43f af19 	beq.w	7a58 <_printf_float+0x1a0>
    7c26:	4628      	mov	r0, r5
    7c28:	4631      	mov	r1, r6
    7c2a:	4652      	mov	r2, r10
    7c2c:	9b09      	ldr	r3, [sp, #36]	; 0x24
    7c2e:	47b8      	blx	r7
    7c30:	3001      	adds	r0, #1
    7c32:	f43f af11 	beq.w	7a58 <_printf_float+0x1a0>
    7c36:	e9d4 0112 	ldrd	r0, r1, [r4, #72]	; 0x48
    7c3a:	2200      	movs	r2, #0
    7c3c:	2300      	movs	r3, #0
    7c3e:	f7fd fe7d 	bl	593c <__aeabi_dcmpeq>
    7c42:	b110      	cbz	r0, 7c4a <_printf_float+0x392>
    7c44:	f04f 0800 	mov.w	r8, #0
    7c48:	e011      	b.n	7c6e <_printf_float+0x3b6>
    7c4a:	9b0c      	ldr	r3, [sp, #48]	; 0x30
    7c4c:	4628      	mov	r0, r5
    7c4e:	4631      	mov	r1, r6
    7c50:	f109 0201 	add.w	r2, r9, #1
    7c54:	3b01      	subs	r3, #1
    7c56:	e01c      	b.n	7c92 <_printf_float+0x3da>
    7c58:	4628      	mov	r0, r5
    7c5a:	4631      	mov	r1, r6
    7c5c:	f104 021a 	add.w	r2, r4, #26
    7c60:	2301      	movs	r3, #1
    7c62:	47b8      	blx	r7
    7c64:	3001      	adds	r0, #1
    7c66:	f43f aef7 	beq.w	7a58 <_printf_float+0x1a0>
    7c6a:	f108 0801 	add.w	r8, r8, #1
    7c6e:	9b0c      	ldr	r3, [sp, #48]	; 0x30
    7c70:	3b01      	subs	r3, #1
    7c72:	4598      	cmp	r8, r3
    7c74:	dbf0      	blt.n	7c58 <_printf_float+0x3a0>
    7c76:	4628      	mov	r0, r5
    7c78:	4631      	mov	r1, r6
    7c7a:	f104 0250 	add.w	r2, r4, #80	; 0x50
    7c7e:	465b      	mov	r3, r11
    7c80:	47b8      	blx	r7
    7c82:	3001      	adds	r0, #1
    7c84:	f47f af0d 	bne.w	7aa2 <_printf_float+0x1ea>
    7c88:	e6e6      	b.n	7a58 <_printf_float+0x1a0>
    7c8a:	4628      	mov	r0, r5
    7c8c:	4631      	mov	r1, r6
    7c8e:	464a      	mov	r2, r9
    7c90:	2301      	movs	r3, #1
    7c92:	47b8      	blx	r7
    7c94:	3001      	adds	r0, #1
    7c96:	d1ee      	bne.n	7c76 <_printf_float+0x3be>
    7c98:	e6de      	b.n	7a58 <_printf_float+0x1a0>
    7c9a:	f04f 0800 	mov.w	r8, #0
    7c9e:	68e2      	ldr	r2, [r4, #12]
    7ca0:	9b0d      	ldr	r3, [sp, #52]	; 0x34
    7ca2:	1ad3      	subs	r3, r2, r3
    7ca4:	4598      	cmp	r8, r3
    7ca6:	db05      	blt.n	7cb4 <_printf_float+0x3fc>
    7ca8:	68e0      	ldr	r0, [r4, #12]
    7caa:	9b0d      	ldr	r3, [sp, #52]	; 0x34
    7cac:	4298      	cmp	r0, r3
    7cae:	bfb8      	it	lt
    7cb0:	4618      	movlt	r0, r3
    7cb2:	e00b      	b.n	7ccc <_printf_float+0x414>
    7cb4:	4628      	mov	r0, r5
    7cb6:	4631      	mov	r1, r6
    7cb8:	f104 0219 	add.w	r2, r4, #25
    7cbc:	2301      	movs	r3, #1
    7cbe:	47b8      	blx	r7
    7cc0:	3001      	adds	r0, #1
    7cc2:	f43f aec9 	beq.w	7a58 <_printf_float+0x1a0>
    7cc6:	f108 0801 	add.w	r8, r8, #1
    7cca:	e7e8      	b.n	7c9e <_printf_float+0x3e6>
    7ccc:	b00f      	add	sp, #60	; 0x3c
    7cce:	e8bd 8ff0 	ldmia.w	sp!, {r4, r5, r6, r7, r8, r9, r10, r11, pc}
    7cd2:	bf00      	nop

00007cd4 <_printf_common>:
    7cd4:	e92d 43f8 	stmdb	sp!, {r3, r4, r5, r6, r7, r8, r9, lr}
    7cd8:	4615      	mov	r5, r2
    7cda:	461f      	mov	r7, r3
    7cdc:	688a      	ldr	r2, [r1, #8]
    7cde:	690b      	ldr	r3, [r1, #16]
    7ce0:	4606      	mov	r6, r0
    7ce2:	429a      	cmp	r2, r3
    7ce4:	bfa8      	it	ge
    7ce6:	4613      	movge	r3, r2
    7ce8:	602b      	str	r3, [r5, #0]
    7cea:	f891 2043 	ldrb.w	r2, [r1, #67]	; 0x43
    7cee:	460c      	mov	r4, r1
    7cf0:	f8dd 8020 	ldr.w	r8, [sp, #32]
    7cf4:	b10a      	cbz	r2, 7cfa <_printf_common+0x26>
    7cf6:	3301      	adds	r3, #1
    7cf8:	602b      	str	r3, [r5, #0]
    7cfa:	6823      	ldr	r3, [r4, #0]
    7cfc:	0699      	lsls	r1, r3, #26
    7cfe:	d502      	bpl.n	7d06 <_printf_common+0x32>
    7d00:	682b      	ldr	r3, [r5, #0]
    7d02:	3302      	adds	r3, #2
    7d04:	602b      	str	r3, [r5, #0]
    7d06:	6823      	ldr	r3, [r4, #0]
    7d08:	f013 0906 	ands.w	r9, r3, #6
    7d0c:	d01d      	beq.n	7d4a <_printf_common+0x76>
    7d0e:	f894 3043 	ldrb.w	r3, [r4, #67]	; 0x43
    7d12:	6822      	ldr	r2, [r4, #0]
    7d14:	3300      	adds	r3, #0
    7d16:	bf18      	it	ne
    7d18:	2301      	movne	r3, #1
    7d1a:	0692      	lsls	r2, r2, #26
    7d1c:	d51f      	bpl.n	7d5e <_printf_common+0x8a>
    7d1e:	18e1      	adds	r1, r4, r3
    7d20:	2030      	movs	r0, #48	; 0x30
    7d22:	f881 0043 	strb.w	r0, [r1, #67]	; 0x43
    7d26:	1c5a      	adds	r2, r3, #1
    7d28:	f894 1045 	ldrb.w	r1, [r4, #69]	; 0x45
    7d2c:	4422      	add	r2, r4
    7d2e:	3302      	adds	r3, #2
    7d30:	f882 1043 	strb.w	r1, [r2, #67]	; 0x43
    7d34:	e013      	b.n	7d5e <_printf_common+0x8a>
    7d36:	4630      	mov	r0, r6
    7d38:	4639      	mov	r1, r7
    7d3a:	f104 0219 	add.w	r2, r4, #25
    7d3e:	2301      	movs	r3, #1
    7d40:	47c0      	blx	r8
    7d42:	3001      	adds	r0, #1
    7d44:	d007      	beq.n	7d56 <_printf_common+0x82>
    7d46:	f109 0901 	add.w	r9, r9, #1
    7d4a:	68e2      	ldr	r2, [r4, #12]
    7d4c:	682b      	ldr	r3, [r5, #0]
    7d4e:	1ad3      	subs	r3, r2, r3
    7d50:	4599      	cmp	r9, r3
    7d52:	dbf0      	blt.n	7d36 <_printf_common+0x62>
    7d54:	e7db      	b.n	7d0e <_printf_common+0x3a>
    7d56:	f04f 30ff 	mov.w	r0, #4294967295	; 0xffffffff
    7d5a:	e8bd 83f8 	ldmia.w	sp!, {r3, r4, r5, r6, r7, r8, r9, pc}
    7d5e:	4630      	mov	r0, r6
    7d60:	4639      	mov	r1, r7
    7d62:	f104 0243 	add.w	r2, r4, #67	; 0x43
    7d66:	47c0      	blx	r8
    7d68:	3001      	adds	r0, #1
    7d6a:	d0f4      	beq.n	7d56 <_printf_common+0x82>
    7d6c:	6823      	ldr	r3, [r4, #0]
    7d6e:	682a      	ldr	r2, [r5, #0]
    7d70:	f003 0306 	and.w	r3, r3, #6
    7d74:	68e1      	ldr	r1, [r4, #12]
    7d76:	2b04      	cmp	r3, #4
    7d78:	bf08      	it	eq
    7d7a:	ebc2 0501 	rsbeq	r5, r2, r1
    7d7e:	6923      	ldr	r3, [r4, #16]
    7d80:	68a2      	ldr	r2, [r4, #8]
    7d82:	bf0c      	ite	eq
    7d84:	ea25 75e5 	biceq.w	r5, r5, r5, asr #31
    7d88:	2500      	movne	r5, #0
    7d8a:	429a      	cmp	r2, r3
    7d8c:	bfc4      	itt	gt
    7d8e:	ebc3 0302 	rsbgt	r3, r3, r2
    7d92:	18ed      	addgt	r5, r5, r3
    7d94:	f04f 0900 	mov.w	r9, #0
    7d98:	45a9      	cmp	r9, r5
    7d9a:	da0a      	bge.n	7db2 <_printf_common+0xde>
    7d9c:	4630      	mov	r0, r6
    7d9e:	4639      	mov	r1, r7
    7da0:	f104 021a 	add.w	r2, r4, #26
    7da4:	2301      	movs	r3, #1
    7da6:	47c0      	blx	r8
    7da8:	3001      	adds	r0, #1
    7daa:	d0d4      	beq.n	7d56 <_printf_common+0x82>
    7dac:	f109 0901 	add.w	r9, r9, #1
    7db0:	e7f2      	b.n	7d98 <_printf_common+0xc4>
    7db2:	2000      	movs	r0, #0
    7db4:	e8bd 83f8 	ldmia.w	sp!, {r3, r4, r5, r6, r7, r8, r9, pc}

00007db8 <_printf_i>:
    7db8:	e92d 47ff 	stmdb	sp!, {r0, r1, r2, r3, r4, r5, r6, r7, r8, r9, r10, lr}
    7dbc:	7e0e      	ldrb	r6, [r1, #24]
    7dbe:	4680      	mov	r8, r0
    7dc0:	2e6e      	cmp	r6, #110	; 0x6e
    7dc2:	460c      	mov	r4, r1
    7dc4:	4691      	mov	r9, r2
    7dc6:	469a      	mov	r10, r3
    7dc8:	9d0c      	ldr	r5, [sp, #48]	; 0x30
    7dca:	f101 0043 	add.w	r0, r1, #67	; 0x43
    7dce:	f000 80a5 	beq.w	7f1c <_printf_i+0x164>
    7dd2:	d811      	bhi.n	7df8 <_printf_i+0x40>
    7dd4:	2e63      	cmp	r6, #99	; 0x63
    7dd6:	d022      	beq.n	7e1e <_printf_i+0x66>
    7dd8:	d809      	bhi.n	7dee <_printf_i+0x36>
    7dda:	2e00      	cmp	r6, #0
    7ddc:	f000 80af 	beq.w	7f3e <_printf_i+0x186>
    7de0:	2e58      	cmp	r6, #88	; 0x58
    7de2:	f040 80bf 	bne.w	7f64 <_printf_i+0x1ac>
    7de6:	f881 6045 	strb.w	r6, [r1, #69]	; 0x45
    7dea:	4a7b      	ldr	r2, [pc, #492]	; (7fd8 <_printf_i+0x220>)
    7dec:	e04f      	b.n	7e8e <_printf_i+0xd6>
    7dee:	2e64      	cmp	r6, #100	; 0x64
    7df0:	d01e      	beq.n	7e30 <_printf_i+0x78>
    7df2:	2e69      	cmp	r6, #105	; 0x69
    7df4:	d01c      	beq.n	7e30 <_printf_i+0x78>
    7df6:	e0b5      	b.n	7f64 <_printf_i+0x1ac>
    7df8:	2e73      	cmp	r6, #115	; 0x73
    7dfa:	f000 80a4 	beq.w	7f46 <_printf_i+0x18e>
    7dfe:	d809      	bhi.n	7e14 <_printf_i+0x5c>
    7e00:	2e6f      	cmp	r6, #111	; 0x6f
    7e02:	d02b      	beq.n	7e5c <_printf_i+0xa4>
    7e04:	2e70      	cmp	r6, #112	; 0x70
    7e06:	f040 80ad 	bne.w	7f64 <_printf_i+0x1ac>
    7e0a:	680b      	ldr	r3, [r1, #0]
    7e0c:	f043 0320 	orr.w	r3, r3, #32
    7e10:	600b      	str	r3, [r1, #0]
    7e12:	e038      	b.n	7e86 <_printf_i+0xce>
    7e14:	2e75      	cmp	r6, #117	; 0x75
    7e16:	d021      	beq.n	7e5c <_printf_i+0xa4>
    7e18:	2e78      	cmp	r6, #120	; 0x78
    7e1a:	d034      	beq.n	7e86 <_printf_i+0xce>
    7e1c:	e0a2      	b.n	7f64 <_printf_i+0x1ac>
    7e1e:	682b      	ldr	r3, [r5, #0]
    7e20:	f101 0742 	add.w	r7, r1, #66	; 0x42
    7e24:	1d1a      	adds	r2, r3, #4
    7e26:	681b      	ldr	r3, [r3, #0]
    7e28:	602a      	str	r2, [r5, #0]
    7e2a:	f881 3042 	strb.w	r3, [r1, #66]	; 0x42
    7e2e:	e09d      	b.n	7f6c <_printf_i+0x1b4>
    7e30:	6822      	ldr	r2, [r4, #0]
    7e32:	682b      	ldr	r3, [r5, #0]
    7e34:	f012 0f80 	tst.w	r2, #128	; 0x80
    7e38:	d003      	beq.n	7e42 <_printf_i+0x8a>
    7e3a:	1d1a      	adds	r2, r3, #4
    7e3c:	602a      	str	r2, [r5, #0]
    7e3e:	681d      	ldr	r5, [r3, #0]
    7e40:	e005      	b.n	7e4e <_printf_i+0x96>
    7e42:	0651      	lsls	r1, r2, #25
    7e44:	d5f9      	bpl.n	7e3a <_printf_i+0x82>
    7e46:	1d1a      	adds	r2, r3, #4
    7e48:	602a      	str	r2, [r5, #0]
    7e4a:	f9b3 5000 	ldrsh.w	r5, [r3]
    7e4e:	2d00      	cmp	r5, #0
    7e50:	da39      	bge.n	7ec6 <_printf_i+0x10e>
    7e52:	232d      	movs	r3, #45	; 0x2d
    7e54:	426d      	negs	r5, r5
    7e56:	f884 3043 	strb.w	r3, [r4, #67]	; 0x43
    7e5a:	e034      	b.n	7ec6 <_printf_i+0x10e>
    7e5c:	6822      	ldr	r2, [r4, #0]
    7e5e:	682b      	ldr	r3, [r5, #0]
    7e60:	f012 0f80 	tst.w	r2, #128	; 0x80
    7e64:	d003      	beq.n	7e6e <_printf_i+0xb6>
    7e66:	1d1a      	adds	r2, r3, #4
    7e68:	602a      	str	r2, [r5, #0]
    7e6a:	681d      	ldr	r5, [r3, #0]
    7e6c:	e004      	b.n	7e78 <_printf_i+0xc0>
    7e6e:	0652      	lsls	r2, r2, #25
    7e70:	d5f9      	bpl.n	7e66 <_printf_i+0xae>
    7e72:	1d1a      	adds	r2, r3, #4
    7e74:	602a      	str	r2, [r5, #0]
    7e76:	881d      	ldrh	r5, [r3, #0]
    7e78:	7e23      	ldrb	r3, [r4, #24]
    7e7a:	4a57      	ldr	r2, [pc, #348]	; (7fd8 <_printf_i+0x220>)
    7e7c:	2b6f      	cmp	r3, #111	; 0x6f
    7e7e:	bf14      	ite	ne
    7e80:	230a      	movne	r3, #10
    7e82:	2308      	moveq	r3, #8
    7e84:	e01b      	b.n	7ebe <_printf_i+0x106>
    7e86:	2378      	movs	r3, #120	; 0x78
    7e88:	4a54      	ldr	r2, [pc, #336]	; (7fdc <_printf_i+0x224>)
    7e8a:	f884 3045 	strb.w	r3, [r4, #69]	; 0x45
    7e8e:	6823      	ldr	r3, [r4, #0]
    7e90:	6829      	ldr	r1, [r5, #0]
    7e92:	f013 0f80 	tst.w	r3, #128	; 0x80
    7e96:	f101 0604 	add.w	r6, r1, #4
    7e9a:	602e      	str	r6, [r5, #0]
    7e9c:	d001      	beq.n	7ea2 <_printf_i+0xea>
    7e9e:	680d      	ldr	r5, [r1, #0]
    7ea0:	e002      	b.n	7ea8 <_printf_i+0xf0>
    7ea2:	065f      	lsls	r7, r3, #25
    7ea4:	d5fb      	bpl.n	7e9e <_printf_i+0xe6>
    7ea6:	880d      	ldrh	r5, [r1, #0]
    7ea8:	07de      	lsls	r6, r3, #31
    7eaa:	bf44      	itt	mi
    7eac:	f043 0320 	orrmi.w	r3, r3, #32
    7eb0:	6023      	strmi	r3, [r4, #0]
    7eb2:	b91d      	cbnz	r5, 7ebc <_printf_i+0x104>
    7eb4:	6823      	ldr	r3, [r4, #0]
    7eb6:	f023 0320 	bic.w	r3, r3, #32
    7eba:	6023      	str	r3, [r4, #0]
    7ebc:	2310      	movs	r3, #16
    7ebe:	2100      	movs	r1, #0
    7ec0:	f884 1043 	strb.w	r1, [r4, #67]	; 0x43
    7ec4:	e001      	b.n	7eca <_printf_i+0x112>
    7ec6:	4a44      	ldr	r2, [pc, #272]	; (7fd8 <_printf_i+0x220>)
    7ec8:	230a      	movs	r3, #10
    7eca:	6866      	ldr	r6, [r4, #4]
    7ecc:	2e00      	cmp	r6, #0
    7ece:	60a6      	str	r6, [r4, #8]
    7ed0:	db03      	blt.n	7eda <_printf_i+0x122>
    7ed2:	6821      	ldr	r1, [r4, #0]
    7ed4:	f021 0104 	bic.w	r1, r1, #4
    7ed8:	6021      	str	r1, [r4, #0]
    7eda:	b905      	cbnz	r5, 7ede <_printf_i+0x126>
    7edc:	b16e      	cbz	r6, 7efa <_printf_i+0x142>
    7ede:	f104 0142 	add.w	r1, r4, #66	; 0x42
    7ee2:	fbb5 f6f3 	udiv	r6, r5, r3
    7ee6:	fb03 5516 	mls	r5, r3, r6, r5
    7eea:	5d55      	ldrb	r5, [r2, r5]
    7eec:	460f      	mov	r7, r1
    7eee:	f801 5901 	strb.w	r5, [r1], #-1
    7ef2:	4635      	mov	r5, r6
    7ef4:	2e00      	cmp	r6, #0
    7ef6:	d1f4      	bne.n	7ee2 <_printf_i+0x12a>
    7ef8:	e000      	b.n	7efc <_printf_i+0x144>
    7efa:	4607      	mov	r7, r0
    7efc:	2b08      	cmp	r3, #8
    7efe:	d10a      	bne.n	7f16 <_printf_i+0x15e>
    7f00:	6823      	ldr	r3, [r4, #0]
    7f02:	07dd      	lsls	r5, r3, #31
    7f04:	d507      	bpl.n	7f16 <_printf_i+0x15e>
    7f06:	6862      	ldr	r2, [r4, #4]
    7f08:	6923      	ldr	r3, [r4, #16]
    7f0a:	429a      	cmp	r2, r3
    7f0c:	dc03      	bgt.n	7f16 <_printf_i+0x15e>
    7f0e:	2330      	movs	r3, #48	; 0x30
    7f10:	f807 3c01 	strb.w	r3, [r7, #-1]
    7f14:	3f01      	subs	r7, #1
    7f16:	1bc0      	subs	r0, r0, r7
    7f18:	6120      	str	r0, [r4, #16]
    7f1a:	e02c      	b.n	7f76 <_printf_i+0x1be>
    7f1c:	6809      	ldr	r1, [r1, #0]
    7f1e:	682b      	ldr	r3, [r5, #0]
    7f20:	f011 0f80 	tst.w	r1, #128	; 0x80
    7f24:	6962      	ldr	r2, [r4, #20]
    7f26:	d004      	beq.n	7f32 <_printf_i+0x17a>
    7f28:	1d19      	adds	r1, r3, #4
    7f2a:	6029      	str	r1, [r5, #0]
    7f2c:	681b      	ldr	r3, [r3, #0]
    7f2e:	601a      	str	r2, [r3, #0]
    7f30:	e005      	b.n	7f3e <_printf_i+0x186>
    7f32:	0649      	lsls	r1, r1, #25
    7f34:	d5f8      	bpl.n	7f28 <_printf_i+0x170>
    7f36:	1d19      	adds	r1, r3, #4
    7f38:	6029      	str	r1, [r5, #0]
    7f3a:	681b      	ldr	r3, [r3, #0]
    7f3c:	801a      	strh	r2, [r3, #0]
    7f3e:	2300      	movs	r3, #0
    7f40:	6123      	str	r3, [r4, #16]
    7f42:	4607      	mov	r7, r0
    7f44:	e017      	b.n	7f76 <_printf_i+0x1be>
    7f46:	682b      	ldr	r3, [r5, #0]
    7f48:	1d1a      	adds	r2, r3, #4
    7f4a:	602a      	str	r2, [r5, #0]
    7f4c:	681f      	ldr	r7, [r3, #0]
    7f4e:	4638      	mov	r0, r7
    7f50:	f7fe ff91 	bl	6e76 <strlen>
    7f54:	6863      	ldr	r3, [r4, #4]
    7f56:	6120      	str	r0, [r4, #16]
    7f58:	4298      	cmp	r0, r3
    7f5a:	bf88      	it	hi
    7f5c:	6123      	strhi	r3, [r4, #16]
    7f5e:	6923      	ldr	r3, [r4, #16]
    7f60:	6063      	str	r3, [r4, #4]
    7f62:	e005      	b.n	7f70 <_printf_i+0x1b8>
    7f64:	f104 0742 	add.w	r7, r4, #66	; 0x42
    7f68:	f884 6042 	strb.w	r6, [r4, #66]	; 0x42
    7f6c:	2301      	movs	r3, #1
    7f6e:	6123      	str	r3, [r4, #16]
    7f70:	2300      	movs	r3, #0
    7f72:	f884 3043 	strb.w	r3, [r4, #67]	; 0x43
    7f76:	f8cd a000 	str.w	r10, [sp]
    7f7a:	4640      	mov	r0, r8
    7f7c:	4621      	mov	r1, r4
    7f7e:	aa03      	add	r2, sp, #12
    7f80:	464b      	mov	r3, r9
    7f82:	f7ff fea7 	bl	7cd4 <_printf_common>
    7f86:	3001      	adds	r0, #1
    7f88:	d102      	bne.n	7f90 <_printf_i+0x1d8>
    7f8a:	f04f 30ff 	mov.w	r0, #4294967295	; 0xffffffff
    7f8e:	e01f      	b.n	7fd0 <_printf_i+0x218>
    7f90:	4640      	mov	r0, r8
    7f92:	4649      	mov	r1, r9
    7f94:	463a      	mov	r2, r7
    7f96:	6923      	ldr	r3, [r4, #16]
    7f98:	47d0      	blx	r10
    7f9a:	3001      	adds	r0, #1
    7f9c:	d0f5      	beq.n	7f8a <_printf_i+0x1d2>
    7f9e:	6823      	ldr	r3, [r4, #0]
    7fa0:	079b      	lsls	r3, r3, #30
    7fa2:	d405      	bmi.n	7fb0 <_printf_i+0x1f8>
    7fa4:	68e0      	ldr	r0, [r4, #12]
    7fa6:	9b03      	ldr	r3, [sp, #12]
    7fa8:	4298      	cmp	r0, r3
    7faa:	bfb8      	it	lt
    7fac:	4618      	movlt	r0, r3
    7fae:	e00f      	b.n	7fd0 <_printf_i+0x218>
    7fb0:	2500      	movs	r5, #0
    7fb2:	68e2      	ldr	r2, [r4, #12]
    7fb4:	9b03      	ldr	r3, [sp, #12]
    7fb6:	1ad3      	subs	r3, r2, r3
    7fb8:	429d      	cmp	r5, r3
    7fba:	daf3      	bge.n	7fa4 <_printf_i+0x1ec>
    7fbc:	4640      	mov	r0, r8
    7fbe:	4649      	mov	r1, r9
    7fc0:	f104 0219 	add.w	r2, r4, #25
    7fc4:	2301      	movs	r3, #1
    7fc6:	47d0      	blx	r10
    7fc8:	3001      	adds	r0, #1
    7fca:	d0de      	beq.n	7f8a <_printf_i+0x1d2>
    7fcc:	3501      	adds	r5, #1
    7fce:	e7f0      	b.n	7fb2 <_printf_i+0x1fa>
    7fd0:	b004      	add	sp, #16
    7fd2:	e8bd 87f0 	ldmia.w	sp!, {r4, r5, r6, r7, r8, r9, r10, pc}
    7fd6:	bf00      	nop
    7fd8:	0000c7d1 	.word	0x0000c7d1
    7fdc:	0000c7e2 	.word	0x0000c7e2

00007fe0 <_scanf_float>:
    7fe0:	e92d 4ff0 	stmdb	sp!, {r4, r5, r6, r7, r8, r9, r10, r11, lr}
    7fe4:	4616      	mov	r6, r2
    7fe6:	688a      	ldr	r2, [r1, #8]
    7fe8:	b087      	sub	sp, #28
    7fea:	9302      	str	r3, [sp, #8]
    7fec:	1e53      	subs	r3, r2, #1
    7fee:	f5b3 7fae 	cmp.w	r3, #348	; 0x15c
    7ff2:	4607      	mov	r7, r0
    7ff4:	460c      	mov	r4, r1
    7ff6:	d906      	bls.n	8006 <_scanf_float+0x26>
    7ff8:	f46f 73ae 	mvn.w	r3, #348	; 0x15c
    7ffc:	441a      	add	r2, r3
    7ffe:	f240 135d 	movw	r3, #349	; 0x15d
    8002:	608b      	str	r3, [r1, #8]
    8004:	e000      	b.n	8008 <_scanf_float+0x28>
    8006:	2200      	movs	r2, #0
    8008:	6823      	ldr	r3, [r4, #0]
    800a:	46a0      	mov	r8, r4
    800c:	f443 63f0 	orr.w	r3, r3, #1920	; 0x780
    8010:	f04f 0b00 	mov.w	r11, #0
    8014:	f848 3b1c 	str.w	r3, [r8], #28
    8018:	4645      	mov	r5, r8
    801a:	46da      	mov	r10, r11
    801c:	f8cd b014 	str.w	r11, [sp, #20]
    8020:	f8cd b010 	str.w	r11, [sp, #16]
    8024:	46d9      	mov	r9, r11
    8026:	f8cd b00c 	str.w	r11, [sp, #12]
    802a:	68a1      	ldr	r1, [r4, #8]
    802c:	2900      	cmp	r1, #0
    802e:	f000 80e9 	beq.w	8204 <_scanf_float+0x224>
    8032:	6833      	ldr	r3, [r6, #0]
    8034:	781b      	ldrb	r3, [r3, #0]
    8036:	2b49      	cmp	r3, #73	; 0x49
    8038:	d075      	beq.n	8126 <_scanf_float+0x146>
    803a:	d816      	bhi.n	806a <_scanf_float+0x8a>
    803c:	2b39      	cmp	r3, #57	; 0x39
    803e:	d80d      	bhi.n	805c <_scanf_float+0x7c>
    8040:	2b31      	cmp	r3, #49	; 0x31
    8042:	d23e      	bcs.n	80c2 <_scanf_float+0xe2>
    8044:	2b2d      	cmp	r3, #45	; 0x2d
    8046:	d045      	beq.n	80d4 <_scanf_float+0xf4>
    8048:	d802      	bhi.n	8050 <_scanf_float+0x70>
    804a:	2b2b      	cmp	r3, #43	; 0x2b
    804c:	d042      	beq.n	80d4 <_scanf_float+0xf4>
    804e:	e0d9      	b.n	8204 <_scanf_float+0x224>
    8050:	2b2e      	cmp	r3, #46	; 0x2e
    8052:	f000 8097 	beq.w	8184 <_scanf_float+0x1a4>
    8056:	2b30      	cmp	r3, #48	; 0x30
    8058:	d023      	beq.n	80a2 <_scanf_float+0xc2>
    805a:	e0d3      	b.n	8204 <_scanf_float+0x224>
    805c:	2b45      	cmp	r3, #69	; 0x45
    805e:	f000 809a 	beq.w	8196 <_scanf_float+0x1b6>
    8062:	2b46      	cmp	r3, #70	; 0x46
    8064:	d07c      	beq.n	8160 <_scanf_float+0x180>
    8066:	2b41      	cmp	r3, #65	; 0x41
    8068:	e00c      	b.n	8084 <_scanf_float+0xa4>
    806a:	2b65      	cmp	r3, #101	; 0x65
    806c:	f000 8093 	beq.w	8196 <_scanf_float+0x1b6>
    8070:	d80a      	bhi.n	8088 <_scanf_float+0xa8>
    8072:	2b54      	cmp	r3, #84	; 0x54
    8074:	d07a      	beq.n	816c <_scanf_float+0x18c>
    8076:	d802      	bhi.n	807e <_scanf_float+0x9e>
    8078:	2b4e      	cmp	r3, #78	; 0x4e
    807a:	d033      	beq.n	80e4 <_scanf_float+0x104>
    807c:	e0c2      	b.n	8204 <_scanf_float+0x224>
    807e:	2b59      	cmp	r3, #89	; 0x59
    8080:	d07a      	beq.n	8178 <_scanf_float+0x198>
    8082:	2b61      	cmp	r3, #97	; 0x61
    8084:	d049      	beq.n	811a <_scanf_float+0x13a>
    8086:	e0bd      	b.n	8204 <_scanf_float+0x224>
    8088:	2b6e      	cmp	r3, #110	; 0x6e
    808a:	d02b      	beq.n	80e4 <_scanf_float+0x104>
    808c:	d804      	bhi.n	8098 <_scanf_float+0xb8>
    808e:	2b66      	cmp	r3, #102	; 0x66
    8090:	d066      	beq.n	8160 <_scanf_float+0x180>
    8092:	2b69      	cmp	r3, #105	; 0x69
    8094:	d047      	beq.n	8126 <_scanf_float+0x146>
    8096:	e0b5      	b.n	8204 <_scanf_float+0x224>
    8098:	2b74      	cmp	r3, #116	; 0x74
    809a:	d067      	beq.n	816c <_scanf_float+0x18c>
    809c:	2b79      	cmp	r3, #121	; 0x79
    809e:	d06b      	beq.n	8178 <_scanf_float+0x198>
    80a0:	e0b0      	b.n	8204 <_scanf_float+0x224>
    80a2:	6820      	ldr	r0, [r4, #0]
    80a4:	f410 7f80 	tst.w	r0, #256	; 0x100
    80a8:	d00b      	beq.n	80c2 <_scanf_float+0xe2>
    80aa:	f020 0080 	bic.w	r0, r0, #128	; 0x80
    80ae:	6020      	str	r0, [r4, #0]
    80b0:	f109 0901 	add.w	r9, r9, #1
    80b4:	2a00      	cmp	r2, #0
    80b6:	f000 808c 	beq.w	81d2 <_scanf_float+0x1f2>
    80ba:	3101      	adds	r1, #1
    80bc:	3a01      	subs	r2, #1
    80be:	60a1      	str	r1, [r4, #8]
    80c0:	e087      	b.n	81d2 <_scanf_float+0x1f2>
    80c2:	eb0a 010b 	add.w	r1, r10, r11
    80c6:	2900      	cmp	r1, #0
    80c8:	f040 809c 	bne.w	8204 <_scanf_float+0x224>
    80cc:	6821      	ldr	r1, [r4, #0]
    80ce:	f421 71c0 	bic.w	r1, r1, #384	; 0x180
    80d2:	e005      	b.n	80e0 <_scanf_float+0x100>
    80d4:	6821      	ldr	r1, [r4, #0]
    80d6:	0608      	lsls	r0, r1, #24
    80d8:	f140 8094 	bpl.w	8204 <_scanf_float+0x224>
    80dc:	f021 0180 	bic.w	r1, r1, #128	; 0x80
    80e0:	6021      	str	r1, [r4, #0]
    80e2:	e074      	b.n	81ce <_scanf_float+0x1ee>
    80e4:	f1ba 0f00 	cmp.w	r10, #0
    80e8:	d10e      	bne.n	8108 <_scanf_float+0x128>
    80ea:	f1b9 0f00 	cmp.w	r9, #0
    80ee:	d10e      	bne.n	810e <_scanf_float+0x12e>
    80f0:	6821      	ldr	r1, [r4, #0]
    80f2:	f401 60e0 	and.w	r0, r1, #1792	; 0x700
    80f6:	f5b0 6fe0 	cmp.w	r0, #1792	; 0x700
    80fa:	d108      	bne.n	810e <_scanf_float+0x12e>
    80fc:	f421 61f0 	bic.w	r1, r1, #1920	; 0x780
    8100:	6021      	str	r1, [r4, #0]
    8102:	f04f 0a01 	mov.w	r10, #1
    8106:	e062      	b.n	81ce <_scanf_float+0x1ee>
    8108:	f1ba 0f02 	cmp.w	r10, #2
    810c:	d05d      	beq.n	81ca <_scanf_float+0x1ea>
    810e:	f1bb 0f01 	cmp.w	r11, #1
    8112:	d020      	beq.n	8156 <_scanf_float+0x176>
    8114:	f1bb 0f04 	cmp.w	r11, #4
    8118:	e01c      	b.n	8154 <_scanf_float+0x174>
    811a:	f1ba 0f01 	cmp.w	r10, #1
    811e:	d171      	bne.n	8204 <_scanf_float+0x224>
    8120:	f04f 0a02 	mov.w	r10, #2
    8124:	e053      	b.n	81ce <_scanf_float+0x1ee>
    8126:	f1bb 0f00 	cmp.w	r11, #0
    812a:	d10e      	bne.n	814a <_scanf_float+0x16a>
    812c:	f1b9 0f00 	cmp.w	r9, #0
    8130:	d16b      	bne.n	820a <_scanf_float+0x22a>
    8132:	6821      	ldr	r1, [r4, #0]
    8134:	f401 60e0 	and.w	r0, r1, #1792	; 0x700
    8138:	f5b0 6fe0 	cmp.w	r0, #1792	; 0x700
    813c:	d169      	bne.n	8212 <_scanf_float+0x232>
    813e:	f421 61f0 	bic.w	r1, r1, #1920	; 0x780
    8142:	6021      	str	r1, [r4, #0]
    8144:	f04f 0b01 	mov.w	r11, #1
    8148:	e041      	b.n	81ce <_scanf_float+0x1ee>
    814a:	f1bb 0f03 	cmp.w	r11, #3
    814e:	d002      	beq.n	8156 <_scanf_float+0x176>
    8150:	f1bb 0f05 	cmp.w	r11, #5
    8154:	d156      	bne.n	8204 <_scanf_float+0x224>
    8156:	f10b 0b01 	add.w	r11, r11, #1
    815a:	fa5f fb8b 	uxtb.w	r11, r11
    815e:	e036      	b.n	81ce <_scanf_float+0x1ee>
    8160:	f1bb 0f02 	cmp.w	r11, #2
    8164:	d14e      	bne.n	8204 <_scanf_float+0x224>
    8166:	f04f 0b03 	mov.w	r11, #3
    816a:	e030      	b.n	81ce <_scanf_float+0x1ee>
    816c:	f1bb 0f06 	cmp.w	r11, #6
    8170:	d148      	bne.n	8204 <_scanf_float+0x224>
    8172:	f04f 0b07 	mov.w	r11, #7
    8176:	e02a      	b.n	81ce <_scanf_float+0x1ee>
    8178:	f1bb 0f07 	cmp.w	r11, #7
    817c:	d142      	bne.n	8204 <_scanf_float+0x224>
    817e:	f04f 0b08 	mov.w	r11, #8
    8182:	e024      	b.n	81ce <_scanf_float+0x1ee>
    8184:	6821      	ldr	r1, [r4, #0]
    8186:	0588      	lsls	r0, r1, #22
    8188:	d53c      	bpl.n	8204 <_scanf_float+0x224>
    818a:	f421 7120 	bic.w	r1, r1, #640	; 0x280
    818e:	6021      	str	r1, [r4, #0]
    8190:	f8cd 900c 	str.w	r9, [sp, #12]
    8194:	e01b      	b.n	81ce <_scanf_float+0x1ee>
    8196:	6821      	ldr	r1, [r4, #0]
    8198:	f401 60a0 	and.w	r0, r1, #1280	; 0x500
    819c:	f5b0 6f80 	cmp.w	r0, #1024	; 0x400
    81a0:	d004      	beq.n	81ac <_scanf_float+0x1cc>
    81a2:	0548      	lsls	r0, r1, #21
    81a4:	d52e      	bpl.n	8204 <_scanf_float+0x224>
    81a6:	f1b9 0f00 	cmp.w	r9, #0
    81aa:	d032      	beq.n	8212 <_scanf_float+0x232>
    81ac:	0588      	lsls	r0, r1, #22
    81ae:	d404      	bmi.n	81ba <_scanf_float+0x1da>
    81b0:	9803      	ldr	r0, [sp, #12]
    81b2:	9505      	str	r5, [sp, #20]
    81b4:	ebc0 0009 	rsb	r0, r0, r9
    81b8:	9004      	str	r0, [sp, #16]
    81ba:	f421 61f0 	bic.w	r1, r1, #1920	; 0x780
    81be:	f441 71c0 	orr.w	r1, r1, #384	; 0x180
    81c2:	6021      	str	r1, [r4, #0]
    81c4:	f04f 0900 	mov.w	r9, #0
    81c8:	e001      	b.n	81ce <_scanf_float+0x1ee>
    81ca:	f04f 0a03 	mov.w	r10, #3
    81ce:	702b      	strb	r3, [r5, #0]
    81d0:	3501      	adds	r5, #1
    81d2:	68a3      	ldr	r3, [r4, #8]
    81d4:	3b01      	subs	r3, #1
    81d6:	60a3      	str	r3, [r4, #8]
    81d8:	6923      	ldr	r3, [r4, #16]
    81da:	3301      	adds	r3, #1
    81dc:	6123      	str	r3, [r4, #16]
    81de:	6873      	ldr	r3, [r6, #4]
    81e0:	3b01      	subs	r3, #1
    81e2:	2b00      	cmp	r3, #0
    81e4:	6073      	str	r3, [r6, #4]
    81e6:	dd03      	ble.n	81f0 <_scanf_float+0x210>
    81e8:	6833      	ldr	r3, [r6, #0]
    81ea:	3301      	adds	r3, #1
    81ec:	6033      	str	r3, [r6, #0]
    81ee:	e71c      	b.n	802a <_scanf_float+0x4a>
    81f0:	9201      	str	r2, [sp, #4]
    81f2:	f8d4 3180 	ldr.w	r3, [r4, #384]	; 0x180
    81f6:	4638      	mov	r0, r7
    81f8:	4631      	mov	r1, r6
    81fa:	4798      	blx	r3
    81fc:	9a01      	ldr	r2, [sp, #4]
    81fe:	2800      	cmp	r0, #0
    8200:	f43f af13 	beq.w	802a <_scanf_float+0x4a>
    8204:	f1b9 0f00 	cmp.w	r9, #0
    8208:	d003      	beq.n	8212 <_scanf_float+0x232>
    820a:	6823      	ldr	r3, [r4, #0]
    820c:	f423 7380 	bic.w	r3, r3, #256	; 0x100
    8210:	6023      	str	r3, [r4, #0]
    8212:	f10a 3aff 	add.w	r10, r10, #4294967295	; 0xffffffff
    8216:	f1ba 0f01 	cmp.w	r10, #1
    821a:	d810      	bhi.n	823e <_scanf_float+0x25e>
    821c:	4545      	cmp	r5, r8
    821e:	462a      	mov	r2, r5
    8220:	d90b      	bls.n	823a <_scanf_float+0x25a>
    8222:	f8d4 317c 	ldr.w	r3, [r4, #380]	; 0x17c
    8226:	f812 1c01 	ldrb.w	r1, [r2, #-1]
    822a:	4638      	mov	r0, r7
    822c:	4632      	mov	r2, r6
    822e:	4798      	blx	r3
    8230:	6923      	ldr	r3, [r4, #16]
    8232:	3d01      	subs	r5, #1
    8234:	3b01      	subs	r3, #1
    8236:	6123      	str	r3, [r4, #16]
    8238:	e7f0      	b.n	821c <_scanf_float+0x23c>
    823a:	2601      	movs	r6, #1
    823c:	e0b5      	b.n	83aa <_scanf_float+0x3ca>
    823e:	f10b 33ff 	add.w	r3, r11, #4294967295	; 0xffffffff
    8242:	2b06      	cmp	r3, #6
    8244:	d82c      	bhi.n	82a0 <_scanf_float+0x2c0>
    8246:	f1bb 0f02 	cmp.w	r11, #2
    824a:	d91a      	bls.n	8282 <_scanf_float+0x2a2>
    824c:	f1ab 0b03 	sub.w	r11, r11, #3
    8250:	fa5f fb8b 	uxtb.w	r11, r11
    8254:	46aa      	mov	r10, r5
    8256:	ebcb 0c05 	rsb	r12, r11, r5
    825a:	45e2      	cmp	r10, r12
    825c:	d00e      	beq.n	827c <_scanf_float+0x29c>
    825e:	f8d4 317c 	ldr.w	r3, [r4, #380]	; 0x17c
    8262:	f81a 1d01 	ldrb.w	r1, [r10, #-1]!
    8266:	4638      	mov	r0, r7
    8268:	f8cd c004 	str.w	r12, [sp, #4]
    826c:	4632      	mov	r2, r6
    826e:	4798      	blx	r3
    8270:	6923      	ldr	r3, [r4, #16]
    8272:	f8dd c004 	ldr.w	r12, [sp, #4]
    8276:	3b01      	subs	r3, #1
    8278:	6123      	str	r3, [r4, #16]
    827a:	e7ee      	b.n	825a <_scanf_float+0x27a>
    827c:	ebcb 0505 	rsb	r5, r11, r5
    8280:	e00e      	b.n	82a0 <_scanf_float+0x2c0>
    8282:	4545      	cmp	r5, r8
    8284:	462a      	mov	r2, r5
    8286:	d9d8      	bls.n	823a <_scanf_float+0x25a>
    8288:	f8d4 317c 	ldr.w	r3, [r4, #380]	; 0x17c
    828c:	f812 1c01 	ldrb.w	r1, [r2, #-1]
    8290:	4638      	mov	r0, r7
    8292:	4632      	mov	r2, r6
    8294:	4798      	blx	r3
    8296:	6923      	ldr	r3, [r4, #16]
    8298:	3d01      	subs	r5, #1
    829a:	3b01      	subs	r3, #1
    829c:	6123      	str	r3, [r4, #16]
    829e:	e7f0      	b.n	8282 <_scanf_float+0x2a2>
    82a0:	6823      	ldr	r3, [r4, #0]
    82a2:	05da      	lsls	r2, r3, #23
    82a4:	d52e      	bpl.n	8304 <_scanf_float+0x324>
    82a6:	055b      	lsls	r3, r3, #21
    82a8:	d50e      	bpl.n	82c8 <_scanf_float+0x2e8>
    82aa:	4545      	cmp	r5, r8
    82ac:	462a      	mov	r2, r5
    82ae:	d9c4      	bls.n	823a <_scanf_float+0x25a>
    82b0:	f8d4 317c 	ldr.w	r3, [r4, #380]	; 0x17c
    82b4:	f812 1c01 	ldrb.w	r1, [r2, #-1]
    82b8:	4638      	mov	r0, r7
    82ba:	4632      	mov	r2, r6
    82bc:	4798      	blx	r3
    82be:	6923      	ldr	r3, [r4, #16]
    82c0:	3d01      	subs	r5, #1
    82c2:	3b01      	subs	r3, #1
    82c4:	6123      	str	r3, [r4, #16]
    82c6:	e7f0      	b.n	82aa <_scanf_float+0x2ca>
    82c8:	f815 1c01 	ldrb.w	r1, [r5, #-1]
    82cc:	6923      	ldr	r3, [r4, #16]
    82ce:	2965      	cmp	r1, #101	; 0x65
    82d0:	f103 33ff 	add.w	r3, r3, #4294967295	; 0xffffffff
    82d4:	f105 3aff 	add.w	r10, r5, #4294967295	; 0xffffffff
    82d8:	6123      	str	r3, [r4, #16]
    82da:	d00d      	beq.n	82f8 <_scanf_float+0x318>
    82dc:	2945      	cmp	r1, #69	; 0x45
    82de:	d00b      	beq.n	82f8 <_scanf_float+0x318>
    82e0:	f8d4 317c 	ldr.w	r3, [r4, #380]	; 0x17c
    82e4:	4638      	mov	r0, r7
    82e6:	4632      	mov	r2, r6
    82e8:	4798      	blx	r3
    82ea:	6923      	ldr	r3, [r4, #16]
    82ec:	f815 1c02 	ldrb.w	r1, [r5, #-2]
    82f0:	3b01      	subs	r3, #1
    82f2:	f1a5 0a02 	sub.w	r10, r5, #2
    82f6:	6123      	str	r3, [r4, #16]
    82f8:	f8d4 317c 	ldr.w	r3, [r4, #380]	; 0x17c
    82fc:	4638      	mov	r0, r7
    82fe:	4632      	mov	r2, r6
    8300:	4798      	blx	r3
    8302:	4655      	mov	r5, r10
    8304:	6826      	ldr	r6, [r4, #0]
    8306:	f016 0610 	ands.w	r6, r6, #16
    830a:	d14d      	bne.n	83a8 <_scanf_float+0x3c8>
    830c:	702e      	strb	r6, [r5, #0]
    830e:	6823      	ldr	r3, [r4, #0]
    8310:	f403 63c0 	and.w	r3, r3, #1536	; 0x600
    8314:	f5b3 6f80 	cmp.w	r3, #1024	; 0x400
    8318:	d105      	bne.n	8326 <_scanf_float+0x346>
    831a:	9903      	ldr	r1, [sp, #12]
    831c:	ebc1 0309 	rsb	r3, r1, r9
    8320:	425a      	negs	r2, r3
    8322:	b963      	cbnz	r3, 833e <_scanf_float+0x35e>
    8324:	e015      	b.n	8352 <_scanf_float+0x372>
    8326:	9d04      	ldr	r5, [sp, #16]
    8328:	b19d      	cbz	r5, 8352 <_scanf_float+0x372>
    832a:	9d05      	ldr	r5, [sp, #20]
    832c:	4632      	mov	r2, r6
    832e:	1c69      	adds	r1, r5, #1
    8330:	4638      	mov	r0, r7
    8332:	230a      	movs	r3, #10
    8334:	f002 fc44 	bl	abc0 <_strtol_r>
    8338:	9d04      	ldr	r5, [sp, #16]
    833a:	1b42      	subs	r2, r0, r5
    833c:	9d05      	ldr	r5, [sp, #20]
    833e:	f204 136f 	addw	r3, r4, #367	; 0x16f
    8342:	429d      	cmp	r5, r3
    8344:	bf28      	it	cs
    8346:	f504 75b7 	addcs.w	r5, r4, #366	; 0x16e
    834a:	4628      	mov	r0, r5
    834c:	4919      	ldr	r1, [pc, #100]	; (83b4 <_scanf_float+0x3d4>)
    834e:	f7fe fcf5 	bl	6d3c <siprintf>
    8352:	4641      	mov	r1, r8
    8354:	2200      	movs	r2, #0
    8356:	4638      	mov	r0, r7
    8358:	f001 fe16 	bl	9f88 <_strtod_r>
    835c:	6822      	ldr	r2, [r4, #0]
    835e:	9d02      	ldr	r5, [sp, #8]
    8360:	f012 0f02 	tst.w	r2, #2
    8364:	4680      	mov	r8, r0
    8366:	4689      	mov	r9, r1
    8368:	682b      	ldr	r3, [r5, #0]
    836a:	d002      	beq.n	8372 <_scanf_float+0x392>
    836c:	1d1a      	adds	r2, r3, #4
    836e:	602a      	str	r2, [r5, #0]
    8370:	e006      	b.n	8380 <_scanf_float+0x3a0>
    8372:	9d02      	ldr	r5, [sp, #8]
    8374:	f012 0f04 	tst.w	r2, #4
    8378:	f103 0204 	add.w	r2, r3, #4
    837c:	602a      	str	r2, [r5, #0]
    837e:	d003      	beq.n	8388 <_scanf_float+0x3a8>
    8380:	681b      	ldr	r3, [r3, #0]
    8382:	e9c3 8900 	strd	r8, r9, [r3]
    8386:	e00b      	b.n	83a0 <_scanf_float+0x3c0>
    8388:	681d      	ldr	r5, [r3, #0]
    838a:	f001 fd71 	bl	9e70 <__fpclassifyd>
    838e:	b910      	cbnz	r0, 8396 <_scanf_float+0x3b6>
    8390:	f001 fdc2 	bl	9f18 <nanf>
    8394:	e003      	b.n	839e <_scanf_float+0x3be>
    8396:	4640      	mov	r0, r8
    8398:	4649      	mov	r1, r9
    839a:	f7fd fb29 	bl	59f0 <__aeabi_d2f>
    839e:	6028      	str	r0, [r5, #0]
    83a0:	68e3      	ldr	r3, [r4, #12]
    83a2:	3301      	adds	r3, #1
    83a4:	60e3      	str	r3, [r4, #12]
    83a6:	e000      	b.n	83aa <_scanf_float+0x3ca>
    83a8:	2600      	movs	r6, #0
    83aa:	4630      	mov	r0, r6
    83ac:	b007      	add	sp, #28
    83ae:	e8bd 8ff0 	ldmia.w	sp!, {r4, r5, r6, r7, r8, r9, r10, r11, pc}
    83b2:	bf00      	nop
    83b4:	0000c7f3 	.word	0x0000c7f3

000083b8 <_scanf_chars>:
    83b8:	e92d 41f0 	stmdb	sp!, {r4, r5, r6, r7, r8, lr}
    83bc:	4615      	mov	r5, r2
    83be:	688a      	ldr	r2, [r1, #8]
    83c0:	4680      	mov	r8, r0
    83c2:	460c      	mov	r4, r1
    83c4:	b932      	cbnz	r2, 83d4 <_scanf_chars+0x1c>
    83c6:	698a      	ldr	r2, [r1, #24]
    83c8:	2a00      	cmp	r2, #0
    83ca:	bf14      	ite	ne
    83cc:	f04f 32ff 	movne.w	r2, #4294967295	; 0xffffffff
    83d0:	2201      	moveq	r2, #1
    83d2:	608a      	str	r2, [r1, #8]
    83d4:	6822      	ldr	r2, [r4, #0]
    83d6:	06d1      	lsls	r1, r2, #27
    83d8:	d403      	bmi.n	83e2 <_scanf_chars+0x2a>
    83da:	681a      	ldr	r2, [r3, #0]
    83dc:	1d11      	adds	r1, r2, #4
    83de:	6019      	str	r1, [r3, #0]
    83e0:	6817      	ldr	r7, [r2, #0]
    83e2:	2600      	movs	r6, #0
    83e4:	69a0      	ldr	r0, [r4, #24]
    83e6:	b9e0      	cbnz	r0, 8422 <_scanf_chars+0x6a>
    83e8:	6823      	ldr	r3, [r4, #0]
    83ea:	3601      	adds	r6, #1
    83ec:	06da      	lsls	r2, r3, #27
    83ee:	d404      	bmi.n	83fa <_scanf_chars+0x42>
    83f0:	682b      	ldr	r3, [r5, #0]
    83f2:	3701      	adds	r7, #1
    83f4:	781b      	ldrb	r3, [r3, #0]
    83f6:	f807 3c01 	strb.w	r3, [r7, #-1]
    83fa:	682a      	ldr	r2, [r5, #0]
    83fc:	686b      	ldr	r3, [r5, #4]
    83fe:	3201      	adds	r2, #1
    8400:	602a      	str	r2, [r5, #0]
    8402:	68a2      	ldr	r2, [r4, #8]
    8404:	3b01      	subs	r3, #1
    8406:	3a01      	subs	r2, #1
    8408:	606b      	str	r3, [r5, #4]
    840a:	60a2      	str	r2, [r4, #8]
    840c:	b312      	cbz	r2, 8454 <_scanf_chars+0x9c>
    840e:	2b00      	cmp	r3, #0
    8410:	dce8      	bgt.n	83e4 <_scanf_chars+0x2c>
    8412:	f8d4 3180 	ldr.w	r3, [r4, #384]	; 0x180
    8416:	4640      	mov	r0, r8
    8418:	4629      	mov	r1, r5
    841a:	4798      	blx	r3
    841c:	2800      	cmp	r0, #0
    841e:	d0e1      	beq.n	83e4 <_scanf_chars+0x2c>
    8420:	e018      	b.n	8454 <_scanf_chars+0x9c>
    8422:	2801      	cmp	r0, #1
    8424:	d107      	bne.n	8436 <_scanf_chars+0x7e>
    8426:	682a      	ldr	r2, [r5, #0]
    8428:	7811      	ldrb	r1, [r2, #0]
    842a:	6962      	ldr	r2, [r4, #20]
    842c:	5c52      	ldrb	r2, [r2, r1]
    842e:	2a00      	cmp	r2, #0
    8430:	d1da      	bne.n	83e8 <_scanf_chars+0x30>
    8432:	b1ee      	cbz	r6, 8470 <_scanf_chars+0xb8>
    8434:	e00e      	b.n	8454 <_scanf_chars+0x9c>
    8436:	2802      	cmp	r0, #2
    8438:	d001      	beq.n	843e <_scanf_chars+0x86>
    843a:	b14e      	cbz	r6, 8450 <_scanf_chars+0x98>
    843c:	e00a      	b.n	8454 <_scanf_chars+0x9c>
    843e:	682a      	ldr	r2, [r5, #0]
    8440:	490c      	ldr	r1, [pc, #48]	; (8474 <_scanf_chars+0xbc>)
    8442:	7812      	ldrb	r2, [r2, #0]
    8444:	6809      	ldr	r1, [r1, #0]
    8446:	440a      	add	r2, r1
    8448:	7852      	ldrb	r2, [r2, #1]
    844a:	0713      	lsls	r3, r2, #28
    844c:	d5cc      	bpl.n	83e8 <_scanf_chars+0x30>
    844e:	e7f4      	b.n	843a <_scanf_chars+0x82>
    8450:	2801      	cmp	r0, #1
    8452:	d00d      	beq.n	8470 <_scanf_chars+0xb8>
    8454:	6823      	ldr	r3, [r4, #0]
    8456:	f013 0310 	ands.w	r3, r3, #16
    845a:	d105      	bne.n	8468 <_scanf_chars+0xb0>
    845c:	68e2      	ldr	r2, [r4, #12]
    845e:	3201      	adds	r2, #1
    8460:	60e2      	str	r2, [r4, #12]
    8462:	69a2      	ldr	r2, [r4, #24]
    8464:	b102      	cbz	r2, 8468 <_scanf_chars+0xb0>
    8466:	703b      	strb	r3, [r7, #0]
    8468:	6923      	ldr	r3, [r4, #16]
    846a:	2000      	movs	r0, #0
    846c:	441e      	add	r6, r3
    846e:	6126      	str	r6, [r4, #16]
    8470:	e8bd 81f0 	ldmia.w	sp!, {r4, r5, r6, r7, r8, pc}
    8474:	100001c4 	.word	0x100001c4

00008478 <_scanf_i>:
    8478:	e92d 4ff0 	stmdb	sp!, {r4, r5, r6, r7, r8, r9, r10, r11, lr}
    847c:	b089      	sub	sp, #36	; 0x24
    847e:	460c      	mov	r4, r1
    8480:	4698      	mov	r8, r3
    8482:	a905      	add	r1, sp, #20
    8484:	4b73      	ldr	r3, [pc, #460]	; (8654 <_scanf_i+0x1dc>)
    8486:	9102      	str	r1, [sp, #8]
    8488:	4681      	mov	r9, r0
    848a:	4616      	mov	r6, r2
    848c:	e893 0007 	ldmia.w	r3, {r0, r1, r2}
    8490:	9b02      	ldr	r3, [sp, #8]
    8492:	e883 0007 	stmia.w	r3, {r0, r1, r2}
    8496:	69a3      	ldr	r3, [r4, #24]
    8498:	4a6f      	ldr	r2, [pc, #444]	; (8658 <_scanf_i+0x1e0>)
    849a:	4970      	ldr	r1, [pc, #448]	; (865c <_scanf_i+0x1e4>)
    849c:	2b03      	cmp	r3, #3
    849e:	bf08      	it	eq
    84a0:	4611      	moveq	r1, r2
    84a2:	68a3      	ldr	r3, [r4, #8]
    84a4:	9103      	str	r1, [sp, #12]
    84a6:	1e5a      	subs	r2, r3, #1
    84a8:	f5b2 7fae 	cmp.w	r2, #348	; 0x15c
    84ac:	d907      	bls.n	84be <_scanf_i+0x46>
    84ae:	f46f 75ae 	mvn.w	r5, #348	; 0x15c
    84b2:	eb03 0a05 	add.w	r10, r3, r5
    84b6:	f240 135d 	movw	r3, #349	; 0x15d
    84ba:	60a3      	str	r3, [r4, #8]
    84bc:	e001      	b.n	84c2 <_scanf_i+0x4a>
    84be:	f04f 0a00 	mov.w	r10, #0
    84c2:	6823      	ldr	r3, [r4, #0]
    84c4:	f104 071c 	add.w	r7, r4, #28
    84c8:	f443 6350 	orr.w	r3, r3, #3328	; 0xd00
    84cc:	6023      	str	r3, [r4, #0]
    84ce:	46bb      	mov	r11, r7
    84d0:	2300      	movs	r3, #0
    84d2:	6832      	ldr	r2, [r6, #0]
    84d4:	a905      	add	r1, sp, #20
    84d6:	f851 0023 	ldr.w	r0, [r1, r3, lsl #2]
    84da:	7811      	ldrb	r1, [r2, #0]
    84dc:	2202      	movs	r2, #2
    84de:	9301      	str	r3, [sp, #4]
    84e0:	f7fe f9ca 	bl	6878 <memchr>
    84e4:	9b01      	ldr	r3, [sp, #4]
    84e6:	2800      	cmp	r0, #0
    84e8:	d035      	beq.n	8556 <_scanf_i+0xde>
    84ea:	2b01      	cmp	r3, #1
    84ec:	d10b      	bne.n	8506 <_scanf_i+0x8e>
    84ee:	6862      	ldr	r2, [r4, #4]
    84f0:	b92a      	cbnz	r2, 84fe <_scanf_i+0x86>
    84f2:	2208      	movs	r2, #8
    84f4:	6062      	str	r2, [r4, #4]
    84f6:	6822      	ldr	r2, [r4, #0]
    84f8:	f442 7200 	orr.w	r2, r2, #512	; 0x200
    84fc:	6022      	str	r2, [r4, #0]
    84fe:	6822      	ldr	r2, [r4, #0]
    8500:	f422 62a0 	bic.w	r2, r2, #1280	; 0x500
    8504:	e00b      	b.n	851e <_scanf_i+0xa6>
    8506:	2b02      	cmp	r3, #2
    8508:	d10a      	bne.n	8520 <_scanf_i+0xa8>
    850a:	6822      	ldr	r2, [r4, #0]
    850c:	f402 61c0 	and.w	r1, r2, #1536	; 0x600
    8510:	f5b1 7f00 	cmp.w	r1, #512	; 0x200
    8514:	d11f      	bne.n	8556 <_scanf_i+0xde>
    8516:	2110      	movs	r1, #16
    8518:	6061      	str	r1, [r4, #4]
    851a:	f442 7280 	orr.w	r2, r2, #256	; 0x100
    851e:	6022      	str	r2, [r4, #0]
    8520:	68a2      	ldr	r2, [r4, #8]
    8522:	1e51      	subs	r1, r2, #1
    8524:	60a1      	str	r1, [r4, #8]
    8526:	b1b2      	cbz	r2, 8556 <_scanf_i+0xde>
    8528:	6832      	ldr	r2, [r6, #0]
    852a:	f10b 0501 	add.w	r5, r11, #1
    852e:	1c51      	adds	r1, r2, #1
    8530:	6031      	str	r1, [r6, #0]
    8532:	7812      	ldrb	r2, [r2, #0]
    8534:	f88b 2000 	strb.w	r2, [r11]
    8538:	6872      	ldr	r2, [r6, #4]
    853a:	3a01      	subs	r2, #1
    853c:	2a00      	cmp	r2, #0
    853e:	6072      	str	r2, [r6, #4]
    8540:	dc08      	bgt.n	8554 <_scanf_i+0xdc>
    8542:	9301      	str	r3, [sp, #4]
    8544:	f8d4 2180 	ldr.w	r2, [r4, #384]	; 0x180
    8548:	4648      	mov	r0, r9
    854a:	4631      	mov	r1, r6
    854c:	4790      	blx	r2
    854e:	9b01      	ldr	r3, [sp, #4]
    8550:	2800      	cmp	r0, #0
    8552:	d141      	bne.n	85d8 <_scanf_i+0x160>
    8554:	46ab      	mov	r11, r5
    8556:	3301      	adds	r3, #1
    8558:	2b03      	cmp	r3, #3
    855a:	d1ba      	bne.n	84d2 <_scanf_i+0x5a>
    855c:	6863      	ldr	r3, [r4, #4]
    855e:	b90b      	cbnz	r3, 8564 <_scanf_i+0xec>
    8560:	230a      	movs	r3, #10
    8562:	6063      	str	r3, [r4, #4]
    8564:	6863      	ldr	r3, [r4, #4]
    8566:	493e      	ldr	r1, [pc, #248]	; (8660 <_scanf_i+0x1e8>)
    8568:	6960      	ldr	r0, [r4, #20]
    856a:	1ac9      	subs	r1, r1, r3
    856c:	f001 fca2 	bl	9eb4 <__sccl>
    8570:	465d      	mov	r5, r11
    8572:	f04f 0b00 	mov.w	r11, #0
    8576:	68a3      	ldr	r3, [r4, #8]
    8578:	2b00      	cmp	r3, #0
    857a:	d02f      	beq.n	85dc <_scanf_i+0x164>
    857c:	6832      	ldr	r2, [r6, #0]
    857e:	6960      	ldr	r0, [r4, #20]
    8580:	7811      	ldrb	r1, [r2, #0]
    8582:	5c40      	ldrb	r0, [r0, r1]
    8584:	b350      	cbz	r0, 85dc <_scanf_i+0x164>
    8586:	2930      	cmp	r1, #48	; 0x30
    8588:	6821      	ldr	r1, [r4, #0]
    858a:	d10b      	bne.n	85a4 <_scanf_i+0x12c>
    858c:	0508      	lsls	r0, r1, #20
    858e:	d509      	bpl.n	85a4 <_scanf_i+0x12c>
    8590:	f10b 0b01 	add.w	r11, r11, #1
    8594:	f1ba 0f00 	cmp.w	r10, #0
    8598:	d00b      	beq.n	85b2 <_scanf_i+0x13a>
    859a:	3301      	adds	r3, #1
    859c:	f10a 3aff 	add.w	r10, r10, #4294967295	; 0xffffffff
    85a0:	60a3      	str	r3, [r4, #8]
    85a2:	e006      	b.n	85b2 <_scanf_i+0x13a>
    85a4:	f421 6110 	bic.w	r1, r1, #2304	; 0x900
    85a8:	6021      	str	r1, [r4, #0]
    85aa:	7813      	ldrb	r3, [r2, #0]
    85ac:	3501      	adds	r5, #1
    85ae:	f805 3c01 	strb.w	r3, [r5, #-1]
    85b2:	6873      	ldr	r3, [r6, #4]
    85b4:	3b01      	subs	r3, #1
    85b6:	2b00      	cmp	r3, #0
    85b8:	6073      	str	r3, [r6, #4]
    85ba:	dd03      	ble.n	85c4 <_scanf_i+0x14c>
    85bc:	6833      	ldr	r3, [r6, #0]
    85be:	3301      	adds	r3, #1
    85c0:	6033      	str	r3, [r6, #0]
    85c2:	e005      	b.n	85d0 <_scanf_i+0x158>
    85c4:	f8d4 3180 	ldr.w	r3, [r4, #384]	; 0x180
    85c8:	4648      	mov	r0, r9
    85ca:	4631      	mov	r1, r6
    85cc:	4798      	blx	r3
    85ce:	b928      	cbnz	r0, 85dc <_scanf_i+0x164>
    85d0:	68a3      	ldr	r3, [r4, #8]
    85d2:	3b01      	subs	r3, #1
    85d4:	60a3      	str	r3, [r4, #8]
    85d6:	e7ce      	b.n	8576 <_scanf_i+0xfe>
    85d8:	f04f 0b00 	mov.w	r11, #0
    85dc:	6823      	ldr	r3, [r4, #0]
    85de:	05d9      	lsls	r1, r3, #23
    85e0:	d50d      	bpl.n	85fe <_scanf_i+0x186>
    85e2:	42bd      	cmp	r5, r7
    85e4:	d909      	bls.n	85fa <_scanf_i+0x182>
    85e6:	f815 1c01 	ldrb.w	r1, [r5, #-1]
    85ea:	f8d4 317c 	ldr.w	r3, [r4, #380]	; 0x17c
    85ee:	4648      	mov	r0, r9
    85f0:	4632      	mov	r2, r6
    85f2:	4798      	blx	r3
    85f4:	f105 3aff 	add.w	r10, r5, #4294967295	; 0xffffffff
    85f8:	4655      	mov	r5, r10
    85fa:	42bd      	cmp	r5, r7
    85fc:	d026      	beq.n	864c <_scanf_i+0x1d4>
    85fe:	6822      	ldr	r2, [r4, #0]
    8600:	f012 0210 	ands.w	r2, r2, #16
    8604:	d11b      	bne.n	863e <_scanf_i+0x1c6>
    8606:	702a      	strb	r2, [r5, #0]
    8608:	6863      	ldr	r3, [r4, #4]
    860a:	4648      	mov	r0, r9
    860c:	4639      	mov	r1, r7
    860e:	9e03      	ldr	r6, [sp, #12]
    8610:	47b0      	blx	r6
    8612:	6822      	ldr	r2, [r4, #0]
    8614:	f8d8 3000 	ldr.w	r3, [r8]
    8618:	f012 0f20 	tst.w	r2, #32
    861c:	d107      	bne.n	862e <_scanf_i+0x1b6>
    861e:	07d2      	lsls	r2, r2, #31
    8620:	d505      	bpl.n	862e <_scanf_i+0x1b6>
    8622:	1d1a      	adds	r2, r3, #4
    8624:	f8c8 2000 	str.w	r2, [r8]
    8628:	681b      	ldr	r3, [r3, #0]
    862a:	8018      	strh	r0, [r3, #0]
    862c:	e004      	b.n	8638 <_scanf_i+0x1c0>
    862e:	1d1a      	adds	r2, r3, #4
    8630:	f8c8 2000 	str.w	r2, [r8]
    8634:	681b      	ldr	r3, [r3, #0]
    8636:	6018      	str	r0, [r3, #0]
    8638:	68e3      	ldr	r3, [r4, #12]
    863a:	3301      	adds	r3, #1
    863c:	60e3      	str	r3, [r4, #12]
    863e:	6923      	ldr	r3, [r4, #16]
    8640:	1bed      	subs	r5, r5, r7
    8642:	44ab      	add	r11, r5
    8644:	445b      	add	r3, r11
    8646:	6123      	str	r3, [r4, #16]
    8648:	2000      	movs	r0, #0
    864a:	e000      	b.n	864e <_scanf_i+0x1d6>
    864c:	2001      	movs	r0, #1
    864e:	b009      	add	sp, #36	; 0x24
    8650:	e8bd 8ff0 	ldmia.w	sp!, {r4, r5, r6, r7, r8, r9, r10, r11, pc}
    8654:	0000c7f8 	.word	0x0000c7f8
    8658:	0000abc1 	.word	0x0000abc1
    865c:	0000acc5 	.word	0x0000acc5
    8660:	0000c814 	.word	0x0000c814

00008664 <__swbuf_r>:
    8664:	b570      	push	{r4, r5, r6, lr}
    8666:	460e      	mov	r6, r1
    8668:	4614      	mov	r4, r2
    866a:	4605      	mov	r5, r0
    866c:	b118      	cbz	r0, 8676 <__swbuf_r+0x12>
    866e:	6983      	ldr	r3, [r0, #24]
    8670:	b90b      	cbnz	r3, 8676 <__swbuf_r+0x12>
    8672:	f7fd febf 	bl	63f4 <__sinit>
    8676:	4b22      	ldr	r3, [pc, #136]	; (8700 <__swbuf_r+0x9c>)
    8678:	429c      	cmp	r4, r3
    867a:	d101      	bne.n	8680 <__swbuf_r+0x1c>
    867c:	686c      	ldr	r4, [r5, #4]
    867e:	e008      	b.n	8692 <__swbuf_r+0x2e>
    8680:	4b20      	ldr	r3, [pc, #128]	; (8704 <__swbuf_r+0xa0>)
    8682:	429c      	cmp	r4, r3
    8684:	d101      	bne.n	868a <__swbuf_r+0x26>
    8686:	68ac      	ldr	r4, [r5, #8]
    8688:	e003      	b.n	8692 <__swbuf_r+0x2e>
    868a:	4b1f      	ldr	r3, [pc, #124]	; (8708 <__swbuf_r+0xa4>)
    868c:	429c      	cmp	r4, r3
    868e:	bf08      	it	eq
    8690:	68ec      	ldreq	r4, [r5, #12]
    8692:	69a3      	ldr	r3, [r4, #24]
    8694:	60a3      	str	r3, [r4, #8]
    8696:	89a3      	ldrh	r3, [r4, #12]
    8698:	071a      	lsls	r2, r3, #28
    869a:	d509      	bpl.n	86b0 <__swbuf_r+0x4c>
    869c:	6923      	ldr	r3, [r4, #16]
    869e:	b13b      	cbz	r3, 86b0 <__swbuf_r+0x4c>
    86a0:	6923      	ldr	r3, [r4, #16]
    86a2:	6820      	ldr	r0, [r4, #0]
    86a4:	b2f6      	uxtb	r6, r6
    86a6:	1ac0      	subs	r0, r0, r3
    86a8:	6963      	ldr	r3, [r4, #20]
    86aa:	4298      	cmp	r0, r3
    86ac:	db0f      	blt.n	86ce <__swbuf_r+0x6a>
    86ae:	e008      	b.n	86c2 <__swbuf_r+0x5e>
    86b0:	4628      	mov	r0, r5
    86b2:	4621      	mov	r1, r4
    86b4:	f000 f83c 	bl	8730 <__swsetup_r>
    86b8:	2800      	cmp	r0, #0
    86ba:	d0f1      	beq.n	86a0 <__swbuf_r+0x3c>
    86bc:	f04f 30ff 	mov.w	r0, #4294967295	; 0xffffffff
    86c0:	bd70      	pop	{r4, r5, r6, pc}
    86c2:	4628      	mov	r0, r5
    86c4:	4621      	mov	r1, r4
    86c6:	f7fd fdd1 	bl	626c <_fflush_r>
    86ca:	2800      	cmp	r0, #0
    86cc:	d1f6      	bne.n	86bc <__swbuf_r+0x58>
    86ce:	68a3      	ldr	r3, [r4, #8]
    86d0:	3001      	adds	r0, #1
    86d2:	3b01      	subs	r3, #1
    86d4:	60a3      	str	r3, [r4, #8]
    86d6:	6823      	ldr	r3, [r4, #0]
    86d8:	1c5a      	adds	r2, r3, #1
    86da:	6022      	str	r2, [r4, #0]
    86dc:	701e      	strb	r6, [r3, #0]
    86de:	6963      	ldr	r3, [r4, #20]
    86e0:	4298      	cmp	r0, r3
    86e2:	d004      	beq.n	86ee <__swbuf_r+0x8a>
    86e4:	89a3      	ldrh	r3, [r4, #12]
    86e6:	07db      	lsls	r3, r3, #31
    86e8:	d507      	bpl.n	86fa <__swbuf_r+0x96>
    86ea:	2e0a      	cmp	r6, #10
    86ec:	d105      	bne.n	86fa <__swbuf_r+0x96>
    86ee:	4628      	mov	r0, r5
    86f0:	4621      	mov	r1, r4
    86f2:	f7fd fdbb 	bl	626c <_fflush_r>
    86f6:	2800      	cmp	r0, #0
    86f8:	d1e0      	bne.n	86bc <__swbuf_r+0x58>
    86fa:	4630      	mov	r0, r6
    86fc:	bd70      	pop	{r4, r5, r6, pc}
    86fe:	bf00      	nop
    8700:	0000c748 	.word	0x0000c748
    8704:	0000c768 	.word	0x0000c768
    8708:	0000c788 	.word	0x0000c788

0000870c <_write_r>:
    870c:	b538      	push	{r3, r4, r5, lr}
    870e:	4c07      	ldr	r4, [pc, #28]	; (872c <_write_r+0x20>)
    8710:	4605      	mov	r5, r0
    8712:	2000      	movs	r0, #0
    8714:	6020      	str	r0, [r4, #0]
    8716:	4608      	mov	r0, r1
    8718:	4611      	mov	r1, r2
    871a:	461a      	mov	r2, r3
    871c:	f7f8 fa8a 	bl	c34 <__wrap__write>
    8720:	1c43      	adds	r3, r0, #1
    8722:	d102      	bne.n	872a <_write_r+0x1e>
    8724:	6823      	ldr	r3, [r4, #0]
    8726:	b103      	cbz	r3, 872a <_write_r+0x1e>
    8728:	602b      	str	r3, [r5, #0]
    872a:	bd38      	pop	{r3, r4, r5, pc}
    872c:	10000a38 	.word	0x10000a38

00008730 <__swsetup_r>:
    8730:	4b32      	ldr	r3, [pc, #200]	; (87fc <__swsetup_r+0xcc>)
    8732:	b570      	push	{r4, r5, r6, lr}
    8734:	681d      	ldr	r5, [r3, #0]
    8736:	4606      	mov	r6, r0
    8738:	460c      	mov	r4, r1
    873a:	b125      	cbz	r5, 8746 <__swsetup_r+0x16>
    873c:	69ab      	ldr	r3, [r5, #24]
    873e:	b913      	cbnz	r3, 8746 <__swsetup_r+0x16>
    8740:	4628      	mov	r0, r5
    8742:	f7fd fe57 	bl	63f4 <__sinit>
    8746:	4b2e      	ldr	r3, [pc, #184]	; (8800 <__swsetup_r+0xd0>)
    8748:	429c      	cmp	r4, r3
    874a:	d101      	bne.n	8750 <__swsetup_r+0x20>
    874c:	686c      	ldr	r4, [r5, #4]
    874e:	e008      	b.n	8762 <__swsetup_r+0x32>
    8750:	4b2c      	ldr	r3, [pc, #176]	; (8804 <__swsetup_r+0xd4>)
    8752:	429c      	cmp	r4, r3
    8754:	d101      	bne.n	875a <__swsetup_r+0x2a>
    8756:	68ac      	ldr	r4, [r5, #8]
    8758:	e003      	b.n	8762 <__swsetup_r+0x32>
    875a:	4b2b      	ldr	r3, [pc, #172]	; (8808 <__swsetup_r+0xd8>)
    875c:	429c      	cmp	r4, r3
    875e:	bf08      	it	eq
    8760:	68ec      	ldreq	r4, [r5, #12]
    8762:	89a2      	ldrh	r2, [r4, #12]
    8764:	b293      	uxth	r3, r2
    8766:	0719      	lsls	r1, r3, #28
    8768:	d420      	bmi.n	87ac <__swsetup_r+0x7c>
    876a:	06dd      	lsls	r5, r3, #27
    876c:	d405      	bmi.n	877a <__swsetup_r+0x4a>
    876e:	2309      	movs	r3, #9
    8770:	f042 0240 	orr.w	r2, r2, #64	; 0x40
    8774:	6033      	str	r3, [r6, #0]
    8776:	81a2      	strh	r2, [r4, #12]
    8778:	e03b      	b.n	87f2 <__swsetup_r+0xc2>
    877a:	0758      	lsls	r0, r3, #29
    877c:	d512      	bpl.n	87a4 <__swsetup_r+0x74>
    877e:	6b61      	ldr	r1, [r4, #52]	; 0x34
    8780:	b141      	cbz	r1, 8794 <__swsetup_r+0x64>
    8782:	f104 0344 	add.w	r3, r4, #68	; 0x44
    8786:	4299      	cmp	r1, r3
    8788:	d002      	beq.n	8790 <__swsetup_r+0x60>
    878a:	4630      	mov	r0, r6
    878c:	f7fe f894 	bl	68b8 <_free_r>
    8790:	2300      	movs	r3, #0
    8792:	6363      	str	r3, [r4, #52]	; 0x34
    8794:	89a3      	ldrh	r3, [r4, #12]
    8796:	f023 0324 	bic.w	r3, r3, #36	; 0x24
    879a:	81a3      	strh	r3, [r4, #12]
    879c:	2300      	movs	r3, #0
    879e:	6063      	str	r3, [r4, #4]
    87a0:	6923      	ldr	r3, [r4, #16]
    87a2:	6023      	str	r3, [r4, #0]
    87a4:	89a3      	ldrh	r3, [r4, #12]
    87a6:	f043 0308 	orr.w	r3, r3, #8
    87aa:	81a3      	strh	r3, [r4, #12]
    87ac:	6923      	ldr	r3, [r4, #16]
    87ae:	b94b      	cbnz	r3, 87c4 <__swsetup_r+0x94>
    87b0:	89a3      	ldrh	r3, [r4, #12]
    87b2:	f403 7320 	and.w	r3, r3, #640	; 0x280
    87b6:	f5b3 7f00 	cmp.w	r3, #512	; 0x200
    87ba:	d003      	beq.n	87c4 <__swsetup_r+0x94>
    87bc:	4630      	mov	r0, r6
    87be:	4621      	mov	r1, r4
    87c0:	f7fd fffe 	bl	67c0 <__smakebuf_r>
    87c4:	89a3      	ldrh	r3, [r4, #12]
    87c6:	f013 0201 	ands.w	r2, r3, #1
    87ca:	d005      	beq.n	87d8 <__swsetup_r+0xa8>
    87cc:	2200      	movs	r2, #0
    87ce:	60a2      	str	r2, [r4, #8]
    87d0:	6962      	ldr	r2, [r4, #20]
    87d2:	4252      	negs	r2, r2
    87d4:	61a2      	str	r2, [r4, #24]
    87d6:	e003      	b.n	87e0 <__swsetup_r+0xb0>
    87d8:	0799      	lsls	r1, r3, #30
    87da:	bf58      	it	pl
    87dc:	6962      	ldrpl	r2, [r4, #20]
    87de:	60a2      	str	r2, [r4, #8]
    87e0:	6922      	ldr	r2, [r4, #16]
    87e2:	b94a      	cbnz	r2, 87f8 <__swsetup_r+0xc8>
    87e4:	f003 0080 	and.w	r0, r3, #128	; 0x80
    87e8:	b280      	uxth	r0, r0
    87ea:	b130      	cbz	r0, 87fa <__swsetup_r+0xca>
    87ec:	f043 0340 	orr.w	r3, r3, #64	; 0x40
    87f0:	81a3      	strh	r3, [r4, #12]
    87f2:	f04f 30ff 	mov.w	r0, #4294967295	; 0xffffffff
    87f6:	bd70      	pop	{r4, r5, r6, pc}
    87f8:	2000      	movs	r0, #0
    87fa:	bd70      	pop	{r4, r5, r6, pc}
    87fc:	100001c0 	.word	0x100001c0
    8800:	0000c748 	.word	0x0000c748
    8804:	0000c768 	.word	0x0000c768
    8808:	0000c788 	.word	0x0000c788

0000880c <_close_r>:
    880c:	b538      	push	{r3, r4, r5, lr}
    880e:	4c06      	ldr	r4, [pc, #24]	; (8828 <_close_r+0x1c>)
    8810:	2300      	movs	r3, #0
    8812:	4605      	mov	r5, r0
    8814:	4608      	mov	r0, r1
    8816:	6023      	str	r3, [r4, #0]
    8818:	f7fb fa78 	bl	3d0c <_close>
    881c:	1c43      	adds	r3, r0, #1
    881e:	d102      	bne.n	8826 <_close_r+0x1a>
    8820:	6823      	ldr	r3, [r4, #0]
    8822:	b103      	cbz	r3, 8826 <_close_r+0x1a>
    8824:	602b      	str	r3, [r5, #0]
    8826:	bd38      	pop	{r3, r4, r5, pc}
    8828:	10000a38 	.word	0x10000a38

0000882c <quorem>:
    882c:	e92d 4ff7 	stmdb	sp!, {r0, r1, r2, r4, r5, r6, r7, r8, r9, r10, r11, lr}
    8830:	6903      	ldr	r3, [r0, #16]
    8832:	690c      	ldr	r4, [r1, #16]
    8834:	4680      	mov	r8, r0
    8836:	42a3      	cmp	r3, r4
    8838:	f2c0 8083 	blt.w	8942 <quorem+0x116>
    883c:	3c01      	subs	r4, #1
    883e:	00a2      	lsls	r2, r4, #2
    8840:	f101 0714 	add.w	r7, r1, #20
    8844:	f100 0514 	add.w	r5, r0, #20
    8848:	4691      	mov	r9, r2
    884a:	9200      	str	r2, [sp, #0]
    884c:	f857 6024 	ldr.w	r6, [r7, r4, lsl #2]
    8850:	442a      	add	r2, r5
    8852:	9201      	str	r2, [sp, #4]
    8854:	f855 2024 	ldr.w	r2, [r5, r4, lsl #2]
    8858:	3601      	adds	r6, #1
    885a:	fbb2 f6f6 	udiv	r6, r2, r6
    885e:	44b9      	add	r9, r7
    8860:	2e00      	cmp	r6, #0
    8862:	d03b      	beq.n	88dc <quorem+0xb0>
    8864:	f04f 0e00 	mov.w	lr, #0
    8868:	463a      	mov	r2, r7
    886a:	4628      	mov	r0, r5
    886c:	46f3      	mov	r11, lr
    886e:	f852 cb04 	ldr.w	r12, [r2], #4
    8872:	6803      	ldr	r3, [r0, #0]
    8874:	fa1f fa8c 	uxth.w	r10, r12
    8878:	ea4f 4c1c 	mov.w	r12, r12, lsr #16
    887c:	fb0a ea06 	mla	r10, r10, r6, lr
    8880:	fb0c fc06 	mul.w	r12, r12, r6
    8884:	eb0c 4c1a 	add.w	r12, r12, r10, lsr #16
    8888:	fa1f fa8a 	uxth.w	r10, r10
    888c:	ebca 0b0b 	rsb	r11, r10, r11
    8890:	ea4f 4e1c 	mov.w	lr, r12, lsr #16
    8894:	fa1f fa83 	uxth.w	r10, r3
    8898:	fa1f fc8c 	uxth.w	r12, r12
    889c:	44da      	add	r10, r11
    889e:	ebcc 4c13 	rsb	r12, r12, r3, lsr #16
    88a2:	eb0c 4c2a 	add.w	r12, r12, r10, asr #16
    88a6:	fa1f fa8a 	uxth.w	r10, r10
    88aa:	ea4a 4a0c 	orr.w	r10, r10, r12, lsl #16
    88ae:	454a      	cmp	r2, r9
    88b0:	ea4f 4b2c 	mov.w	r11, r12, asr #16
    88b4:	f840 ab04 	str.w	r10, [r0], #4
    88b8:	d9d9      	bls.n	886e <quorem+0x42>
    88ba:	9a00      	ldr	r2, [sp, #0]
    88bc:	58ab      	ldr	r3, [r5, r2]
    88be:	b96b      	cbnz	r3, 88dc <quorem+0xb0>
    88c0:	9a01      	ldr	r2, [sp, #4]
    88c2:	1f13      	subs	r3, r2, #4
    88c4:	42ab      	cmp	r3, r5
    88c6:	461a      	mov	r2, r3
    88c8:	d802      	bhi.n	88d0 <quorem+0xa4>
    88ca:	f8c8 4010 	str.w	r4, [r8, #16]
    88ce:	e005      	b.n	88dc <quorem+0xb0>
    88d0:	6812      	ldr	r2, [r2, #0]
    88d2:	3b04      	subs	r3, #4
    88d4:	2a00      	cmp	r2, #0
    88d6:	d1f8      	bne.n	88ca <quorem+0x9e>
    88d8:	3c01      	subs	r4, #1
    88da:	e7f3      	b.n	88c4 <quorem+0x98>
    88dc:	4640      	mov	r0, r8
    88de:	f001 f8da 	bl	9a96 <__mcmp>
    88e2:	2800      	cmp	r0, #0
    88e4:	db2b      	blt.n	893e <quorem+0x112>
    88e6:	3601      	adds	r6, #1
    88e8:	462b      	mov	r3, r5
    88ea:	2000      	movs	r0, #0
    88ec:	f857 cb04 	ldr.w	r12, [r7], #4
    88f0:	681a      	ldr	r2, [r3, #0]
    88f2:	fa1f f18c 	uxth.w	r1, r12
    88f6:	1a41      	subs	r1, r0, r1
    88f8:	fa1f fa82 	uxth.w	r10, r2
    88fc:	ea4f 4c1c 	mov.w	r12, r12, lsr #16
    8900:	4451      	add	r1, r10
    8902:	ebcc 4212 	rsb	r2, r12, r2, lsr #16
    8906:	eb02 4221 	add.w	r2, r2, r1, asr #16
    890a:	b289      	uxth	r1, r1
    890c:	1410      	asrs	r0, r2, #16
    890e:	454f      	cmp	r7, r9
    8910:	ea41 4202 	orr.w	r2, r1, r2, lsl #16
    8914:	f843 2b04 	str.w	r2, [r3], #4
    8918:	d9e8      	bls.n	88ec <quorem+0xc0>
    891a:	f855 2024 	ldr.w	r2, [r5, r4, lsl #2]
    891e:	eb05 0384 	add.w	r3, r5, r4, lsl #2
    8922:	b962      	cbnz	r2, 893e <quorem+0x112>
    8924:	3b04      	subs	r3, #4
    8926:	42ab      	cmp	r3, r5
    8928:	461a      	mov	r2, r3
    892a:	d802      	bhi.n	8932 <quorem+0x106>
    892c:	f8c8 4010 	str.w	r4, [r8, #16]
    8930:	e005      	b.n	893e <quorem+0x112>
    8932:	6812      	ldr	r2, [r2, #0]
    8934:	3b04      	subs	r3, #4
    8936:	2a00      	cmp	r2, #0
    8938:	d1f8      	bne.n	892c <quorem+0x100>
    893a:	3c01      	subs	r4, #1
    893c:	e7f3      	b.n	8926 <quorem+0xfa>
    893e:	4630      	mov	r0, r6
    8940:	e000      	b.n	8944 <quorem+0x118>
    8942:	2000      	movs	r0, #0
    8944:	b003      	add	sp, #12
    8946:	e8bd 8ff0 	ldmia.w	sp!, {r4, r5, r6, r7, r8, r9, r10, r11, pc}
    894a:	0000      	movs	r0, r0
    894c:	0000      	movs	r0, r0
	...

00008950 <_dtoa_r>:
    8950:	e92d 4ff0 	stmdb	sp!, {r4, r5, r6, r7, r8, r9, r10, r11, lr}
    8954:	6a45      	ldr	r5, [r0, #36]	; 0x24
    8956:	b09b      	sub	sp, #108	; 0x6c
    8958:	4682      	mov	r10, r0
    895a:	9c27      	ldr	r4, [sp, #156]	; 0x9c
    895c:	e9cd 2304 	strd	r2, r3, [sp, #16]
    8960:	b945      	cbnz	r5, 8974 <_dtoa_r+0x24>
    8962:	2010      	movs	r0, #16
    8964:	f7fd ff78 	bl	6858 <malloc>
    8968:	f8ca 0024 	str.w	r0, [r10, #36]	; 0x24
    896c:	6045      	str	r5, [r0, #4]
    896e:	6085      	str	r5, [r0, #8]
    8970:	6005      	str	r5, [r0, #0]
    8972:	60c5      	str	r5, [r0, #12]
    8974:	f8da 3024 	ldr.w	r3, [r10, #36]	; 0x24
    8978:	6819      	ldr	r1, [r3, #0]
    897a:	b161      	cbz	r1, 8996 <_dtoa_r+0x46>
    897c:	685b      	ldr	r3, [r3, #4]
    897e:	2201      	movs	r2, #1
    8980:	604b      	str	r3, [r1, #4]
    8982:	fa02 f303 	lsl.w	r3, r2, r3
    8986:	4650      	mov	r0, r10
    8988:	608b      	str	r3, [r1, #8]
    898a:	f000 fe61 	bl	9650 <_Bfree>
    898e:	f8da 3024 	ldr.w	r3, [r10, #36]	; 0x24
    8992:	2200      	movs	r2, #0
    8994:	601a      	str	r2, [r3, #0]
    8996:	9805      	ldr	r0, [sp, #20]
    8998:	2800      	cmp	r0, #0
    899a:	da05      	bge.n	89a8 <_dtoa_r+0x58>
    899c:	2301      	movs	r3, #1
    899e:	f020 4100 	bic.w	r1, r0, #2147483648	; 0x80000000
    89a2:	6023      	str	r3, [r4, #0]
    89a4:	9105      	str	r1, [sp, #20]
    89a6:	e001      	b.n	89ac <_dtoa_r+0x5c>
    89a8:	2300      	movs	r3, #0
    89aa:	6023      	str	r3, [r4, #0]
    89ac:	9f05      	ldr	r7, [sp, #20]
    89ae:	4a9c      	ldr	r2, [pc, #624]	; (8c20 <_dtoa_r+0x2d0>)
    89b0:	f027 4300 	bic.w	r3, r7, #2147483648	; 0x80000000
    89b4:	0d1b      	lsrs	r3, r3, #20
    89b6:	051b      	lsls	r3, r3, #20
    89b8:	4293      	cmp	r3, r2
    89ba:	d11d      	bne.n	89f8 <_dtoa_r+0xa8>
    89bc:	9a26      	ldr	r2, [sp, #152]	; 0x98
    89be:	f242 730f 	movw	r3, #9999	; 0x270f
    89c2:	6013      	str	r3, [r2, #0]
    89c4:	9b04      	ldr	r3, [sp, #16]
    89c6:	b943      	cbnz	r3, 89da <_dtoa_r+0x8a>
    89c8:	4b96      	ldr	r3, [pc, #600]	; (8c24 <_dtoa_r+0x2d4>)
    89ca:	4a97      	ldr	r2, [pc, #604]	; (8c28 <_dtoa_r+0x2d8>)
    89cc:	f3c7 0013 	ubfx	r0, r7, #0, #20
    89d0:	2800      	cmp	r0, #0
    89d2:	bf0c      	ite	eq
    89d4:	4610      	moveq	r0, r2
    89d6:	4618      	movne	r0, r3
    89d8:	e000      	b.n	89dc <_dtoa_r+0x8c>
    89da:	4892      	ldr	r0, [pc, #584]	; (8c24 <_dtoa_r+0x2d4>)
    89dc:	9f28      	ldr	r7, [sp, #160]	; 0xa0
    89de:	2f00      	cmp	r7, #0
    89e0:	f000 8571 	beq.w	94c6 <_dtoa_r+0xb76>
    89e4:	78c3      	ldrb	r3, [r0, #3]
    89e6:	b113      	cbz	r3, 89ee <_dtoa_r+0x9e>
    89e8:	f100 0308 	add.w	r3, r0, #8
    89ec:	e000      	b.n	89f0 <_dtoa_r+0xa0>
    89ee:	1cc3      	adds	r3, r0, #3
    89f0:	9f28      	ldr	r7, [sp, #160]	; 0xa0
    89f2:	603b      	str	r3, [r7, #0]
    89f4:	f000 bd67 	b.w	94c6 <_dtoa_r+0xb76>
    89f8:	e9dd 4504 	ldrd	r4, r5, [sp, #16]
    89fc:	2200      	movs	r2, #0
    89fe:	4620      	mov	r0, r4
    8a00:	4629      	mov	r1, r5
    8a02:	2300      	movs	r3, #0
    8a04:	f7fc ff9a 	bl	593c <__aeabi_dcmpeq>
    8a08:	4680      	mov	r8, r0
    8a0a:	b158      	cbz	r0, 8a24 <_dtoa_r+0xd4>
    8a0c:	9f26      	ldr	r7, [sp, #152]	; 0x98
    8a0e:	2301      	movs	r3, #1
    8a10:	603b      	str	r3, [r7, #0]
    8a12:	9f28      	ldr	r7, [sp, #160]	; 0xa0
    8a14:	2f00      	cmp	r7, #0
    8a16:	f000 8553 	beq.w	94c0 <_dtoa_r+0xb70>
    8a1a:	4884      	ldr	r0, [pc, #528]	; (8c2c <_dtoa_r+0x2dc>)
    8a1c:	6038      	str	r0, [r7, #0]
    8a1e:	3801      	subs	r0, #1
    8a20:	f000 bd51 	b.w	94c6 <_dtoa_r+0xb76>
    8a24:	ab19      	add	r3, sp, #100	; 0x64
    8a26:	9300      	str	r3, [sp, #0]
    8a28:	ab18      	add	r3, sp, #96	; 0x60
    8a2a:	9301      	str	r3, [sp, #4]
    8a2c:	4650      	mov	r0, r10
    8a2e:	4622      	mov	r2, r4
    8a30:	462b      	mov	r3, r5
    8a32:	f001 f922 	bl	9c7a <__d2b>
    8a36:	f3c7 560a 	ubfx	r6, r7, #20, #11
    8a3a:	4683      	mov	r11, r0
    8a3c:	b15e      	cbz	r6, 8a56 <_dtoa_r+0x106>
    8a3e:	f3c5 0313 	ubfx	r3, r5, #0, #20
    8a42:	f043 517f 	orr.w	r1, r3, #1069547520	; 0x3fc00000
    8a46:	4620      	mov	r0, r4
    8a48:	f441 1140 	orr.w	r1, r1, #3145728	; 0x300000
    8a4c:	f2a6 36ff 	subw	r6, r6, #1023	; 0x3ff
    8a50:	f8cd 8054 	str.w	r8, [sp, #84]	; 0x54
    8a54:	e01c      	b.n	8a90 <_dtoa_r+0x140>
    8a56:	9b19      	ldr	r3, [sp, #100]	; 0x64
    8a58:	9e18      	ldr	r6, [sp, #96]	; 0x60
    8a5a:	441e      	add	r6, r3
    8a5c:	f46f 6382 	mvn.w	r3, #1040	; 0x410
    8a60:	429e      	cmp	r6, r3
    8a62:	db09      	blt.n	8a78 <_dtoa_r+0x128>
    8a64:	9904      	ldr	r1, [sp, #16]
    8a66:	331f      	adds	r3, #31
    8a68:	f206 4012 	addw	r0, r6, #1042	; 0x412
    8a6c:	1b9b      	subs	r3, r3, r6
    8a6e:	fa21 f000 	lsr.w	r0, r1, r0
    8a72:	409f      	lsls	r7, r3
    8a74:	4338      	orrs	r0, r7
    8a76:	e004      	b.n	8a82 <_dtoa_r+0x132>
    8a78:	486d      	ldr	r0, [pc, #436]	; (8c30 <_dtoa_r+0x2e0>)
    8a7a:	9a04      	ldr	r2, [sp, #16]
    8a7c:	1b80      	subs	r0, r0, r6
    8a7e:	fa02 f000 	lsl.w	r0, r2, r0
    8a82:	f7fc fc7d 	bl	5380 <__aeabi_ui2d>
    8a86:	2701      	movs	r7, #1
    8a88:	f1a1 71f8 	sub.w	r1, r1, #32505856	; 0x1f00000
    8a8c:	3e01      	subs	r6, #1
    8a8e:	9715      	str	r7, [sp, #84]	; 0x54
    8a90:	2200      	movs	r2, #0
    8a92:	4b68      	ldr	r3, [pc, #416]	; (8c34 <_dtoa_r+0x2e4>)
    8a94:	f7fc fb36 	bl	5104 <__aeabi_dsub>
    8a98:	a35b      	add	r3, pc, #364	; (adr r3, 8c08 <_dtoa_r+0x2b8>)
    8a9a:	e9d3 2300 	ldrd	r2, r3, [r3]
    8a9e:	f7fc fce5 	bl	546c <__aeabi_dmul>
    8aa2:	a35b      	add	r3, pc, #364	; (adr r3, 8c10 <_dtoa_r+0x2c0>)
    8aa4:	e9d3 2300 	ldrd	r2, r3, [r3]
    8aa8:	f7fc fb2e 	bl	5108 <__adddf3>
    8aac:	4604      	mov	r4, r0
    8aae:	4630      	mov	r0, r6
    8ab0:	460d      	mov	r5, r1
    8ab2:	f7fc fc75 	bl	53a0 <__aeabi_i2d>
    8ab6:	a358      	add	r3, pc, #352	; (adr r3, 8c18 <_dtoa_r+0x2c8>)
    8ab8:	e9d3 2300 	ldrd	r2, r3, [r3]
    8abc:	f7fc fcd6 	bl	546c <__aeabi_dmul>
    8ac0:	4602      	mov	r2, r0
    8ac2:	460b      	mov	r3, r1
    8ac4:	4620      	mov	r0, r4
    8ac6:	4629      	mov	r1, r5
    8ac8:	f7fc fb1e 	bl	5108 <__adddf3>
    8acc:	4604      	mov	r4, r0
    8ace:	460d      	mov	r5, r1
    8ad0:	f7fc ff66 	bl	59a0 <__aeabi_d2iz>
    8ad4:	4629      	mov	r1, r5
    8ad6:	4681      	mov	r9, r0
    8ad8:	2200      	movs	r2, #0
    8ada:	4620      	mov	r0, r4
    8adc:	2300      	movs	r3, #0
    8ade:	f7fc ff37 	bl	5950 <__aeabi_dcmplt>
    8ae2:	b158      	cbz	r0, 8afc <_dtoa_r+0x1ac>
    8ae4:	4648      	mov	r0, r9
    8ae6:	f7fc fc5b 	bl	53a0 <__aeabi_i2d>
    8aea:	4602      	mov	r2, r0
    8aec:	460b      	mov	r3, r1
    8aee:	4620      	mov	r0, r4
    8af0:	4629      	mov	r1, r5
    8af2:	f7fc ff23 	bl	593c <__aeabi_dcmpeq>
    8af6:	b908      	cbnz	r0, 8afc <_dtoa_r+0x1ac>
    8af8:	f109 39ff 	add.w	r9, r9, #4294967295	; 0xffffffff
    8afc:	f1b9 0f16 	cmp.w	r9, #22
    8b00:	d80d      	bhi.n	8b1e <_dtoa_r+0x1ce>
    8b02:	4b4d      	ldr	r3, [pc, #308]	; (8c38 <_dtoa_r+0x2e8>)
    8b04:	eb03 03c9 	add.w	r3, r3, r9, lsl #3
    8b08:	e9d3 0100 	ldrd	r0, r1, [r3]
    8b0c:	e9dd 2304 	ldrd	r2, r3, [sp, #16]
    8b10:	f7fc ff3c 	bl	598c <__aeabi_dcmpgt>
    8b14:	b130      	cbz	r0, 8b24 <_dtoa_r+0x1d4>
    8b16:	f109 39ff 	add.w	r9, r9, #4294967295	; 0xffffffff
    8b1a:	2700      	movs	r7, #0
    8b1c:	e000      	b.n	8b20 <_dtoa_r+0x1d0>
    8b1e:	2701      	movs	r7, #1
    8b20:	9714      	str	r7, [sp, #80]	; 0x50
    8b22:	e000      	b.n	8b26 <_dtoa_r+0x1d6>
    8b24:	9014      	str	r0, [sp, #80]	; 0x50
    8b26:	9b18      	ldr	r3, [sp, #96]	; 0x60
    8b28:	1b9e      	subs	r6, r3, r6
    8b2a:	3e01      	subs	r6, #1
    8b2c:	9609      	str	r6, [sp, #36]	; 0x24
    8b2e:	d504      	bpl.n	8b3a <_dtoa_r+0x1ea>
    8b30:	4277      	negs	r7, r6
    8b32:	9708      	str	r7, [sp, #32]
    8b34:	2700      	movs	r7, #0
    8b36:	9709      	str	r7, [sp, #36]	; 0x24
    8b38:	e001      	b.n	8b3e <_dtoa_r+0x1ee>
    8b3a:	2700      	movs	r7, #0
    8b3c:	9708      	str	r7, [sp, #32]
    8b3e:	f1b9 0f00 	cmp.w	r9, #0
    8b42:	db07      	blt.n	8b54 <_dtoa_r+0x204>
    8b44:	9f09      	ldr	r7, [sp, #36]	; 0x24
    8b46:	f8cd 9044 	str.w	r9, [sp, #68]	; 0x44
    8b4a:	444f      	add	r7, r9
    8b4c:	9709      	str	r7, [sp, #36]	; 0x24
    8b4e:	2700      	movs	r7, #0
    8b50:	970e      	str	r7, [sp, #56]	; 0x38
    8b52:	e008      	b.n	8b66 <_dtoa_r+0x216>
    8b54:	9f08      	ldr	r7, [sp, #32]
    8b56:	ebc9 0707 	rsb	r7, r9, r7
    8b5a:	9708      	str	r7, [sp, #32]
    8b5c:	f1c9 0700 	rsb	r7, r9, #0
    8b60:	970e      	str	r7, [sp, #56]	; 0x38
    8b62:	2700      	movs	r7, #0
    8b64:	9711      	str	r7, [sp, #68]	; 0x44
    8b66:	9f24      	ldr	r7, [sp, #144]	; 0x90
    8b68:	2f09      	cmp	r7, #9
    8b6a:	d829      	bhi.n	8bc0 <_dtoa_r+0x270>
    8b6c:	2f05      	cmp	r7, #5
    8b6e:	bfc4      	itt	gt
    8b70:	3f04      	subgt	r7, #4
    8b72:	9724      	strgt	r7, [sp, #144]	; 0x90
    8b74:	9f24      	ldr	r7, [sp, #144]	; 0x90
    8b76:	bfc8      	it	gt
    8b78:	2500      	movgt	r5, #0
    8b7a:	f1a7 0302 	sub.w	r3, r7, #2
    8b7e:	bfd8      	it	le
    8b80:	2501      	movle	r5, #1
    8b82:	2b03      	cmp	r3, #3
    8b84:	d821      	bhi.n	8bca <_dtoa_r+0x27a>
    8b86:	e8df f003 	tbb	[pc, r3]
    8b8a:	0f06      	.short	0x0f06
    8b8c:	0402      	.short	0x0402
    8b8e:	2701      	movs	r7, #1
    8b90:	e002      	b.n	8b98 <_dtoa_r+0x248>
    8b92:	2701      	movs	r7, #1
    8b94:	e009      	b.n	8baa <_dtoa_r+0x25a>
    8b96:	2700      	movs	r7, #0
    8b98:	970f      	str	r7, [sp, #60]	; 0x3c
    8b9a:	9f25      	ldr	r7, [sp, #148]	; 0x94
    8b9c:	2f00      	cmp	r7, #0
    8b9e:	dd1e      	ble.n	8bde <_dtoa_r+0x28e>
    8ba0:	970b      	str	r7, [sp, #44]	; 0x2c
    8ba2:	9707      	str	r7, [sp, #28]
    8ba4:	463b      	mov	r3, r7
    8ba6:	e01f      	b.n	8be8 <_dtoa_r+0x298>
    8ba8:	2700      	movs	r7, #0
    8baa:	970f      	str	r7, [sp, #60]	; 0x3c
    8bac:	9f25      	ldr	r7, [sp, #148]	; 0x94
    8bae:	444f      	add	r7, r9
    8bb0:	970b      	str	r7, [sp, #44]	; 0x2c
    8bb2:	3701      	adds	r7, #1
    8bb4:	463b      	mov	r3, r7
    8bb6:	9707      	str	r7, [sp, #28]
    8bb8:	2b01      	cmp	r3, #1
    8bba:	bfb8      	it	lt
    8bbc:	2301      	movlt	r3, #1
    8bbe:	e013      	b.n	8be8 <_dtoa_r+0x298>
    8bc0:	2501      	movs	r5, #1
    8bc2:	2700      	movs	r7, #0
    8bc4:	9724      	str	r7, [sp, #144]	; 0x90
    8bc6:	950f      	str	r5, [sp, #60]	; 0x3c
    8bc8:	e001      	b.n	8bce <_dtoa_r+0x27e>
    8bca:	2701      	movs	r7, #1
    8bcc:	970f      	str	r7, [sp, #60]	; 0x3c
    8bce:	f04f 37ff 	mov.w	r7, #4294967295	; 0xffffffff
    8bd2:	970b      	str	r7, [sp, #44]	; 0x2c
    8bd4:	9707      	str	r7, [sp, #28]
    8bd6:	2700      	movs	r7, #0
    8bd8:	2312      	movs	r3, #18
    8bda:	9725      	str	r7, [sp, #148]	; 0x94
    8bdc:	e004      	b.n	8be8 <_dtoa_r+0x298>
    8bde:	2701      	movs	r7, #1
    8be0:	970b      	str	r7, [sp, #44]	; 0x2c
    8be2:	9707      	str	r7, [sp, #28]
    8be4:	463b      	mov	r3, r7
    8be6:	9725      	str	r7, [sp, #148]	; 0x94
    8be8:	f8da 4024 	ldr.w	r4, [r10, #36]	; 0x24
    8bec:	2200      	movs	r2, #0
    8bee:	6062      	str	r2, [r4, #4]
    8bf0:	2104      	movs	r1, #4
    8bf2:	f101 0214 	add.w	r2, r1, #20
    8bf6:	429a      	cmp	r2, r3
    8bf8:	d820      	bhi.n	8c3c <_dtoa_r+0x2ec>
    8bfa:	6862      	ldr	r2, [r4, #4]
    8bfc:	0049      	lsls	r1, r1, #1
    8bfe:	3201      	adds	r2, #1
    8c00:	6062      	str	r2, [r4, #4]
    8c02:	e7f6      	b.n	8bf2 <_dtoa_r+0x2a2>
    8c04:	f3af 8000 	nop.w
    8c08:	636f4361 	.word	0x636f4361
    8c0c:	3fd287a7 	.word	0x3fd287a7
    8c10:	8b60c8b3 	.word	0x8b60c8b3
    8c14:	3fc68a28 	.word	0x3fc68a28
    8c18:	509f79fb 	.word	0x509f79fb
    8c1c:	3fd34413 	.word	0x3fd34413
    8c20:	7ff00000 	.word	0x7ff00000
    8c24:	0000c929 	.word	0x0000c929
    8c28:	0000c920 	.word	0x0000c920
    8c2c:	0000c81b 	.word	0x0000c81b
    8c30:	fffffbee 	.word	0xfffffbee
    8c34:	3ff80000 	.word	0x3ff80000
    8c38:	0000c938 	.word	0x0000c938
    8c3c:	4650      	mov	r0, r10
    8c3e:	6861      	ldr	r1, [r4, #4]
    8c40:	f000 fcd1 	bl	95e6 <_Balloc>
    8c44:	f8da 3024 	ldr.w	r3, [r10, #36]	; 0x24
    8c48:	6020      	str	r0, [r4, #0]
    8c4a:	9f07      	ldr	r7, [sp, #28]
    8c4c:	681b      	ldr	r3, [r3, #0]
    8c4e:	2f0e      	cmp	r7, #14
    8c50:	930a      	str	r3, [sp, #40]	; 0x28
    8c52:	f200 816b 	bhi.w	8f2c <_dtoa_r+0x5dc>
    8c56:	2d00      	cmp	r5, #0
    8c58:	f000 8168 	beq.w	8f2c <_dtoa_r+0x5dc>
    8c5c:	f1b9 0f00 	cmp.w	r9, #0
    8c60:	e9dd 0104 	ldrd	r0, r1, [sp, #16]
    8c64:	e9cd 0112 	strd	r0, r1, [sp, #72]	; 0x48
    8c68:	dd31      	ble.n	8cce <_dtoa_r+0x37e>
    8c6a:	4a81      	ldr	r2, [pc, #516]	; (8e70 <_dtoa_r+0x520>)
    8c6c:	f009 030f 	and.w	r3, r9, #15
    8c70:	eb02 03c3 	add.w	r3, r2, r3, lsl #3
    8c74:	ea4f 1429 	mov.w	r4, r9, asr #4
    8c78:	e9d3 0100 	ldrd	r0, r1, [r3]
    8c7c:	e9cd 010c 	strd	r0, r1, [sp, #48]	; 0x30
    8c80:	06e0      	lsls	r0, r4, #27
    8c82:	d50c      	bpl.n	8c9e <_dtoa_r+0x34e>
    8c84:	e9dd 0112 	ldrd	r0, r1, [sp, #72]	; 0x48
    8c88:	4b7a      	ldr	r3, [pc, #488]	; (8e74 <_dtoa_r+0x524>)
    8c8a:	f004 040f 	and.w	r4, r4, #15
    8c8e:	e9d3 2308 	ldrd	r2, r3, [r3, #32]
    8c92:	f7fc fd15 	bl	56c0 <__aeabi_ddiv>
    8c96:	2703      	movs	r7, #3
    8c98:	e9cd 0104 	strd	r0, r1, [sp, #16]
    8c9c:	e000      	b.n	8ca0 <_dtoa_r+0x350>
    8c9e:	2702      	movs	r7, #2
    8ca0:	4d74      	ldr	r5, [pc, #464]	; (8e74 <_dtoa_r+0x524>)
    8ca2:	b16c      	cbz	r4, 8cc0 <_dtoa_r+0x370>
    8ca4:	07e1      	lsls	r1, r4, #31
    8ca6:	d508      	bpl.n	8cba <_dtoa_r+0x36a>
    8ca8:	e9dd 010c 	ldrd	r0, r1, [sp, #48]	; 0x30
    8cac:	e9d5 2300 	ldrd	r2, r3, [r5]
    8cb0:	f7fc fbdc 	bl	546c <__aeabi_dmul>
    8cb4:	e9cd 010c 	strd	r0, r1, [sp, #48]	; 0x30
    8cb8:	3701      	adds	r7, #1
    8cba:	1064      	asrs	r4, r4, #1
    8cbc:	3508      	adds	r5, #8
    8cbe:	e7f0      	b.n	8ca2 <_dtoa_r+0x352>
    8cc0:	e9dd 0104 	ldrd	r0, r1, [sp, #16]
    8cc4:	e9dd 230c 	ldrd	r2, r3, [sp, #48]	; 0x30
    8cc8:	f7fc fcfa 	bl	56c0 <__aeabi_ddiv>
    8ccc:	e01b      	b.n	8d06 <_dtoa_r+0x3b6>
    8cce:	f1c9 0400 	rsb	r4, r9, #0
    8cd2:	b1dc      	cbz	r4, 8d0c <_dtoa_r+0x3bc>
    8cd4:	4b66      	ldr	r3, [pc, #408]	; (8e70 <_dtoa_r+0x520>)
    8cd6:	f004 020f 	and.w	r2, r4, #15
    8cda:	eb03 03c2 	add.w	r3, r3, r2, lsl #3
    8cde:	e9dd 0112 	ldrd	r0, r1, [sp, #72]	; 0x48
    8ce2:	e9d3 2300 	ldrd	r2, r3, [r3]
    8ce6:	f7fc fbc1 	bl	546c <__aeabi_dmul>
    8cea:	4d62      	ldr	r5, [pc, #392]	; (8e74 <_dtoa_r+0x524>)
    8cec:	1124      	asrs	r4, r4, #4
    8cee:	2702      	movs	r7, #2
    8cf0:	b14c      	cbz	r4, 8d06 <_dtoa_r+0x3b6>
    8cf2:	07e2      	lsls	r2, r4, #31
    8cf4:	d504      	bpl.n	8d00 <_dtoa_r+0x3b0>
    8cf6:	e9d5 2300 	ldrd	r2, r3, [r5]
    8cfa:	3701      	adds	r7, #1
    8cfc:	f7fc fbb6 	bl	546c <__aeabi_dmul>
    8d00:	1064      	asrs	r4, r4, #1
    8d02:	3508      	adds	r5, #8
    8d04:	e7f4      	b.n	8cf0 <_dtoa_r+0x3a0>
    8d06:	e9cd 0104 	strd	r0, r1, [sp, #16]
    8d0a:	e000      	b.n	8d0e <_dtoa_r+0x3be>
    8d0c:	2702      	movs	r7, #2
    8d0e:	9914      	ldr	r1, [sp, #80]	; 0x50
    8d10:	b1e9      	cbz	r1, 8d4e <_dtoa_r+0x3fe>
    8d12:	e9dd 4504 	ldrd	r4, r5, [sp, #16]
    8d16:	2200      	movs	r2, #0
    8d18:	4620      	mov	r0, r4
    8d1a:	4629      	mov	r1, r5
    8d1c:	4b56      	ldr	r3, [pc, #344]	; (8e78 <_dtoa_r+0x528>)
    8d1e:	f7fc fe17 	bl	5950 <__aeabi_dcmplt>
    8d22:	b1c8      	cbz	r0, 8d58 <_dtoa_r+0x408>
    8d24:	9a07      	ldr	r2, [sp, #28]
    8d26:	b1e2      	cbz	r2, 8d62 <_dtoa_r+0x412>
    8d28:	9b0b      	ldr	r3, [sp, #44]	; 0x2c
    8d2a:	2b00      	cmp	r3, #0
    8d2c:	f340 80fa 	ble.w	8f24 <_dtoa_r+0x5d4>
    8d30:	f109 30ff 	add.w	r0, r9, #4294967295	; 0xffffffff
    8d34:	9010      	str	r0, [sp, #64]	; 0x40
    8d36:	4629      	mov	r1, r5
    8d38:	4620      	mov	r0, r4
    8d3a:	2200      	movs	r2, #0
    8d3c:	4b4f      	ldr	r3, [pc, #316]	; (8e7c <_dtoa_r+0x52c>)
    8d3e:	f7fc fb95 	bl	546c <__aeabi_dmul>
    8d42:	e9cd 0104 	strd	r0, r1, [sp, #16]
    8d46:	990b      	ldr	r1, [sp, #44]	; 0x2c
    8d48:	3701      	adds	r7, #1
    8d4a:	910c      	str	r1, [sp, #48]	; 0x30
    8d4c:	e00d      	b.n	8d6a <_dtoa_r+0x41a>
    8d4e:	9a07      	ldr	r2, [sp, #28]
    8d50:	f8cd 9040 	str.w	r9, [sp, #64]	; 0x40
    8d54:	920c      	str	r2, [sp, #48]	; 0x30
    8d56:	e008      	b.n	8d6a <_dtoa_r+0x41a>
    8d58:	9b07      	ldr	r3, [sp, #28]
    8d5a:	f8cd 9040 	str.w	r9, [sp, #64]	; 0x40
    8d5e:	930c      	str	r3, [sp, #48]	; 0x30
    8d60:	e003      	b.n	8d6a <_dtoa_r+0x41a>
    8d62:	9807      	ldr	r0, [sp, #28]
    8d64:	f8cd 9040 	str.w	r9, [sp, #64]	; 0x40
    8d68:	900c      	str	r0, [sp, #48]	; 0x30
    8d6a:	4638      	mov	r0, r7
    8d6c:	f7fc fb18 	bl	53a0 <__aeabi_i2d>
    8d70:	e9dd 2304 	ldrd	r2, r3, [sp, #16]
    8d74:	f7fc fb7a 	bl	546c <__aeabi_dmul>
    8d78:	2200      	movs	r2, #0
    8d7a:	4b41      	ldr	r3, [pc, #260]	; (8e80 <_dtoa_r+0x530>)
    8d7c:	f7fc f9c4 	bl	5108 <__adddf3>
    8d80:	9f0c      	ldr	r7, [sp, #48]	; 0x30
    8d82:	4604      	mov	r4, r0
    8d84:	f1a1 7550 	sub.w	r5, r1, #54525952	; 0x3400000
    8d88:	b9cf      	cbnz	r7, 8dbe <_dtoa_r+0x46e>
    8d8a:	2200      	movs	r2, #0
    8d8c:	4b3d      	ldr	r3, [pc, #244]	; (8e84 <_dtoa_r+0x534>)
    8d8e:	e9dd 0104 	ldrd	r0, r1, [sp, #16]
    8d92:	f7fc f9b7 	bl	5104 <__aeabi_dsub>
    8d96:	4622      	mov	r2, r4
    8d98:	462b      	mov	r3, r5
    8d9a:	4606      	mov	r6, r0
    8d9c:	460f      	mov	r7, r1
    8d9e:	f7fc fdf5 	bl	598c <__aeabi_dcmpgt>
    8da2:	2800      	cmp	r0, #0
    8da4:	f040 8253 	bne.w	924e <_dtoa_r+0x8fe>
    8da8:	4622      	mov	r2, r4
    8daa:	f105 4300 	add.w	r3, r5, #2147483648	; 0x80000000
    8dae:	4630      	mov	r0, r6
    8db0:	4639      	mov	r1, r7
    8db2:	f7fc fdcd 	bl	5950 <__aeabi_dcmplt>
    8db6:	2800      	cmp	r0, #0
    8db8:	f040 823f 	bne.w	923a <_dtoa_r+0x8ea>
    8dbc:	e0b2      	b.n	8f24 <_dtoa_r+0x5d4>
    8dbe:	9f0c      	ldr	r7, [sp, #48]	; 0x30
    8dc0:	4b2b      	ldr	r3, [pc, #172]	; (8e70 <_dtoa_r+0x520>)
    8dc2:	1e7a      	subs	r2, r7, #1
    8dc4:	9f0f      	ldr	r7, [sp, #60]	; 0x3c
    8dc6:	eb03 03c2 	add.w	r3, r3, r2, lsl #3
    8dca:	2f00      	cmp	r7, #0
    8dcc:	d05e      	beq.n	8e8c <_dtoa_r+0x53c>
    8dce:	e9d3 2300 	ldrd	r2, r3, [r3]
    8dd2:	2000      	movs	r0, #0
    8dd4:	492c      	ldr	r1, [pc, #176]	; (8e88 <_dtoa_r+0x538>)
    8dd6:	f7fc fc73 	bl	56c0 <__aeabi_ddiv>
    8dda:	4622      	mov	r2, r4
    8ddc:	462b      	mov	r3, r5
    8dde:	f7fc f991 	bl	5104 <__aeabi_dsub>
    8de2:	e9dd 6704 	ldrd	r6, r7, [sp, #16]
    8de6:	f8dd 8028 	ldr.w	r8, [sp, #40]	; 0x28
    8dea:	4604      	mov	r4, r0
    8dec:	460d      	mov	r5, r1
    8dee:	4639      	mov	r1, r7
    8df0:	4630      	mov	r0, r6
    8df2:	f7fc fdd5 	bl	59a0 <__aeabi_d2iz>
    8df6:	9002      	str	r0, [sp, #8]
    8df8:	f7fc fad2 	bl	53a0 <__aeabi_i2d>
    8dfc:	4602      	mov	r2, r0
    8dfe:	460b      	mov	r3, r1
    8e00:	4630      	mov	r0, r6
    8e02:	4639      	mov	r1, r7
    8e04:	f7fc f97e 	bl	5104 <__aeabi_dsub>
    8e08:	f8dd c008 	ldr.w	r12, [sp, #8]
    8e0c:	4622      	mov	r2, r4
    8e0e:	f10c 0330 	add.w	r3, r12, #48	; 0x30
    8e12:	f808 3b01 	strb.w	r3, [r8], #1
    8e16:	462b      	mov	r3, r5
    8e18:	4606      	mov	r6, r0
    8e1a:	460f      	mov	r7, r1
    8e1c:	f7fc fd98 	bl	5950 <__aeabi_dcmplt>
    8e20:	2800      	cmp	r0, #0
    8e22:	f040 833b 	bne.w	949c <_dtoa_r+0xb4c>
    8e26:	4632      	mov	r2, r6
    8e28:	463b      	mov	r3, r7
    8e2a:	2000      	movs	r0, #0
    8e2c:	4912      	ldr	r1, [pc, #72]	; (8e78 <_dtoa_r+0x528>)
    8e2e:	f7fc f969 	bl	5104 <__aeabi_dsub>
    8e32:	4622      	mov	r2, r4
    8e34:	462b      	mov	r3, r5
    8e36:	f7fc fd8b 	bl	5950 <__aeabi_dcmplt>
    8e3a:	2800      	cmp	r0, #0
    8e3c:	f040 80d5 	bne.w	8fea <_dtoa_r+0x69a>
    8e40:	980a      	ldr	r0, [sp, #40]	; 0x28
    8e42:	990c      	ldr	r1, [sp, #48]	; 0x30
    8e44:	ebc0 0308 	rsb	r3, r0, r8
    8e48:	428b      	cmp	r3, r1
    8e4a:	da6b      	bge.n	8f24 <_dtoa_r+0x5d4>
    8e4c:	4620      	mov	r0, r4
    8e4e:	4629      	mov	r1, r5
    8e50:	2200      	movs	r2, #0
    8e52:	4b0a      	ldr	r3, [pc, #40]	; (8e7c <_dtoa_r+0x52c>)
    8e54:	f7fc fb0a 	bl	546c <__aeabi_dmul>
    8e58:	2200      	movs	r2, #0
    8e5a:	4604      	mov	r4, r0
    8e5c:	460d      	mov	r5, r1
    8e5e:	4630      	mov	r0, r6
    8e60:	4639      	mov	r1, r7
    8e62:	4b06      	ldr	r3, [pc, #24]	; (8e7c <_dtoa_r+0x52c>)
    8e64:	f7fc fb02 	bl	546c <__aeabi_dmul>
    8e68:	4606      	mov	r6, r0
    8e6a:	460f      	mov	r7, r1
    8e6c:	e7bf      	b.n	8dee <_dtoa_r+0x49e>
    8e6e:	bf00      	nop
    8e70:	0000c938 	.word	0x0000c938
    8e74:	0000ca00 	.word	0x0000ca00
    8e78:	3ff00000 	.word	0x3ff00000
    8e7c:	40240000 	.word	0x40240000
    8e80:	401c0000 	.word	0x401c0000
    8e84:	40140000 	.word	0x40140000
    8e88:	3fe00000 	.word	0x3fe00000
    8e8c:	4622      	mov	r2, r4
    8e8e:	e9d3 0100 	ldrd	r0, r1, [r3]
    8e92:	462b      	mov	r3, r5
    8e94:	f7fc faea 	bl	546c <__aeabi_dmul>
    8e98:	e9dd 6704 	ldrd	r6, r7, [sp, #16]
    8e9c:	f8dd 8028 	ldr.w	r8, [sp, #40]	; 0x28
    8ea0:	9a0c      	ldr	r2, [sp, #48]	; 0x30
    8ea2:	e9cd 0116 	strd	r0, r1, [sp, #88]	; 0x58
    8ea6:	9c0a      	ldr	r4, [sp, #40]	; 0x28
    8ea8:	4490      	add	r8, r2
    8eaa:	4639      	mov	r1, r7
    8eac:	4630      	mov	r0, r6
    8eae:	f7fc fd77 	bl	59a0 <__aeabi_d2iz>
    8eb2:	4605      	mov	r5, r0
    8eb4:	f7fc fa74 	bl	53a0 <__aeabi_i2d>
    8eb8:	4602      	mov	r2, r0
    8eba:	460b      	mov	r3, r1
    8ebc:	4630      	mov	r0, r6
    8ebe:	4639      	mov	r1, r7
    8ec0:	f7fc f920 	bl	5104 <__aeabi_dsub>
    8ec4:	3530      	adds	r5, #48	; 0x30
    8ec6:	f804 5b01 	strb.w	r5, [r4], #1
    8eca:	4544      	cmp	r4, r8
    8ecc:	4606      	mov	r6, r0
    8ece:	460f      	mov	r7, r1
    8ed0:	d121      	bne.n	8f16 <_dtoa_r+0x5c6>
    8ed2:	2200      	movs	r2, #0
    8ed4:	4b87      	ldr	r3, [pc, #540]	; (90f4 <_dtoa_r+0x7a4>)
    8ed6:	e9dd 0116 	ldrd	r0, r1, [sp, #88]	; 0x58
    8eda:	f7fc f915 	bl	5108 <__adddf3>
    8ede:	4602      	mov	r2, r0
    8ee0:	460b      	mov	r3, r1
    8ee2:	4630      	mov	r0, r6
    8ee4:	4639      	mov	r1, r7
    8ee6:	f7fc fd51 	bl	598c <__aeabi_dcmpgt>
    8eea:	2800      	cmp	r0, #0
    8eec:	d17d      	bne.n	8fea <_dtoa_r+0x69a>
    8eee:	e9dd 2316 	ldrd	r2, r3, [sp, #88]	; 0x58
    8ef2:	2000      	movs	r0, #0
    8ef4:	497f      	ldr	r1, [pc, #508]	; (90f4 <_dtoa_r+0x7a4>)
    8ef6:	f7fc f905 	bl	5104 <__aeabi_dsub>
    8efa:	4602      	mov	r2, r0
    8efc:	460b      	mov	r3, r1
    8efe:	4630      	mov	r0, r6
    8f00:	4639      	mov	r1, r7
    8f02:	f7fc fd25 	bl	5950 <__aeabi_dcmplt>
    8f06:	b168      	cbz	r0, 8f24 <_dtoa_r+0x5d4>
    8f08:	46a0      	mov	r8, r4
    8f0a:	f818 3c01 	ldrb.w	r3, [r8, #-1]
    8f0e:	3c01      	subs	r4, #1
    8f10:	2b30      	cmp	r3, #48	; 0x30
    8f12:	d0f9      	beq.n	8f08 <_dtoa_r+0x5b8>
    8f14:	e2c2      	b.n	949c <_dtoa_r+0xb4c>
    8f16:	2200      	movs	r2, #0
    8f18:	4b77      	ldr	r3, [pc, #476]	; (90f8 <_dtoa_r+0x7a8>)
    8f1a:	f7fc faa7 	bl	546c <__aeabi_dmul>
    8f1e:	4606      	mov	r6, r0
    8f20:	460f      	mov	r7, r1
    8f22:	e7c2      	b.n	8eaa <_dtoa_r+0x55a>
    8f24:	e9dd 0112 	ldrd	r0, r1, [sp, #72]	; 0x48
    8f28:	e9cd 0104 	strd	r0, r1, [sp, #16]
    8f2c:	9b19      	ldr	r3, [sp, #100]	; 0x64
    8f2e:	2b00      	cmp	r3, #0
    8f30:	db7c      	blt.n	902c <_dtoa_r+0x6dc>
    8f32:	f1b9 0f0e 	cmp.w	r9, #14
    8f36:	dc79      	bgt.n	902c <_dtoa_r+0x6dc>
    8f38:	4b70      	ldr	r3, [pc, #448]	; (90fc <_dtoa_r+0x7ac>)
    8f3a:	9f25      	ldr	r7, [sp, #148]	; 0x94
    8f3c:	eb03 03c9 	add.w	r3, r3, r9, lsl #3
    8f40:	2f00      	cmp	r7, #0
    8f42:	e9d3 4500 	ldrd	r4, r5, [r3]
    8f46:	da14      	bge.n	8f72 <_dtoa_r+0x622>
    8f48:	9f07      	ldr	r7, [sp, #28]
    8f4a:	2f00      	cmp	r7, #0
    8f4c:	dc11      	bgt.n	8f72 <_dtoa_r+0x622>
    8f4e:	f040 8176 	bne.w	923e <_dtoa_r+0x8ee>
    8f52:	4620      	mov	r0, r4
    8f54:	4629      	mov	r1, r5
    8f56:	2200      	movs	r2, #0
    8f58:	4b69      	ldr	r3, [pc, #420]	; (9100 <_dtoa_r+0x7b0>)
    8f5a:	f7fc fa87 	bl	546c <__aeabi_dmul>
    8f5e:	e9dd 2304 	ldrd	r2, r3, [sp, #16]
    8f62:	f7fc fd09 	bl	5978 <__aeabi_dcmpge>
    8f66:	9d07      	ldr	r5, [sp, #28]
    8f68:	462c      	mov	r4, r5
    8f6a:	2800      	cmp	r0, #0
    8f6c:	f040 8169 	bne.w	9242 <_dtoa_r+0x8f2>
    8f70:	e171      	b.n	9256 <_dtoa_r+0x906>
    8f72:	f8dd 8028 	ldr.w	r8, [sp, #40]	; 0x28
    8f76:	e9dd 6704 	ldrd	r6, r7, [sp, #16]
    8f7a:	4622      	mov	r2, r4
    8f7c:	462b      	mov	r3, r5
    8f7e:	4630      	mov	r0, r6
    8f80:	4639      	mov	r1, r7
    8f82:	f7fc fb9d 	bl	56c0 <__aeabi_ddiv>
    8f86:	f7fc fd0b 	bl	59a0 <__aeabi_d2iz>
    8f8a:	9004      	str	r0, [sp, #16]
    8f8c:	f7fc fa08 	bl	53a0 <__aeabi_i2d>
    8f90:	4622      	mov	r2, r4
    8f92:	462b      	mov	r3, r5
    8f94:	f7fc fa6a 	bl	546c <__aeabi_dmul>
    8f98:	4602      	mov	r2, r0
    8f9a:	460b      	mov	r3, r1
    8f9c:	4630      	mov	r0, r6
    8f9e:	4639      	mov	r1, r7
    8fa0:	f7fc f8b0 	bl	5104 <__aeabi_dsub>
    8fa4:	9f04      	ldr	r7, [sp, #16]
    8fa6:	4602      	mov	r2, r0
    8fa8:	f107 0630 	add.w	r6, r7, #48	; 0x30
    8fac:	9f0a      	ldr	r7, [sp, #40]	; 0x28
    8fae:	f808 6b01 	strb.w	r6, [r8], #1
    8fb2:	ebc7 0608 	rsb	r6, r7, r8
    8fb6:	9f07      	ldr	r7, [sp, #28]
    8fb8:	460b      	mov	r3, r1
    8fba:	42be      	cmp	r6, r7
    8fbc:	d129      	bne.n	9012 <_dtoa_r+0x6c2>
    8fbe:	f7fc f8a3 	bl	5108 <__adddf3>
    8fc2:	4622      	mov	r2, r4
    8fc4:	462b      	mov	r3, r5
    8fc6:	4606      	mov	r6, r0
    8fc8:	460f      	mov	r7, r1
    8fca:	f7fc fcdf 	bl	598c <__aeabi_dcmpgt>
    8fce:	b970      	cbnz	r0, 8fee <_dtoa_r+0x69e>
    8fd0:	4630      	mov	r0, r6
    8fd2:	4639      	mov	r1, r7
    8fd4:	4622      	mov	r2, r4
    8fd6:	462b      	mov	r3, r5
    8fd8:	f7fc fcb0 	bl	593c <__aeabi_dcmpeq>
    8fdc:	2800      	cmp	r0, #0
    8fde:	f000 825f 	beq.w	94a0 <_dtoa_r+0xb50>
    8fe2:	9f04      	ldr	r7, [sp, #16]
    8fe4:	07fb      	lsls	r3, r7, #31
    8fe6:	d402      	bmi.n	8fee <_dtoa_r+0x69e>
    8fe8:	e25a      	b.n	94a0 <_dtoa_r+0xb50>
    8fea:	f8dd 9040 	ldr.w	r9, [sp, #64]	; 0x40
    8fee:	4643      	mov	r3, r8
    8ff0:	4698      	mov	r8, r3
    8ff2:	f818 2c01 	ldrb.w	r2, [r8, #-1]
    8ff6:	3b01      	subs	r3, #1
    8ff8:	2a39      	cmp	r2, #57	; 0x39
    8ffa:	d106      	bne.n	900a <_dtoa_r+0x6ba>
    8ffc:	9f0a      	ldr	r7, [sp, #40]	; 0x28
    8ffe:	429f      	cmp	r7, r3
    9000:	d1f6      	bne.n	8ff0 <_dtoa_r+0x6a0>
    9002:	2230      	movs	r2, #48	; 0x30
    9004:	f109 0901 	add.w	r9, r9, #1
    9008:	703a      	strb	r2, [r7, #0]
    900a:	781a      	ldrb	r2, [r3, #0]
    900c:	3201      	adds	r2, #1
    900e:	701a      	strb	r2, [r3, #0]
    9010:	e246      	b.n	94a0 <_dtoa_r+0xb50>
    9012:	2200      	movs	r2, #0
    9014:	4b38      	ldr	r3, [pc, #224]	; (90f8 <_dtoa_r+0x7a8>)
    9016:	f7fc fa29 	bl	546c <__aeabi_dmul>
    901a:	2200      	movs	r2, #0
    901c:	2300      	movs	r3, #0
    901e:	4606      	mov	r6, r0
    9020:	460f      	mov	r7, r1
    9022:	f7fc fc8b 	bl	593c <__aeabi_dcmpeq>
    9026:	2800      	cmp	r0, #0
    9028:	d0a7      	beq.n	8f7a <_dtoa_r+0x62a>
    902a:	e239      	b.n	94a0 <_dtoa_r+0xb50>
    902c:	9f0f      	ldr	r7, [sp, #60]	; 0x3c
    902e:	2f00      	cmp	r7, #0
    9030:	d030      	beq.n	9094 <_dtoa_r+0x744>
    9032:	9f24      	ldr	r7, [sp, #144]	; 0x90
    9034:	2f01      	cmp	r7, #1
    9036:	dc0a      	bgt.n	904e <_dtoa_r+0x6fe>
    9038:	9f15      	ldr	r7, [sp, #84]	; 0x54
    903a:	b117      	cbz	r7, 9042 <_dtoa_r+0x6f2>
    903c:	f203 4333 	addw	r3, r3, #1075	; 0x433
    9040:	e002      	b.n	9048 <_dtoa_r+0x6f8>
    9042:	9b18      	ldr	r3, [sp, #96]	; 0x60
    9044:	f1c3 0336 	rsb	r3, r3, #54	; 0x36
    9048:	9d0e      	ldr	r5, [sp, #56]	; 0x38
    904a:	9e08      	ldr	r6, [sp, #32]
    904c:	e016      	b.n	907c <_dtoa_r+0x72c>
    904e:	9f07      	ldr	r7, [sp, #28]
    9050:	1e7d      	subs	r5, r7, #1
    9052:	9f0e      	ldr	r7, [sp, #56]	; 0x38
    9054:	42af      	cmp	r7, r5
    9056:	db01      	blt.n	905c <_dtoa_r+0x70c>
    9058:	1b7d      	subs	r5, r7, r5
    905a:	e006      	b.n	906a <_dtoa_r+0x71a>
    905c:	9f0e      	ldr	r7, [sp, #56]	; 0x38
    905e:	950e      	str	r5, [sp, #56]	; 0x38
    9060:	1beb      	subs	r3, r5, r7
    9062:	9f11      	ldr	r7, [sp, #68]	; 0x44
    9064:	2500      	movs	r5, #0
    9066:	441f      	add	r7, r3
    9068:	9711      	str	r7, [sp, #68]	; 0x44
    906a:	9f07      	ldr	r7, [sp, #28]
    906c:	2f00      	cmp	r7, #0
    906e:	da03      	bge.n	9078 <_dtoa_r+0x728>
    9070:	9808      	ldr	r0, [sp, #32]
    9072:	2300      	movs	r3, #0
    9074:	1bc6      	subs	r6, r0, r7
    9076:	e001      	b.n	907c <_dtoa_r+0x72c>
    9078:	9e08      	ldr	r6, [sp, #32]
    907a:	9b07      	ldr	r3, [sp, #28]
    907c:	9f08      	ldr	r7, [sp, #32]
    907e:	4650      	mov	r0, r10
    9080:	441f      	add	r7, r3
    9082:	9708      	str	r7, [sp, #32]
    9084:	9f09      	ldr	r7, [sp, #36]	; 0x24
    9086:	2101      	movs	r1, #1
    9088:	441f      	add	r7, r3
    908a:	9709      	str	r7, [sp, #36]	; 0x24
    908c:	f000 fbc0 	bl	9810 <__i2b>
    9090:	4604      	mov	r4, r0
    9092:	e002      	b.n	909a <_dtoa_r+0x74a>
    9094:	9d0e      	ldr	r5, [sp, #56]	; 0x38
    9096:	9e08      	ldr	r6, [sp, #32]
    9098:	9c0f      	ldr	r4, [sp, #60]	; 0x3c
    909a:	b16e      	cbz	r6, 90b8 <_dtoa_r+0x768>
    909c:	9f09      	ldr	r7, [sp, #36]	; 0x24
    909e:	2f00      	cmp	r7, #0
    90a0:	dd0a      	ble.n	90b8 <_dtoa_r+0x768>
    90a2:	463b      	mov	r3, r7
    90a4:	9f08      	ldr	r7, [sp, #32]
    90a6:	42b3      	cmp	r3, r6
    90a8:	bfa8      	it	ge
    90aa:	4633      	movge	r3, r6
    90ac:	1aff      	subs	r7, r7, r3
    90ae:	9708      	str	r7, [sp, #32]
    90b0:	9f09      	ldr	r7, [sp, #36]	; 0x24
    90b2:	1af6      	subs	r6, r6, r3
    90b4:	1aff      	subs	r7, r7, r3
    90b6:	9709      	str	r7, [sp, #36]	; 0x24
    90b8:	9f0e      	ldr	r7, [sp, #56]	; 0x38
    90ba:	2f00      	cmp	r7, #0
    90bc:	dd28      	ble.n	9110 <_dtoa_r+0x7c0>
    90be:	9f0f      	ldr	r7, [sp, #60]	; 0x3c
    90c0:	b307      	cbz	r7, 9104 <_dtoa_r+0x7b4>
    90c2:	2d00      	cmp	r5, #0
    90c4:	dd10      	ble.n	90e8 <_dtoa_r+0x798>
    90c6:	4621      	mov	r1, r4
    90c8:	462a      	mov	r2, r5
    90ca:	4650      	mov	r0, r10
    90cc:	f000 fc42 	bl	9954 <__pow5mult>
    90d0:	4604      	mov	r4, r0
    90d2:	465a      	mov	r2, r11
    90d4:	4621      	mov	r1, r4
    90d6:	4650      	mov	r0, r10
    90d8:	f000 fba3 	bl	9822 <__multiply>
    90dc:	4659      	mov	r1, r11
    90de:	4607      	mov	r7, r0
    90e0:	4650      	mov	r0, r10
    90e2:	f000 fab5 	bl	9650 <_Bfree>
    90e6:	46bb      	mov	r11, r7
    90e8:	9f0e      	ldr	r7, [sp, #56]	; 0x38
    90ea:	1b7a      	subs	r2, r7, r5
    90ec:	d010      	beq.n	9110 <_dtoa_r+0x7c0>
    90ee:	4650      	mov	r0, r10
    90f0:	4659      	mov	r1, r11
    90f2:	e00a      	b.n	910a <_dtoa_r+0x7ba>
    90f4:	3fe00000 	.word	0x3fe00000
    90f8:	40240000 	.word	0x40240000
    90fc:	0000c938 	.word	0x0000c938
    9100:	40140000 	.word	0x40140000
    9104:	9a0e      	ldr	r2, [sp, #56]	; 0x38
    9106:	4650      	mov	r0, r10
    9108:	4659      	mov	r1, r11
    910a:	f000 fc23 	bl	9954 <__pow5mult>
    910e:	4683      	mov	r11, r0
    9110:	4650      	mov	r0, r10
    9112:	2101      	movs	r1, #1
    9114:	f000 fb7c 	bl	9810 <__i2b>
    9118:	9f11      	ldr	r7, [sp, #68]	; 0x44
    911a:	4605      	mov	r5, r0
    911c:	2f00      	cmp	r7, #0
    911e:	dd05      	ble.n	912c <_dtoa_r+0x7dc>
    9120:	4629      	mov	r1, r5
    9122:	4650      	mov	r0, r10
    9124:	463a      	mov	r2, r7
    9126:	f000 fc15 	bl	9954 <__pow5mult>
    912a:	4605      	mov	r5, r0
    912c:	9f24      	ldr	r7, [sp, #144]	; 0x90
    912e:	2f01      	cmp	r7, #1
    9130:	dc12      	bgt.n	9158 <_dtoa_r+0x808>
    9132:	9804      	ldr	r0, [sp, #16]
    9134:	b980      	cbnz	r0, 9158 <_dtoa_r+0x808>
    9136:	9905      	ldr	r1, [sp, #20]
    9138:	f3c1 0313 	ubfx	r3, r1, #0, #20
    913c:	b973      	cbnz	r3, 915c <_dtoa_r+0x80c>
    913e:	f021 4700 	bic.w	r7, r1, #2147483648	; 0x80000000
    9142:	0d3f      	lsrs	r7, r7, #20
    9144:	053f      	lsls	r7, r7, #20
    9146:	b157      	cbz	r7, 915e <_dtoa_r+0x80e>
    9148:	9f08      	ldr	r7, [sp, #32]
    914a:	3701      	adds	r7, #1
    914c:	9708      	str	r7, [sp, #32]
    914e:	9f09      	ldr	r7, [sp, #36]	; 0x24
    9150:	3701      	adds	r7, #1
    9152:	9709      	str	r7, [sp, #36]	; 0x24
    9154:	2701      	movs	r7, #1
    9156:	e002      	b.n	915e <_dtoa_r+0x80e>
    9158:	2700      	movs	r7, #0
    915a:	e000      	b.n	915e <_dtoa_r+0x80e>
    915c:	9f04      	ldr	r7, [sp, #16]
    915e:	9811      	ldr	r0, [sp, #68]	; 0x44
    9160:	b140      	cbz	r0, 9174 <_dtoa_r+0x824>
    9162:	692b      	ldr	r3, [r5, #16]
    9164:	eb05 0383 	add.w	r3, r5, r3, lsl #2
    9168:	6918      	ldr	r0, [r3, #16]
    916a:	f000 fb04 	bl	9776 <__hi0bits>
    916e:	f1c0 0020 	rsb	r0, r0, #32
    9172:	e000      	b.n	9176 <_dtoa_r+0x826>
    9174:	2001      	movs	r0, #1
    9176:	9b09      	ldr	r3, [sp, #36]	; 0x24
    9178:	4403      	add	r3, r0
    917a:	f013 031f 	ands.w	r3, r3, #31
    917e:	d00f      	beq.n	91a0 <_dtoa_r+0x850>
    9180:	f1c3 0220 	rsb	r2, r3, #32
    9184:	2a04      	cmp	r2, #4
    9186:	dd09      	ble.n	919c <_dtoa_r+0x84c>
    9188:	9908      	ldr	r1, [sp, #32]
    918a:	9a09      	ldr	r2, [sp, #36]	; 0x24
    918c:	f1c3 031c 	rsb	r3, r3, #28
    9190:	4419      	add	r1, r3
    9192:	441a      	add	r2, r3
    9194:	9108      	str	r1, [sp, #32]
    9196:	441e      	add	r6, r3
    9198:	9209      	str	r2, [sp, #36]	; 0x24
    919a:	e009      	b.n	91b0 <_dtoa_r+0x860>
    919c:	d008      	beq.n	91b0 <_dtoa_r+0x860>
    919e:	4613      	mov	r3, r2
    91a0:	9808      	ldr	r0, [sp, #32]
    91a2:	9909      	ldr	r1, [sp, #36]	; 0x24
    91a4:	331c      	adds	r3, #28
    91a6:	4418      	add	r0, r3
    91a8:	4419      	add	r1, r3
    91aa:	9008      	str	r0, [sp, #32]
    91ac:	441e      	add	r6, r3
    91ae:	9109      	str	r1, [sp, #36]	; 0x24
    91b0:	9a08      	ldr	r2, [sp, #32]
    91b2:	2a00      	cmp	r2, #0
    91b4:	dd04      	ble.n	91c0 <_dtoa_r+0x870>
    91b6:	4659      	mov	r1, r11
    91b8:	4650      	mov	r0, r10
    91ba:	f000 fc19 	bl	99f0 <__lshift>
    91be:	4683      	mov	r11, r0
    91c0:	9b09      	ldr	r3, [sp, #36]	; 0x24
    91c2:	2b00      	cmp	r3, #0
    91c4:	dd05      	ble.n	91d2 <_dtoa_r+0x882>
    91c6:	4629      	mov	r1, r5
    91c8:	4650      	mov	r0, r10
    91ca:	461a      	mov	r2, r3
    91cc:	f000 fc10 	bl	99f0 <__lshift>
    91d0:	4605      	mov	r5, r0
    91d2:	9814      	ldr	r0, [sp, #80]	; 0x50
    91d4:	b1e0      	cbz	r0, 9210 <_dtoa_r+0x8c0>
    91d6:	4658      	mov	r0, r11
    91d8:	4629      	mov	r1, r5
    91da:	f000 fc5c 	bl	9a96 <__mcmp>
    91de:	2800      	cmp	r0, #0
    91e0:	da16      	bge.n	9210 <_dtoa_r+0x8c0>
    91e2:	4659      	mov	r1, r11
    91e4:	4650      	mov	r0, r10
    91e6:	220a      	movs	r2, #10
    91e8:	2300      	movs	r3, #0
    91ea:	f000 fa48 	bl	967e <__multadd>
    91ee:	990f      	ldr	r1, [sp, #60]	; 0x3c
    91f0:	f109 39ff 	add.w	r9, r9, #4294967295	; 0xffffffff
    91f4:	4683      	mov	r11, r0
    91f6:	b149      	cbz	r1, 920c <_dtoa_r+0x8bc>
    91f8:	4621      	mov	r1, r4
    91fa:	220a      	movs	r2, #10
    91fc:	4650      	mov	r0, r10
    91fe:	2300      	movs	r3, #0
    9200:	f000 fa3d 	bl	967e <__multadd>
    9204:	9a0b      	ldr	r2, [sp, #44]	; 0x2c
    9206:	4604      	mov	r4, r0
    9208:	9207      	str	r2, [sp, #28]
    920a:	e001      	b.n	9210 <_dtoa_r+0x8c0>
    920c:	9b0b      	ldr	r3, [sp, #44]	; 0x2c
    920e:	9307      	str	r3, [sp, #28]
    9210:	9807      	ldr	r0, [sp, #28]
    9212:	2800      	cmp	r0, #0
    9214:	dc29      	bgt.n	926a <_dtoa_r+0x91a>
    9216:	9924      	ldr	r1, [sp, #144]	; 0x90
    9218:	2902      	cmp	r1, #2
    921a:	dd26      	ble.n	926a <_dtoa_r+0x91a>
    921c:	b988      	cbnz	r0, 9242 <_dtoa_r+0x8f2>
    921e:	4629      	mov	r1, r5
    9220:	2205      	movs	r2, #5
    9222:	9b07      	ldr	r3, [sp, #28]
    9224:	4650      	mov	r0, r10
    9226:	f000 fa2a 	bl	967e <__multadd>
    922a:	4605      	mov	r5, r0
    922c:	4629      	mov	r1, r5
    922e:	4658      	mov	r0, r11
    9230:	f000 fc31 	bl	9a96 <__mcmp>
    9234:	2800      	cmp	r0, #0
    9236:	dc0e      	bgt.n	9256 <_dtoa_r+0x906>
    9238:	e003      	b.n	9242 <_dtoa_r+0x8f2>
    923a:	9d0c      	ldr	r5, [sp, #48]	; 0x30
    923c:	e000      	b.n	9240 <_dtoa_r+0x8f0>
    923e:	2500      	movs	r5, #0
    9240:	462c      	mov	r4, r5
    9242:	9f25      	ldr	r7, [sp, #148]	; 0x94
    9244:	f8dd 8028 	ldr.w	r8, [sp, #40]	; 0x28
    9248:	ea6f 0907 	mvn.w	r9, r7
    924c:	e00a      	b.n	9264 <_dtoa_r+0x914>
    924e:	9d0c      	ldr	r5, [sp, #48]	; 0x30
    9250:	f8dd 9040 	ldr.w	r9, [sp, #64]	; 0x40
    9254:	462c      	mov	r4, r5
    9256:	9f0a      	ldr	r7, [sp, #40]	; 0x28
    9258:	2331      	movs	r3, #49	; 0x31
    925a:	f107 0801 	add.w	r8, r7, #1
    925e:	703b      	strb	r3, [r7, #0]
    9260:	f109 0901 	add.w	r9, r9, #1
    9264:	4627      	mov	r7, r4
    9266:	2400      	movs	r4, #0
    9268:	e107      	b.n	947a <_dtoa_r+0xb2a>
    926a:	980f      	ldr	r0, [sp, #60]	; 0x3c
    926c:	2800      	cmp	r0, #0
    926e:	f000 80bb 	beq.w	93e8 <_dtoa_r+0xa98>
    9272:	2e00      	cmp	r6, #0
    9274:	dd05      	ble.n	9282 <_dtoa_r+0x932>
    9276:	4621      	mov	r1, r4
    9278:	4650      	mov	r0, r10
    927a:	4632      	mov	r2, r6
    927c:	f000 fbb8 	bl	99f0 <__lshift>
    9280:	4604      	mov	r4, r0
    9282:	b19f      	cbz	r7, 92ac <_dtoa_r+0x95c>
    9284:	6861      	ldr	r1, [r4, #4]
    9286:	4650      	mov	r0, r10
    9288:	f000 f9ad 	bl	95e6 <_Balloc>
    928c:	6922      	ldr	r2, [r4, #16]
    928e:	4606      	mov	r6, r0
    9290:	3202      	adds	r2, #2
    9292:	f104 010c 	add.w	r1, r4, #12
    9296:	0092      	lsls	r2, r2, #2
    9298:	300c      	adds	r0, #12
    929a:	f7fd fafb 	bl	6894 <memcpy>
    929e:	4650      	mov	r0, r10
    92a0:	4631      	mov	r1, r6
    92a2:	2201      	movs	r2, #1
    92a4:	f000 fba4 	bl	99f0 <__lshift>
    92a8:	4607      	mov	r7, r0
    92aa:	e000      	b.n	92ae <_dtoa_r+0x95e>
    92ac:	4627      	mov	r7, r4
    92ae:	9e0a      	ldr	r6, [sp, #40]	; 0x28
    92b0:	4629      	mov	r1, r5
    92b2:	4658      	mov	r0, r11
    92b4:	f7ff faba 	bl	882c <quorem>
    92b8:	4621      	mov	r1, r4
    92ba:	f100 0c30 	add.w	r12, r0, #48	; 0x30
    92be:	4680      	mov	r8, r0
    92c0:	4658      	mov	r0, r11
    92c2:	f8cd c008 	str.w	r12, [sp, #8]
    92c6:	f000 fbe6 	bl	9a96 <__mcmp>
    92ca:	463a      	mov	r2, r7
    92cc:	9008      	str	r0, [sp, #32]
    92ce:	4629      	mov	r1, r5
    92d0:	4650      	mov	r0, r10
    92d2:	f000 fbfd 	bl	9ad0 <__mdiff>
    92d6:	68c3      	ldr	r3, [r0, #12]
    92d8:	4602      	mov	r2, r0
    92da:	f8dd c008 	ldr.w	r12, [sp, #8]
    92de:	b94b      	cbnz	r3, 92f4 <_dtoa_r+0x9a4>
    92e0:	4611      	mov	r1, r2
    92e2:	4658      	mov	r0, r11
    92e4:	9203      	str	r2, [sp, #12]
    92e6:	f000 fbd6 	bl	9a96 <__mcmp>
    92ea:	9a03      	ldr	r2, [sp, #12]
    92ec:	4603      	mov	r3, r0
    92ee:	f8dd c008 	ldr.w	r12, [sp, #8]
    92f2:	e000      	b.n	92f6 <_dtoa_r+0x9a6>
    92f4:	2301      	movs	r3, #1
    92f6:	4650      	mov	r0, r10
    92f8:	4611      	mov	r1, r2
    92fa:	9303      	str	r3, [sp, #12]
    92fc:	f8cd c008 	str.w	r12, [sp, #8]
    9300:	f000 f9a6 	bl	9650 <_Bfree>
    9304:	9b03      	ldr	r3, [sp, #12]
    9306:	f8dd c008 	ldr.w	r12, [sp, #8]
    930a:	b963      	cbnz	r3, 9326 <_dtoa_r+0x9d6>
    930c:	9924      	ldr	r1, [sp, #144]	; 0x90
    930e:	b951      	cbnz	r1, 9326 <_dtoa_r+0x9d6>
    9310:	9804      	ldr	r0, [sp, #16]
    9312:	f000 0201 	and.w	r2, r0, #1
    9316:	b932      	cbnz	r2, 9326 <_dtoa_r+0x9d6>
    9318:	f1bc 0f39 	cmp.w	r12, #57	; 0x39
    931c:	d035      	beq.n	938a <_dtoa_r+0xa3a>
    931e:	9b08      	ldr	r3, [sp, #32]
    9320:	2b00      	cmp	r3, #0
    9322:	dc24      	bgt.n	936e <_dtoa_r+0xa1e>
    9324:	e025      	b.n	9372 <_dtoa_r+0xa22>
    9326:	9808      	ldr	r0, [sp, #32]
    9328:	2800      	cmp	r0, #0
    932a:	da02      	bge.n	9332 <_dtoa_r+0x9e2>
    932c:	2b00      	cmp	r3, #0
    932e:	dc08      	bgt.n	9342 <_dtoa_r+0x9f2>
    9330:	e01f      	b.n	9372 <_dtoa_r+0xa22>
    9332:	d123      	bne.n	937c <_dtoa_r+0xa2c>
    9334:	9924      	ldr	r1, [sp, #144]	; 0x90
    9336:	bb09      	cbnz	r1, 937c <_dtoa_r+0xa2c>
    9338:	9804      	ldr	r0, [sp, #16]
    933a:	f000 0201 	and.w	r2, r0, #1
    933e:	b9ea      	cbnz	r2, 937c <_dtoa_r+0xa2c>
    9340:	e7f4      	b.n	932c <_dtoa_r+0x9dc>
    9342:	4659      	mov	r1, r11
    9344:	2201      	movs	r2, #1
    9346:	4650      	mov	r0, r10
    9348:	f8cd c008 	str.w	r12, [sp, #8]
    934c:	f000 fb50 	bl	99f0 <__lshift>
    9350:	4629      	mov	r1, r5
    9352:	4683      	mov	r11, r0
    9354:	f000 fb9f 	bl	9a96 <__mcmp>
    9358:	2800      	cmp	r0, #0
    935a:	f8dd c008 	ldr.w	r12, [sp, #8]
    935e:	dc03      	bgt.n	9368 <_dtoa_r+0xa18>
    9360:	d107      	bne.n	9372 <_dtoa_r+0xa22>
    9362:	f01c 0f01 	tst.w	r12, #1
    9366:	d004      	beq.n	9372 <_dtoa_r+0xa22>
    9368:	f1bc 0f39 	cmp.w	r12, #57	; 0x39
    936c:	d00d      	beq.n	938a <_dtoa_r+0xa3a>
    936e:	f108 0c31 	add.w	r12, r8, #49	; 0x31
    9372:	f106 0801 	add.w	r8, r6, #1
    9376:	f886 c000 	strb.w	r12, [r6]
    937a:	e07e      	b.n	947a <_dtoa_r+0xb2a>
    937c:	2b00      	cmp	r3, #0
    937e:	f106 0801 	add.w	r8, r6, #1
    9382:	dd09      	ble.n	9398 <_dtoa_r+0xa48>
    9384:	f1bc 0f39 	cmp.w	r12, #57	; 0x39
    9388:	d103      	bne.n	9392 <_dtoa_r+0xa42>
    938a:	2339      	movs	r3, #57	; 0x39
    938c:	7033      	strb	r3, [r6, #0]
    938e:	3601      	adds	r6, #1
    9390:	e05b      	b.n	944a <_dtoa_r+0xafa>
    9392:	f10c 0301 	add.w	r3, r12, #1
    9396:	e068      	b.n	946a <_dtoa_r+0xb1a>
    9398:	990a      	ldr	r1, [sp, #40]	; 0x28
    939a:	9a07      	ldr	r2, [sp, #28]
    939c:	ebc1 0308 	rsb	r3, r1, r8
    93a0:	4646      	mov	r6, r8
    93a2:	4293      	cmp	r3, r2
    93a4:	f806 cc01 	strb.w	r12, [r6, #-1]
    93a8:	d03c      	beq.n	9424 <_dtoa_r+0xad4>
    93aa:	4659      	mov	r1, r11
    93ac:	220a      	movs	r2, #10
    93ae:	2300      	movs	r3, #0
    93b0:	4650      	mov	r0, r10
    93b2:	f000 f964 	bl	967e <__multadd>
    93b6:	42bc      	cmp	r4, r7
    93b8:	4683      	mov	r11, r0
    93ba:	4621      	mov	r1, r4
    93bc:	4650      	mov	r0, r10
    93be:	f04f 020a 	mov.w	r2, #10
    93c2:	f04f 0300 	mov.w	r3, #0
    93c6:	d104      	bne.n	93d2 <_dtoa_r+0xa82>
    93c8:	f000 f959 	bl	967e <__multadd>
    93cc:	4604      	mov	r4, r0
    93ce:	4607      	mov	r7, r0
    93d0:	e76e      	b.n	92b0 <_dtoa_r+0x960>
    93d2:	f000 f954 	bl	967e <__multadd>
    93d6:	4639      	mov	r1, r7
    93d8:	4604      	mov	r4, r0
    93da:	220a      	movs	r2, #10
    93dc:	4650      	mov	r0, r10
    93de:	2300      	movs	r3, #0
    93e0:	f000 f94d 	bl	967e <__multadd>
    93e4:	4607      	mov	r7, r0
    93e6:	e763      	b.n	92b0 <_dtoa_r+0x960>
    93e8:	9e0f      	ldr	r6, [sp, #60]	; 0x3c
    93ea:	4658      	mov	r0, r11
    93ec:	4629      	mov	r1, r5
    93ee:	f7ff fa1d 	bl	882c <quorem>
    93f2:	9f0a      	ldr	r7, [sp, #40]	; 0x28
    93f4:	f100 0c30 	add.w	r12, r0, #48	; 0x30
    93f8:	f807 c006 	strb.w	r12, [r7, r6]
    93fc:	9f07      	ldr	r7, [sp, #28]
    93fe:	3601      	adds	r6, #1
    9400:	42be      	cmp	r6, r7
    9402:	db07      	blt.n	9414 <_dtoa_r+0xac4>
    9404:	9e0a      	ldr	r6, [sp, #40]	; 0x28
    9406:	2f01      	cmp	r7, #1
    9408:	bfac      	ite	ge
    940a:	19f6      	addge	r6, r6, r7
    940c:	3601      	addlt	r6, #1
    940e:	4627      	mov	r7, r4
    9410:	2400      	movs	r4, #0
    9412:	e007      	b.n	9424 <_dtoa_r+0xad4>
    9414:	4659      	mov	r1, r11
    9416:	4650      	mov	r0, r10
    9418:	220a      	movs	r2, #10
    941a:	2300      	movs	r3, #0
    941c:	f000 f92f 	bl	967e <__multadd>
    9420:	4683      	mov	r11, r0
    9422:	e7e2      	b.n	93ea <_dtoa_r+0xa9a>
    9424:	4659      	mov	r1, r11
    9426:	2201      	movs	r2, #1
    9428:	4650      	mov	r0, r10
    942a:	f8cd c008 	str.w	r12, [sp, #8]
    942e:	f000 fadf 	bl	99f0 <__lshift>
    9432:	4629      	mov	r1, r5
    9434:	4683      	mov	r11, r0
    9436:	f000 fb2e 	bl	9a96 <__mcmp>
    943a:	2800      	cmp	r0, #0
    943c:	f8dd c008 	ldr.w	r12, [sp, #8]
    9440:	dc03      	bgt.n	944a <_dtoa_r+0xafa>
    9442:	d114      	bne.n	946e <_dtoa_r+0xb1e>
    9444:	f01c 0f01 	tst.w	r12, #1
    9448:	d011      	beq.n	946e <_dtoa_r+0xb1e>
    944a:	f816 3c01 	ldrb.w	r3, [r6, #-1]
    944e:	46b0      	mov	r8, r6
    9450:	2b39      	cmp	r3, #57	; 0x39
    9452:	f106 36ff 	add.w	r6, r6, #4294967295	; 0xffffffff
    9456:	d107      	bne.n	9468 <_dtoa_r+0xb18>
    9458:	980a      	ldr	r0, [sp, #40]	; 0x28
    945a:	42b0      	cmp	r0, r6
    945c:	d1f5      	bne.n	944a <_dtoa_r+0xafa>
    945e:	2331      	movs	r3, #49	; 0x31
    9460:	f109 0901 	add.w	r9, r9, #1
    9464:	7003      	strb	r3, [r0, #0]
    9466:	e008      	b.n	947a <_dtoa_r+0xb2a>
    9468:	3301      	adds	r3, #1
    946a:	7033      	strb	r3, [r6, #0]
    946c:	e005      	b.n	947a <_dtoa_r+0xb2a>
    946e:	46b0      	mov	r8, r6
    9470:	f818 3c01 	ldrb.w	r3, [r8, #-1]
    9474:	3e01      	subs	r6, #1
    9476:	2b30      	cmp	r3, #48	; 0x30
    9478:	d0f9      	beq.n	946e <_dtoa_r+0xb1e>
    947a:	4650      	mov	r0, r10
    947c:	4629      	mov	r1, r5
    947e:	f000 f8e7 	bl	9650 <_Bfree>
    9482:	b16f      	cbz	r7, 94a0 <_dtoa_r+0xb50>
    9484:	b12c      	cbz	r4, 9492 <_dtoa_r+0xb42>
    9486:	42bc      	cmp	r4, r7
    9488:	d003      	beq.n	9492 <_dtoa_r+0xb42>
    948a:	4650      	mov	r0, r10
    948c:	4621      	mov	r1, r4
    948e:	f000 f8df 	bl	9650 <_Bfree>
    9492:	4650      	mov	r0, r10
    9494:	4639      	mov	r1, r7
    9496:	f000 f8db 	bl	9650 <_Bfree>
    949a:	e001      	b.n	94a0 <_dtoa_r+0xb50>
    949c:	f8dd 9040 	ldr.w	r9, [sp, #64]	; 0x40
    94a0:	4650      	mov	r0, r10
    94a2:	4659      	mov	r1, r11
    94a4:	f000 f8d4 	bl	9650 <_Bfree>
    94a8:	2300      	movs	r3, #0
    94aa:	9f26      	ldr	r7, [sp, #152]	; 0x98
    94ac:	f888 3000 	strb.w	r3, [r8]
    94b0:	f109 0301 	add.w	r3, r9, #1
    94b4:	603b      	str	r3, [r7, #0]
    94b6:	9f28      	ldr	r7, [sp, #160]	; 0xa0
    94b8:	b127      	cbz	r7, 94c4 <_dtoa_r+0xb74>
    94ba:	f8c7 8000 	str.w	r8, [r7]
    94be:	e001      	b.n	94c4 <_dtoa_r+0xb74>
    94c0:	4802      	ldr	r0, [pc, #8]	; (94cc <_dtoa_r+0xb7c>)
    94c2:	e000      	b.n	94c6 <_dtoa_r+0xb76>
    94c4:	980a      	ldr	r0, [sp, #40]	; 0x28
    94c6:	b01b      	add	sp, #108	; 0x6c
    94c8:	e8bd 8ff0 	ldmia.w	sp!, {r4, r5, r6, r7, r8, r9, r10, r11, pc}
    94cc:	0000c81a 	.word	0x0000c81a

000094d0 <__sflags>:
    94d0:	780b      	ldrb	r3, [r1, #0]
    94d2:	b530      	push	{r4, r5, lr}
    94d4:	2b72      	cmp	r3, #114	; 0x72
    94d6:	d009      	beq.n	94ec <__sflags+0x1c>
    94d8:	2b77      	cmp	r3, #119	; 0x77
    94da:	d00b      	beq.n	94f4 <__sflags+0x24>
    94dc:	2b61      	cmp	r3, #97	; 0x61
    94de:	d10e      	bne.n	94fe <__sflags+0x2e>
    94e0:	f44f 7402 	mov.w	r4, #520	; 0x208
    94e4:	2301      	movs	r3, #1
    94e6:	f44f 7084 	mov.w	r0, #264	; 0x108
    94ea:	e01b      	b.n	9524 <__sflags+0x54>
    94ec:	2400      	movs	r4, #0
    94ee:	4623      	mov	r3, r4
    94f0:	2004      	movs	r0, #4
    94f2:	e017      	b.n	9524 <__sflags+0x54>
    94f4:	f44f 64c0 	mov.w	r4, #1536	; 0x600
    94f8:	2301      	movs	r3, #1
    94fa:	2008      	movs	r0, #8
    94fc:	e012      	b.n	9524 <__sflags+0x54>
    94fe:	2316      	movs	r3, #22
    9500:	6003      	str	r3, [r0, #0]
    9502:	2000      	movs	r0, #0
    9504:	bd30      	pop	{r4, r5, pc}
    9506:	2d62      	cmp	r5, #98	; 0x62
    9508:	d010      	beq.n	952c <__sflags+0x5c>
    950a:	2d78      	cmp	r5, #120	; 0x78
    950c:	d011      	beq.n	9532 <__sflags+0x62>
    950e:	2d2b      	cmp	r5, #43	; 0x2b
    9510:	d107      	bne.n	9522 <__sflags+0x52>
    9512:	f020 001c 	bic.w	r0, r0, #28
    9516:	f023 0303 	bic.w	r3, r3, #3
    951a:	f040 0010 	orr.w	r0, r0, #16
    951e:	f043 0302 	orr.w	r3, r3, #2
    9522:	3101      	adds	r1, #1
    9524:	784d      	ldrb	r5, [r1, #1]
    9526:	2d00      	cmp	r5, #0
    9528:	d1ed      	bne.n	9506 <__sflags+0x36>
    952a:	e005      	b.n	9538 <__sflags+0x68>
    952c:	f443 3380 	orr.w	r3, r3, #65536	; 0x10000
    9530:	e7f7      	b.n	9522 <__sflags+0x52>
    9532:	f443 6300 	orr.w	r3, r3, #2048	; 0x800
    9536:	e7f4      	b.n	9522 <__sflags+0x52>
    9538:	4323      	orrs	r3, r4
    953a:	6013      	str	r3, [r2, #0]
    953c:	bd30      	pop	{r4, r5, pc}
	...

00009540 <_fstat_r>:
    9540:	b538      	push	{r3, r4, r5, lr}
    9542:	4c07      	ldr	r4, [pc, #28]	; (9560 <_fstat_r+0x20>)
    9544:	2300      	movs	r3, #0
    9546:	4605      	mov	r5, r0
    9548:	4608      	mov	r0, r1
    954a:	4611      	mov	r1, r2
    954c:	6023      	str	r3, [r4, #0]
    954e:	f7fa fc6b 	bl	3e28 <_fstat>
    9552:	1c43      	adds	r3, r0, #1
    9554:	d102      	bne.n	955c <_fstat_r+0x1c>
    9556:	6823      	ldr	r3, [r4, #0]
    9558:	b103      	cbz	r3, 955c <_fstat_r+0x1c>
    955a:	602b      	str	r3, [r5, #0]
    955c:	bd38      	pop	{r3, r4, r5, pc}
    955e:	bf00      	nop
    9560:	10000a38 	.word	0x10000a38

00009564 <_isatty_r>:
    9564:	b538      	push	{r3, r4, r5, lr}
    9566:	4c06      	ldr	r4, [pc, #24]	; (9580 <_isatty_r+0x1c>)
    9568:	2300      	movs	r3, #0
    956a:	4605      	mov	r5, r0
    956c:	4608      	mov	r0, r1
    956e:	6023      	str	r3, [r4, #0]
    9570:	f7f7 fb7a 	bl	c68 <__wrap__isatty>
    9574:	1c43      	adds	r3, r0, #1
    9576:	d102      	bne.n	957e <_isatty_r+0x1a>
    9578:	6823      	ldr	r3, [r4, #0]
    957a:	b103      	cbz	r3, 957e <_isatty_r+0x1a>
    957c:	602b      	str	r3, [r5, #0]
    957e:	bd38      	pop	{r3, r4, r5, pc}
    9580:	10000a38 	.word	0x10000a38

00009584 <_localeconv_r>:
    9584:	4800      	ldr	r0, [pc, #0]	; (9588 <_localeconv_r+0x4>)
    9586:	4770      	bx	lr
    9588:	100001c8 	.word	0x100001c8

0000958c <_lseek_r>:
    958c:	b538      	push	{r3, r4, r5, lr}
    958e:	4c07      	ldr	r4, [pc, #28]	; (95ac <_lseek_r+0x20>)
    9590:	4605      	mov	r5, r0
    9592:	2000      	movs	r0, #0
    9594:	6020      	str	r0, [r4, #0]
    9596:	4608      	mov	r0, r1
    9598:	4611      	mov	r1, r2
    959a:	461a      	mov	r2, r3
    959c:	f7fa fc30 	bl	3e00 <_lseek>
    95a0:	1c43      	adds	r3, r0, #1
    95a2:	d102      	bne.n	95aa <_lseek_r+0x1e>
    95a4:	6823      	ldr	r3, [r4, #0]
    95a6:	b103      	cbz	r3, 95aa <_lseek_r+0x1e>
    95a8:	602b      	str	r3, [r5, #0]
    95aa:	bd38      	pop	{r3, r4, r5, pc}
    95ac:	10000a38 	.word	0x10000a38

000095b0 <memmove>:
    95b0:	4281      	cmp	r1, r0
    95b2:	b570      	push	{r4, r5, r6, lr}
    95b4:	d301      	bcc.n	95ba <memmove+0xa>
    95b6:	2300      	movs	r3, #0
    95b8:	e00e      	b.n	95d8 <memmove+0x28>
    95ba:	188c      	adds	r4, r1, r2
    95bc:	42a0      	cmp	r0, r4
    95be:	d2fa      	bcs.n	95b6 <memmove+0x6>
    95c0:	1885      	adds	r5, r0, r2
    95c2:	4613      	mov	r3, r2
    95c4:	f113 33ff 	adds.w	r3, r3, #4294967295	; 0xffffffff
    95c8:	d305      	bcc.n	95d6 <memmove+0x26>
    95ca:	4251      	negs	r1, r2
    95cc:	1866      	adds	r6, r4, r1
    95ce:	5cf6      	ldrb	r6, [r6, r3]
    95d0:	4429      	add	r1, r5
    95d2:	54ce      	strb	r6, [r1, r3]
    95d4:	e7f6      	b.n	95c4 <memmove+0x14>
    95d6:	bd70      	pop	{r4, r5, r6, pc}
    95d8:	4293      	cmp	r3, r2
    95da:	d003      	beq.n	95e4 <memmove+0x34>
    95dc:	5ccc      	ldrb	r4, [r1, r3]
    95de:	54c4      	strb	r4, [r0, r3]
    95e0:	3301      	adds	r3, #1
    95e2:	e7f9      	b.n	95d8 <memmove+0x28>
    95e4:	bd70      	pop	{r4, r5, r6, pc}

000095e6 <_Balloc>:
    95e6:	b570      	push	{r4, r5, r6, lr}
    95e8:	6a45      	ldr	r5, [r0, #36]	; 0x24
    95ea:	4604      	mov	r4, r0
    95ec:	460e      	mov	r6, r1
    95ee:	b93d      	cbnz	r5, 9600 <_Balloc+0x1a>
    95f0:	2010      	movs	r0, #16
    95f2:	f7fd f931 	bl	6858 <malloc>
    95f6:	6260      	str	r0, [r4, #36]	; 0x24
    95f8:	6045      	str	r5, [r0, #4]
    95fa:	6085      	str	r5, [r0, #8]
    95fc:	6005      	str	r5, [r0, #0]
    95fe:	60c5      	str	r5, [r0, #12]
    9600:	6a65      	ldr	r5, [r4, #36]	; 0x24
    9602:	68eb      	ldr	r3, [r5, #12]
    9604:	b143      	cbz	r3, 9618 <_Balloc+0x32>
    9606:	6a63      	ldr	r3, [r4, #36]	; 0x24
    9608:	68da      	ldr	r2, [r3, #12]
    960a:	f852 0026 	ldr.w	r0, [r2, r6, lsl #2]
    960e:	b178      	cbz	r0, 9630 <_Balloc+0x4a>
    9610:	6801      	ldr	r1, [r0, #0]
    9612:	f842 1026 	str.w	r1, [r2, r6, lsl #2]
    9616:	e017      	b.n	9648 <_Balloc+0x62>
    9618:	4620      	mov	r0, r4
    961a:	2104      	movs	r1, #4
    961c:	2221      	movs	r2, #33	; 0x21
    961e:	f000 fbe0 	bl	9de2 <_calloc_r>
    9622:	6a63      	ldr	r3, [r4, #36]	; 0x24
    9624:	60e8      	str	r0, [r5, #12]
    9626:	68db      	ldr	r3, [r3, #12]
    9628:	2b00      	cmp	r3, #0
    962a:	d1ec      	bne.n	9606 <_Balloc+0x20>
    962c:	2000      	movs	r0, #0
    962e:	bd70      	pop	{r4, r5, r6, pc}
    9630:	2101      	movs	r1, #1
    9632:	fa01 f506 	lsl.w	r5, r1, r6
    9636:	1d6a      	adds	r2, r5, #5
    9638:	4620      	mov	r0, r4
    963a:	0092      	lsls	r2, r2, #2
    963c:	f000 fbd1 	bl	9de2 <_calloc_r>
    9640:	2800      	cmp	r0, #0
    9642:	d0f3      	beq.n	962c <_Balloc+0x46>
    9644:	6046      	str	r6, [r0, #4]
    9646:	6085      	str	r5, [r0, #8]
    9648:	2200      	movs	r2, #0
    964a:	6102      	str	r2, [r0, #16]
    964c:	60c2      	str	r2, [r0, #12]
    964e:	bd70      	pop	{r4, r5, r6, pc}

00009650 <_Bfree>:
    9650:	b570      	push	{r4, r5, r6, lr}
    9652:	6a44      	ldr	r4, [r0, #36]	; 0x24
    9654:	4606      	mov	r6, r0
    9656:	460d      	mov	r5, r1
    9658:	b93c      	cbnz	r4, 966a <_Bfree+0x1a>
    965a:	2010      	movs	r0, #16
    965c:	f7fd f8fc 	bl	6858 <malloc>
    9660:	6270      	str	r0, [r6, #36]	; 0x24
    9662:	6044      	str	r4, [r0, #4]
    9664:	6084      	str	r4, [r0, #8]
    9666:	6004      	str	r4, [r0, #0]
    9668:	60c4      	str	r4, [r0, #12]
    966a:	b13d      	cbz	r5, 967c <_Bfree+0x2c>
    966c:	6a73      	ldr	r3, [r6, #36]	; 0x24
    966e:	686a      	ldr	r2, [r5, #4]
    9670:	68db      	ldr	r3, [r3, #12]
    9672:	f853 1022 	ldr.w	r1, [r3, r2, lsl #2]
    9676:	6029      	str	r1, [r5, #0]
    9678:	f843 5022 	str.w	r5, [r3, r2, lsl #2]
    967c:	bd70      	pop	{r4, r5, r6, pc}

0000967e <__multadd>:
    967e:	e92d 41f0 	stmdb	sp!, {r4, r5, r6, r7, r8, lr}
    9682:	460c      	mov	r4, r1
    9684:	461e      	mov	r6, r3
    9686:	690d      	ldr	r5, [r1, #16]
    9688:	4607      	mov	r7, r0
    968a:	3114      	adds	r1, #20
    968c:	2300      	movs	r3, #0
    968e:	6808      	ldr	r0, [r1, #0]
    9690:	3301      	adds	r3, #1
    9692:	fa1f fc80 	uxth.w	r12, r0
    9696:	0c00      	lsrs	r0, r0, #16
    9698:	fb02 6c0c 	mla	r12, r2, r12, r6
    969c:	4350      	muls	r0, r2
    969e:	eb00 401c 	add.w	r0, r0, r12, lsr #16
    96a2:	fa1f fc8c 	uxth.w	r12, r12
    96a6:	0c06      	lsrs	r6, r0, #16
    96a8:	42ab      	cmp	r3, r5
    96aa:	eb0c 4000 	add.w	r0, r12, r0, lsl #16
    96ae:	f841 0b04 	str.w	r0, [r1], #4
    96b2:	dbec      	blt.n	968e <__multadd+0x10>
    96b4:	b1d6      	cbz	r6, 96ec <__multadd+0x6e>
    96b6:	68a3      	ldr	r3, [r4, #8]
    96b8:	429d      	cmp	r5, r3
    96ba:	db12      	blt.n	96e2 <__multadd+0x64>
    96bc:	6861      	ldr	r1, [r4, #4]
    96be:	4638      	mov	r0, r7
    96c0:	3101      	adds	r1, #1
    96c2:	f7ff ff90 	bl	95e6 <_Balloc>
    96c6:	6922      	ldr	r2, [r4, #16]
    96c8:	f104 010c 	add.w	r1, r4, #12
    96cc:	3202      	adds	r2, #2
    96ce:	4680      	mov	r8, r0
    96d0:	0092      	lsls	r2, r2, #2
    96d2:	300c      	adds	r0, #12
    96d4:	f7fd f8de 	bl	6894 <memcpy>
    96d8:	4621      	mov	r1, r4
    96da:	4638      	mov	r0, r7
    96dc:	f7ff ffb8 	bl	9650 <_Bfree>
    96e0:	4644      	mov	r4, r8
    96e2:	eb04 0385 	add.w	r3, r4, r5, lsl #2
    96e6:	3501      	adds	r5, #1
    96e8:	615e      	str	r6, [r3, #20]
    96ea:	6125      	str	r5, [r4, #16]
    96ec:	4620      	mov	r0, r4
    96ee:	e8bd 81f0 	ldmia.w	sp!, {r4, r5, r6, r7, r8, pc}

000096f2 <__s2b>:
    96f2:	e92d 43f8 	stmdb	sp!, {r3, r4, r5, r6, r7, r8, r9, lr}
    96f6:	4614      	mov	r4, r2
    96f8:	4698      	mov	r8, r3
    96fa:	f103 0208 	add.w	r2, r3, #8
    96fe:	2309      	movs	r3, #9
    9700:	460d      	mov	r5, r1
    9702:	fb92 f2f3 	sdiv	r2, r2, r3
    9706:	4606      	mov	r6, r0
    9708:	2301      	movs	r3, #1
    970a:	2100      	movs	r1, #0
    970c:	429a      	cmp	r2, r3
    970e:	dd02      	ble.n	9716 <__s2b+0x24>
    9710:	005b      	lsls	r3, r3, #1
    9712:	3101      	adds	r1, #1
    9714:	e7fa      	b.n	970c <__s2b+0x1a>
    9716:	4630      	mov	r0, r6
    9718:	f7ff ff65 	bl	95e6 <_Balloc>
    971c:	9b08      	ldr	r3, [sp, #32]
    971e:	2c09      	cmp	r4, #9
    9720:	6143      	str	r3, [r0, #20]
    9722:	f04f 0301 	mov.w	r3, #1
    9726:	4601      	mov	r1, r0
    9728:	6103      	str	r3, [r0, #16]
    972a:	dd11      	ble.n	9750 <__s2b+0x5e>
    972c:	f105 0909 	add.w	r9, r5, #9
    9730:	464f      	mov	r7, r9
    9732:	4425      	add	r5, r4
    9734:	f817 3b01 	ldrb.w	r3, [r7], #1
    9738:	4630      	mov	r0, r6
    973a:	220a      	movs	r2, #10
    973c:	3b30      	subs	r3, #48	; 0x30
    973e:	f7ff ff9e 	bl	967e <__multadd>
    9742:	42af      	cmp	r7, r5
    9744:	4601      	mov	r1, r0
    9746:	d1f5      	bne.n	9734 <__s2b+0x42>
    9748:	eb09 0704 	add.w	r7, r9, r4
    974c:	3f08      	subs	r7, #8
    974e:	e002      	b.n	9756 <__s2b+0x64>
    9750:	f105 070a 	add.w	r7, r5, #10
    9754:	2409      	movs	r4, #9
    9756:	4625      	mov	r5, r4
    9758:	4545      	cmp	r5, r8
    975a:	da09      	bge.n	9770 <__s2b+0x7e>
    975c:	1b3b      	subs	r3, r7, r4
    975e:	5d5b      	ldrb	r3, [r3, r5]
    9760:	4630      	mov	r0, r6
    9762:	220a      	movs	r2, #10
    9764:	3b30      	subs	r3, #48	; 0x30
    9766:	f7ff ff8a 	bl	967e <__multadd>
    976a:	3501      	adds	r5, #1
    976c:	4601      	mov	r1, r0
    976e:	e7f3      	b.n	9758 <__s2b+0x66>
    9770:	4608      	mov	r0, r1
    9772:	e8bd 83f8 	ldmia.w	sp!, {r3, r4, r5, r6, r7, r8, r9, pc}

00009776 <__hi0bits>:
    9776:	0c03      	lsrs	r3, r0, #16
    9778:	041b      	lsls	r3, r3, #16
    977a:	b913      	cbnz	r3, 9782 <__hi0bits+0xc>
    977c:	0400      	lsls	r0, r0, #16
    977e:	2310      	movs	r3, #16
    9780:	e000      	b.n	9784 <__hi0bits+0xe>
    9782:	2300      	movs	r3, #0
    9784:	f010 4f7f 	tst.w	r0, #4278190080	; 0xff000000
    9788:	bf04      	itt	eq
    978a:	0200      	lsleq	r0, r0, #8
    978c:	3308      	addeq	r3, #8
    978e:	f010 4f70 	tst.w	r0, #4026531840	; 0xf0000000
    9792:	bf04      	itt	eq
    9794:	0100      	lsleq	r0, r0, #4
    9796:	3304      	addeq	r3, #4
    9798:	f010 4f40 	tst.w	r0, #3221225472	; 0xc0000000
    979c:	bf04      	itt	eq
    979e:	0080      	lsleq	r0, r0, #2
    97a0:	3302      	addeq	r3, #2
    97a2:	2800      	cmp	r0, #0
    97a4:	db03      	blt.n	97ae <__hi0bits+0x38>
    97a6:	0042      	lsls	r2, r0, #1
    97a8:	d503      	bpl.n	97b2 <__hi0bits+0x3c>
    97aa:	1c58      	adds	r0, r3, #1
    97ac:	4770      	bx	lr
    97ae:	4618      	mov	r0, r3
    97b0:	4770      	bx	lr
    97b2:	2020      	movs	r0, #32
    97b4:	4770      	bx	lr

000097b6 <__lo0bits>:
    97b6:	6803      	ldr	r3, [r0, #0]
    97b8:	f013 0207 	ands.w	r2, r3, #7
    97bc:	d00b      	beq.n	97d6 <__lo0bits+0x20>
    97be:	07d9      	lsls	r1, r3, #31
    97c0:	d422      	bmi.n	9808 <__lo0bits+0x52>
    97c2:	079a      	lsls	r2, r3, #30
    97c4:	d503      	bpl.n	97ce <__lo0bits+0x18>
    97c6:	085b      	lsrs	r3, r3, #1
    97c8:	6003      	str	r3, [r0, #0]
    97ca:	2001      	movs	r0, #1
    97cc:	4770      	bx	lr
    97ce:	089b      	lsrs	r3, r3, #2
    97d0:	6003      	str	r3, [r0, #0]
    97d2:	2002      	movs	r0, #2
    97d4:	4770      	bx	lr
    97d6:	b299      	uxth	r1, r3
    97d8:	b909      	cbnz	r1, 97de <__lo0bits+0x28>
    97da:	0c1b      	lsrs	r3, r3, #16
    97dc:	2210      	movs	r2, #16
    97de:	f013 0fff 	tst.w	r3, #255	; 0xff
    97e2:	bf04      	itt	eq
    97e4:	0a1b      	lsreq	r3, r3, #8
    97e6:	3208      	addeq	r2, #8
    97e8:	0719      	lsls	r1, r3, #28
    97ea:	bf04      	itt	eq
    97ec:	091b      	lsreq	r3, r3, #4
    97ee:	3204      	addeq	r2, #4
    97f0:	0799      	lsls	r1, r3, #30
    97f2:	bf04      	itt	eq
    97f4:	089b      	lsreq	r3, r3, #2
    97f6:	3202      	addeq	r2, #2
    97f8:	07d9      	lsls	r1, r3, #31
    97fa:	d402      	bmi.n	9802 <__lo0bits+0x4c>
    97fc:	085b      	lsrs	r3, r3, #1
    97fe:	d005      	beq.n	980c <__lo0bits+0x56>
    9800:	3201      	adds	r2, #1
    9802:	6003      	str	r3, [r0, #0]
    9804:	4610      	mov	r0, r2
    9806:	4770      	bx	lr
    9808:	2000      	movs	r0, #0
    980a:	4770      	bx	lr
    980c:	2020      	movs	r0, #32
    980e:	4770      	bx	lr

00009810 <__i2b>:
    9810:	b510      	push	{r4, lr}
    9812:	460c      	mov	r4, r1
    9814:	2101      	movs	r1, #1
    9816:	f7ff fee6 	bl	95e6 <_Balloc>
    981a:	2201      	movs	r2, #1
    981c:	6144      	str	r4, [r0, #20]
    981e:	6102      	str	r2, [r0, #16]
    9820:	bd10      	pop	{r4, pc}

00009822 <__multiply>:
    9822:	e92d 4ff0 	stmdb	sp!, {r4, r5, r6, r7, r8, r9, r10, r11, lr}
    9826:	4616      	mov	r6, r2
    9828:	6933      	ldr	r3, [r6, #16]
    982a:	690a      	ldr	r2, [r1, #16]
    982c:	b085      	sub	sp, #20
    982e:	429a      	cmp	r2, r3
    9830:	460d      	mov	r5, r1
    9832:	da01      	bge.n	9838 <__multiply+0x16>
    9834:	4635      	mov	r5, r6
    9836:	460e      	mov	r6, r1
    9838:	f8d5 8010 	ldr.w	r8, [r5, #16]
    983c:	6937      	ldr	r7, [r6, #16]
    983e:	68ab      	ldr	r3, [r5, #8]
    9840:	6869      	ldr	r1, [r5, #4]
    9842:	eb08 0407 	add.w	r4, r8, r7
    9846:	429c      	cmp	r4, r3
    9848:	bfc8      	it	gt
    984a:	3101      	addgt	r1, #1
    984c:	f7ff fecb 	bl	95e6 <_Balloc>
    9850:	f100 0314 	add.w	r3, r0, #20
    9854:	eb03 0184 	add.w	r1, r3, r4, lsl #2
    9858:	9101      	str	r1, [sp, #4]
    985a:	461a      	mov	r2, r3
    985c:	f8dd a004 	ldr.w	r10, [sp, #4]
    9860:	4552      	cmp	r2, r10
    9862:	d203      	bcs.n	986c <__multiply+0x4a>
    9864:	2100      	movs	r1, #0
    9866:	f842 1b04 	str.w	r1, [r2], #4
    986a:	e7f7      	b.n	985c <__multiply+0x3a>
    986c:	f105 0114 	add.w	r1, r5, #20
    9870:	f106 0214 	add.w	r2, r6, #20
    9874:	eb01 0888 	add.w	r8, r1, r8, lsl #2
    9878:	eb02 0787 	add.w	r7, r2, r7, lsl #2
    987c:	f8cd 8008 	str.w	r8, [sp, #8]
    9880:	9703      	str	r7, [sp, #12]
    9882:	9e03      	ldr	r6, [sp, #12]
    9884:	4615      	mov	r5, r2
    9886:	42b2      	cmp	r2, r6
    9888:	d256      	bcs.n	9938 <__multiply+0x116>
    988a:	f8b5 c000 	ldrh.w	r12, [r5]
    988e:	3204      	adds	r2, #4
    9890:	f1bc 0f00 	cmp.w	r12, #0
    9894:	d025      	beq.n	98e2 <__multiply+0xc0>
    9896:	460f      	mov	r7, r1
    9898:	461d      	mov	r5, r3
    989a:	2600      	movs	r6, #0
    989c:	f857 9b04 	ldr.w	r9, [r7], #4
    98a0:	f8d5 8000 	ldr.w	r8, [r5]
    98a4:	fa1f fb89 	uxth.w	r11, r9
    98a8:	fa1f fa88 	uxth.w	r10, r8
    98ac:	fb0c aa0b 	mla	r10, r12, r11, r10
    98b0:	ea4f 4919 	mov.w	r9, r9, lsr #16
    98b4:	ea4f 4818 	mov.w	r8, r8, lsr #16
    98b8:	fb0c 8809 	mla	r8, r12, r9, r8
    98bc:	44b2      	add	r10, r6
    98be:	eb08 481a 	add.w	r8, r8, r10, lsr #16
    98c2:	fa1f fa8a 	uxth.w	r10, r10
    98c6:	ea4a 4a08 	orr.w	r10, r10, r8, lsl #16
    98ca:	ea4f 4618 	mov.w	r6, r8, lsr #16
    98ce:	f8dd 8008 	ldr.w	r8, [sp, #8]
    98d2:	46ab      	mov	r11, r5
    98d4:	45b8      	cmp	r8, r7
    98d6:	f84b ab04 	str.w	r10, [r11], #4
    98da:	d901      	bls.n	98e0 <__multiply+0xbe>
    98dc:	465d      	mov	r5, r11
    98de:	e7dd      	b.n	989c <__multiply+0x7a>
    98e0:	606e      	str	r6, [r5, #4]
    98e2:	f832 8c02 	ldrh.w	r8, [r2, #-2]
    98e6:	f1b8 0f00 	cmp.w	r8, #0
    98ea:	d023      	beq.n	9934 <__multiply+0x112>
    98ec:	681e      	ldr	r6, [r3, #0]
    98ee:	460f      	mov	r7, r1
    98f0:	461d      	mov	r5, r3
    98f2:	f04f 0900 	mov.w	r9, #0
    98f6:	f8b7 a000 	ldrh.w	r10, [r7]
    98fa:	f8b5 c002 	ldrh.w	r12, [r5, #2]
    98fe:	b2b6      	uxth	r6, r6
    9900:	fb08 cc0a 	mla	r12, r8, r10, r12
    9904:	44e1      	add	r9, r12
    9906:	ea46 4609 	orr.w	r6, r6, r9, lsl #16
    990a:	46ac      	mov	r12, r5
    990c:	f84c 6b04 	str.w	r6, [r12], #4
    9910:	f857 6b04 	ldr.w	r6, [r7], #4
    9914:	f8b5 a004 	ldrh.w	r10, [r5, #4]
    9918:	0c36      	lsrs	r6, r6, #16
    991a:	fb08 a606 	mla	r6, r8, r6, r10
    991e:	f8dd a008 	ldr.w	r10, [sp, #8]
    9922:	eb06 4619 	add.w	r6, r6, r9, lsr #16
    9926:	4557      	cmp	r7, r10
    9928:	ea4f 4916 	mov.w	r9, r6, lsr #16
    992c:	d201      	bcs.n	9932 <__multiply+0x110>
    992e:	4665      	mov	r5, r12
    9930:	e7e1      	b.n	98f6 <__multiply+0xd4>
    9932:	606e      	str	r6, [r5, #4]
    9934:	3304      	adds	r3, #4
    9936:	e7a4      	b.n	9882 <__multiply+0x60>
    9938:	9b01      	ldr	r3, [sp, #4]
    993a:	2c00      	cmp	r4, #0
    993c:	dc03      	bgt.n	9946 <__multiply+0x124>
    993e:	6104      	str	r4, [r0, #16]
    9940:	b005      	add	sp, #20
    9942:	e8bd 8ff0 	ldmia.w	sp!, {r4, r5, r6, r7, r8, r9, r10, r11, pc}
    9946:	f853 2d04 	ldr.w	r2, [r3, #-4]!
    994a:	2a00      	cmp	r2, #0
    994c:	d1f7      	bne.n	993e <__multiply+0x11c>
    994e:	3c01      	subs	r4, #1
    9950:	e7f3      	b.n	993a <__multiply+0x118>
	...

00009954 <__pow5mult>:
    9954:	f012 0303 	ands.w	r3, r2, #3
    9958:	e92d 41f0 	stmdb	sp!, {r4, r5, r6, r7, r8, lr}
    995c:	4605      	mov	r5, r0
    995e:	460e      	mov	r6, r1
    9960:	4617      	mov	r7, r2
    9962:	d007      	beq.n	9974 <__pow5mult+0x20>
    9964:	4a21      	ldr	r2, [pc, #132]	; (99ec <__pow5mult+0x98>)
    9966:	3b01      	subs	r3, #1
    9968:	f852 2023 	ldr.w	r2, [r2, r3, lsl #2]
    996c:	2300      	movs	r3, #0
    996e:	f7ff fe86 	bl	967e <__multadd>
    9972:	4606      	mov	r6, r0
    9974:	10bf      	asrs	r7, r7, #2
    9976:	d035      	beq.n	99e4 <__pow5mult+0x90>
    9978:	6a6c      	ldr	r4, [r5, #36]	; 0x24
    997a:	b93c      	cbnz	r4, 998c <__pow5mult+0x38>
    997c:	2010      	movs	r0, #16
    997e:	f7fc ff6b 	bl	6858 <malloc>
    9982:	6268      	str	r0, [r5, #36]	; 0x24
    9984:	6044      	str	r4, [r0, #4]
    9986:	6084      	str	r4, [r0, #8]
    9988:	6004      	str	r4, [r0, #0]
    998a:	60c4      	str	r4, [r0, #12]
    998c:	f8d5 8024 	ldr.w	r8, [r5, #36]	; 0x24
    9990:	f8d8 4008 	ldr.w	r4, [r8, #8]
    9994:	b97c      	cbnz	r4, 99b6 <__pow5mult+0x62>
    9996:	4628      	mov	r0, r5
    9998:	f240 2171 	movw	r1, #625	; 0x271
    999c:	f7ff ff38 	bl	9810 <__i2b>
    99a0:	2300      	movs	r3, #0
    99a2:	f8c8 0008 	str.w	r0, [r8, #8]
    99a6:	4604      	mov	r4, r0
    99a8:	6003      	str	r3, [r0, #0]
    99aa:	e004      	b.n	99b6 <__pow5mult+0x62>
    99ac:	107f      	asrs	r7, r7, #1
    99ae:	d019      	beq.n	99e4 <__pow5mult+0x90>
    99b0:	6820      	ldr	r0, [r4, #0]
    99b2:	b170      	cbz	r0, 99d2 <__pow5mult+0x7e>
    99b4:	4604      	mov	r4, r0
    99b6:	07fb      	lsls	r3, r7, #31
    99b8:	d5f8      	bpl.n	99ac <__pow5mult+0x58>
    99ba:	4631      	mov	r1, r6
    99bc:	4622      	mov	r2, r4
    99be:	4628      	mov	r0, r5
    99c0:	f7ff ff2f 	bl	9822 <__multiply>
    99c4:	4631      	mov	r1, r6
    99c6:	4680      	mov	r8, r0
    99c8:	4628      	mov	r0, r5
    99ca:	f7ff fe41 	bl	9650 <_Bfree>
    99ce:	4646      	mov	r6, r8
    99d0:	e7ec      	b.n	99ac <__pow5mult+0x58>
    99d2:	4628      	mov	r0, r5
    99d4:	4621      	mov	r1, r4
    99d6:	4622      	mov	r2, r4
    99d8:	f7ff ff23 	bl	9822 <__multiply>
    99dc:	2300      	movs	r3, #0
    99de:	6020      	str	r0, [r4, #0]
    99e0:	6003      	str	r3, [r0, #0]
    99e2:	e7e7      	b.n	99b4 <__pow5mult+0x60>
    99e4:	4630      	mov	r0, r6
    99e6:	e8bd 81f0 	ldmia.w	sp!, {r4, r5, r6, r7, r8, pc}
    99ea:	bf00      	nop
    99ec:	0000ca28 	.word	0x0000ca28

000099f0 <__lshift>:
    99f0:	e92d 47f0 	stmdb	sp!, {r4, r5, r6, r7, r8, r9, r10, lr}
    99f4:	460c      	mov	r4, r1
    99f6:	6923      	ldr	r3, [r4, #16]
    99f8:	ea4f 1a62 	mov.w	r10, r2, asr #5
    99fc:	eb0a 0903 	add.w	r9, r10, r3
    9a00:	6849      	ldr	r1, [r1, #4]
    9a02:	68a3      	ldr	r3, [r4, #8]
    9a04:	4680      	mov	r8, r0
    9a06:	4615      	mov	r5, r2
    9a08:	f109 0701 	add.w	r7, r9, #1
    9a0c:	429f      	cmp	r7, r3
    9a0e:	dd02      	ble.n	9a16 <__lshift+0x26>
    9a10:	3101      	adds	r1, #1
    9a12:	005b      	lsls	r3, r3, #1
    9a14:	e7fa      	b.n	9a0c <__lshift+0x1c>
    9a16:	4640      	mov	r0, r8
    9a18:	f7ff fde5 	bl	95e6 <_Balloc>
    9a1c:	2300      	movs	r3, #0
    9a1e:	4606      	mov	r6, r0
    9a20:	f100 0214 	add.w	r2, r0, #20
    9a24:	4553      	cmp	r3, r10
    9a26:	da04      	bge.n	9a32 <__lshift+0x42>
    9a28:	2100      	movs	r1, #0
    9a2a:	f842 1023 	str.w	r1, [r2, r3, lsl #2]
    9a2e:	3301      	adds	r3, #1
    9a30:	e7f8      	b.n	9a24 <__lshift+0x34>
    9a32:	6920      	ldr	r0, [r4, #16]
    9a34:	ea2a 71ea 	bic.w	r1, r10, r10, asr #31
    9a38:	f104 0314 	add.w	r3, r4, #20
    9a3c:	f015 0c1f 	ands.w	r12, r5, #31
    9a40:	eb02 0181 	add.w	r1, r2, r1, lsl #2
    9a44:	eb03 0e80 	add.w	lr, r3, r0, lsl #2
    9a48:	d016      	beq.n	9a78 <__lshift+0x88>
    9a4a:	f1cc 0a20 	rsb	r10, r12, #32
    9a4e:	2500      	movs	r5, #0
    9a50:	6818      	ldr	r0, [r3, #0]
    9a52:	460a      	mov	r2, r1
    9a54:	fa00 f00c 	lsl.w	r0, r0, r12
    9a58:	4305      	orrs	r5, r0
    9a5a:	f842 5b04 	str.w	r5, [r2], #4
    9a5e:	f853 5b04 	ldr.w	r5, [r3], #4
    9a62:	4573      	cmp	r3, lr
    9a64:	fa25 f50a 	lsr.w	r5, r5, r10
    9a68:	d201      	bcs.n	9a6e <__lshift+0x7e>
    9a6a:	4611      	mov	r1, r2
    9a6c:	e7f0      	b.n	9a50 <__lshift+0x60>
    9a6e:	604d      	str	r5, [r1, #4]
    9a70:	b145      	cbz	r5, 9a84 <__lshift+0x94>
    9a72:	f109 0702 	add.w	r7, r9, #2
    9a76:	e005      	b.n	9a84 <__lshift+0x94>
    9a78:	f853 2b04 	ldr.w	r2, [r3], #4
    9a7c:	4573      	cmp	r3, lr
    9a7e:	f841 2b04 	str.w	r2, [r1], #4
    9a82:	d3f9      	bcc.n	9a78 <__lshift+0x88>
    9a84:	3f01      	subs	r7, #1
    9a86:	4640      	mov	r0, r8
    9a88:	6137      	str	r7, [r6, #16]
    9a8a:	4621      	mov	r1, r4
    9a8c:	f7ff fde0 	bl	9650 <_Bfree>
    9a90:	4630      	mov	r0, r6
    9a92:	e8bd 87f0 	ldmia.w	sp!, {r4, r5, r6, r7, r8, r9, r10, pc}

00009a96 <__mcmp>:
    9a96:	6902      	ldr	r2, [r0, #16]
    9a98:	690b      	ldr	r3, [r1, #16]
    9a9a:	b510      	push	{r4, lr}
    9a9c:	1ad2      	subs	r2, r2, r3
    9a9e:	d113      	bne.n	9ac8 <__mcmp+0x32>
    9aa0:	009c      	lsls	r4, r3, #2
    9aa2:	3014      	adds	r0, #20
    9aa4:	f101 0214 	add.w	r2, r1, #20
    9aa8:	1903      	adds	r3, r0, r4
    9aaa:	4422      	add	r2, r4
    9aac:	f853 4d04 	ldr.w	r4, [r3, #-4]!
    9ab0:	f852 1d04 	ldr.w	r1, [r2, #-4]!
    9ab4:	428c      	cmp	r4, r1
    9ab6:	d003      	beq.n	9ac0 <__mcmp+0x2a>
    9ab8:	d208      	bcs.n	9acc <__mcmp+0x36>
    9aba:	f04f 30ff 	mov.w	r0, #4294967295	; 0xffffffff
    9abe:	bd10      	pop	{r4, pc}
    9ac0:	4298      	cmp	r0, r3
    9ac2:	d3f3      	bcc.n	9aac <__mcmp+0x16>
    9ac4:	2000      	movs	r0, #0
    9ac6:	bd10      	pop	{r4, pc}
    9ac8:	4610      	mov	r0, r2
    9aca:	bd10      	pop	{r4, pc}
    9acc:	2001      	movs	r0, #1
    9ace:	bd10      	pop	{r4, pc}

00009ad0 <__mdiff>:
    9ad0:	e92d 47f0 	stmdb	sp!, {r4, r5, r6, r7, r8, r9, r10, lr}
    9ad4:	4606      	mov	r6, r0
    9ad6:	460c      	mov	r4, r1
    9ad8:	4608      	mov	r0, r1
    9ada:	4611      	mov	r1, r2
    9adc:	4615      	mov	r5, r2
    9ade:	f7ff ffda 	bl	9a96 <__mcmp>
    9ae2:	1e07      	subs	r7, r0, #0
    9ae4:	d108      	bne.n	9af8 <__mdiff+0x28>
    9ae6:	4630      	mov	r0, r6
    9ae8:	4639      	mov	r1, r7
    9aea:	f7ff fd7c 	bl	95e6 <_Balloc>
    9aee:	2301      	movs	r3, #1
    9af0:	6103      	str	r3, [r0, #16]
    9af2:	6147      	str	r7, [r0, #20]
    9af4:	e8bd 87f0 	ldmia.w	sp!, {r4, r5, r6, r7, r8, r9, r10, pc}
    9af8:	db01      	blt.n	9afe <__mdiff+0x2e>
    9afa:	2700      	movs	r7, #0
    9afc:	e003      	b.n	9b06 <__mdiff+0x36>
    9afe:	4623      	mov	r3, r4
    9b00:	2701      	movs	r7, #1
    9b02:	462c      	mov	r4, r5
    9b04:	461d      	mov	r5, r3
    9b06:	6861      	ldr	r1, [r4, #4]
    9b08:	4630      	mov	r0, r6
    9b0a:	f7ff fd6c 	bl	95e6 <_Balloc>
    9b0e:	6922      	ldr	r2, [r4, #16]
    9b10:	692b      	ldr	r3, [r5, #16]
    9b12:	3414      	adds	r4, #20
    9b14:	f105 0614 	add.w	r6, r5, #20
    9b18:	eb06 0a83 	add.w	r10, r6, r3, lsl #2
    9b1c:	60c7      	str	r7, [r0, #12]
    9b1e:	eb04 0c82 	add.w	r12, r4, r2, lsl #2
    9b22:	f100 0314 	add.w	r3, r0, #20
    9b26:	2100      	movs	r1, #0
    9b28:	f854 7b04 	ldr.w	r7, [r4], #4
    9b2c:	f856 9b04 	ldr.w	r9, [r6], #4
    9b30:	fa1f f887 	uxth.w	r8, r7
    9b34:	fa1f f589 	uxth.w	r5, r9
    9b38:	4441      	add	r1, r8
    9b3a:	ea4f 4919 	mov.w	r9, r9, lsr #16
    9b3e:	ebc5 0801 	rsb	r8, r5, r1
    9b42:	ebc9 4717 	rsb	r7, r9, r7, lsr #16
    9b46:	eb07 4728 	add.w	r7, r7, r8, asr #16
    9b4a:	fa1f f888 	uxth.w	r8, r8
    9b4e:	1439      	asrs	r1, r7, #16
    9b50:	45b2      	cmp	r10, r6
    9b52:	ea48 4707 	orr.w	r7, r8, r7, lsl #16
    9b56:	4625      	mov	r5, r4
    9b58:	f843 7b04 	str.w	r7, [r3], #4
    9b5c:	d8e4      	bhi.n	9b28 <__mdiff+0x58>
    9b5e:	4565      	cmp	r5, r12
    9b60:	d20d      	bcs.n	9b7e <__mdiff+0xae>
    9b62:	f855 4b04 	ldr.w	r4, [r5], #4
    9b66:	b2a6      	uxth	r6, r4
    9b68:	440e      	add	r6, r1
    9b6a:	0c24      	lsrs	r4, r4, #16
    9b6c:	eb04 4426 	add.w	r4, r4, r6, asr #16
    9b70:	b2b6      	uxth	r6, r6
    9b72:	1421      	asrs	r1, r4, #16
    9b74:	ea46 4404 	orr.w	r4, r6, r4, lsl #16
    9b78:	f843 4b04 	str.w	r4, [r3], #4
    9b7c:	e7ef      	b.n	9b5e <__mdiff+0x8e>
    9b7e:	f853 1d04 	ldr.w	r1, [r3, #-4]!
    9b82:	b909      	cbnz	r1, 9b88 <__mdiff+0xb8>
    9b84:	3a01      	subs	r2, #1
    9b86:	e7fa      	b.n	9b7e <__mdiff+0xae>
    9b88:	6102      	str	r2, [r0, #16]
    9b8a:	e8bd 87f0 	ldmia.w	sp!, {r4, r5, r6, r7, r8, r9, r10, pc}
	...

00009b90 <__ulp>:
    9b90:	4b0f      	ldr	r3, [pc, #60]	; (9bd0 <__ulp+0x40>)
    9b92:	400b      	ands	r3, r1
    9b94:	f1a3 7350 	sub.w	r3, r3, #54525952	; 0x3400000
    9b98:	2b00      	cmp	r3, #0
    9b9a:	dd01      	ble.n	9ba0 <__ulp+0x10>
    9b9c:	4619      	mov	r1, r3
    9b9e:	e009      	b.n	9bb4 <__ulp+0x24>
    9ba0:	425b      	negs	r3, r3
    9ba2:	151b      	asrs	r3, r3, #20
    9ba4:	2b13      	cmp	r3, #19
    9ba6:	f04f 0100 	mov.w	r1, #0
    9baa:	dc05      	bgt.n	9bb8 <__ulp+0x28>
    9bac:	f44f 2200 	mov.w	r2, #524288	; 0x80000
    9bb0:	fa42 f103 	asr.w	r1, r2, r3
    9bb4:	2000      	movs	r0, #0
    9bb6:	4770      	bx	lr
    9bb8:	2b32      	cmp	r3, #50	; 0x32
    9bba:	f04f 0201 	mov.w	r2, #1
    9bbe:	bfda      	itte	le
    9bc0:	f1c3 0333 	rsble	r3, r3, #51	; 0x33
    9bc4:	fa02 f303 	lslle.w	r3, r2, r3
    9bc8:	4613      	movgt	r3, r2
    9bca:	4618      	mov	r0, r3
    9bcc:	4770      	bx	lr
    9bce:	bf00      	nop
    9bd0:	7ff00000 	.word	0x7ff00000

00009bd4 <__b2d>:
    9bd4:	e92d 41f0 	stmdb	sp!, {r4, r5, r6, r7, r8, lr}
    9bd8:	6906      	ldr	r6, [r0, #16]
    9bda:	f100 0714 	add.w	r7, r0, #20
    9bde:	eb07 0686 	add.w	r6, r7, r6, lsl #2
    9be2:	f856 4c04 	ldr.w	r4, [r6, #-4]
    9be6:	4688      	mov	r8, r1
    9be8:	4620      	mov	r0, r4
    9bea:	f7ff fdc4 	bl	9776 <__hi0bits>
    9bee:	f1c0 0320 	rsb	r3, r0, #32
    9bf2:	280a      	cmp	r0, #10
    9bf4:	f1a6 0504 	sub.w	r5, r6, #4
    9bf8:	f8c8 3000 	str.w	r3, [r8]
    9bfc:	dc14      	bgt.n	9c28 <__b2d+0x54>
    9bfe:	42bd      	cmp	r5, r7
    9c00:	f1c0 010b 	rsb	r1, r0, #11
    9c04:	bf88      	it	hi
    9c06:	f856 5c08 	ldrhi.w	r5, [r6, #-8]
    9c0a:	fa24 fc01 	lsr.w	r12, r4, r1
    9c0e:	bf98      	it	ls
    9c10:	2500      	movls	r5, #0
    9c12:	3015      	adds	r0, #21
    9c14:	fa25 f101 	lsr.w	r1, r5, r1
    9c18:	4084      	lsls	r4, r0
    9c1a:	f04c 537f 	orr.w	r3, r12, #1069547520	; 0x3fc00000
    9c1e:	f443 1340 	orr.w	r3, r3, #3145728	; 0x300000
    9c22:	ea41 0204 	orr.w	r2, r1, r4
    9c26:	e024      	b.n	9c72 <__b2d+0x9e>
    9c28:	42bd      	cmp	r5, r7
    9c2a:	bf86      	itte	hi
    9c2c:	f1a6 0508 	subhi.w	r5, r6, #8
    9c30:	f856 1c08 	ldrhi.w	r1, [r6, #-8]
    9c34:	2100      	movls	r1, #0
    9c36:	f1b0 060b 	subs.w	r6, r0, #11
    9c3a:	d015      	beq.n	9c68 <__b2d+0x94>
    9c3c:	40b4      	lsls	r4, r6
    9c3e:	f1c0 002b 	rsb	r0, r0, #43	; 0x2b
    9c42:	fa21 fc00 	lsr.w	r12, r1, r0
    9c46:	f044 547f 	orr.w	r4, r4, #1069547520	; 0x3fc00000
    9c4a:	f444 1440 	orr.w	r4, r4, #3145728	; 0x300000
    9c4e:	42bd      	cmp	r5, r7
    9c50:	ea44 030c 	orr.w	r3, r4, r12
    9c54:	bf8c      	ite	hi
    9c56:	f855 4c04 	ldrhi.w	r4, [r5, #-4]
    9c5a:	2400      	movls	r4, #0
    9c5c:	fa24 f000 	lsr.w	r0, r4, r0
    9c60:	40b1      	lsls	r1, r6
    9c62:	ea40 0201 	orr.w	r2, r0, r1
    9c66:	e004      	b.n	9c72 <__b2d+0x9e>
    9c68:	f044 537f 	orr.w	r3, r4, #1069547520	; 0x3fc00000
    9c6c:	f443 1340 	orr.w	r3, r3, #3145728	; 0x300000
    9c70:	460a      	mov	r2, r1
    9c72:	4610      	mov	r0, r2
    9c74:	4619      	mov	r1, r3
    9c76:	e8bd 81f0 	ldmia.w	sp!, {r4, r5, r6, r7, r8, pc}

00009c7a <__d2b>:
    9c7a:	e92d 43f7 	stmdb	sp!, {r0, r1, r2, r4, r5, r6, r7, r8, r9, lr}
    9c7e:	2101      	movs	r1, #1
    9c80:	461d      	mov	r5, r3
    9c82:	f8dd 9028 	ldr.w	r9, [sp, #40]	; 0x28
    9c86:	f8dd 802c 	ldr.w	r8, [sp, #44]	; 0x2c
    9c8a:	4614      	mov	r4, r2
    9c8c:	f7ff fcab 	bl	95e6 <_Balloc>
    9c90:	f3c5 570a 	ubfx	r7, r5, #20, #11
    9c94:	4606      	mov	r6, r0
    9c96:	f3c5 0313 	ubfx	r3, r5, #0, #20
    9c9a:	b10f      	cbz	r7, 9ca0 <__d2b+0x26>
    9c9c:	f443 1380 	orr.w	r3, r3, #1048576	; 0x100000
    9ca0:	9301      	str	r3, [sp, #4]
    9ca2:	b1d4      	cbz	r4, 9cda <__d2b+0x60>
    9ca4:	a802      	add	r0, sp, #8
    9ca6:	f840 4d08 	str.w	r4, [r0, #-8]!
    9caa:	4668      	mov	r0, sp
    9cac:	f7ff fd83 	bl	97b6 <__lo0bits>
    9cb0:	9b00      	ldr	r3, [sp, #0]
    9cb2:	b148      	cbz	r0, 9cc8 <__d2b+0x4e>
    9cb4:	9a01      	ldr	r2, [sp, #4]
    9cb6:	f1c0 0120 	rsb	r1, r0, #32
    9cba:	fa02 f101 	lsl.w	r1, r2, r1
    9cbe:	40c2      	lsrs	r2, r0
    9cc0:	430b      	orrs	r3, r1
    9cc2:	6173      	str	r3, [r6, #20]
    9cc4:	9201      	str	r2, [sp, #4]
    9cc6:	e000      	b.n	9cca <__d2b+0x50>
    9cc8:	6173      	str	r3, [r6, #20]
    9cca:	9b01      	ldr	r3, [sp, #4]
    9ccc:	2b00      	cmp	r3, #0
    9cce:	bf0c      	ite	eq
    9cd0:	2401      	moveq	r4, #1
    9cd2:	2402      	movne	r4, #2
    9cd4:	61b3      	str	r3, [r6, #24]
    9cd6:	6134      	str	r4, [r6, #16]
    9cd8:	e007      	b.n	9cea <__d2b+0x70>
    9cda:	a801      	add	r0, sp, #4
    9cdc:	f7ff fd6b 	bl	97b6 <__lo0bits>
    9ce0:	9b01      	ldr	r3, [sp, #4]
    9ce2:	2401      	movs	r4, #1
    9ce4:	6173      	str	r3, [r6, #20]
    9ce6:	6134      	str	r4, [r6, #16]
    9ce8:	3020      	adds	r0, #32
    9cea:	b13f      	cbz	r7, 9cfc <__d2b+0x82>
    9cec:	f2a7 4733 	subw	r7, r7, #1075	; 0x433
    9cf0:	4407      	add	r7, r0
    9cf2:	f8c9 7000 	str.w	r7, [r9]
    9cf6:	f1c0 0035 	rsb	r0, r0, #53	; 0x35
    9cfa:	e00a      	b.n	9d12 <__d2b+0x98>
    9cfc:	f2a0 4032 	subw	r0, r0, #1074	; 0x432
    9d00:	eb06 0384 	add.w	r3, r6, r4, lsl #2
    9d04:	f8c9 0000 	str.w	r0, [r9]
    9d08:	6918      	ldr	r0, [r3, #16]
    9d0a:	f7ff fd34 	bl	9776 <__hi0bits>
    9d0e:	ebc0 1044 	rsb	r0, r0, r4, lsl #5
    9d12:	f8c8 0000 	str.w	r0, [r8]
    9d16:	4630      	mov	r0, r6
    9d18:	b003      	add	sp, #12
    9d1a:	e8bd 83f0 	ldmia.w	sp!, {r4, r5, r6, r7, r8, r9, pc}

00009d1e <__ratio>:
    9d1e:	e92d 41f3 	stmdb	sp!, {r0, r1, r4, r5, r6, r7, r8, lr}
    9d22:	460e      	mov	r6, r1
    9d24:	4669      	mov	r1, sp
    9d26:	4680      	mov	r8, r0
    9d28:	f7ff ff54 	bl	9bd4 <__b2d>
    9d2c:	460d      	mov	r5, r1
    9d2e:	4604      	mov	r4, r0
    9d30:	a901      	add	r1, sp, #4
    9d32:	4630      	mov	r0, r6
    9d34:	f7ff ff4e 	bl	9bd4 <__b2d>
    9d38:	9f00      	ldr	r7, [sp, #0]
    9d3a:	460b      	mov	r3, r1
    9d3c:	9901      	ldr	r1, [sp, #4]
    9d3e:	4602      	mov	r2, r0
    9d40:	1a7f      	subs	r7, r7, r1
    9d42:	f8d8 0010 	ldr.w	r0, [r8, #16]
    9d46:	6931      	ldr	r1, [r6, #16]
    9d48:	1a41      	subs	r1, r0, r1
    9d4a:	eb07 1141 	add.w	r1, r7, r1, lsl #5
    9d4e:	2900      	cmp	r1, #0
    9d50:	bfcc      	ite	gt
    9d52:	eb05 5501 	addgt.w	r5, r5, r1, lsl #20
    9d56:	eba3 5301 	suble.w	r3, r3, r1, lsl #20
    9d5a:	4620      	mov	r0, r4
    9d5c:	4629      	mov	r1, r5
    9d5e:	f7fb fcaf 	bl	56c0 <__aeabi_ddiv>
    9d62:	b002      	add	sp, #8
    9d64:	e8bd 81f0 	ldmia.w	sp!, {r4, r5, r6, r7, r8, pc}

00009d68 <__copybits>:
    9d68:	b510      	push	{r4, lr}
    9d6a:	3901      	subs	r1, #1
    9d6c:	f102 0314 	add.w	r3, r2, #20
    9d70:	1149      	asrs	r1, r1, #5
    9d72:	6912      	ldr	r2, [r2, #16]
    9d74:	3101      	adds	r1, #1
    9d76:	eb00 0181 	add.w	r1, r0, r1, lsl #2
    9d7a:	eb03 0282 	add.w	r2, r3, r2, lsl #2
    9d7e:	4293      	cmp	r3, r2
    9d80:	d204      	bcs.n	9d8c <__copybits+0x24>
    9d82:	f853 4b04 	ldr.w	r4, [r3], #4
    9d86:	f840 4b04 	str.w	r4, [r0], #4
    9d8a:	e7f8      	b.n	9d7e <__copybits+0x16>
    9d8c:	4288      	cmp	r0, r1
    9d8e:	d203      	bcs.n	9d98 <__copybits+0x30>
    9d90:	2300      	movs	r3, #0
    9d92:	f840 3b04 	str.w	r3, [r0], #4
    9d96:	e7f9      	b.n	9d8c <__copybits+0x24>
    9d98:	bd10      	pop	{r4, pc}

00009d9a <__any_on>:
    9d9a:	f100 0214 	add.w	r2, r0, #20
    9d9e:	6900      	ldr	r0, [r0, #16]
    9da0:	114b      	asrs	r3, r1, #5
    9da2:	4283      	cmp	r3, r0
    9da4:	b510      	push	{r4, lr}
    9da6:	dc0c      	bgt.n	9dc2 <__any_on+0x28>
    9da8:	da0c      	bge.n	9dc4 <__any_on+0x2a>
    9daa:	f011 011f 	ands.w	r1, r1, #31
    9dae:	d009      	beq.n	9dc4 <__any_on+0x2a>
    9db0:	f852 0023 	ldr.w	r0, [r2, r3, lsl #2]
    9db4:	fa20 f401 	lsr.w	r4, r0, r1
    9db8:	fa04 f101 	lsl.w	r1, r4, r1
    9dbc:	4281      	cmp	r1, r0
    9dbe:	d10e      	bne.n	9dde <__any_on+0x44>
    9dc0:	e000      	b.n	9dc4 <__any_on+0x2a>
    9dc2:	4603      	mov	r3, r0
    9dc4:	eb02 0383 	add.w	r3, r2, r3, lsl #2
    9dc8:	4293      	cmp	r3, r2
    9dca:	4619      	mov	r1, r3
    9dcc:	d905      	bls.n	9dda <__any_on+0x40>
    9dce:	f851 1c04 	ldr.w	r1, [r1, #-4]
    9dd2:	3b04      	subs	r3, #4
    9dd4:	2900      	cmp	r1, #0
    9dd6:	d0f7      	beq.n	9dc8 <__any_on+0x2e>
    9dd8:	e001      	b.n	9dde <__any_on+0x44>
    9dda:	2000      	movs	r0, #0
    9ddc:	bd10      	pop	{r4, pc}
    9dde:	2001      	movs	r0, #1
    9de0:	bd10      	pop	{r4, pc}

00009de2 <_calloc_r>:
    9de2:	b538      	push	{r3, r4, r5, lr}
    9de4:	fb02 f401 	mul.w	r4, r2, r1
    9de8:	4621      	mov	r1, r4
    9dea:	f7fc fda9 	bl	6940 <_malloc_r>
    9dee:	4605      	mov	r5, r0
    9df0:	b118      	cbz	r0, 9dfa <_calloc_r+0x18>
    9df2:	2100      	movs	r1, #0
    9df4:	4622      	mov	r2, r4
    9df6:	f7fc fd56 	bl	68a6 <memset>
    9dfa:	4628      	mov	r0, r5
    9dfc:	bd38      	pop	{r3, r4, r5, pc}

00009dfe <_realloc_r>:
    9dfe:	b5f8      	push	{r3, r4, r5, r6, r7, lr}
    9e00:	4606      	mov	r6, r0
    9e02:	4614      	mov	r4, r2
    9e04:	460d      	mov	r5, r1
    9e06:	b921      	cbnz	r1, 9e12 <_realloc_r+0x14>
    9e08:	4611      	mov	r1, r2
    9e0a:	e8bd 40f8 	ldmia.w	sp!, {r3, r4, r5, r6, r7, lr}
    9e0e:	f7fc bd97 	b.w	6940 <_malloc_r>
    9e12:	b91a      	cbnz	r2, 9e1c <_realloc_r+0x1e>
    9e14:	f7fc fd50 	bl	68b8 <_free_r>
    9e18:	4620      	mov	r0, r4
    9e1a:	bdf8      	pop	{r3, r4, r5, r6, r7, pc}
    9e1c:	f001 fae6 	bl	b3ec <_malloc_usable_size_r>
    9e20:	42a0      	cmp	r0, r4
    9e22:	d20e      	bcs.n	9e42 <_realloc_r+0x44>
    9e24:	4630      	mov	r0, r6
    9e26:	4621      	mov	r1, r4
    9e28:	f7fc fd8a 	bl	6940 <_malloc_r>
    9e2c:	4607      	mov	r7, r0
    9e2e:	b150      	cbz	r0, 9e46 <_realloc_r+0x48>
    9e30:	4629      	mov	r1, r5
    9e32:	4622      	mov	r2, r4
    9e34:	f7fc fd2e 	bl	6894 <memcpy>
    9e38:	4630      	mov	r0, r6
    9e3a:	4629      	mov	r1, r5
    9e3c:	f7fc fd3c 	bl	68b8 <_free_r>
    9e40:	e001      	b.n	9e46 <_realloc_r+0x48>
    9e42:	4628      	mov	r0, r5
    9e44:	bdf8      	pop	{r3, r4, r5, r6, r7, pc}
    9e46:	4638      	mov	r0, r7
    9e48:	bdf8      	pop	{r3, r4, r5, r6, r7, pc}
	...

00009e4c <_read_r>:
    9e4c:	b538      	push	{r3, r4, r5, lr}
    9e4e:	4c07      	ldr	r4, [pc, #28]	; (9e6c <_read_r+0x20>)
    9e50:	4605      	mov	r5, r0
    9e52:	2000      	movs	r0, #0
    9e54:	6020      	str	r0, [r4, #0]
    9e56:	4608      	mov	r0, r1
    9e58:	4611      	mov	r1, r2
    9e5a:	461a      	mov	r2, r3
    9e5c:	f7f6 fed0 	bl	c00 <__wrap__read>
    9e60:	1c43      	adds	r3, r0, #1
    9e62:	d102      	bne.n	9e6a <_read_r+0x1e>
    9e64:	6823      	ldr	r3, [r4, #0]
    9e66:	b103      	cbz	r3, 9e6a <_read_r+0x1e>
    9e68:	602b      	str	r3, [r5, #0]
    9e6a:	bd38      	pop	{r3, r4, r5, pc}
    9e6c:	10000a38 	.word	0x10000a38

00009e70 <__fpclassifyd>:
    9e70:	f031 4300 	bics.w	r3, r1, #2147483648	; 0x80000000
    9e74:	b510      	push	{r4, lr}
    9e76:	d100      	bne.n	9e7a <__fpclassifyd+0xa>
    9e78:	b178      	cbz	r0, 9e9a <__fpclassifyd+0x2a>
    9e7a:	4a0c      	ldr	r2, [pc, #48]	; (9eac <__fpclassifyd+0x3c>)
    9e7c:	f5a3 1480 	sub.w	r4, r3, #1048576	; 0x100000
    9e80:	4294      	cmp	r4, r2
    9e82:	d90c      	bls.n	9e9e <__fpclassifyd+0x2e>
    9e84:	f5b3 1f80 	cmp.w	r3, #1048576	; 0x100000
    9e88:	d30b      	bcc.n	9ea2 <__fpclassifyd+0x32>
    9e8a:	4a09      	ldr	r2, [pc, #36]	; (9eb0 <__fpclassifyd+0x40>)
    9e8c:	4293      	cmp	r3, r2
    9e8e:	d10a      	bne.n	9ea6 <__fpclassifyd+0x36>
    9e90:	f1d0 0001 	rsbs	r0, r0, #1
    9e94:	bf38      	it	cc
    9e96:	2000      	movcc	r0, #0
    9e98:	bd10      	pop	{r4, pc}
    9e9a:	2002      	movs	r0, #2
    9e9c:	bd10      	pop	{r4, pc}
    9e9e:	2004      	movs	r0, #4
    9ea0:	bd10      	pop	{r4, pc}
    9ea2:	2003      	movs	r0, #3
    9ea4:	bd10      	pop	{r4, pc}
    9ea6:	2000      	movs	r0, #0
    9ea8:	bd10      	pop	{r4, pc}
    9eaa:	bf00      	nop
    9eac:	7fdfffff 	.word	0x7fdfffff
    9eb0:	7ff00000 	.word	0x7ff00000

00009eb4 <__sccl>:
    9eb4:	b5f0      	push	{r4, r5, r6, r7, lr}
    9eb6:	780b      	ldrb	r3, [r1, #0]
    9eb8:	2b5e      	cmp	r3, #94	; 0x5e
    9eba:	d002      	beq.n	9ec2 <__sccl+0xe>
    9ebc:	1c4c      	adds	r4, r1, #1
    9ebe:	2100      	movs	r1, #0
    9ec0:	e002      	b.n	9ec8 <__sccl+0x14>
    9ec2:	1c8c      	adds	r4, r1, #2
    9ec4:	784b      	ldrb	r3, [r1, #1]
    9ec6:	2101      	movs	r1, #1
    9ec8:	2200      	movs	r2, #0
    9eca:	5481      	strb	r1, [r0, r2]
    9ecc:	3201      	adds	r2, #1
    9ece:	f5b2 7f80 	cmp.w	r2, #256	; 0x100
    9ed2:	d1fa      	bne.n	9eca <__sccl+0x16>
    9ed4:	b90b      	cbnz	r3, 9eda <__sccl+0x26>
    9ed6:	1e65      	subs	r5, r4, #1
    9ed8:	e01b      	b.n	9f12 <__sccl+0x5e>
    9eda:	f1c1 0701 	rsb	r7, r1, #1
    9ede:	b2fe      	uxtb	r6, r7
    9ee0:	54c6      	strb	r6, [r0, r3]
    9ee2:	1c62      	adds	r2, r4, #1
    9ee4:	f812 1c01 	ldrb.w	r1, [r2, #-1]
    9ee8:	1e55      	subs	r5, r2, #1
    9eea:	292d      	cmp	r1, #45	; 0x2d
    9eec:	4614      	mov	r4, r2
    9eee:	d004      	beq.n	9efa <__sccl+0x46>
    9ef0:	295d      	cmp	r1, #93	; 0x5d
    9ef2:	d00d      	beq.n	9f10 <__sccl+0x5c>
    9ef4:	b169      	cbz	r1, 9f12 <__sccl+0x5e>
    9ef6:	460b      	mov	r3, r1
    9ef8:	e7f1      	b.n	9ede <__sccl+0x2a>
    9efa:	7815      	ldrb	r5, [r2, #0]
    9efc:	2d5d      	cmp	r5, #93	; 0x5d
    9efe:	d0fa      	beq.n	9ef6 <__sccl+0x42>
    9f00:	429d      	cmp	r5, r3
    9f02:	dbf8      	blt.n	9ef6 <__sccl+0x42>
    9f04:	3301      	adds	r3, #1
    9f06:	42ab      	cmp	r3, r5
    9f08:	54c6      	strb	r6, [r0, r3]
    9f0a:	dbfb      	blt.n	9f04 <__sccl+0x50>
    9f0c:	3202      	adds	r2, #2
    9f0e:	e7e9      	b.n	9ee4 <__sccl+0x30>
    9f10:	4615      	mov	r5, r2
    9f12:	4628      	mov	r0, r5
    9f14:	bdf0      	pop	{r4, r5, r6, r7, pc}
	...

00009f18 <nanf>:
    9f18:	4800      	ldr	r0, [pc, #0]	; (9f1c <nanf+0x4>)
    9f1a:	4770      	bx	lr
    9f1c:	7fc00000 	.word	0x7fc00000

00009f20 <match>:
    9f20:	b530      	push	{r4, r5, lr}
    9f22:	6802      	ldr	r2, [r0, #0]
    9f24:	f811 5b01 	ldrb.w	r5, [r1], #1
    9f28:	1c54      	adds	r4, r2, #1
    9f2a:	b155      	cbz	r5, 9f42 <match+0x22>
    9f2c:	7853      	ldrb	r3, [r2, #1]
    9f2e:	4622      	mov	r2, r4
    9f30:	f1a3 0441 	sub.w	r4, r3, #65	; 0x41
    9f34:	2c19      	cmp	r4, #25
    9f36:	bf98      	it	ls
    9f38:	3320      	addls	r3, #32
    9f3a:	42ab      	cmp	r3, r5
    9f3c:	d0f2      	beq.n	9f24 <match+0x4>
    9f3e:	2000      	movs	r0, #0
    9f40:	bd30      	pop	{r4, r5, pc}
    9f42:	6004      	str	r4, [r0, #0]
    9f44:	2001      	movs	r0, #1
    9f46:	bd30      	pop	{r4, r5, pc}

00009f48 <sulp>:
    9f48:	e92d 41f0 	stmdb	sp!, {r4, r5, r6, r7, r8, lr}
    9f4c:	460d      	mov	r5, r1
    9f4e:	4690      	mov	r8, r2
    9f50:	f7ff fe1e 	bl	9b90 <__ulp>
    9f54:	4606      	mov	r6, r0
    9f56:	460f      	mov	r7, r1
    9f58:	f1b8 0f00 	cmp.w	r8, #0
    9f5c:	d00f      	beq.n	9f7e <sulp+0x36>
    9f5e:	f3c5 530a 	ubfx	r3, r5, #20, #11
    9f62:	f1c3 036b 	rsb	r3, r3, #107	; 0x6b
    9f66:	2b00      	cmp	r3, #0
    9f68:	dd09      	ble.n	9f7e <sulp+0x36>
    9f6a:	051c      	lsls	r4, r3, #20
    9f6c:	f104 537f 	add.w	r3, r4, #1069547520	; 0x3fc00000
    9f70:	f503 1340 	add.w	r3, r3, #3145728	; 0x300000
    9f74:	2200      	movs	r2, #0
    9f76:	f7fb fa79 	bl	546c <__aeabi_dmul>
    9f7a:	e8bd 81f0 	ldmia.w	sp!, {r4, r5, r6, r7, r8, pc}
    9f7e:	4630      	mov	r0, r6
    9f80:	4639      	mov	r1, r7
    9f82:	e8bd 81f0 	ldmia.w	sp!, {r4, r5, r6, r7, r8, pc}
	...

00009f88 <_strtod_r>:
    9f88:	e92d 4ff0 	stmdb	sp!, {r4, r5, r6, r7, r8, r9, r10, r11, lr}
    9f8c:	2300      	movs	r3, #0
    9f8e:	b09f      	sub	sp, #124	; 0x7c
    9f90:	4681      	mov	r9, r0
    9f92:	9104      	str	r1, [sp, #16]
    9f94:	9215      	str	r2, [sp, #84]	; 0x54
    9f96:	931a      	str	r3, [sp, #104]	; 0x68
    9f98:	f04f 0a00 	mov.w	r10, #0
    9f9c:	f04f 0b00 	mov.w	r11, #0
    9fa0:	9119      	str	r1, [sp, #100]	; 0x64
    9fa2:	9a19      	ldr	r2, [sp, #100]	; 0x64
    9fa4:	7813      	ldrb	r3, [r2, #0]
    9fa6:	2b0d      	cmp	r3, #13
    9fa8:	d805      	bhi.n	9fb6 <_strtod_r+0x2e>
    9faa:	2b09      	cmp	r3, #9
    9fac:	d214      	bcs.n	9fd8 <_strtod_r+0x50>
    9fae:	2b00      	cmp	r3, #0
    9fb0:	f000 81b1 	beq.w	a316 <_strtod_r+0x38e>
    9fb4:	e013      	b.n	9fde <_strtod_r+0x56>
    9fb6:	2b2b      	cmp	r3, #43	; 0x2b
    9fb8:	d007      	beq.n	9fca <_strtod_r+0x42>
    9fba:	2b2d      	cmp	r3, #45	; 0x2d
    9fbc:	d002      	beq.n	9fc4 <_strtod_r+0x3c>
    9fbe:	2b20      	cmp	r3, #32
    9fc0:	d10d      	bne.n	9fde <_strtod_r+0x56>
    9fc2:	e009      	b.n	9fd8 <_strtod_r+0x50>
    9fc4:	2601      	movs	r6, #1
    9fc6:	9609      	str	r6, [sp, #36]	; 0x24
    9fc8:	e001      	b.n	9fce <_strtod_r+0x46>
    9fca:	2700      	movs	r7, #0
    9fcc:	9709      	str	r7, [sp, #36]	; 0x24
    9fce:	1c53      	adds	r3, r2, #1
    9fd0:	9319      	str	r3, [sp, #100]	; 0x64
    9fd2:	7853      	ldrb	r3, [r2, #1]
    9fd4:	b92b      	cbnz	r3, 9fe2 <_strtod_r+0x5a>
    9fd6:	e19e      	b.n	a316 <_strtod_r+0x38e>
    9fd8:	3201      	adds	r2, #1
    9fda:	9219      	str	r2, [sp, #100]	; 0x64
    9fdc:	e7e1      	b.n	9fa2 <_strtod_r+0x1a>
    9fde:	2600      	movs	r6, #0
    9fe0:	9609      	str	r6, [sp, #36]	; 0x24
    9fe2:	9c19      	ldr	r4, [sp, #100]	; 0x64
    9fe4:	7823      	ldrb	r3, [r4, #0]
    9fe6:	2b30      	cmp	r3, #48	; 0x30
    9fe8:	d15a      	bne.n	a0a0 <_strtod_r+0x118>
    9fea:	7863      	ldrb	r3, [r4, #1]
    9fec:	2b58      	cmp	r3, #88	; 0x58
    9fee:	d001      	beq.n	9ff4 <_strtod_r+0x6c>
    9ff0:	2b78      	cmp	r3, #120	; 0x78
    9ff2:	d149      	bne.n	a088 <_strtod_r+0x100>
    9ff4:	9f09      	ldr	r7, [sp, #36]	; 0x24
    9ff6:	ab1a      	add	r3, sp, #104	; 0x68
    9ff8:	9300      	str	r3, [sp, #0]
    9ffa:	9701      	str	r7, [sp, #4]
    9ffc:	4648      	mov	r0, r9
    9ffe:	a919      	add	r1, sp, #100	; 0x64
    a000:	4a9c      	ldr	r2, [pc, #624]	; (a274 <_strtod_r+0x2ec>)
    a002:	ab1b      	add	r3, sp, #108	; 0x6c
    a004:	f000 ff20 	bl	ae48 <__gethex>
    a008:	f010 0607 	ands.w	r6, r0, #7
    a00c:	4605      	mov	r5, r0
    a00e:	f000 85ad 	beq.w	ab6c <_strtod_r+0xbe4>
    a012:	2e06      	cmp	r6, #6
    a014:	d102      	bne.n	a01c <_strtod_r+0x94>
    a016:	3401      	adds	r4, #1
    a018:	9419      	str	r4, [sp, #100]	; 0x64
    a01a:	e17e      	b.n	a31a <_strtod_r+0x392>
    a01c:	9a1a      	ldr	r2, [sp, #104]	; 0x68
    a01e:	b13a      	cbz	r2, a030 <_strtod_r+0xa8>
    a020:	a81c      	add	r0, sp, #112	; 0x70
    a022:	2135      	movs	r1, #53	; 0x35
    a024:	f7ff fea0 	bl	9d68 <__copybits>
    a028:	4648      	mov	r0, r9
    a02a:	991a      	ldr	r1, [sp, #104]	; 0x68
    a02c:	f7ff fb10 	bl	9650 <_Bfree>
    a030:	9a1b      	ldr	r2, [sp, #108]	; 0x6c
    a032:	2e06      	cmp	r6, #6
    a034:	d821      	bhi.n	a07a <_strtod_r+0xf2>
    a036:	e8df f006 	tbb	[pc, r6]
    a03a:	0d04      	.short	0x0d04
    a03c:	0d1c1708 	.word	0x0d1c1708
    a040:	04          	.byte	0x04
    a041:	00          	.byte	0x00
    a042:	f04f 0b00 	mov.w	r11, #0
    a046:	46da      	mov	r10, r11
    a048:	e017      	b.n	a07a <_strtod_r+0xf2>
    a04a:	f8dd a070 	ldr.w	r10, [sp, #112]	; 0x70
    a04e:	f8dd b074 	ldr.w	r11, [sp, #116]	; 0x74
    a052:	e012      	b.n	a07a <_strtod_r+0xf2>
    a054:	9b1d      	ldr	r3, [sp, #116]	; 0x74
    a056:	f202 4233 	addw	r2, r2, #1075	; 0x433
    a05a:	f423 1380 	bic.w	r3, r3, #1048576	; 0x100000
    a05e:	f8dd a070 	ldr.w	r10, [sp, #112]	; 0x70
    a062:	ea43 5b02 	orr.w	r11, r3, r2, lsl #20
    a066:	e008      	b.n	a07a <_strtod_r+0xf2>
    a068:	f8df b20c 	ldr.w	r11, [pc, #524]	; a278 <_strtod_r+0x2f0>
    a06c:	f04f 0a00 	mov.w	r10, #0
    a070:	e003      	b.n	a07a <_strtod_r+0xf2>
    a072:	f06f 4b00 	mvn.w	r11, #2147483648	; 0x80000000
    a076:	f04f 3aff 	mov.w	r10, #4294967295	; 0xffffffff
    a07a:	072b      	lsls	r3, r5, #28
    a07c:	f140 8576 	bpl.w	ab6c <_strtod_r+0xbe4>
    a080:	f04b 4b00 	orr.w	r11, r11, #2147483648	; 0x80000000
    a084:	f000 bd72 	b.w	ab6c <_strtod_r+0xbe4>
    a088:	9b19      	ldr	r3, [sp, #100]	; 0x64
    a08a:	1c5a      	adds	r2, r3, #1
    a08c:	9219      	str	r2, [sp, #100]	; 0x64
    a08e:	785b      	ldrb	r3, [r3, #1]
    a090:	2b30      	cmp	r3, #48	; 0x30
    a092:	d0f9      	beq.n	a088 <_strtod_r+0x100>
    a094:	2b00      	cmp	r3, #0
    a096:	f000 8569 	beq.w	ab6c <_strtod_r+0xbe4>
    a09a:	2301      	movs	r3, #1
    a09c:	9305      	str	r3, [sp, #20]
    a09e:	e001      	b.n	a0a4 <_strtod_r+0x11c>
    a0a0:	2600      	movs	r6, #0
    a0a2:	9605      	str	r6, [sp, #20]
    a0a4:	9f19      	ldr	r7, [sp, #100]	; 0x64
    a0a6:	f04f 0800 	mov.w	r8, #0
    a0aa:	9707      	str	r7, [sp, #28]
    a0ac:	f8cd 800c 	str.w	r8, [sp, #12]
    a0b0:	4644      	mov	r4, r8
    a0b2:	9e19      	ldr	r6, [sp, #100]	; 0x64
    a0b4:	7835      	ldrb	r5, [r6, #0]
    a0b6:	f1a5 0330 	sub.w	r3, r5, #48	; 0x30
    a0ba:	b2da      	uxtb	r2, r3
    a0bc:	2a09      	cmp	r2, #9
    a0be:	d810      	bhi.n	a0e2 <_strtod_r+0x15a>
    a0c0:	2c08      	cmp	r4, #8
    a0c2:	bfd8      	it	le
    a0c4:	9f03      	ldrle	r7, [sp, #12]
    a0c6:	f04f 020a 	mov.w	r2, #10
    a0ca:	bfd8      	it	le
    a0cc:	fb02 3707 	mlale	r7, r2, r7, r3
    a0d0:	f106 0601 	add.w	r6, r6, #1
    a0d4:	bfd4      	ite	le
    a0d6:	9703      	strle	r7, [sp, #12]
    a0d8:	fb02 3808 	mlagt	r8, r2, r8, r3
    a0dc:	3401      	adds	r4, #1
    a0de:	9619      	str	r6, [sp, #100]	; 0x64
    a0e0:	e7e7      	b.n	a0b2 <_strtod_r+0x12a>
    a0e2:	4648      	mov	r0, r9
    a0e4:	f7ff fa4e 	bl	9584 <_localeconv_r>
    a0e8:	6807      	ldr	r7, [r0, #0]
    a0ea:	4648      	mov	r0, r9
    a0ec:	f7ff fa4a 	bl	9584 <_localeconv_r>
    a0f0:	6800      	ldr	r0, [r0, #0]
    a0f2:	f7fc fec0 	bl	6e76 <strlen>
    a0f6:	4639      	mov	r1, r7
    a0f8:	4602      	mov	r2, r0
    a0fa:	4630      	mov	r0, r6
    a0fc:	f7fc fec3 	bl	6e86 <strncmp>
    a100:	4606      	mov	r6, r0
    a102:	b128      	cbz	r0, a110 <_strtod_r+0x188>
    a104:	2300      	movs	r3, #0
    a106:	462a      	mov	r2, r5
    a108:	4619      	mov	r1, r3
    a10a:	4625      	mov	r5, r4
    a10c:	930a      	str	r3, [sp, #40]	; 0x28
    a10e:	e05f      	b.n	a1d0 <_strtod_r+0x248>
    a110:	4648      	mov	r0, r9
    a112:	9d19      	ldr	r5, [sp, #100]	; 0x64
    a114:	f7ff fa36 	bl	9584 <_localeconv_r>
    a118:	6800      	ldr	r0, [r0, #0]
    a11a:	f7fc feac 	bl	6e76 <strlen>
    a11e:	182b      	adds	r3, r5, r0
    a120:	9319      	str	r3, [sp, #100]	; 0x64
    a122:	5c2a      	ldrb	r2, [r5, r0]
    a124:	2c00      	cmp	r4, #0
    a126:	d145      	bne.n	a1b4 <_strtod_r+0x22c>
    a128:	4623      	mov	r3, r4
    a12a:	2a30      	cmp	r2, #48	; 0x30
    a12c:	d105      	bne.n	a13a <_strtod_r+0x1b2>
    a12e:	9a19      	ldr	r2, [sp, #100]	; 0x64
    a130:	3301      	adds	r3, #1
    a132:	1c51      	adds	r1, r2, #1
    a134:	9119      	str	r1, [sp, #100]	; 0x64
    a136:	7852      	ldrb	r2, [r2, #1]
    a138:	e7f7      	b.n	a12a <_strtod_r+0x1a2>
    a13a:	f1a2 0131 	sub.w	r1, r2, #49	; 0x31
    a13e:	2908      	cmp	r1, #8
    a140:	d842      	bhi.n	a1c8 <_strtod_r+0x240>
    a142:	9e19      	ldr	r6, [sp, #100]	; 0x64
    a144:	4619      	mov	r1, r3
    a146:	2300      	movs	r3, #0
    a148:	9607      	str	r6, [sp, #28]
    a14a:	461d      	mov	r5, r3
    a14c:	3a30      	subs	r2, #48	; 0x30
    a14e:	f103 0001 	add.w	r0, r3, #1
    a152:	d029      	beq.n	a1a8 <_strtod_r+0x220>
    a154:	4401      	add	r1, r0
    a156:	1c6e      	adds	r6, r5, #1
    a158:	1b77      	subs	r7, r6, r5
    a15a:	4287      	cmp	r7, r0
    a15c:	da10      	bge.n	a180 <_strtod_r+0x1f8>
    a15e:	1e77      	subs	r7, r6, #1
    a160:	2f08      	cmp	r7, #8
    a162:	dc06      	bgt.n	a172 <_strtod_r+0x1ea>
    a164:	9f03      	ldr	r7, [sp, #12]
    a166:	f04f 0c0a 	mov.w	r12, #10
    a16a:	fb0c f707 	mul.w	r7, r12, r7
    a16e:	9703      	str	r7, [sp, #12]
    a170:	e004      	b.n	a17c <_strtod_r+0x1f4>
    a172:	2e10      	cmp	r6, #16
    a174:	bfdc      	itt	le
    a176:	270a      	movle	r7, #10
    a178:	fb07 f808 	mulle.w	r8, r7, r8
    a17c:	3601      	adds	r6, #1
    a17e:	e7eb      	b.n	a158 <_strtod_r+0x1d0>
    a180:	2b00      	cmp	r3, #0
    a182:	bfac      	ite	ge
    a184:	18eb      	addge	r3, r5, r3
    a186:	1c2b      	addlt	r3, r5, #0
    a188:	2b08      	cmp	r3, #8
    a18a:	f103 0501 	add.w	r5, r3, #1
    a18e:	dc05      	bgt.n	a19c <_strtod_r+0x214>
    a190:	9e03      	ldr	r6, [sp, #12]
    a192:	230a      	movs	r3, #10
    a194:	fb03 2606 	mla	r6, r3, r6, r2
    a198:	9603      	str	r6, [sp, #12]
    a19a:	e004      	b.n	a1a6 <_strtod_r+0x21e>
    a19c:	2d10      	cmp	r5, #16
    a19e:	bfdc      	itt	le
    a1a0:	230a      	movle	r3, #10
    a1a2:	fb03 2808 	mlale	r8, r3, r8, r2
    a1a6:	2000      	movs	r0, #0
    a1a8:	9b19      	ldr	r3, [sp, #100]	; 0x64
    a1aa:	1c5a      	adds	r2, r3, #1
    a1ac:	9219      	str	r2, [sp, #100]	; 0x64
    a1ae:	785a      	ldrb	r2, [r3, #1]
    a1b0:	4603      	mov	r3, r0
    a1b2:	e002      	b.n	a1ba <_strtod_r+0x232>
    a1b4:	4625      	mov	r5, r4
    a1b6:	4633      	mov	r3, r6
    a1b8:	4631      	mov	r1, r6
    a1ba:	f1a2 0030 	sub.w	r0, r2, #48	; 0x30
    a1be:	2809      	cmp	r0, #9
    a1c0:	d9c4      	bls.n	a14c <_strtod_r+0x1c4>
    a1c2:	2701      	movs	r7, #1
    a1c4:	970a      	str	r7, [sp, #40]	; 0x28
    a1c6:	e003      	b.n	a1d0 <_strtod_r+0x248>
    a1c8:	2500      	movs	r5, #0
    a1ca:	2001      	movs	r0, #1
    a1cc:	4629      	mov	r1, r5
    a1ce:	900a      	str	r0, [sp, #40]	; 0x28
    a1d0:	f022 0620 	bic.w	r6, r2, #32
    a1d4:	2e45      	cmp	r6, #69	; 0x45
    a1d6:	d153      	bne.n	a280 <_strtod_r+0x2f8>
    a1d8:	b925      	cbnz	r5, a1e4 <_strtod_r+0x25c>
    a1da:	b91b      	cbnz	r3, a1e4 <_strtod_r+0x25c>
    a1dc:	9e05      	ldr	r6, [sp, #20]
    a1de:	2e00      	cmp	r6, #0
    a1e0:	f000 8099 	beq.w	a316 <_strtod_r+0x38e>
    a1e4:	9f19      	ldr	r7, [sp, #100]	; 0x64
    a1e6:	1c7a      	adds	r2, r7, #1
    a1e8:	9219      	str	r2, [sp, #100]	; 0x64
    a1ea:	787a      	ldrb	r2, [r7, #1]
    a1ec:	9704      	str	r7, [sp, #16]
    a1ee:	2a2b      	cmp	r2, #43	; 0x2b
    a1f0:	d004      	beq.n	a1fc <_strtod_r+0x274>
    a1f2:	2a2d      	cmp	r2, #45	; 0x2d
    a1f4:	d005      	beq.n	a202 <_strtod_r+0x27a>
    a1f6:	2600      	movs	r6, #0
    a1f8:	960f      	str	r6, [sp, #60]	; 0x3c
    a1fa:	e008      	b.n	a20e <_strtod_r+0x286>
    a1fc:	2000      	movs	r0, #0
    a1fe:	900f      	str	r0, [sp, #60]	; 0x3c
    a200:	e001      	b.n	a206 <_strtod_r+0x27e>
    a202:	2701      	movs	r7, #1
    a204:	970f      	str	r7, [sp, #60]	; 0x3c
    a206:	9e04      	ldr	r6, [sp, #16]
    a208:	1cb2      	adds	r2, r6, #2
    a20a:	9219      	str	r2, [sp, #100]	; 0x64
    a20c:	78b2      	ldrb	r2, [r6, #2]
    a20e:	f1a2 0730 	sub.w	r7, r2, #48	; 0x30
    a212:	2f09      	cmp	r7, #9
    a214:	d832      	bhi.n	a27c <_strtod_r+0x2f4>
    a216:	2a30      	cmp	r2, #48	; 0x30
    a218:	d104      	bne.n	a224 <_strtod_r+0x29c>
    a21a:	9a19      	ldr	r2, [sp, #100]	; 0x64
    a21c:	1c57      	adds	r7, r2, #1
    a21e:	9719      	str	r7, [sp, #100]	; 0x64
    a220:	7852      	ldrb	r2, [r2, #1]
    a222:	e7f8      	b.n	a216 <_strtod_r+0x28e>
    a224:	f1a2 0731 	sub.w	r7, r2, #49	; 0x31
    a228:	2f08      	cmp	r7, #8
    a22a:	d829      	bhi.n	a280 <_strtod_r+0x2f8>
    a22c:	9819      	ldr	r0, [sp, #100]	; 0x64
    a22e:	f1a2 0730 	sub.w	r7, r2, #48	; 0x30
    a232:	9006      	str	r0, [sp, #24]
    a234:	9a19      	ldr	r2, [sp, #100]	; 0x64
    a236:	1c56      	adds	r6, r2, #1
    a238:	9619      	str	r6, [sp, #100]	; 0x64
    a23a:	7852      	ldrb	r2, [r2, #1]
    a23c:	960e      	str	r6, [sp, #56]	; 0x38
    a23e:	f1a2 0630 	sub.w	r6, r2, #48	; 0x30
    a242:	2e09      	cmp	r6, #9
    a244:	d805      	bhi.n	a252 <_strtod_r+0x2ca>
    a246:	f04f 0c0a 	mov.w	r12, #10
    a24a:	fb0c 2707 	mla	r7, r12, r7, r2
    a24e:	3f30      	subs	r7, #48	; 0x30
    a250:	e7f0      	b.n	a234 <_strtod_r+0x2ac>
    a252:	980e      	ldr	r0, [sp, #56]	; 0x38
    a254:	9e06      	ldr	r6, [sp, #24]
    a256:	ebc6 0c00 	rsb	r12, r6, r0
    a25a:	f1bc 0f08 	cmp.w	r12, #8
    a25e:	f644 6c1f 	movw	r12, #19999	; 0x4e1f
    a262:	dc02      	bgt.n	a26a <_strtod_r+0x2e2>
    a264:	4567      	cmp	r7, r12
    a266:	bfb8      	it	lt
    a268:	46bc      	movlt	r12, r7
    a26a:	9f0f      	ldr	r7, [sp, #60]	; 0x3c
    a26c:	b157      	cbz	r7, a284 <_strtod_r+0x2fc>
    a26e:	f1cc 0c00 	rsb	r12, r12, #0
    a272:	e007      	b.n	a284 <_strtod_r+0x2fc>
    a274:	0000ca60 	.word	0x0000ca60
    a278:	7ff00000 	.word	0x7ff00000
    a27c:	9e04      	ldr	r6, [sp, #16]
    a27e:	9619      	str	r6, [sp, #100]	; 0x64
    a280:	f04f 0c00 	mov.w	r12, #0
    a284:	2d00      	cmp	r5, #0
    a286:	d14c      	bne.n	a322 <_strtod_r+0x39a>
    a288:	2b00      	cmp	r3, #0
    a28a:	f040 846f 	bne.w	ab6c <_strtod_r+0xbe4>
    a28e:	9f05      	ldr	r7, [sp, #20]
    a290:	2f00      	cmp	r7, #0
    a292:	f040 846b 	bne.w	ab6c <_strtod_r+0xbe4>
    a296:	980a      	ldr	r0, [sp, #40]	; 0x28
    a298:	2800      	cmp	r0, #0
    a29a:	d13c      	bne.n	a316 <_strtod_r+0x38e>
    a29c:	2a4e      	cmp	r2, #78	; 0x4e
    a29e:	d01b      	beq.n	a2d8 <_strtod_r+0x350>
    a2a0:	dc02      	bgt.n	a2a8 <_strtod_r+0x320>
    a2a2:	2a49      	cmp	r2, #73	; 0x49
    a2a4:	d005      	beq.n	a2b2 <_strtod_r+0x32a>
    a2a6:	e036      	b.n	a316 <_strtod_r+0x38e>
    a2a8:	2a69      	cmp	r2, #105	; 0x69
    a2aa:	d002      	beq.n	a2b2 <_strtod_r+0x32a>
    a2ac:	2a6e      	cmp	r2, #110	; 0x6e
    a2ae:	d013      	beq.n	a2d8 <_strtod_r+0x350>
    a2b0:	e031      	b.n	a316 <_strtod_r+0x38e>
    a2b2:	a819      	add	r0, sp, #100	; 0x64
    a2b4:	49ac      	ldr	r1, [pc, #688]	; (a568 <_strtod_r+0x5e0>)
    a2b6:	f7ff fe33 	bl	9f20 <match>
    a2ba:	b360      	cbz	r0, a316 <_strtod_r+0x38e>
    a2bc:	9b19      	ldr	r3, [sp, #100]	; 0x64
    a2be:	a819      	add	r0, sp, #100	; 0x64
    a2c0:	3b01      	subs	r3, #1
    a2c2:	49aa      	ldr	r1, [pc, #680]	; (a56c <_strtod_r+0x5e4>)
    a2c4:	9319      	str	r3, [sp, #100]	; 0x64
    a2c6:	f7ff fe2b 	bl	9f20 <match>
    a2ca:	b910      	cbnz	r0, a2d2 <_strtod_r+0x34a>
    a2cc:	9b19      	ldr	r3, [sp, #100]	; 0x64
    a2ce:	3301      	adds	r3, #1
    a2d0:	9319      	str	r3, [sp, #100]	; 0x64
    a2d2:	f8df b2b4 	ldr.w	r11, [pc, #692]	; a588 <_strtod_r+0x600>
    a2d6:	e01a      	b.n	a30e <_strtod_r+0x386>
    a2d8:	a819      	add	r0, sp, #100	; 0x64
    a2da:	49a5      	ldr	r1, [pc, #660]	; (a570 <_strtod_r+0x5e8>)
    a2dc:	f7ff fe20 	bl	9f20 <match>
    a2e0:	b1c8      	cbz	r0, a316 <_strtod_r+0x38e>
    a2e2:	9b19      	ldr	r3, [sp, #100]	; 0x64
    a2e4:	781b      	ldrb	r3, [r3, #0]
    a2e6:	2b28      	cmp	r3, #40	; 0x28
    a2e8:	d10f      	bne.n	a30a <_strtod_r+0x382>
    a2ea:	a819      	add	r0, sp, #100	; 0x64
    a2ec:	49a1      	ldr	r1, [pc, #644]	; (a574 <_strtod_r+0x5ec>)
    a2ee:	aa1c      	add	r2, sp, #112	; 0x70
    a2f0:	f000 ffec 	bl	b2cc <__hexnan>
    a2f4:	2805      	cmp	r0, #5
    a2f6:	d108      	bne.n	a30a <_strtod_r+0x382>
    a2f8:	9b1d      	ldr	r3, [sp, #116]	; 0x74
    a2fa:	f8dd a070 	ldr.w	r10, [sp, #112]	; 0x70
    a2fe:	f043 4bff 	orr.w	r11, r3, #2139095040	; 0x7f800000
    a302:	f44b 0be0 	orr.w	r11, r11, #7340032	; 0x700000
    a306:	f000 bc31 	b.w	ab6c <_strtod_r+0xbe4>
    a30a:	f8df b280 	ldr.w	r11, [pc, #640]	; a58c <_strtod_r+0x604>
    a30e:	f04f 0a00 	mov.w	r10, #0
    a312:	f000 bc2b 	b.w	ab6c <_strtod_r+0xbe4>
    a316:	9b04      	ldr	r3, [sp, #16]
    a318:	9319      	str	r3, [sp, #100]	; 0x64
    a31a:	2600      	movs	r6, #0
    a31c:	9609      	str	r6, [sp, #36]	; 0x24
    a31e:	f000 bc25 	b.w	ab6c <_strtod_r+0xbe4>
    a322:	ebc1 010c 	rsb	r1, r1, r12
    a326:	9803      	ldr	r0, [sp, #12]
    a328:	2d10      	cmp	r5, #16
    a32a:	bfb4      	ite	lt
    a32c:	46ac      	movlt	r12, r5
    a32e:	f04f 0c10 	movge.w	r12, #16
    a332:	f8cd c008 	str.w	r12, [sp, #8]
    a336:	9106      	str	r1, [sp, #24]
    a338:	f7fb f822 	bl	5380 <__aeabi_ui2d>
    a33c:	f8dd c008 	ldr.w	r12, [sp, #8]
    a340:	2c00      	cmp	r4, #0
    a342:	bf08      	it	eq
    a344:	462c      	moveq	r4, r5
    a346:	f1bc 0f09 	cmp.w	r12, #9
    a34a:	4682      	mov	r10, r0
    a34c:	468b      	mov	r11, r1
    a34e:	dd15      	ble.n	a37c <_strtod_r+0x3f4>
    a350:	4b89      	ldr	r3, [pc, #548]	; (a578 <_strtod_r+0x5f0>)
    a352:	eb03 03cc 	add.w	r3, r3, r12, lsl #3
    a356:	e953 2312 	ldrd	r2, r3, [r3, #-72]	; 0x48
    a35a:	f7fb f887 	bl	546c <__aeabi_dmul>
    a35e:	4606      	mov	r6, r0
    a360:	4640      	mov	r0, r8
    a362:	460f      	mov	r7, r1
    a364:	f7fb f80c 	bl	5380 <__aeabi_ui2d>
    a368:	4602      	mov	r2, r0
    a36a:	460b      	mov	r3, r1
    a36c:	4630      	mov	r0, r6
    a36e:	4639      	mov	r1, r7
    a370:	f7fa feca 	bl	5108 <__adddf3>
    a374:	f8dd c008 	ldr.w	r12, [sp, #8]
    a378:	4682      	mov	r10, r0
    a37a:	468b      	mov	r11, r1
    a37c:	2d0f      	cmp	r5, #15
    a37e:	dc37      	bgt.n	a3f0 <_strtod_r+0x468>
    a380:	9f06      	ldr	r7, [sp, #24]
    a382:	2f00      	cmp	r7, #0
    a384:	f000 83f2 	beq.w	ab6c <_strtod_r+0xbe4>
    a388:	dd23      	ble.n	a3d2 <_strtod_r+0x44a>
    a38a:	2f16      	cmp	r7, #22
    a38c:	dc07      	bgt.n	a39e <_strtod_r+0x416>
    a38e:	497a      	ldr	r1, [pc, #488]	; (a578 <_strtod_r+0x5f0>)
    a390:	4652      	mov	r2, r10
    a392:	eb01 01c7 	add.w	r1, r1, r7, lsl #3
    a396:	e9d1 0100 	ldrd	r0, r1, [r1]
    a39a:	465b      	mov	r3, r11
    a39c:	e014      	b.n	a3c8 <_strtod_r+0x440>
    a39e:	9e06      	ldr	r6, [sp, #24]
    a3a0:	f1c5 0325 	rsb	r3, r5, #37	; 0x25
    a3a4:	429e      	cmp	r6, r3
    a3a6:	dc23      	bgt.n	a3f0 <_strtod_r+0x468>
    a3a8:	4c73      	ldr	r4, [pc, #460]	; (a578 <_strtod_r+0x5f0>)
    a3aa:	f1c5 050f 	rsb	r5, r5, #15
    a3ae:	eb04 03c5 	add.w	r3, r4, r5, lsl #3
    a3b2:	1b75      	subs	r5, r6, r5
    a3b4:	e9d3 0100 	ldrd	r0, r1, [r3]
    a3b8:	4652      	mov	r2, r10
    a3ba:	465b      	mov	r3, r11
    a3bc:	eb04 04c5 	add.w	r4, r4, r5, lsl #3
    a3c0:	f7fb f854 	bl	546c <__aeabi_dmul>
    a3c4:	e9d4 2300 	ldrd	r2, r3, [r4]
    a3c8:	f7fb f850 	bl	546c <__aeabi_dmul>
    a3cc:	4682      	mov	r10, r0
    a3ce:	468b      	mov	r11, r1
    a3d0:	e3cc      	b.n	ab6c <_strtod_r+0xbe4>
    a3d2:	9f06      	ldr	r7, [sp, #24]
    a3d4:	3716      	adds	r7, #22
    a3d6:	db0b      	blt.n	a3f0 <_strtod_r+0x468>
    a3d8:	f8dd c018 	ldr.w	r12, [sp, #24]
    a3dc:	4f66      	ldr	r7, [pc, #408]	; (a578 <_strtod_r+0x5f0>)
    a3de:	4650      	mov	r0, r10
    a3e0:	eba7 07cc 	sub.w	r7, r7, r12, lsl #3
    a3e4:	4659      	mov	r1, r11
    a3e6:	e9d7 2300 	ldrd	r2, r3, [r7]
    a3ea:	f7fb f969 	bl	56c0 <__aeabi_ddiv>
    a3ee:	e7ed      	b.n	a3cc <_strtod_r+0x444>
    a3f0:	9e06      	ldr	r6, [sp, #24]
    a3f2:	ebcc 0805 	rsb	r8, r12, r5
    a3f6:	44b0      	add	r8, r6
    a3f8:	f1b8 0f00 	cmp.w	r8, #0
    a3fc:	dd61      	ble.n	a4c2 <_strtod_r+0x53a>
    a3fe:	f018 030f 	ands.w	r3, r8, #15
    a402:	d00a      	beq.n	a41a <_strtod_r+0x492>
    a404:	4a5c      	ldr	r2, [pc, #368]	; (a578 <_strtod_r+0x5f0>)
    a406:	eb02 03c3 	add.w	r3, r2, r3, lsl #3
    a40a:	e9d3 0100 	ldrd	r0, r1, [r3]
    a40e:	4652      	mov	r2, r10
    a410:	465b      	mov	r3, r11
    a412:	f7fb f82b 	bl	546c <__aeabi_dmul>
    a416:	4682      	mov	r10, r0
    a418:	468b      	mov	r11, r1
    a41a:	f038 080f 	bics.w	r8, r8, #15
    a41e:	f000 80c8 	beq.w	a5b2 <_strtod_r+0x62a>
    a422:	f5b8 7f9a 	cmp.w	r8, #308	; 0x134
    a426:	dd13      	ble.n	a450 <_strtod_r+0x4c8>
    a428:	f04f 0800 	mov.w	r8, #0
    a42c:	f8cd 800c 	str.w	r8, [sp, #12]
    a430:	f8cd 801c 	str.w	r8, [sp, #28]
    a434:	f8cd 8014 	str.w	r8, [sp, #20]
    a438:	9f07      	ldr	r7, [sp, #28]
    a43a:	2322      	movs	r3, #34	; 0x22
    a43c:	f8c9 3000 	str.w	r3, [r9]
    a440:	f8df b144 	ldr.w	r11, [pc, #324]	; a588 <_strtod_r+0x600>
    a444:	f04f 0a00 	mov.w	r10, #0
    a448:	2f00      	cmp	r7, #0
    a44a:	f040 837b 	bne.w	ab44 <_strtod_r+0xbbc>
    a44e:	e38d      	b.n	ab6c <_strtod_r+0xbe4>
    a450:	ea4f 1828 	mov.w	r8, r8, asr #4
    a454:	4650      	mov	r0, r10
    a456:	4659      	mov	r1, r11
    a458:	2600      	movs	r6, #0
    a45a:	f1b8 0f01 	cmp.w	r8, #1
    a45e:	dd0d      	ble.n	a47c <_strtod_r+0x4f4>
    a460:	f018 0f01 	tst.w	r8, #1
    a464:	d006      	beq.n	a474 <_strtod_r+0x4ec>
    a466:	4b45      	ldr	r3, [pc, #276]	; (a57c <_strtod_r+0x5f4>)
    a468:	eb03 03c6 	add.w	r3, r3, r6, lsl #3
    a46c:	e9d3 2300 	ldrd	r2, r3, [r3]
    a470:	f7fa fffc 	bl	546c <__aeabi_dmul>
    a474:	3601      	adds	r6, #1
    a476:	ea4f 0868 	mov.w	r8, r8, asr #1
    a47a:	e7ee      	b.n	a45a <_strtod_r+0x4d2>
    a47c:	4b3f      	ldr	r3, [pc, #252]	; (a57c <_strtod_r+0x5f4>)
    a47e:	4682      	mov	r10, r0
    a480:	f1a1 7b54 	sub.w	r11, r1, #55574528	; 0x3500000
    a484:	eb03 06c6 	add.w	r6, r3, r6, lsl #3
    a488:	4652      	mov	r2, r10
    a48a:	465b      	mov	r3, r11
    a48c:	e9d6 0100 	ldrd	r0, r1, [r6]
    a490:	f7fa ffec 	bl	546c <__aeabi_dmul>
    a494:	f021 4300 	bic.w	r3, r1, #2147483648	; 0x80000000
    a498:	468b      	mov	r11, r1
    a49a:	0d1b      	lsrs	r3, r3, #20
    a49c:	4938      	ldr	r1, [pc, #224]	; (a580 <_strtod_r+0x5f8>)
    a49e:	051b      	lsls	r3, r3, #20
    a4a0:	428b      	cmp	r3, r1
    a4a2:	4682      	mov	r10, r0
    a4a4:	d8c0      	bhi.n	a428 <_strtod_r+0x4a0>
    a4a6:	f5a1 1180 	sub.w	r1, r1, #1048576	; 0x100000
    a4aa:	428b      	cmp	r3, r1
    a4ac:	d906      	bls.n	a4bc <_strtod_r+0x534>
    a4ae:	2600      	movs	r6, #0
    a4b0:	f8df b0dc 	ldr.w	r11, [pc, #220]	; a590 <_strtod_r+0x608>
    a4b4:	f04f 3aff 	mov.w	r10, #4294967295	; 0xffffffff
    a4b8:	9604      	str	r6, [sp, #16]
    a4ba:	e07c      	b.n	a5b6 <_strtod_r+0x62e>
    a4bc:	f10b 7b54 	add.w	r11, r11, #55574528	; 0x3500000
    a4c0:	e077      	b.n	a5b2 <_strtod_r+0x62a>
    a4c2:	d076      	beq.n	a5b2 <_strtod_r+0x62a>
    a4c4:	f1c8 0800 	rsb	r8, r8, #0
    a4c8:	f018 030f 	ands.w	r3, r8, #15
    a4cc:	d00a      	beq.n	a4e4 <_strtod_r+0x55c>
    a4ce:	4a2a      	ldr	r2, [pc, #168]	; (a578 <_strtod_r+0x5f0>)
    a4d0:	4650      	mov	r0, r10
    a4d2:	eb02 03c3 	add.w	r3, r2, r3, lsl #3
    a4d6:	4659      	mov	r1, r11
    a4d8:	e9d3 2300 	ldrd	r2, r3, [r3]
    a4dc:	f7fb f8f0 	bl	56c0 <__aeabi_ddiv>
    a4e0:	4682      	mov	r10, r0
    a4e2:	468b      	mov	r11, r1
    a4e4:	ea5f 1828 	movs.w	r8, r8, asr #4
    a4e8:	d063      	beq.n	a5b2 <_strtod_r+0x62a>
    a4ea:	f1b8 0f1f 	cmp.w	r8, #31
    a4ee:	dd08      	ble.n	a502 <_strtod_r+0x57a>
    a4f0:	f04f 0800 	mov.w	r8, #0
    a4f4:	f8cd 800c 	str.w	r8, [sp, #12]
    a4f8:	f8cd 801c 	str.w	r8, [sp, #28]
    a4fc:	f8cd 8014 	str.w	r8, [sp, #20]
    a500:	e11e      	b.n	a740 <_strtod_r+0x7b8>
    a502:	f018 0f10 	tst.w	r8, #16
    a506:	bf14      	ite	ne
    a508:	266a      	movne	r6, #106	; 0x6a
    a50a:	2600      	moveq	r6, #0
    a50c:	9604      	str	r6, [sp, #16]
    a50e:	4e1d      	ldr	r6, [pc, #116]	; (a584 <_strtod_r+0x5fc>)
    a510:	4650      	mov	r0, r10
    a512:	4659      	mov	r1, r11
    a514:	f1b8 0f00 	cmp.w	r8, #0
    a518:	dd0a      	ble.n	a530 <_strtod_r+0x5a8>
    a51a:	f018 0f01 	tst.w	r8, #1
    a51e:	d003      	beq.n	a528 <_strtod_r+0x5a0>
    a520:	e9d6 2300 	ldrd	r2, r3, [r6]
    a524:	f7fa ffa2 	bl	546c <__aeabi_dmul>
    a528:	ea4f 0868 	mov.w	r8, r8, asr #1
    a52c:	3608      	adds	r6, #8
    a52e:	e7f1      	b.n	a514 <_strtod_r+0x58c>
    a530:	9f04      	ldr	r7, [sp, #16]
    a532:	4682      	mov	r10, r0
    a534:	468b      	mov	r11, r1
    a536:	b39f      	cbz	r7, a5a0 <_strtod_r+0x618>
    a538:	f3c1 530a 	ubfx	r3, r1, #20, #11
    a53c:	f1c3 036b 	rsb	r3, r3, #107	; 0x6b
    a540:	2b00      	cmp	r3, #0
    a542:	dd2d      	ble.n	a5a0 <_strtod_r+0x618>
    a544:	2b1f      	cmp	r3, #31
    a546:	dd25      	ble.n	a594 <_strtod_r+0x60c>
    a548:	2b34      	cmp	r3, #52	; 0x34
    a54a:	f04f 0a00 	mov.w	r10, #0
    a54e:	dd02      	ble.n	a556 <_strtod_r+0x5ce>
    a550:	f04f 7b5c 	mov.w	r11, #57671680	; 0x3700000
    a554:	e024      	b.n	a5a0 <_strtod_r+0x618>
    a556:	3b20      	subs	r3, #32
    a558:	f04f 31ff 	mov.w	r1, #4294967295	; 0xffffffff
    a55c:	fa01 f303 	lsl.w	r3, r1, r3
    a560:	ea03 0b0b 	and.w	r11, r3, r11
    a564:	e01c      	b.n	a5a0 <_strtod_r+0x618>
    a566:	bf00      	nop
    a568:	0000c7c6 	.word	0x0000c7c6
    a56c:	0000c923 	.word	0x0000c923
    a570:	0000c7ce 	.word	0x0000c7ce
    a574:	0000ca74 	.word	0x0000ca74
    a578:	0000c938 	.word	0x0000c938
    a57c:	0000ca00 	.word	0x0000ca00
    a580:	7ca00000 	.word	0x7ca00000
    a584:	0000ca38 	.word	0x0000ca38
    a588:	7ff00000 	.word	0x7ff00000
    a58c:	fff80000 	.word	0xfff80000
    a590:	7fefffff 	.word	0x7fefffff
    a594:	f04f 32ff 	mov.w	r2, #4294967295	; 0xffffffff
    a598:	fa02 f303 	lsl.w	r3, r2, r3
    a59c:	ea03 0a00 	and.w	r10, r3, r0
    a5a0:	4650      	mov	r0, r10
    a5a2:	4659      	mov	r1, r11
    a5a4:	2200      	movs	r2, #0
    a5a6:	2300      	movs	r3, #0
    a5a8:	f7fb f9c8 	bl	593c <__aeabi_dcmpeq>
    a5ac:	2800      	cmp	r0, #0
    a5ae:	d19f      	bne.n	a4f0 <_strtod_r+0x568>
    a5b0:	e001      	b.n	a5b6 <_strtod_r+0x62e>
    a5b2:	2700      	movs	r7, #0
    a5b4:	9704      	str	r7, [sp, #16]
    a5b6:	9e03      	ldr	r6, [sp, #12]
    a5b8:	4648      	mov	r0, r9
    a5ba:	9600      	str	r6, [sp, #0]
    a5bc:	9907      	ldr	r1, [sp, #28]
    a5be:	4622      	mov	r2, r4
    a5c0:	462b      	mov	r3, r5
    a5c2:	f7ff f896 	bl	96f2 <__s2b>
    a5c6:	9007      	str	r0, [sp, #28]
    a5c8:	2800      	cmp	r0, #0
    a5ca:	f43f af2d 	beq.w	a428 <_strtod_r+0x4a0>
    a5ce:	9f06      	ldr	r7, [sp, #24]
    a5d0:	f04f 0800 	mov.w	r8, #0
    a5d4:	427b      	negs	r3, r7
    a5d6:	2f00      	cmp	r7, #0
    a5d8:	bfa8      	it	ge
    a5da:	2300      	movge	r3, #0
    a5dc:	930e      	str	r3, [sp, #56]	; 0x38
    a5de:	f8cd 800c 	str.w	r8, [sp, #12]
    a5e2:	9e07      	ldr	r6, [sp, #28]
    a5e4:	4648      	mov	r0, r9
    a5e6:	6871      	ldr	r1, [r6, #4]
    a5e8:	f7fe fffd 	bl	95e6 <_Balloc>
    a5ec:	9005      	str	r0, [sp, #20]
    a5ee:	2800      	cmp	r0, #0
    a5f0:	f43f af22 	beq.w	a438 <_strtod_r+0x4b0>
    a5f4:	6932      	ldr	r2, [r6, #16]
    a5f6:	f106 010c 	add.w	r1, r6, #12
    a5fa:	3202      	adds	r2, #2
    a5fc:	0092      	lsls	r2, r2, #2
    a5fe:	300c      	adds	r0, #12
    a600:	f7fc f948 	bl	6894 <memcpy>
    a604:	ab1b      	add	r3, sp, #108	; 0x6c
    a606:	9300      	str	r3, [sp, #0]
    a608:	ab1c      	add	r3, sp, #112	; 0x70
    a60a:	9301      	str	r3, [sp, #4]
    a60c:	4648      	mov	r0, r9
    a60e:	4652      	mov	r2, r10
    a610:	465b      	mov	r3, r11
    a612:	e9cd ab0a 	strd	r10, r11, [sp, #40]	; 0x28
    a616:	f7ff fb30 	bl	9c7a <__d2b>
    a61a:	901a      	str	r0, [sp, #104]	; 0x68
    a61c:	2800      	cmp	r0, #0
    a61e:	f43f af0b 	beq.w	a438 <_strtod_r+0x4b0>
    a622:	4648      	mov	r0, r9
    a624:	2101      	movs	r1, #1
    a626:	f7ff f8f3 	bl	9810 <__i2b>
    a62a:	9003      	str	r0, [sp, #12]
    a62c:	2800      	cmp	r0, #0
    a62e:	f43f af03 	beq.w	a438 <_strtod_r+0x4b0>
    a632:	9b1b      	ldr	r3, [sp, #108]	; 0x6c
    a634:	f8dd c018 	ldr.w	r12, [sp, #24]
    a638:	2b00      	cmp	r3, #0
    a63a:	ea2c 77ec 	bic.w	r7, r12, r12, asr #31
    a63e:	f2c0 808b 	blt.w	a758 <_strtod_r+0x7d0>
    a642:	9c0e      	ldr	r4, [sp, #56]	; 0x38
    a644:	463a      	mov	r2, r7
    a646:	441c      	add	r4, r3
    a648:	9e04      	ldr	r6, [sp, #16]
    a64a:	9d1c      	ldr	r5, [sp, #112]	; 0x70
    a64c:	1b9b      	subs	r3, r3, r6
    a64e:	1959      	adds	r1, r3, r5
    a650:	f46f 737f 	mvn.w	r3, #1020	; 0x3fc
    a654:	4299      	cmp	r1, r3
    a656:	f1c5 0536 	rsb	r5, r5, #54	; 0x36
    a65a:	f280 8087 	bge.w	a76c <_strtod_r+0x7e4>
    a65e:	1a5b      	subs	r3, r3, r1
    a660:	2b1f      	cmp	r3, #31
    a662:	ebc3 0505 	rsb	r5, r3, r5
    a666:	f04f 0001 	mov.w	r0, #1
    a66a:	dc78      	bgt.n	a75e <_strtod_r+0x7d6>
    a66c:	4098      	lsls	r0, r3
    a66e:	2300      	movs	r3, #0
    a670:	9014      	str	r0, [sp, #80]	; 0x50
    a672:	930f      	str	r3, [sp, #60]	; 0x3c
    a674:	9804      	ldr	r0, [sp, #16]
    a676:	1966      	adds	r6, r4, r5
    a678:	4415      	add	r5, r2
    a67a:	42a6      	cmp	r6, r4
    a67c:	bfb4      	ite	lt
    a67e:	4633      	movlt	r3, r6
    a680:	4623      	movge	r3, r4
    a682:	4405      	add	r5, r0
    a684:	42ab      	cmp	r3, r5
    a686:	bfa8      	it	ge
    a688:	462b      	movge	r3, r5
    a68a:	2b00      	cmp	r3, #0
    a68c:	dd02      	ble.n	a694 <_strtod_r+0x70c>
    a68e:	1af6      	subs	r6, r6, r3
    a690:	1aed      	subs	r5, r5, r3
    a692:	1ae4      	subs	r4, r4, r3
    a694:	990e      	ldr	r1, [sp, #56]	; 0x38
    a696:	2900      	cmp	r1, #0
    a698:	d16f      	bne.n	a77a <_strtod_r+0x7f2>
    a69a:	2e00      	cmp	r6, #0
    a69c:	f300 8087 	bgt.w	a7ae <_strtod_r+0x826>
    a6a0:	2f00      	cmp	r7, #0
    a6a2:	f040 808e 	bne.w	a7c2 <_strtod_r+0x83a>
    a6a6:	2d00      	cmp	r5, #0
    a6a8:	f300 8095 	bgt.w	a7d6 <_strtod_r+0x84e>
    a6ac:	2c00      	cmp	r4, #0
    a6ae:	f300 809c 	bgt.w	a7ea <_strtod_r+0x862>
    a6b2:	4648      	mov	r0, r9
    a6b4:	991a      	ldr	r1, [sp, #104]	; 0x68
    a6b6:	9a05      	ldr	r2, [sp, #20]
    a6b8:	f7ff fa0a 	bl	9ad0 <__mdiff>
    a6bc:	4680      	mov	r8, r0
    a6be:	2800      	cmp	r0, #0
    a6c0:	f43f aeba 	beq.w	a438 <_strtod_r+0x4b0>
    a6c4:	68c6      	ldr	r6, [r0, #12]
    a6c6:	2300      	movs	r3, #0
    a6c8:	60c3      	str	r3, [r0, #12]
    a6ca:	9903      	ldr	r1, [sp, #12]
    a6cc:	9608      	str	r6, [sp, #32]
    a6ce:	f7ff f9e2 	bl	9a96 <__mcmp>
    a6d2:	2800      	cmp	r0, #0
    a6d4:	f280 8098 	bge.w	a808 <_strtod_r+0x880>
    a6d8:	2e00      	cmp	r6, #0
    a6da:	f040 8220 	bne.w	ab1e <_strtod_r+0xb96>
    a6de:	f1ba 0f00 	cmp.w	r10, #0
    a6e2:	f040 821c 	bne.w	ab1e <_strtod_r+0xb96>
    a6e6:	f3cb 0313 	ubfx	r3, r11, #0, #20
    a6ea:	2b00      	cmp	r3, #0
    a6ec:	f040 8217 	bne.w	ab1e <_strtod_r+0xb96>
    a6f0:	f02b 4300 	bic.w	r3, r11, #2147483648	; 0x80000000
    a6f4:	0d1b      	lsrs	r3, r3, #20
    a6f6:	051b      	lsls	r3, r3, #20
    a6f8:	f1b3 6fd6 	cmp.w	r3, #112197632	; 0x6b00000
    a6fc:	f240 820f 	bls.w	ab1e <_strtod_r+0xb96>
    a700:	f8d8 3014 	ldr.w	r3, [r8, #20]
    a704:	2b00      	cmp	r3, #0
    a706:	d07a      	beq.n	a7fe <_strtod_r+0x876>
    a708:	4641      	mov	r1, r8
    a70a:	2201      	movs	r2, #1
    a70c:	4648      	mov	r0, r9
    a70e:	f7ff f96f 	bl	99f0 <__lshift>
    a712:	9903      	ldr	r1, [sp, #12]
    a714:	4680      	mov	r8, r0
    a716:	f7ff f9be 	bl	9a96 <__mcmp>
    a71a:	2800      	cmp	r0, #0
    a71c:	f340 81ff 	ble.w	ab1e <_strtod_r+0xb96>
    a720:	f02b 4300 	bic.w	r3, r11, #2147483648	; 0x80000000
    a724:	9f04      	ldr	r7, [sp, #16]
    a726:	0d1b      	lsrs	r3, r3, #20
    a728:	051b      	lsls	r3, r3, #20
    a72a:	2f00      	cmp	r7, #0
    a72c:	f000 809c 	beq.w	a868 <_strtod_r+0x8e0>
    a730:	f1b3 6fd6 	cmp.w	r3, #112197632	; 0x6b00000
    a734:	f200 8098 	bhi.w	a868 <_strtod_r+0x8e0>
    a738:	f1b3 7f5c 	cmp.w	r3, #57671680	; 0x3700000
    a73c:	f200 81f1 	bhi.w	ab22 <_strtod_r+0xb9a>
    a740:	9e07      	ldr	r6, [sp, #28]
    a742:	2322      	movs	r3, #34	; 0x22
    a744:	f04f 0a00 	mov.w	r10, #0
    a748:	f04f 0b00 	mov.w	r11, #0
    a74c:	f8c9 3000 	str.w	r3, [r9]
    a750:	2e00      	cmp	r6, #0
    a752:	f040 81f7 	bne.w	ab44 <_strtod_r+0xbbc>
    a756:	e209      	b.n	ab6c <_strtod_r+0xbe4>
    a758:	1afa      	subs	r2, r7, r3
    a75a:	9c0e      	ldr	r4, [sp, #56]	; 0x38
    a75c:	e774      	b.n	a648 <_strtod_r+0x6c0>
    a75e:	4e84      	ldr	r6, [pc, #528]	; (a970 <_strtod_r+0x9e8>)
    a760:	9014      	str	r0, [sp, #80]	; 0x50
    a762:	1a76      	subs	r6, r6, r1
    a764:	fa00 f606 	lsl.w	r6, r0, r6
    a768:	960f      	str	r6, [sp, #60]	; 0x3c
    a76a:	e783      	b.n	a674 <_strtod_r+0x6ec>
    a76c:	2600      	movs	r6, #0
    a76e:	f04f 0c01 	mov.w	r12, #1
    a772:	960f      	str	r6, [sp, #60]	; 0x3c
    a774:	f8cd c050 	str.w	r12, [sp, #80]	; 0x50
    a778:	e77c      	b.n	a674 <_strtod_r+0x6ec>
    a77a:	4648      	mov	r0, r9
    a77c:	9903      	ldr	r1, [sp, #12]
    a77e:	9a0e      	ldr	r2, [sp, #56]	; 0x38
    a780:	f7ff f8e8 	bl	9954 <__pow5mult>
    a784:	9003      	str	r0, [sp, #12]
    a786:	2800      	cmp	r0, #0
    a788:	f43f ae56 	beq.w	a438 <_strtod_r+0x4b0>
    a78c:	4648      	mov	r0, r9
    a78e:	9903      	ldr	r1, [sp, #12]
    a790:	9a1a      	ldr	r2, [sp, #104]	; 0x68
    a792:	f7ff f846 	bl	9822 <__multiply>
    a796:	4603      	mov	r3, r0
    a798:	2800      	cmp	r0, #0
    a79a:	f43f ae4d 	beq.w	a438 <_strtod_r+0x4b0>
    a79e:	4648      	mov	r0, r9
    a7a0:	991a      	ldr	r1, [sp, #104]	; 0x68
    a7a2:	9302      	str	r3, [sp, #8]
    a7a4:	f7fe ff54 	bl	9650 <_Bfree>
    a7a8:	9b02      	ldr	r3, [sp, #8]
    a7aa:	931a      	str	r3, [sp, #104]	; 0x68
    a7ac:	e775      	b.n	a69a <_strtod_r+0x712>
    a7ae:	4648      	mov	r0, r9
    a7b0:	991a      	ldr	r1, [sp, #104]	; 0x68
    a7b2:	4632      	mov	r2, r6
    a7b4:	f7ff f91c 	bl	99f0 <__lshift>
    a7b8:	901a      	str	r0, [sp, #104]	; 0x68
    a7ba:	2800      	cmp	r0, #0
    a7bc:	f47f af70 	bne.w	a6a0 <_strtod_r+0x718>
    a7c0:	e63a      	b.n	a438 <_strtod_r+0x4b0>
    a7c2:	4648      	mov	r0, r9
    a7c4:	9905      	ldr	r1, [sp, #20]
    a7c6:	463a      	mov	r2, r7
    a7c8:	f7ff f8c4 	bl	9954 <__pow5mult>
    a7cc:	9005      	str	r0, [sp, #20]
    a7ce:	2800      	cmp	r0, #0
    a7d0:	f47f af69 	bne.w	a6a6 <_strtod_r+0x71e>
    a7d4:	e630      	b.n	a438 <_strtod_r+0x4b0>
    a7d6:	4648      	mov	r0, r9
    a7d8:	9905      	ldr	r1, [sp, #20]
    a7da:	462a      	mov	r2, r5
    a7dc:	f7ff f908 	bl	99f0 <__lshift>
    a7e0:	9005      	str	r0, [sp, #20]
    a7e2:	2800      	cmp	r0, #0
    a7e4:	f47f af62 	bne.w	a6ac <_strtod_r+0x724>
    a7e8:	e626      	b.n	a438 <_strtod_r+0x4b0>
    a7ea:	4648      	mov	r0, r9
    a7ec:	9903      	ldr	r1, [sp, #12]
    a7ee:	4622      	mov	r2, r4
    a7f0:	f7ff f8fe 	bl	99f0 <__lshift>
    a7f4:	9003      	str	r0, [sp, #12]
    a7f6:	2800      	cmp	r0, #0
    a7f8:	f47f af5b 	bne.w	a6b2 <_strtod_r+0x72a>
    a7fc:	e61c      	b.n	a438 <_strtod_r+0x4b0>
    a7fe:	f8d8 3010 	ldr.w	r3, [r8, #16]
    a802:	2b01      	cmp	r3, #1
    a804:	dc80      	bgt.n	a708 <_strtod_r+0x780>
    a806:	e18a      	b.n	ab1e <_strtod_r+0xb96>
    a808:	d163      	bne.n	a8d2 <_strtod_r+0x94a>
    a80a:	9f08      	ldr	r7, [sp, #32]
    a80c:	f3cb 0313 	ubfx	r3, r11, #0, #20
    a810:	b32f      	cbz	r7, a85e <_strtod_r+0x8d6>
    a812:	4958      	ldr	r1, [pc, #352]	; (a974 <_strtod_r+0x9ec>)
    a814:	465a      	mov	r2, r11
    a816:	428b      	cmp	r3, r1
    a818:	d12f      	bne.n	a87a <_strtod_r+0x8f2>
    a81a:	9e04      	ldr	r6, [sp, #16]
    a81c:	4651      	mov	r1, r10
    a81e:	b16e      	cbz	r6, a83c <_strtod_r+0x8b4>
    a820:	4b55      	ldr	r3, [pc, #340]	; (a978 <_strtod_r+0x9f0>)
    a822:	ea0b 0303 	and.w	r3, r11, r3
    a826:	f1b3 6fd4 	cmp.w	r3, #111149056	; 0x6a00000
    a82a:	d807      	bhi.n	a83c <_strtod_r+0x8b4>
    a82c:	0d1b      	lsrs	r3, r3, #20
    a82e:	f1c3 036b 	rsb	r3, r3, #107	; 0x6b
    a832:	f04f 30ff 	mov.w	r0, #4294967295	; 0xffffffff
    a836:	fa00 f303 	lsl.w	r3, r0, r3
    a83a:	e001      	b.n	a840 <_strtod_r+0x8b8>
    a83c:	f04f 33ff 	mov.w	r3, #4294967295	; 0xffffffff
    a840:	4299      	cmp	r1, r3
    a842:	d11a      	bne.n	a87a <_strtod_r+0x8f2>
    a844:	4b4d      	ldr	r3, [pc, #308]	; (a97c <_strtod_r+0x9f4>)
    a846:	429a      	cmp	r2, r3
    a848:	d102      	bne.n	a850 <_strtod_r+0x8c8>
    a84a:	3101      	adds	r1, #1
    a84c:	f43f adf4 	beq.w	a438 <_strtod_r+0x4b0>
    a850:	4b49      	ldr	r3, [pc, #292]	; (a978 <_strtod_r+0x9f0>)
    a852:	f04f 0a00 	mov.w	r10, #0
    a856:	4013      	ands	r3, r2
    a858:	f503 1b80 	add.w	r11, r3, #1048576	; 0x100000
    a85c:	e15f      	b.n	ab1e <_strtod_r+0xb96>
    a85e:	b963      	cbnz	r3, a87a <_strtod_r+0x8f2>
    a860:	f1ba 0f00 	cmp.w	r10, #0
    a864:	d109      	bne.n	a87a <_strtod_r+0x8f2>
    a866:	e75b      	b.n	a720 <_strtod_r+0x798>
    a868:	f5a3 1380 	sub.w	r3, r3, #1048576	; 0x100000
    a86c:	ea6f 5b13 	mvn.w	r11, r3, lsr #20
    a870:	ea6f 5b0b 	mvn.w	r11, r11, lsl #20
    a874:	f04f 3aff 	mov.w	r10, #4294967295	; 0xffffffff
    a878:	e151      	b.n	ab1e <_strtod_r+0xb96>
    a87a:	9b0f      	ldr	r3, [sp, #60]	; 0x3c
    a87c:	b113      	cbz	r3, a884 <_strtod_r+0x8fc>
    a87e:	ea13 0f0b 	tst.w	r3, r11
    a882:	e002      	b.n	a88a <_strtod_r+0x902>
    a884:	9e14      	ldr	r6, [sp, #80]	; 0x50
    a886:	ea16 0f0a 	tst.w	r6, r10
    a88a:	f000 8148 	beq.w	ab1e <_strtod_r+0xb96>
    a88e:	9f08      	ldr	r7, [sp, #32]
    a890:	4650      	mov	r0, r10
    a892:	4659      	mov	r1, r11
    a894:	9a04      	ldr	r2, [sp, #16]
    a896:	b157      	cbz	r7, a8ae <_strtod_r+0x926>
    a898:	f7ff fb56 	bl	9f48 <sulp>
    a89c:	4602      	mov	r2, r0
    a89e:	460b      	mov	r3, r1
    a8a0:	e9dd 010a 	ldrd	r0, r1, [sp, #40]	; 0x28
    a8a4:	f7fa fc30 	bl	5108 <__adddf3>
    a8a8:	4682      	mov	r10, r0
    a8aa:	468b      	mov	r11, r1
    a8ac:	e137      	b.n	ab1e <_strtod_r+0xb96>
    a8ae:	f7ff fb4b 	bl	9f48 <sulp>
    a8b2:	4602      	mov	r2, r0
    a8b4:	460b      	mov	r3, r1
    a8b6:	e9dd 010a 	ldrd	r0, r1, [sp, #40]	; 0x28
    a8ba:	f7fa fc23 	bl	5104 <__aeabi_dsub>
    a8be:	2200      	movs	r2, #0
    a8c0:	2300      	movs	r3, #0
    a8c2:	4682      	mov	r10, r0
    a8c4:	468b      	mov	r11, r1
    a8c6:	f7fb f839 	bl	593c <__aeabi_dcmpeq>
    a8ca:	2800      	cmp	r0, #0
    a8cc:	f47f af38 	bne.w	a740 <_strtod_r+0x7b8>
    a8d0:	e125      	b.n	ab1e <_strtod_r+0xb96>
    a8d2:	4640      	mov	r0, r8
    a8d4:	9903      	ldr	r1, [sp, #12]
    a8d6:	f7ff fa22 	bl	9d1e <__ratio>
    a8da:	2200      	movs	r2, #0
    a8dc:	f04f 4380 	mov.w	r3, #1073741824	; 0x40000000
    a8e0:	4604      	mov	r4, r0
    a8e2:	460d      	mov	r5, r1
    a8e4:	f7fb f83e 	bl	5964 <__aeabi_dcmple>
    a8e8:	2800      	cmp	r0, #0
    a8ea:	d032      	beq.n	a952 <_strtod_r+0x9ca>
    a8ec:	9e08      	ldr	r6, [sp, #32]
    a8ee:	b126      	cbz	r6, a8fa <_strtod_r+0x972>
    a8f0:	4f23      	ldr	r7, [pc, #140]	; (a980 <_strtod_r+0x9f8>)
    a8f2:	2600      	movs	r6, #0
    a8f4:	4634      	mov	r4, r6
    a8f6:	463d      	mov	r5, r7
    a8f8:	e04c      	b.n	a994 <_strtod_r+0xa0c>
    a8fa:	f1ba 0f00 	cmp.w	r10, #0
    a8fe:	d103      	bne.n	a908 <_strtod_r+0x980>
    a900:	f3cb 0313 	ubfx	r3, r11, #0, #20
    a904:	b93b      	cbnz	r3, a916 <_strtod_r+0x98e>
    a906:	e00b      	b.n	a920 <_strtod_r+0x998>
    a908:	f1ba 0f01 	cmp.w	r10, #1
    a90c:	d103      	bne.n	a916 <_strtod_r+0x98e>
    a90e:	f1bb 0f00 	cmp.w	r11, #0
    a912:	f43f af15 	beq.w	a740 <_strtod_r+0x7b8>
    a916:	2600      	movs	r6, #0
    a918:	4f1a      	ldr	r7, [pc, #104]	; (a984 <_strtod_r+0x9fc>)
    a91a:	2400      	movs	r4, #0
    a91c:	4d18      	ldr	r5, [pc, #96]	; (a980 <_strtod_r+0x9f8>)
    a91e:	e039      	b.n	a994 <_strtod_r+0xa0c>
    a920:	4620      	mov	r0, r4
    a922:	4629      	mov	r1, r5
    a924:	2200      	movs	r2, #0
    a926:	4b16      	ldr	r3, [pc, #88]	; (a980 <_strtod_r+0x9f8>)
    a928:	f7fb f812 	bl	5950 <__aeabi_dcmplt>
    a92c:	b940      	cbnz	r0, a940 <_strtod_r+0x9b8>
    a92e:	4620      	mov	r0, r4
    a930:	4629      	mov	r1, r5
    a932:	2200      	movs	r2, #0
    a934:	4b14      	ldr	r3, [pc, #80]	; (a988 <_strtod_r+0xa00>)
    a936:	f7fa fd99 	bl	546c <__aeabi_dmul>
    a93a:	4604      	mov	r4, r0
    a93c:	460d      	mov	r5, r1
    a93e:	e001      	b.n	a944 <_strtod_r+0x9bc>
    a940:	4d11      	ldr	r5, [pc, #68]	; (a988 <_strtod_r+0xa00>)
    a942:	2400      	movs	r4, #0
    a944:	f105 4700 	add.w	r7, r5, #2147483648	; 0x80000000
    a948:	9416      	str	r4, [sp, #88]	; 0x58
    a94a:	9717      	str	r7, [sp, #92]	; 0x5c
    a94c:	e9dd 6716 	ldrd	r6, r7, [sp, #88]	; 0x58
    a950:	e020      	b.n	a994 <_strtod_r+0xa0c>
    a952:	4620      	mov	r0, r4
    a954:	4629      	mov	r1, r5
    a956:	2200      	movs	r2, #0
    a958:	4b0b      	ldr	r3, [pc, #44]	; (a988 <_strtod_r+0xa00>)
    a95a:	f7fa fd87 	bl	546c <__aeabi_dmul>
    a95e:	9e08      	ldr	r6, [sp, #32]
    a960:	4604      	mov	r4, r0
    a962:	460d      	mov	r5, r1
    a964:	b996      	cbnz	r6, a98c <_strtod_r+0xa04>
    a966:	f101 4700 	add.w	r7, r1, #2147483648	; 0x80000000
    a96a:	9010      	str	r0, [sp, #64]	; 0x40
    a96c:	9711      	str	r7, [sp, #68]	; 0x44
    a96e:	e00f      	b.n	a990 <_strtod_r+0xa08>
    a970:	fffffbe3 	.word	0xfffffbe3
    a974:	000fffff 	.word	0x000fffff
    a978:	7ff00000 	.word	0x7ff00000
    a97c:	7fefffff 	.word	0x7fefffff
    a980:	3ff00000 	.word	0x3ff00000
    a984:	bff00000 	.word	0xbff00000
    a988:	3fe00000 	.word	0x3fe00000
    a98c:	e9cd 4510 	strd	r4, r5, [sp, #64]	; 0x40
    a990:	e9dd 6710 	ldrd	r6, r7, [sp, #64]	; 0x40
    a994:	f02b 4c00 	bic.w	r12, r11, #2147483648	; 0x80000000
    a998:	ea4f 5c1c 	mov.w	r12, r12, lsr #20
    a99c:	4b84      	ldr	r3, [pc, #528]	; (abb0 <_strtod_r+0xc28>)
    a99e:	ea4f 5c0c 	mov.w	r12, r12, lsl #20
    a9a2:	459c      	cmp	r12, r3
    a9a4:	d131      	bne.n	aa0a <_strtod_r+0xa82>
    a9a6:	e9dd 010a 	ldrd	r0, r1, [sp, #40]	; 0x28
    a9aa:	f1ab 7b54 	sub.w	r11, r11, #55574528	; 0x3500000
    a9ae:	e9cd 010c 	strd	r0, r1, [sp, #48]	; 0x30
    a9b2:	4650      	mov	r0, r10
    a9b4:	4659      	mov	r1, r11
    a9b6:	f8cd c008 	str.w	r12, [sp, #8]
    a9ba:	f7ff f8e9 	bl	9b90 <__ulp>
    a9be:	4602      	mov	r2, r0
    a9c0:	460b      	mov	r3, r1
    a9c2:	4630      	mov	r0, r6
    a9c4:	4639      	mov	r1, r7
    a9c6:	f7fa fd51 	bl	546c <__aeabi_dmul>
    a9ca:	4602      	mov	r2, r0
    a9cc:	460b      	mov	r3, r1
    a9ce:	4650      	mov	r0, r10
    a9d0:	4659      	mov	r1, r11
    a9d2:	f7fa fb99 	bl	5108 <__adddf3>
    a9d6:	f021 4300 	bic.w	r3, r1, #2147483648	; 0x80000000
    a9da:	0d1b      	lsrs	r3, r3, #20
    a9dc:	4a75      	ldr	r2, [pc, #468]	; (abb4 <_strtod_r+0xc2c>)
    a9de:	051b      	lsls	r3, r3, #20
    a9e0:	4293      	cmp	r3, r2
    a9e2:	4682      	mov	r10, r0
    a9e4:	f8dd c008 	ldr.w	r12, [sp, #8]
    a9e8:	d90c      	bls.n	aa04 <_strtod_r+0xa7c>
    a9ea:	4b73      	ldr	r3, [pc, #460]	; (abb8 <_strtod_r+0xc30>)
    a9ec:	990d      	ldr	r1, [sp, #52]	; 0x34
    a9ee:	4299      	cmp	r1, r3
    a9f0:	d103      	bne.n	a9fa <_strtod_r+0xa72>
    a9f2:	9a0c      	ldr	r2, [sp, #48]	; 0x30
    a9f4:	3201      	adds	r2, #1
    a9f6:	f43f ad1f 	beq.w	a438 <_strtod_r+0x4b0>
    a9fa:	f8df b1bc 	ldr.w	r11, [pc, #444]	; abb8 <_strtod_r+0xc30>
    a9fe:	f04f 3aff 	mov.w	r10, #4294967295	; 0xffffffff
    aa02:	e07b      	b.n	aafc <_strtod_r+0xb74>
    aa04:	f101 7b54 	add.w	r11, r1, #55574528	; 0x3500000
    aa08:	e042      	b.n	aa90 <_strtod_r+0xb08>
    aa0a:	9b04      	ldr	r3, [sp, #16]
    aa0c:	b353      	cbz	r3, aa64 <_strtod_r+0xadc>
    aa0e:	f1bc 6fd4 	cmp.w	r12, #111149056	; 0x6a00000
    aa12:	d827      	bhi.n	aa64 <_strtod_r+0xadc>
    aa14:	a35e      	add	r3, pc, #376	; (adr r3, ab90 <_strtod_r+0xc08>)
    aa16:	e9d3 2300 	ldrd	r2, r3, [r3]
    aa1a:	4620      	mov	r0, r4
    aa1c:	4629      	mov	r1, r5
    aa1e:	f8cd c008 	str.w	r12, [sp, #8]
    aa22:	f7fa ff9f 	bl	5964 <__aeabi_dcmple>
    aa26:	f8dd c008 	ldr.w	r12, [sp, #8]
    aa2a:	b1b8      	cbz	r0, aa5c <_strtod_r+0xad4>
    aa2c:	4629      	mov	r1, r5
    aa2e:	4620      	mov	r0, r4
    aa30:	f000 fce6 	bl	b400 <__aeabi_d2uiz>
    aa34:	2800      	cmp	r0, #0
    aa36:	bf08      	it	eq
    aa38:	2001      	moveq	r0, #1
    aa3a:	f7fa fca1 	bl	5380 <__aeabi_ui2d>
    aa3e:	9e08      	ldr	r6, [sp, #32]
    aa40:	4604      	mov	r4, r0
    aa42:	460d      	mov	r5, r1
    aa44:	f8dd c008 	ldr.w	r12, [sp, #8]
    aa48:	b926      	cbnz	r6, aa54 <_strtod_r+0xacc>
    aa4a:	f101 4700 	add.w	r7, r1, #2147483648	; 0x80000000
    aa4e:	9012      	str	r0, [sp, #72]	; 0x48
    aa50:	9713      	str	r7, [sp, #76]	; 0x4c
    aa52:	e001      	b.n	aa58 <_strtod_r+0xad0>
    aa54:	e9cd 4512 	strd	r4, r5, [sp, #72]	; 0x48
    aa58:	e9dd 6712 	ldrd	r6, r7, [sp, #72]	; 0x48
    aa5c:	f107 63d6 	add.w	r3, r7, #112197632	; 0x6b00000
    aa60:	ebcc 0703 	rsb	r7, r12, r3
    aa64:	e9dd 010a 	ldrd	r0, r1, [sp, #40]	; 0x28
    aa68:	f8cd c008 	str.w	r12, [sp, #8]
    aa6c:	f7ff f890 	bl	9b90 <__ulp>
    aa70:	4602      	mov	r2, r0
    aa72:	460b      	mov	r3, r1
    aa74:	4630      	mov	r0, r6
    aa76:	4639      	mov	r1, r7
    aa78:	f7fa fcf8 	bl	546c <__aeabi_dmul>
    aa7c:	4602      	mov	r2, r0
    aa7e:	460b      	mov	r3, r1
    aa80:	e9dd 010a 	ldrd	r0, r1, [sp, #40]	; 0x28
    aa84:	f7fa fb40 	bl	5108 <__adddf3>
    aa88:	f8dd c008 	ldr.w	r12, [sp, #8]
    aa8c:	4682      	mov	r10, r0
    aa8e:	468b      	mov	r11, r1
    aa90:	9f04      	ldr	r7, [sp, #16]
    aa92:	2f00      	cmp	r7, #0
    aa94:	d132      	bne.n	aafc <_strtod_r+0xb74>
    aa96:	f02b 4300 	bic.w	r3, r11, #2147483648	; 0x80000000
    aa9a:	0d1b      	lsrs	r3, r3, #20
    aa9c:	051b      	lsls	r3, r3, #20
    aa9e:	459c      	cmp	r12, r3
    aaa0:	d12c      	bne.n	aafc <_strtod_r+0xb74>
    aaa2:	4629      	mov	r1, r5
    aaa4:	4620      	mov	r0, r4
    aaa6:	f7fa ff7b 	bl	59a0 <__aeabi_d2iz>
    aaaa:	f7fa fc79 	bl	53a0 <__aeabi_i2d>
    aaae:	4602      	mov	r2, r0
    aab0:	460b      	mov	r3, r1
    aab2:	4620      	mov	r0, r4
    aab4:	4629      	mov	r1, r5
    aab6:	f7fa fb25 	bl	5104 <__aeabi_dsub>
    aaba:	9f08      	ldr	r7, [sp, #32]
    aabc:	4604      	mov	r4, r0
    aabe:	460d      	mov	r5, r1
    aac0:	b92f      	cbnz	r7, aace <_strtod_r+0xb46>
    aac2:	f1ba 0f00 	cmp.w	r10, #0
    aac6:	d102      	bne.n	aace <_strtod_r+0xb46>
    aac8:	f3cb 0613 	ubfx	r6, r11, #0, #20
    aacc:	b186      	cbz	r6, aaf0 <_strtod_r+0xb68>
    aace:	4620      	mov	r0, r4
    aad0:	4629      	mov	r1, r5
    aad2:	a331      	add	r3, pc, #196	; (adr r3, ab98 <_strtod_r+0xc10>)
    aad4:	e9d3 2300 	ldrd	r2, r3, [r3]
    aad8:	f7fa ff3a 	bl	5950 <__aeabi_dcmplt>
    aadc:	2800      	cmp	r0, #0
    aade:	d131      	bne.n	ab44 <_strtod_r+0xbbc>
    aae0:	4620      	mov	r0, r4
    aae2:	4629      	mov	r1, r5
    aae4:	a32e      	add	r3, pc, #184	; (adr r3, aba0 <_strtod_r+0xc18>)
    aae6:	e9d3 2300 	ldrd	r2, r3, [r3]
    aaea:	f7fa ff4f 	bl	598c <__aeabi_dcmpgt>
    aaee:	e004      	b.n	aafa <_strtod_r+0xb72>
    aaf0:	a32d      	add	r3, pc, #180	; (adr r3, aba8 <_strtod_r+0xc20>)
    aaf2:	e9d3 2300 	ldrd	r2, r3, [r3]
    aaf6:	f7fa ff2b 	bl	5950 <__aeabi_dcmplt>
    aafa:	bb18      	cbnz	r0, ab44 <_strtod_r+0xbbc>
    aafc:	4648      	mov	r0, r9
    aafe:	991a      	ldr	r1, [sp, #104]	; 0x68
    ab00:	f7fe fda6 	bl	9650 <_Bfree>
    ab04:	4648      	mov	r0, r9
    ab06:	9905      	ldr	r1, [sp, #20]
    ab08:	f7fe fda2 	bl	9650 <_Bfree>
    ab0c:	4648      	mov	r0, r9
    ab0e:	9903      	ldr	r1, [sp, #12]
    ab10:	f7fe fd9e 	bl	9650 <_Bfree>
    ab14:	4648      	mov	r0, r9
    ab16:	4641      	mov	r1, r8
    ab18:	f7fe fd9a 	bl	9650 <_Bfree>
    ab1c:	e561      	b.n	a5e2 <_strtod_r+0x65a>
    ab1e:	9e04      	ldr	r6, [sp, #16]
    ab20:	b186      	cbz	r6, ab44 <_strtod_r+0xbbc>
    ab22:	4f26      	ldr	r7, [pc, #152]	; (abbc <_strtod_r+0xc34>)
    ab24:	2000      	movs	r0, #0
    ab26:	900c      	str	r0, [sp, #48]	; 0x30
    ab28:	970d      	str	r7, [sp, #52]	; 0x34
    ab2a:	4650      	mov	r0, r10
    ab2c:	4659      	mov	r1, r11
    ab2e:	e9dd 230c 	ldrd	r2, r3, [sp, #48]	; 0x30
    ab32:	f7fa fc9b 	bl	546c <__aeabi_dmul>
    ab36:	4682      	mov	r10, r0
    ab38:	468b      	mov	r11, r1
    ab3a:	b919      	cbnz	r1, ab44 <_strtod_r+0xbbc>
    ab3c:	b910      	cbnz	r0, ab44 <_strtod_r+0xbbc>
    ab3e:	2322      	movs	r3, #34	; 0x22
    ab40:	f8c9 3000 	str.w	r3, [r9]
    ab44:	4648      	mov	r0, r9
    ab46:	991a      	ldr	r1, [sp, #104]	; 0x68
    ab48:	f7fe fd82 	bl	9650 <_Bfree>
    ab4c:	4648      	mov	r0, r9
    ab4e:	9905      	ldr	r1, [sp, #20]
    ab50:	f7fe fd7e 	bl	9650 <_Bfree>
    ab54:	4648      	mov	r0, r9
    ab56:	9903      	ldr	r1, [sp, #12]
    ab58:	f7fe fd7a 	bl	9650 <_Bfree>
    ab5c:	4648      	mov	r0, r9
    ab5e:	9907      	ldr	r1, [sp, #28]
    ab60:	f7fe fd76 	bl	9650 <_Bfree>
    ab64:	4648      	mov	r0, r9
    ab66:	4641      	mov	r1, r8
    ab68:	f7fe fd72 	bl	9650 <_Bfree>
    ab6c:	9e15      	ldr	r6, [sp, #84]	; 0x54
    ab6e:	b10e      	cbz	r6, ab74 <_strtod_r+0xbec>
    ab70:	9b19      	ldr	r3, [sp, #100]	; 0x64
    ab72:	6033      	str	r3, [r6, #0]
    ab74:	9f09      	ldr	r7, [sp, #36]	; 0x24
    ab76:	b11f      	cbz	r7, ab80 <_strtod_r+0xbf8>
    ab78:	4650      	mov	r0, r10
    ab7a:	f10b 4100 	add.w	r1, r11, #2147483648	; 0x80000000
    ab7e:	e001      	b.n	ab84 <_strtod_r+0xbfc>
    ab80:	4650      	mov	r0, r10
    ab82:	4659      	mov	r1, r11
    ab84:	b01f      	add	sp, #124	; 0x7c
    ab86:	e8bd 8ff0 	ldmia.w	sp!, {r4, r5, r6, r7, r8, r9, r10, r11, pc}
    ab8a:	bf00      	nop
    ab8c:	f3af 8000 	nop.w
    ab90:	ffc00000 	.word	0xffc00000
    ab94:	41dfffff 	.word	0x41dfffff
    ab98:	94a03595 	.word	0x94a03595
    ab9c:	3fdfffff 	.word	0x3fdfffff
    aba0:	35afe535 	.word	0x35afe535
    aba4:	3fe00000 	.word	0x3fe00000
    aba8:	94a03595 	.word	0x94a03595
    abac:	3fcfffff 	.word	0x3fcfffff
    abb0:	7fe00000 	.word	0x7fe00000
    abb4:	7c9fffff 	.word	0x7c9fffff
    abb8:	7fefffff 	.word	0x7fefffff
    abbc:	39500000 	.word	0x39500000

0000abc0 <_strtol_r>:
    abc0:	4684      	mov	r12, r0
    abc2:	483f      	ldr	r0, [pc, #252]	; (acc0 <_strtol_r+0x100>)
    abc4:	e92d 4ff0 	stmdb	sp!, {r4, r5, r6, r7, r8, r9, r10, r11, lr}
    abc8:	f8d0 8000 	ldr.w	r8, [r0]
    abcc:	460e      	mov	r6, r1
    abce:	4634      	mov	r4, r6
    abd0:	f814 5b01 	ldrb.w	r5, [r4], #1
    abd4:	eb08 0005 	add.w	r0, r8, r5
    abd8:	7840      	ldrb	r0, [r0, #1]
    abda:	f000 0008 	and.w	r0, r0, #8
    abde:	f000 07ff 	and.w	r7, r0, #255	; 0xff
    abe2:	b108      	cbz	r0, abe8 <_strtol_r+0x28>
    abe4:	4626      	mov	r6, r4
    abe6:	e7f2      	b.n	abce <_strtol_r+0xe>
    abe8:	2d2d      	cmp	r5, #45	; 0x2d
    abea:	d103      	bne.n	abf4 <_strtol_r+0x34>
    abec:	1cb4      	adds	r4, r6, #2
    abee:	7875      	ldrb	r5, [r6, #1]
    abf0:	2701      	movs	r7, #1
    abf2:	e003      	b.n	abfc <_strtol_r+0x3c>
    abf4:	2d2b      	cmp	r5, #43	; 0x2b
    abf6:	bf04      	itt	eq
    abf8:	7875      	ldrbeq	r5, [r6, #1]
    abfa:	1cb4      	addeq	r4, r6, #2
    abfc:	f033 0010 	bics.w	r0, r3, #16
    ac00:	d10d      	bne.n	ac1e <_strtol_r+0x5e>
    ac02:	2d30      	cmp	r5, #48	; 0x30
    ac04:	d108      	bne.n	ac18 <_strtol_r+0x58>
    ac06:	7820      	ldrb	r0, [r4, #0]
    ac08:	f000 00df 	and.w	r0, r0, #223	; 0xdf
    ac0c:	2858      	cmp	r0, #88	; 0x58
    ac0e:	d151      	bne.n	acb4 <_strtol_r+0xf4>
    ac10:	7865      	ldrb	r5, [r4, #1]
    ac12:	2310      	movs	r3, #16
    ac14:	3402      	adds	r4, #2
    ac16:	e002      	b.n	ac1e <_strtol_r+0x5e>
    ac18:	2b00      	cmp	r3, #0
    ac1a:	bf08      	it	eq
    ac1c:	230a      	moveq	r3, #10
    ac1e:	2f00      	cmp	r7, #0
    ac20:	bf0c      	ite	eq
    ac22:	f06f 4a00 	mvneq.w	r10, #2147483648	; 0x80000000
    ac26:	f04f 4a00 	movne.w	r10, #2147483648	; 0x80000000
    ac2a:	fbba f9f3 	udiv	r9, r10, r3
    ac2e:	fb03 aa19 	mls	r10, r3, r9, r10
    ac32:	2600      	movs	r6, #0
    ac34:	4630      	mov	r0, r6
    ac36:	eb08 0b05 	add.w	r11, r8, r5
    ac3a:	f89b b001 	ldrb.w	r11, [r11, #1]
    ac3e:	f01b 0f04 	tst.w	r11, #4
    ac42:	d001      	beq.n	ac48 <_strtol_r+0x88>
    ac44:	3d30      	subs	r5, #48	; 0x30
    ac46:	e00b      	b.n	ac60 <_strtol_r+0xa0>
    ac48:	f01b 0b03 	ands.w	r11, r11, #3
    ac4c:	d01b      	beq.n	ac86 <_strtol_r+0xc6>
    ac4e:	f1bb 0f01 	cmp.w	r11, #1
    ac52:	bf14      	ite	ne
    ac54:	f04f 0b57 	movne.w	r11, #87	; 0x57
    ac58:	f04f 0b37 	moveq.w	r11, #55	; 0x37
    ac5c:	ebcb 0505 	rsb	r5, r11, r5
    ac60:	429d      	cmp	r5, r3
    ac62:	da10      	bge.n	ac86 <_strtol_r+0xc6>
    ac64:	f1b6 3fff 	cmp.w	r6, #4294967295	; 0xffffffff
    ac68:	d00a      	beq.n	ac80 <_strtol_r+0xc0>
    ac6a:	4548      	cmp	r0, r9
    ac6c:	d806      	bhi.n	ac7c <_strtol_r+0xbc>
    ac6e:	d101      	bne.n	ac74 <_strtol_r+0xb4>
    ac70:	4555      	cmp	r5, r10
    ac72:	dc03      	bgt.n	ac7c <_strtol_r+0xbc>
    ac74:	fb03 5000 	mla	r0, r3, r0, r5
    ac78:	2601      	movs	r6, #1
    ac7a:	e001      	b.n	ac80 <_strtol_r+0xc0>
    ac7c:	f04f 36ff 	mov.w	r6, #4294967295	; 0xffffffff
    ac80:	f814 5b01 	ldrb.w	r5, [r4], #1
    ac84:	e7d7      	b.n	ac36 <_strtol_r+0x76>
    ac86:	1c73      	adds	r3, r6, #1
    ac88:	d10c      	bne.n	aca4 <_strtol_r+0xe4>
    ac8a:	2f00      	cmp	r7, #0
    ac8c:	f04f 0322 	mov.w	r3, #34	; 0x22
    ac90:	bf0c      	ite	eq
    ac92:	f06f 4000 	mvneq.w	r0, #2147483648	; 0x80000000
    ac96:	f04f 4000 	movne.w	r0, #2147483648	; 0x80000000
    ac9a:	f8cc 3000 	str.w	r3, [r12]
    ac9e:	b92a      	cbnz	r2, acac <_strtol_r+0xec>
    aca0:	e8bd 8ff0 	ldmia.w	sp!, {r4, r5, r6, r7, r8, r9, r10, r11, pc}
    aca4:	b107      	cbz	r7, aca8 <_strtol_r+0xe8>
    aca6:	4240      	negs	r0, r0
    aca8:	b142      	cbz	r2, acbc <_strtol_r+0xfc>
    acaa:	b106      	cbz	r6, acae <_strtol_r+0xee>
    acac:	1e61      	subs	r1, r4, #1
    acae:	6011      	str	r1, [r2, #0]
    acb0:	e8bd 8ff0 	ldmia.w	sp!, {r4, r5, r6, r7, r8, r9, r10, r11, pc}
    acb4:	2b00      	cmp	r3, #0
    acb6:	bf08      	it	eq
    acb8:	2308      	moveq	r3, #8
    acba:	e7b0      	b.n	ac1e <_strtol_r+0x5e>
    acbc:	e8bd 8ff0 	ldmia.w	sp!, {r4, r5, r6, r7, r8, r9, r10, r11, pc}
    acc0:	100001c4 	.word	0x100001c4

0000acc4 <_strtoul_r>:
    acc4:	4684      	mov	r12, r0
    acc6:	483a      	ldr	r0, [pc, #232]	; (adb0 <_strtoul_r+0xec>)
    acc8:	e92d 4ff0 	stmdb	sp!, {r4, r5, r6, r7, r8, r9, r10, r11, lr}
    accc:	f8d0 8000 	ldr.w	r8, [r0]
    acd0:	460e      	mov	r6, r1
    acd2:	4634      	mov	r4, r6
    acd4:	f814 5b01 	ldrb.w	r5, [r4], #1
    acd8:	eb08 0005 	add.w	r0, r8, r5
    acdc:	7840      	ldrb	r0, [r0, #1]
    acde:	f000 0008 	and.w	r0, r0, #8
    ace2:	f000 07ff 	and.w	r7, r0, #255	; 0xff
    ace6:	b108      	cbz	r0, acec <_strtoul_r+0x28>
    ace8:	4626      	mov	r6, r4
    acea:	e7f2      	b.n	acd2 <_strtoul_r+0xe>
    acec:	2d2d      	cmp	r5, #45	; 0x2d
    acee:	d103      	bne.n	acf8 <_strtoul_r+0x34>
    acf0:	1cb4      	adds	r4, r6, #2
    acf2:	7875      	ldrb	r5, [r6, #1]
    acf4:	2701      	movs	r7, #1
    acf6:	e003      	b.n	ad00 <_strtoul_r+0x3c>
    acf8:	2d2b      	cmp	r5, #43	; 0x2b
    acfa:	bf04      	itt	eq
    acfc:	7875      	ldrbeq	r5, [r6, #1]
    acfe:	1cb4      	addeq	r4, r6, #2
    ad00:	f033 0010 	bics.w	r0, r3, #16
    ad04:	d10d      	bne.n	ad22 <_strtoul_r+0x5e>
    ad06:	2d30      	cmp	r5, #48	; 0x30
    ad08:	d108      	bne.n	ad1c <_strtoul_r+0x58>
    ad0a:	7820      	ldrb	r0, [r4, #0]
    ad0c:	f000 00df 	and.w	r0, r0, #223	; 0xdf
    ad10:	2858      	cmp	r0, #88	; 0x58
    ad12:	d147      	bne.n	ada4 <_strtoul_r+0xe0>
    ad14:	7865      	ldrb	r5, [r4, #1]
    ad16:	2310      	movs	r3, #16
    ad18:	3402      	adds	r4, #2
    ad1a:	e002      	b.n	ad22 <_strtoul_r+0x5e>
    ad1c:	2b00      	cmp	r3, #0
    ad1e:	bf08      	it	eq
    ad20:	230a      	moveq	r3, #10
    ad22:	f04f 39ff 	mov.w	r9, #4294967295	; 0xffffffff
    ad26:	fbb9 f9f3 	udiv	r9, r9, r3
    ad2a:	fb03 fa09 	mul.w	r10, r3, r9
    ad2e:	2600      	movs	r6, #0
    ad30:	ea6f 0a0a 	mvn.w	r10, r10
    ad34:	4630      	mov	r0, r6
    ad36:	eb08 0b05 	add.w	r11, r8, r5
    ad3a:	f89b b001 	ldrb.w	r11, [r11, #1]
    ad3e:	f01b 0f04 	tst.w	r11, #4
    ad42:	d001      	beq.n	ad48 <_strtoul_r+0x84>
    ad44:	3d30      	subs	r5, #48	; 0x30
    ad46:	e00b      	b.n	ad60 <_strtoul_r+0x9c>
    ad48:	f01b 0b03 	ands.w	r11, r11, #3
    ad4c:	d01a      	beq.n	ad84 <_strtoul_r+0xc0>
    ad4e:	f1bb 0f01 	cmp.w	r11, #1
    ad52:	bf14      	ite	ne
    ad54:	f04f 0b57 	movne.w	r11, #87	; 0x57
    ad58:	f04f 0b37 	moveq.w	r11, #55	; 0x37
    ad5c:	ebcb 0505 	rsb	r5, r11, r5
    ad60:	429d      	cmp	r5, r3
    ad62:	da0f      	bge.n	ad84 <_strtoul_r+0xc0>
    ad64:	2e00      	cmp	r6, #0
    ad66:	db08      	blt.n	ad7a <_strtoul_r+0xb6>
    ad68:	4548      	cmp	r0, r9
    ad6a:	d806      	bhi.n	ad7a <_strtoul_r+0xb6>
    ad6c:	d101      	bne.n	ad72 <_strtoul_r+0xae>
    ad6e:	4555      	cmp	r5, r10
    ad70:	dc03      	bgt.n	ad7a <_strtoul_r+0xb6>
    ad72:	fb03 5000 	mla	r0, r3, r0, r5
    ad76:	2601      	movs	r6, #1
    ad78:	e001      	b.n	ad7e <_strtoul_r+0xba>
    ad7a:	f04f 36ff 	mov.w	r6, #4294967295	; 0xffffffff
    ad7e:	f814 5b01 	ldrb.w	r5, [r4], #1
    ad82:	e7d8      	b.n	ad36 <_strtoul_r+0x72>
    ad84:	2e00      	cmp	r6, #0
    ad86:	da05      	bge.n	ad94 <_strtoul_r+0xd0>
    ad88:	2322      	movs	r3, #34	; 0x22
    ad8a:	f8cc 3000 	str.w	r3, [r12]
    ad8e:	f04f 30ff 	mov.w	r0, #4294967295	; 0xffffffff
    ad92:	e001      	b.n	ad98 <_strtoul_r+0xd4>
    ad94:	b107      	cbz	r7, ad98 <_strtoul_r+0xd4>
    ad96:	4240      	negs	r0, r0
    ad98:	b142      	cbz	r2, adac <_strtoul_r+0xe8>
    ad9a:	b106      	cbz	r6, ad9e <_strtoul_r+0xda>
    ad9c:	1e61      	subs	r1, r4, #1
    ad9e:	6011      	str	r1, [r2, #0]
    ada0:	e8bd 8ff0 	ldmia.w	sp!, {r4, r5, r6, r7, r8, r9, r10, r11, pc}
    ada4:	2b00      	cmp	r3, #0
    ada6:	bf08      	it	eq
    ada8:	2308      	moveq	r3, #8
    adaa:	e7ba      	b.n	ad22 <_strtoul_r+0x5e>
    adac:	e8bd 8ff0 	ldmia.w	sp!, {r4, r5, r6, r7, r8, r9, r10, r11, pc}
    adb0:	100001c4 	.word	0x100001c4

0000adb4 <rshift>:
    adb4:	b5f0      	push	{r4, r5, r6, r7, lr}
    adb6:	6906      	ldr	r6, [r0, #16]
    adb8:	114b      	asrs	r3, r1, #5
    adba:	42b3      	cmp	r3, r6
    adbc:	f100 0214 	add.w	r2, r0, #20
    adc0:	da26      	bge.n	ae10 <rshift+0x5c>
    adc2:	f011 011f 	ands.w	r1, r1, #31
    adc6:	eb02 0686 	add.w	r6, r2, r6, lsl #2
    adca:	eb02 0483 	add.w	r4, r2, r3, lsl #2
    adce:	d101      	bne.n	add4 <rshift+0x20>
    add0:	4613      	mov	r3, r2
    add2:	e016      	b.n	ae02 <rshift+0x4e>
    add4:	f852 5023 	ldr.w	r5, [r2, r3, lsl #2]
    add8:	f1c1 0c20 	rsb	r12, r1, #32
    addc:	40cd      	lsrs	r5, r1
    adde:	3404      	adds	r4, #4
    ade0:	4613      	mov	r3, r2
    ade2:	42b4      	cmp	r4, r6
    ade4:	d209      	bcs.n	adfa <rshift+0x46>
    ade6:	6827      	ldr	r7, [r4, #0]
    ade8:	fa07 f70c 	lsl.w	r7, r7, r12
    adec:	433d      	orrs	r5, r7
    adee:	f843 5b04 	str.w	r5, [r3], #4
    adf2:	f854 5b04 	ldr.w	r5, [r4], #4
    adf6:	40cd      	lsrs	r5, r1
    adf8:	e7f3      	b.n	ade2 <rshift+0x2e>
    adfa:	601d      	str	r5, [r3, #0]
    adfc:	b14d      	cbz	r5, ae12 <rshift+0x5e>
    adfe:	3304      	adds	r3, #4
    ae00:	e007      	b.n	ae12 <rshift+0x5e>
    ae02:	42b4      	cmp	r4, r6
    ae04:	d205      	bcs.n	ae12 <rshift+0x5e>
    ae06:	f854 1b04 	ldr.w	r1, [r4], #4
    ae0a:	f843 1b04 	str.w	r1, [r3], #4
    ae0e:	e7f8      	b.n	ae02 <rshift+0x4e>
    ae10:	4613      	mov	r3, r2
    ae12:	1a9b      	subs	r3, r3, r2
    ae14:	109b      	asrs	r3, r3, #2
    ae16:	6103      	str	r3, [r0, #16]
    ae18:	b903      	cbnz	r3, ae1c <rshift+0x68>
    ae1a:	6143      	str	r3, [r0, #20]
    ae1c:	bdf0      	pop	{r4, r5, r6, r7, pc}

0000ae1e <__hexdig_fun>:
    ae1e:	f1a0 0330 	sub.w	r3, r0, #48	; 0x30
    ae22:	2b09      	cmp	r3, #9
    ae24:	d801      	bhi.n	ae2a <__hexdig_fun+0xc>
    ae26:	3820      	subs	r0, #32
    ae28:	e00a      	b.n	ae40 <__hexdig_fun+0x22>
    ae2a:	f1a0 0361 	sub.w	r3, r0, #97	; 0x61
    ae2e:	2b05      	cmp	r3, #5
    ae30:	d801      	bhi.n	ae36 <__hexdig_fun+0x18>
    ae32:	3847      	subs	r0, #71	; 0x47
    ae34:	e004      	b.n	ae40 <__hexdig_fun+0x22>
    ae36:	f1a0 0341 	sub.w	r3, r0, #65	; 0x41
    ae3a:	2b05      	cmp	r3, #5
    ae3c:	d802      	bhi.n	ae44 <__hexdig_fun+0x26>
    ae3e:	3827      	subs	r0, #39	; 0x27
    ae40:	b2c0      	uxtb	r0, r0
    ae42:	4770      	bx	lr
    ae44:	2000      	movs	r0, #0
    ae46:	4770      	bx	lr

0000ae48 <__gethex>:
    ae48:	e92d 4ff0 	stmdb	sp!, {r4, r5, r6, r7, r8, r9, r10, r11, lr}
    ae4c:	b089      	sub	sp, #36	; 0x24
    ae4e:	9105      	str	r1, [sp, #20]
    ae50:	9306      	str	r3, [sp, #24]
    ae52:	4690      	mov	r8, r2
    ae54:	9003      	str	r0, [sp, #12]
    ae56:	f7fe fb95 	bl	9584 <_localeconv_r>
    ae5a:	6800      	ldr	r0, [r0, #0]
    ae5c:	f04f 0b00 	mov.w	r11, #0
    ae60:	9004      	str	r0, [sp, #16]
    ae62:	f7fc f808 	bl	6e76 <strlen>
    ae66:	9b04      	ldr	r3, [sp, #16]
    ae68:	9905      	ldr	r1, [sp, #20]
    ae6a:	4403      	add	r3, r0
    ae6c:	f813 3c01 	ldrb.w	r3, [r3, #-1]
    ae70:	9002      	str	r0, [sp, #8]
    ae72:	9307      	str	r3, [sp, #28]
    ae74:	680b      	ldr	r3, [r1, #0]
    ae76:	3302      	adds	r3, #2
    ae78:	461f      	mov	r7, r3
    ae7a:	f813 0b01 	ldrb.w	r0, [r3], #1
    ae7e:	2830      	cmp	r0, #48	; 0x30
    ae80:	d102      	bne.n	ae88 <__gethex+0x40>
    ae82:	f10b 0b01 	add.w	r11, r11, #1
    ae86:	e7f7      	b.n	ae78 <__gethex+0x30>
    ae88:	f7ff ffc9 	bl	ae1e <__hexdig_fun>
    ae8c:	4606      	mov	r6, r0
    ae8e:	b9f8      	cbnz	r0, aed0 <__gethex+0x88>
    ae90:	4638      	mov	r0, r7
    ae92:	9904      	ldr	r1, [sp, #16]
    ae94:	9a02      	ldr	r2, [sp, #8]
    ae96:	f7fb fff6 	bl	6e86 <strncmp>
    ae9a:	2800      	cmp	r0, #0
    ae9c:	d139      	bne.n	af12 <__gethex+0xca>
    ae9e:	9b02      	ldr	r3, [sp, #8]
    aea0:	9d02      	ldr	r5, [sp, #8]
    aea2:	5cf8      	ldrb	r0, [r7, r3]
    aea4:	443d      	add	r5, r7
    aea6:	f7ff ffba 	bl	ae1e <__hexdig_fun>
    aeaa:	2800      	cmp	r0, #0
    aeac:	d033      	beq.n	af16 <__gethex+0xce>
    aeae:	462b      	mov	r3, r5
    aeb0:	7818      	ldrb	r0, [r3, #0]
    aeb2:	461f      	mov	r7, r3
    aeb4:	2830      	cmp	r0, #48	; 0x30
    aeb6:	f103 0301 	add.w	r3, r3, #1
    aeba:	d0f9      	beq.n	aeb0 <__gethex+0x68>
    aebc:	f7ff ffaf 	bl	ae1e <__hexdig_fun>
    aec0:	f1d0 0401 	rsbs	r4, r0, #1
    aec4:	bf38      	it	cc
    aec6:	2400      	movcc	r4, #0
    aec8:	462e      	mov	r6, r5
    aeca:	f04f 0b01 	mov.w	r11, #1
    aece:	e001      	b.n	aed4 <__gethex+0x8c>
    aed0:	2400      	movs	r4, #0
    aed2:	4626      	mov	r6, r4
    aed4:	46b9      	mov	r9, r7
    aed6:	464d      	mov	r5, r9
    aed8:	7828      	ldrb	r0, [r5, #0]
    aeda:	f109 0901 	add.w	r9, r9, #1
    aede:	f7ff ff9e 	bl	ae1e <__hexdig_fun>
    aee2:	2800      	cmp	r0, #0
    aee4:	d1f7      	bne.n	aed6 <__gethex+0x8e>
    aee6:	4628      	mov	r0, r5
    aee8:	9904      	ldr	r1, [sp, #16]
    aeea:	9a02      	ldr	r2, [sp, #8]
    aeec:	f7fb ffcb 	bl	6e86 <strncmp>
    aef0:	b958      	cbnz	r0, af0a <__gethex+0xc2>
    aef2:	b95e      	cbnz	r6, af0c <__gethex+0xc4>
    aef4:	9e02      	ldr	r6, [sp, #8]
    aef6:	442e      	add	r6, r5
    aef8:	46b1      	mov	r9, r6
    aefa:	464d      	mov	r5, r9
    aefc:	7828      	ldrb	r0, [r5, #0]
    aefe:	f109 0901 	add.w	r9, r9, #1
    af02:	f7ff ff8c 	bl	ae1e <__hexdig_fun>
    af06:	2800      	cmp	r0, #0
    af08:	d1f7      	bne.n	aefa <__gethex+0xb2>
    af0a:	b136      	cbz	r6, af1a <__gethex+0xd2>
    af0c:	1b76      	subs	r6, r6, r5
    af0e:	00b6      	lsls	r6, r6, #2
    af10:	e003      	b.n	af1a <__gethex+0xd2>
    af12:	463d      	mov	r5, r7
    af14:	e000      	b.n	af18 <__gethex+0xd0>
    af16:	4606      	mov	r6, r0
    af18:	2401      	movs	r4, #1
    af1a:	782b      	ldrb	r3, [r5, #0]
    af1c:	2b50      	cmp	r3, #80	; 0x50
    af1e:	d001      	beq.n	af24 <__gethex+0xdc>
    af20:	2b70      	cmp	r3, #112	; 0x70
    af22:	d134      	bne.n	af8e <__gethex+0x146>
    af24:	786b      	ldrb	r3, [r5, #1]
    af26:	2b2b      	cmp	r3, #43	; 0x2b
    af28:	d005      	beq.n	af36 <__gethex+0xee>
    af2a:	2b2d      	cmp	r3, #45	; 0x2d
    af2c:	d005      	beq.n	af3a <__gethex+0xf2>
    af2e:	f105 0901 	add.w	r9, r5, #1
    af32:	2100      	movs	r1, #0
    af34:	e004      	b.n	af40 <__gethex+0xf8>
    af36:	2100      	movs	r1, #0
    af38:	e000      	b.n	af3c <__gethex+0xf4>
    af3a:	2101      	movs	r1, #1
    af3c:	f105 0902 	add.w	r9, r5, #2
    af40:	f899 0000 	ldrb.w	r0, [r9]
    af44:	9101      	str	r1, [sp, #4]
    af46:	f7ff ff6a 	bl	ae1e <__hexdig_fun>
    af4a:	1e43      	subs	r3, r0, #1
    af4c:	b2db      	uxtb	r3, r3
    af4e:	2b18      	cmp	r3, #24
    af50:	9901      	ldr	r1, [sp, #4]
    af52:	d81c      	bhi.n	af8e <__gethex+0x146>
    af54:	f1a0 0a10 	sub.w	r10, r0, #16
    af58:	f109 0301 	add.w	r3, r9, #1
    af5c:	4699      	mov	r9, r3
    af5e:	f899 0000 	ldrb.w	r0, [r9]
    af62:	3301      	adds	r3, #1
    af64:	9101      	str	r1, [sp, #4]
    af66:	9300      	str	r3, [sp, #0]
    af68:	f7ff ff59 	bl	ae1e <__hexdig_fun>
    af6c:	1e42      	subs	r2, r0, #1
    af6e:	b2d2      	uxtb	r2, r2
    af70:	2a18      	cmp	r2, #24
    af72:	9901      	ldr	r1, [sp, #4]
    af74:	9b00      	ldr	r3, [sp, #0]
    af76:	d805      	bhi.n	af84 <__gethex+0x13c>
    af78:	220a      	movs	r2, #10
    af7a:	fb02 0a0a 	mla	r10, r2, r10, r0
    af7e:	f1aa 0a10 	sub.w	r10, r10, #16
    af82:	e7eb      	b.n	af5c <__gethex+0x114>
    af84:	b109      	cbz	r1, af8a <__gethex+0x142>
    af86:	f1ca 0a00 	rsb	r10, r10, #0
    af8a:	4456      	add	r6, r10
    af8c:	e000      	b.n	af90 <__gethex+0x148>
    af8e:	46a9      	mov	r9, r5
    af90:	9905      	ldr	r1, [sp, #20]
    af92:	f8c1 9000 	str.w	r9, [r1]
    af96:	b12c      	cbz	r4, afa4 <__gethex+0x15c>
    af98:	f1bb 0f00 	cmp.w	r11, #0
    af9c:	bf0c      	ite	eq
    af9e:	2006      	moveq	r0, #6
    afa0:	2000      	movne	r0, #0
    afa2:	e17d      	b.n	b2a0 <__gethex+0x458>
    afa4:	1beb      	subs	r3, r5, r7
    afa6:	3b01      	subs	r3, #1
    afa8:	4621      	mov	r1, r4
    afaa:	2b07      	cmp	r3, #7
    afac:	dd02      	ble.n	afb4 <__gethex+0x16c>
    afae:	3101      	adds	r1, #1
    afb0:	105b      	asrs	r3, r3, #1
    afb2:	e7fa      	b.n	afaa <__gethex+0x162>
    afb4:	9803      	ldr	r0, [sp, #12]
    afb6:	f7fe fb16 	bl	95e6 <_Balloc>
    afba:	f04f 0900 	mov.w	r9, #0
    afbe:	f100 0a14 	add.w	r10, r0, #20
    afc2:	4604      	mov	r4, r0
    afc4:	4653      	mov	r3, r10
    afc6:	46cb      	mov	r11, r9
    afc8:	42bd      	cmp	r5, r7
    afca:	d933      	bls.n	b034 <__gethex+0x1ec>
    afcc:	1e6a      	subs	r2, r5, #1
    afce:	9205      	str	r2, [sp, #20]
    afd0:	9907      	ldr	r1, [sp, #28]
    afd2:	f815 2c01 	ldrb.w	r2, [r5, #-1]
    afd6:	428a      	cmp	r2, r1
    afd8:	d009      	beq.n	afee <__gethex+0x1a6>
    afda:	f1bb 0f20 	cmp.w	r11, #32
    afde:	d117      	bne.n	b010 <__gethex+0x1c8>
    afe0:	f8c3 9000 	str.w	r9, [r3]
    afe4:	f04f 0900 	mov.w	r9, #0
    afe8:	3304      	adds	r3, #4
    afea:	46cb      	mov	r11, r9
    afec:	e010      	b.n	b010 <__gethex+0x1c8>
    afee:	9a02      	ldr	r2, [sp, #8]
    aff0:	9905      	ldr	r1, [sp, #20]
    aff2:	f1c2 0c01 	rsb	r12, r2, #1
    aff6:	448c      	add	r12, r1
    aff8:	45bc      	cmp	r12, r7
    affa:	d3ee      	bcc.n	afda <__gethex+0x192>
    affc:	4660      	mov	r0, r12
    affe:	9904      	ldr	r1, [sp, #16]
    b000:	e88d 1008 	stmia.w	sp, {r3, r12}
    b004:	f7fb ff3f 	bl	6e86 <strncmp>
    b008:	e89d 1008 	ldmia.w	sp, {r3, r12}
    b00c:	b180      	cbz	r0, b030 <__gethex+0x1e8>
    b00e:	e7e4      	b.n	afda <__gethex+0x192>
    b010:	f815 0c01 	ldrb.w	r0, [r5, #-1]
    b014:	9300      	str	r3, [sp, #0]
    b016:	f7ff ff02 	bl	ae1e <__hexdig_fun>
    b01a:	f000 000f 	and.w	r0, r0, #15
    b01e:	fa00 f00b 	lsl.w	r0, r0, r11
    b022:	f8dd c014 	ldr.w	r12, [sp, #20]
    b026:	9b00      	ldr	r3, [sp, #0]
    b028:	ea49 0900 	orr.w	r9, r9, r0
    b02c:	f10b 0b04 	add.w	r11, r11, #4
    b030:	4665      	mov	r5, r12
    b032:	e7c9      	b.n	afc8 <__gethex+0x180>
    b034:	f843 9b04 	str.w	r9, [r3], #4
    b038:	ebca 0303 	rsb	r3, r10, r3
    b03c:	109b      	asrs	r3, r3, #2
    b03e:	6123      	str	r3, [r4, #16]
    b040:	4648      	mov	r0, r9
    b042:	015f      	lsls	r7, r3, #5
    b044:	f7fe fb97 	bl	9776 <__hi0bits>
    b048:	f8d8 5000 	ldr.w	r5, [r8]
    b04c:	1a38      	subs	r0, r7, r0
    b04e:	42a8      	cmp	r0, r5
    b050:	dd26      	ble.n	b0a0 <__gethex+0x258>
    b052:	1b47      	subs	r7, r0, r5
    b054:	4639      	mov	r1, r7
    b056:	4620      	mov	r0, r4
    b058:	f7fe fe9f 	bl	9d9a <__any_on>
    b05c:	b1c8      	cbz	r0, b092 <__gethex+0x24a>
    b05e:	1e7b      	subs	r3, r7, #1
    b060:	f003 011f 	and.w	r1, r3, #31
    b064:	f04f 0901 	mov.w	r9, #1
    b068:	fa09 f101 	lsl.w	r1, r9, r1
    b06c:	115a      	asrs	r2, r3, #5
    b06e:	f85a 2022 	ldr.w	r2, [r10, r2, lsl #2]
    b072:	4211      	tst	r1, r2
    b074:	d00e      	beq.n	b094 <__gethex+0x24c>
    b076:	454b      	cmp	r3, r9
    b078:	dc02      	bgt.n	b080 <__gethex+0x238>
    b07a:	f04f 0902 	mov.w	r9, #2
    b07e:	e009      	b.n	b094 <__gethex+0x24c>
    b080:	4620      	mov	r0, r4
    b082:	1eb9      	subs	r1, r7, #2
    b084:	f7fe fe89 	bl	9d9a <__any_on>
    b088:	2800      	cmp	r0, #0
    b08a:	d0f6      	beq.n	b07a <__gethex+0x232>
    b08c:	f04f 0903 	mov.w	r9, #3
    b090:	e000      	b.n	b094 <__gethex+0x24c>
    b092:	4681      	mov	r9, r0
    b094:	4620      	mov	r0, r4
    b096:	4639      	mov	r1, r7
    b098:	f7ff fe8c 	bl	adb4 <rshift>
    b09c:	443e      	add	r6, r7
    b09e:	e00c      	b.n	b0ba <__gethex+0x272>
    b0a0:	da09      	bge.n	b0b6 <__gethex+0x26e>
    b0a2:	1a2f      	subs	r7, r5, r0
    b0a4:	4621      	mov	r1, r4
    b0a6:	9803      	ldr	r0, [sp, #12]
    b0a8:	463a      	mov	r2, r7
    b0aa:	f7fe fca1 	bl	99f0 <__lshift>
    b0ae:	1bf6      	subs	r6, r6, r7
    b0b0:	4604      	mov	r4, r0
    b0b2:	f100 0a14 	add.w	r10, r0, #20
    b0b6:	f04f 0900 	mov.w	r9, #0
    b0ba:	f8d8 3008 	ldr.w	r3, [r8, #8]
    b0be:	429e      	cmp	r6, r3
    b0c0:	dd08      	ble.n	b0d4 <__gethex+0x28c>
    b0c2:	9803      	ldr	r0, [sp, #12]
    b0c4:	4621      	mov	r1, r4
    b0c6:	f7fe fac3 	bl	9650 <_Bfree>
    b0ca:	9a12      	ldr	r2, [sp, #72]	; 0x48
    b0cc:	2300      	movs	r3, #0
    b0ce:	6013      	str	r3, [r2, #0]
    b0d0:	20a3      	movs	r0, #163	; 0xa3
    b0d2:	e0e5      	b.n	b2a0 <__gethex+0x458>
    b0d4:	f8d8 3004 	ldr.w	r3, [r8, #4]
    b0d8:	429e      	cmp	r6, r3
    b0da:	da54      	bge.n	b186 <__gethex+0x33e>
    b0dc:	1b9e      	subs	r6, r3, r6
    b0de:	42ae      	cmp	r6, r5
    b0e0:	db2e      	blt.n	b140 <__gethex+0x2f8>
    b0e2:	f8d8 300c 	ldr.w	r3, [r8, #12]
    b0e6:	2b02      	cmp	r3, #2
    b0e8:	d01a      	beq.n	b120 <__gethex+0x2d8>
    b0ea:	2b03      	cmp	r3, #3
    b0ec:	d01c      	beq.n	b128 <__gethex+0x2e0>
    b0ee:	2b01      	cmp	r3, #1
    b0f0:	d11d      	bne.n	b12e <__gethex+0x2e6>
    b0f2:	42ae      	cmp	r6, r5
    b0f4:	d11b      	bne.n	b12e <__gethex+0x2e6>
    b0f6:	2d01      	cmp	r5, #1
    b0f8:	dc0b      	bgt.n	b112 <__gethex+0x2ca>
    b0fa:	f8d8 3004 	ldr.w	r3, [r8, #4]
    b0fe:	9906      	ldr	r1, [sp, #24]
    b100:	2062      	movs	r0, #98	; 0x62
    b102:	600b      	str	r3, [r1, #0]
    b104:	2301      	movs	r3, #1
    b106:	6123      	str	r3, [r4, #16]
    b108:	f8ca 3000 	str.w	r3, [r10]
    b10c:	9b12      	ldr	r3, [sp, #72]	; 0x48
    b10e:	601c      	str	r4, [r3, #0]
    b110:	e0c6      	b.n	b2a0 <__gethex+0x458>
    b112:	4620      	mov	r0, r4
    b114:	1e69      	subs	r1, r5, #1
    b116:	f7fe fe40 	bl	9d9a <__any_on>
    b11a:	2800      	cmp	r0, #0
    b11c:	d1ed      	bne.n	b0fa <__gethex+0x2b2>
    b11e:	e006      	b.n	b12e <__gethex+0x2e6>
    b120:	9b13      	ldr	r3, [sp, #76]	; 0x4c
    b122:	2b00      	cmp	r3, #0
    b124:	d0e9      	beq.n	b0fa <__gethex+0x2b2>
    b126:	e002      	b.n	b12e <__gethex+0x2e6>
    b128:	9b13      	ldr	r3, [sp, #76]	; 0x4c
    b12a:	2b00      	cmp	r3, #0
    b12c:	d1e5      	bne.n	b0fa <__gethex+0x2b2>
    b12e:	9803      	ldr	r0, [sp, #12]
    b130:	4621      	mov	r1, r4
    b132:	f7fe fa8d 	bl	9650 <_Bfree>
    b136:	9912      	ldr	r1, [sp, #72]	; 0x48
    b138:	2300      	movs	r3, #0
    b13a:	600b      	str	r3, [r1, #0]
    b13c:	2050      	movs	r0, #80	; 0x50
    b13e:	e0af      	b.n	b2a0 <__gethex+0x458>
    b140:	1e77      	subs	r7, r6, #1
    b142:	f1b9 0f00 	cmp.w	r9, #0
    b146:	d107      	bne.n	b158 <__gethex+0x310>
    b148:	2f00      	cmp	r7, #0
    b14a:	dd07      	ble.n	b15c <__gethex+0x314>
    b14c:	4620      	mov	r0, r4
    b14e:	4639      	mov	r1, r7
    b150:	f7fe fe23 	bl	9d9a <__any_on>
    b154:	4681      	mov	r9, r0
    b156:	e001      	b.n	b15c <__gethex+0x314>
    b158:	f04f 0901 	mov.w	r9, #1
    b15c:	117b      	asrs	r3, r7, #5
    b15e:	2201      	movs	r2, #1
    b160:	f007 071f 	and.w	r7, r7, #31
    b164:	fa02 f707 	lsl.w	r7, r2, r7
    b168:	f85a 3023 	ldr.w	r3, [r10, r3, lsl #2]
    b16c:	4631      	mov	r1, r6
    b16e:	421f      	tst	r7, r3
    b170:	4620      	mov	r0, r4
    b172:	bf18      	it	ne
    b174:	f049 0902 	orrne.w	r9, r9, #2
    b178:	1bad      	subs	r5, r5, r6
    b17a:	f7ff fe1b 	bl	adb4 <rshift>
    b17e:	2702      	movs	r7, #2
    b180:	f8d8 6004 	ldr.w	r6, [r8, #4]
    b184:	e000      	b.n	b188 <__gethex+0x340>
    b186:	2701      	movs	r7, #1
    b188:	f1b9 0f00 	cmp.w	r9, #0
    b18c:	f000 8083 	beq.w	b296 <__gethex+0x44e>
    b190:	f8d8 300c 	ldr.w	r3, [r8, #12]
    b194:	2b02      	cmp	r3, #2
    b196:	d00e      	beq.n	b1b6 <__gethex+0x36e>
    b198:	2b03      	cmp	r3, #3
    b19a:	d010      	beq.n	b1be <__gethex+0x376>
    b19c:	2b01      	cmp	r3, #1
    b19e:	d178      	bne.n	b292 <__gethex+0x44a>
    b1a0:	f019 0f02 	tst.w	r9, #2
    b1a4:	d075      	beq.n	b292 <__gethex+0x44a>
    b1a6:	f8da 3000 	ldr.w	r3, [r10]
    b1aa:	ea49 0903 	orr.w	r9, r9, r3
    b1ae:	f019 0f01 	tst.w	r9, #1
    b1b2:	d107      	bne.n	b1c4 <__gethex+0x37c>
    b1b4:	e06d      	b.n	b292 <__gethex+0x44a>
    b1b6:	9b13      	ldr	r3, [sp, #76]	; 0x4c
    b1b8:	f1c3 0301 	rsb	r3, r3, #1
    b1bc:	9313      	str	r3, [sp, #76]	; 0x4c
    b1be:	9b13      	ldr	r3, [sp, #76]	; 0x4c
    b1c0:	2b00      	cmp	r3, #0
    b1c2:	d066      	beq.n	b292 <__gethex+0x44a>
    b1c4:	f8d4 9010 	ldr.w	r9, [r4, #16]
    b1c8:	f104 0314 	add.w	r3, r4, #20
    b1cc:	ea4f 0a89 	mov.w	r10, r9, lsl #2
    b1d0:	eb03 010a 	add.w	r1, r3, r10
    b1d4:	4618      	mov	r0, r3
    b1d6:	f853 2b04 	ldr.w	r2, [r3], #4
    b1da:	f1b2 3fff 	cmp.w	r2, #4294967295	; 0xffffffff
    b1de:	d002      	beq.n	b1e6 <__gethex+0x39e>
    b1e0:	3201      	adds	r2, #1
    b1e2:	6002      	str	r2, [r0, #0]
    b1e4:	e021      	b.n	b22a <__gethex+0x3e2>
    b1e6:	2200      	movs	r2, #0
    b1e8:	428b      	cmp	r3, r1
    b1ea:	f843 2c04 	str.w	r2, [r3, #-4]
    b1ee:	d3f1      	bcc.n	b1d4 <__gethex+0x38c>
    b1f0:	68a3      	ldr	r3, [r4, #8]
    b1f2:	4599      	cmp	r9, r3
    b1f4:	db12      	blt.n	b21c <__gethex+0x3d4>
    b1f6:	6861      	ldr	r1, [r4, #4]
    b1f8:	9803      	ldr	r0, [sp, #12]
    b1fa:	3101      	adds	r1, #1
    b1fc:	f7fe f9f3 	bl	95e6 <_Balloc>
    b200:	6922      	ldr	r2, [r4, #16]
    b202:	f104 010c 	add.w	r1, r4, #12
    b206:	3202      	adds	r2, #2
    b208:	4683      	mov	r11, r0
    b20a:	0092      	lsls	r2, r2, #2
    b20c:	300c      	adds	r0, #12
    b20e:	f7fb fb41 	bl	6894 <memcpy>
    b212:	4621      	mov	r1, r4
    b214:	9803      	ldr	r0, [sp, #12]
    b216:	f7fe fa1b 	bl	9650 <_Bfree>
    b21a:	465c      	mov	r4, r11
    b21c:	6923      	ldr	r3, [r4, #16]
    b21e:	1c5a      	adds	r2, r3, #1
    b220:	6122      	str	r2, [r4, #16]
    b222:	eb04 0383 	add.w	r3, r4, r3, lsl #2
    b226:	2201      	movs	r2, #1
    b228:	615a      	str	r2, [r3, #20]
    b22a:	2f02      	cmp	r7, #2
    b22c:	f104 0314 	add.w	r3, r4, #20
    b230:	d111      	bne.n	b256 <__gethex+0x40e>
    b232:	f8d8 2000 	ldr.w	r2, [r8]
    b236:	3a01      	subs	r2, #1
    b238:	4295      	cmp	r5, r2
    b23a:	d127      	bne.n	b28c <__gethex+0x444>
    b23c:	116a      	asrs	r2, r5, #5
    b23e:	2101      	movs	r1, #1
    b240:	f005 051f 	and.w	r5, r5, #31
    b244:	fa01 f505 	lsl.w	r5, r1, r5
    b248:	f853 3022 	ldr.w	r3, [r3, r2, lsl #2]
    b24c:	421d      	tst	r5, r3
    b24e:	bf0c      	ite	eq
    b250:	2702      	moveq	r7, #2
    b252:	460f      	movne	r7, r1
    b254:	e01a      	b.n	b28c <__gethex+0x444>
    b256:	6922      	ldr	r2, [r4, #16]
    b258:	454a      	cmp	r2, r9
    b25a:	dd0a      	ble.n	b272 <__gethex+0x42a>
    b25c:	4620      	mov	r0, r4
    b25e:	2101      	movs	r1, #1
    b260:	f7ff fda8 	bl	adb4 <rshift>
    b264:	f8d8 3008 	ldr.w	r3, [r8, #8]
    b268:	3601      	adds	r6, #1
    b26a:	429e      	cmp	r6, r3
    b26c:	f73f af29 	bgt.w	b0c2 <__gethex+0x27a>
    b270:	e00b      	b.n	b28a <__gethex+0x442>
    b272:	f015 051f 	ands.w	r5, r5, #31
    b276:	d008      	beq.n	b28a <__gethex+0x442>
    b278:	4453      	add	r3, r10
    b27a:	f853 0c04 	ldr.w	r0, [r3, #-4]
    b27e:	f7fe fa7a 	bl	9776 <__hi0bits>
    b282:	f1c5 0520 	rsb	r5, r5, #32
    b286:	42a8      	cmp	r0, r5
    b288:	dbe8      	blt.n	b25c <__gethex+0x414>
    b28a:	2701      	movs	r7, #1
    b28c:	f047 0720 	orr.w	r7, r7, #32
    b290:	e001      	b.n	b296 <__gethex+0x44e>
    b292:	f047 0710 	orr.w	r7, r7, #16
    b296:	9b12      	ldr	r3, [sp, #72]	; 0x48
    b298:	4638      	mov	r0, r7
    b29a:	601c      	str	r4, [r3, #0]
    b29c:	9b06      	ldr	r3, [sp, #24]
    b29e:	601e      	str	r6, [r3, #0]
    b2a0:	b009      	add	sp, #36	; 0x24
    b2a2:	e8bd 8ff0 	ldmia.w	sp!, {r4, r5, r6, r7, r8, r9, r10, r11, pc}

0000b2a6 <L_shift>:
    b2a6:	f1c2 0208 	rsb	r2, r2, #8
    b2aa:	0092      	lsls	r2, r2, #2
    b2ac:	b570      	push	{r4, r5, r6, lr}
    b2ae:	f1c2 0420 	rsb	r4, r2, #32
    b2b2:	6805      	ldr	r5, [r0, #0]
    b2b4:	f850 3f04 	ldr.w	r3, [r0, #4]!
    b2b8:	fa03 f604 	lsl.w	r6, r3, r4
    b2bc:	40d3      	lsrs	r3, r2
    b2be:	4335      	orrs	r5, r6
    b2c0:	4288      	cmp	r0, r1
    b2c2:	f840 5c04 	str.w	r5, [r0, #-4]
    b2c6:	6003      	str	r3, [r0, #0]
    b2c8:	d3f3      	bcc.n	b2b2 <L_shift+0xc>
    b2ca:	bd70      	pop	{r4, r5, r6, pc}

0000b2cc <__hexnan>:
    b2cc:	e92d 4ff0 	stmdb	sp!, {r4, r5, r6, r7, r8, r9, r10, r11, lr}
    b2d0:	680b      	ldr	r3, [r1, #0]
    b2d2:	b085      	sub	sp, #20
    b2d4:	115e      	asrs	r6, r3, #5
    b2d6:	9003      	str	r0, [sp, #12]
    b2d8:	f013 031f 	ands.w	r3, r3, #31
    b2dc:	eb02 0686 	add.w	r6, r2, r6, lsl #2
    b2e0:	9302      	str	r3, [sp, #8]
    b2e2:	9b03      	ldr	r3, [sp, #12]
    b2e4:	bf18      	it	ne
    b2e6:	3604      	addne	r6, #4
    b2e8:	f1a6 0804 	sub.w	r8, r6, #4
    b2ec:	4615      	mov	r5, r2
    b2ee:	f8d3 9000 	ldr.w	r9, [r3]
    b2f2:	2200      	movs	r2, #0
    b2f4:	f846 2c04 	str.w	r2, [r6, #-4]
    b2f8:	4647      	mov	r7, r8
    b2fa:	4644      	mov	r4, r8
    b2fc:	4692      	mov	r10, r2
    b2fe:	4693      	mov	r11, r2
    b300:	f899 1001 	ldrb.w	r1, [r9, #1]
    b304:	2900      	cmp	r1, #0
    b306:	d03a      	beq.n	b37e <__hexnan+0xb2>
    b308:	4608      	mov	r0, r1
    b30a:	e88d 0006 	stmia.w	sp, {r1, r2}
    b30e:	f7ff fd86 	bl	ae1e <__hexdig_fun>
    b312:	e89d 0006 	ldmia.w	sp, {r1, r2}
    b316:	b9d8      	cbnz	r0, b350 <__hexnan+0x84>
    b318:	2920      	cmp	r1, #32
    b31a:	d812      	bhi.n	b342 <__hexnan+0x76>
    b31c:	45da      	cmp	r10, r11
    b31e:	da2b      	bge.n	b378 <__hexnan+0xac>
    b320:	42bc      	cmp	r4, r7
    b322:	d205      	bcs.n	b330 <__hexnan+0x64>
    b324:	2a07      	cmp	r2, #7
    b326:	dc03      	bgt.n	b330 <__hexnan+0x64>
    b328:	4620      	mov	r0, r4
    b32a:	4639      	mov	r1, r7
    b32c:	f7ff ffbb 	bl	b2a6 <L_shift>
    b330:	42ac      	cmp	r4, r5
    b332:	d920      	bls.n	b376 <__hexnan+0xaa>
    b334:	1f27      	subs	r7, r4, #4
    b336:	2200      	movs	r2, #0
    b338:	f844 2c04 	str.w	r2, [r4, #-4]
    b33c:	46da      	mov	r10, r11
    b33e:	463c      	mov	r4, r7
    b340:	e01a      	b.n	b378 <__hexnan+0xac>
    b342:	2929      	cmp	r1, #41	; 0x29
    b344:	d14c      	bne.n	b3e0 <__hexnan+0x114>
    b346:	9b03      	ldr	r3, [sp, #12]
    b348:	f109 0102 	add.w	r1, r9, #2
    b34c:	6019      	str	r1, [r3, #0]
    b34e:	e016      	b.n	b37e <__hexnan+0xb2>
    b350:	3201      	adds	r2, #1
    b352:	2a08      	cmp	r2, #8
    b354:	f10b 0b01 	add.w	r11, r11, #1
    b358:	dd06      	ble.n	b368 <__hexnan+0x9c>
    b35a:	42ac      	cmp	r4, r5
    b35c:	d90c      	bls.n	b378 <__hexnan+0xac>
    b35e:	2200      	movs	r2, #0
    b360:	f844 2c04 	str.w	r2, [r4, #-4]
    b364:	3c04      	subs	r4, #4
    b366:	2201      	movs	r2, #1
    b368:	6821      	ldr	r1, [r4, #0]
    b36a:	f000 000f 	and.w	r0, r0, #15
    b36e:	ea40 1101 	orr.w	r1, r0, r1, lsl #4
    b372:	6021      	str	r1, [r4, #0]
    b374:	e000      	b.n	b378 <__hexnan+0xac>
    b376:	2208      	movs	r2, #8
    b378:	f109 0901 	add.w	r9, r9, #1
    b37c:	e7c0      	b.n	b300 <__hexnan+0x34>
    b37e:	f1bb 0f00 	cmp.w	r11, #0
    b382:	d02d      	beq.n	b3e0 <__hexnan+0x114>
    b384:	42bc      	cmp	r4, r7
    b386:	d205      	bcs.n	b394 <__hexnan+0xc8>
    b388:	2a07      	cmp	r2, #7
    b38a:	dc03      	bgt.n	b394 <__hexnan+0xc8>
    b38c:	4620      	mov	r0, r4
    b38e:	4639      	mov	r1, r7
    b390:	f7ff ff89 	bl	b2a6 <L_shift>
    b394:	42ac      	cmp	r4, r5
    b396:	d90c      	bls.n	b3b2 <__hexnan+0xe6>
    b398:	462b      	mov	r3, r5
    b39a:	f854 2b04 	ldr.w	r2, [r4], #4
    b39e:	4544      	cmp	r4, r8
    b3a0:	f843 2b04 	str.w	r2, [r3], #4
    b3a4:	d9f9      	bls.n	b39a <__hexnan+0xce>
    b3a6:	2200      	movs	r2, #0
    b3a8:	f843 2b04 	str.w	r2, [r3], #4
    b3ac:	4543      	cmp	r3, r8
    b3ae:	d9fa      	bls.n	b3a6 <__hexnan+0xda>
    b3b0:	e00d      	b.n	b3ce <__hexnan+0x102>
    b3b2:	9b02      	ldr	r3, [sp, #8]
    b3b4:	b15b      	cbz	r3, b3ce <__hexnan+0x102>
    b3b6:	f1c3 0920 	rsb	r9, r3, #32
    b3ba:	f04f 33ff 	mov.w	r3, #4294967295	; 0xffffffff
    b3be:	fa23 f909 	lsr.w	r9, r3, r9
    b3c2:	f856 3c04 	ldr.w	r3, [r6, #-4]
    b3c6:	ea03 0309 	and.w	r3, r3, r9
    b3ca:	f846 3c04 	str.w	r3, [r6, #-4]
    b3ce:	f856 3c04 	ldr.w	r3, [r6, #-4]
    b3d2:	3e04      	subs	r6, #4
    b3d4:	b933      	cbnz	r3, b3e4 <__hexnan+0x118>
    b3d6:	42b5      	cmp	r5, r6
    b3d8:	d1f9      	bne.n	b3ce <__hexnan+0x102>
    b3da:	2301      	movs	r3, #1
    b3dc:	602b      	str	r3, [r5, #0]
    b3de:	e001      	b.n	b3e4 <__hexnan+0x118>
    b3e0:	2004      	movs	r0, #4
    b3e2:	e000      	b.n	b3e6 <__hexnan+0x11a>
    b3e4:	2005      	movs	r0, #5
    b3e6:	b005      	add	sp, #20
    b3e8:	e8bd 8ff0 	ldmia.w	sp!, {r4, r5, r6, r7, r8, r9, r10, r11, pc}

0000b3ec <_malloc_usable_size_r>:
    b3ec:	f851 0c04 	ldr.w	r0, [r1, #-4]
    b3f0:	2800      	cmp	r0, #0
    b3f2:	da02      	bge.n	b3fa <_malloc_usable_size_r+0xe>
    b3f4:	3904      	subs	r1, #4
    b3f6:	580b      	ldr	r3, [r1, r0]
    b3f8:	4418      	add	r0, r3
    b3fa:	3804      	subs	r0, #4
    b3fc:	4770      	bx	lr
	...

0000b400 <__aeabi_d2uiz>:
    b400:	004a      	lsls	r2, r1, #1
    b402:	d211      	bcs.n	b428 <__aeabi_d2uiz+0x28>
    b404:	f512 1200 	adds.w	r2, r2, #2097152	; 0x200000
    b408:	d211      	bcs.n	b42e <__aeabi_d2uiz+0x2e>
    b40a:	d50d      	bpl.n	b428 <__aeabi_d2uiz+0x28>
    b40c:	f46f 7378 	mvn.w	r3, #992	; 0x3e0
    b410:	ebb3 5262 	subs.w	r2, r3, r2, asr #21
    b414:	d40e      	bmi.n	b434 <__aeabi_d2uiz+0x34>
    b416:	ea4f 23c1 	mov.w	r3, r1, lsl #11
    b41a:	f043 4300 	orr.w	r3, r3, #2147483648	; 0x80000000
    b41e:	ea43 5350 	orr.w	r3, r3, r0, lsr #21
    b422:	fa23 f002 	lsr.w	r0, r3, r2
    b426:	4770      	bx	lr
    b428:	f04f 0000 	mov.w	r0, #0
    b42c:	4770      	bx	lr
    b42e:	ea50 3001 	orrs.w	r0, r0, r1, lsl #12
    b432:	d102      	bne.n	b43a <__aeabi_d2uiz+0x3a>
    b434:	f04f 30ff 	mov.w	r0, #4294967295	; 0xffffffff
    b438:	4770      	bx	lr
    b43a:	f04f 0000 	mov.w	r0, #0
    b43e:	4770      	bx	lr

0000b440 <_isatty>:
    b440:	4b02      	ldr	r3, [pc, #8]	; (b44c <_isatty+0xc>)
    b442:	2258      	movs	r2, #88	; 0x58
    b444:	601a      	str	r2, [r3, #0]
    b446:	2000      	movs	r0, #0
    b448:	4770      	bx	lr
    b44a:	bf00      	nop
    b44c:	10000a38 	.word	0x10000a38

0000b450 <_sbrk>:
    b450:	4a09      	ldr	r2, [pc, #36]	; (b478 <_sbrk+0x28>)
    b452:	6813      	ldr	r3, [r2, #0]
    b454:	b163      	cbz	r3, b470 <_sbrk+0x20>
    b456:	4418      	add	r0, r3
    b458:	4669      	mov	r1, sp
    b45a:	4288      	cmp	r0, r1
    b45c:	d802      	bhi.n	b464 <_sbrk+0x14>
    b45e:	6010      	str	r0, [r2, #0]
    b460:	4618      	mov	r0, r3
    b462:	4770      	bx	lr
    b464:	4b05      	ldr	r3, [pc, #20]	; (b47c <_sbrk+0x2c>)
    b466:	220c      	movs	r2, #12
    b468:	601a      	str	r2, [r3, #0]
    b46a:	f04f 30ff 	mov.w	r0, #4294967295	; 0xffffffff
    b46e:	4770      	bx	lr
    b470:	4b03      	ldr	r3, [pc, #12]	; (b480 <_sbrk+0x30>)
    b472:	6013      	str	r3, [r2, #0]
    b474:	e7ef      	b.n	b456 <_sbrk+0x6>
    b476:	bf00      	nop
    b478:	10000720 	.word	0x10000720
    b47c:	10000a38 	.word	0x10000a38
    b480:	10000a40 	.word	0x10000a40

0000b484 <fabs>:
    b484:	f021 4100 	bic.w	r1, r1, #2147483648	; 0x80000000
    b488:	4770      	bx	lr
    b48a:	bf00      	nop

0000b48c <_init>:
    b48c:	b5f8      	push	{r3, r4, r5, r6, r7, lr}
    b48e:	bf00      	nop
    b490:	bcf8      	pop	{r3, r4, r5, r6, r7}
    b492:	bc08      	pop	{r3}
    b494:	469e      	mov	lr, r3
    b496:	4770      	bx	lr

0000b498 <_fini>:
    b498:	b5f8      	push	{r3, r4, r5, r6, r7, lr}
    b49a:	bf00      	nop
    b49c:	bcf8      	pop	{r3, r4, r5, r6, r7}
    b49e:	bc08      	pop	{r3}
    b4a0:	469e      	mov	lr, r3
    b4a2:	4770      	bx	lr
    b4a4:	252c6425 	.word	0x252c6425
    b4a8:	64252c64 	.word	0x64252c64
    b4ac:	00000a0d 	.word	0x00000a0d
    b4b0:	5f49524d 	.word	0x5f49524d
    b4b4:	54524155 	.word	0x54524155
    b4b8:	45424d5f 	.word	0x45424d5f
    b4bc:	53555f44 	.word	0x53555f44
    b4c0:	00000042 	.word	0x00000042

0000b4c4 <commandTable.5535>:
    b4c4:	00003145 0000003f 00002b29 00000063     E1..?...)+..c...
    b4d4:	00002e19 00000046 0000316d 00000067     ....F...m1..g...
    b4e4:	0000317d 00000047 00002e61 0000006d     }1..G...a...m...
    b4f4:	00002e9d 0000004d 00003045 00000071     ....M...E0..q...
    b504:	000031a9 00000073 00002ee5 00000058     .1..s.......X...
    b514:	00002a31 0000007a 000029c5 0000005a     1*..z....)..Z...
    b524:	00343045                                E04.

0000b528 <NibbleToHexChar>:
    b528:	33323130 37363534 62613938 66656463     0123456789abcdef
    b538:	3c000920                                          ..

0000b53b <g_targetXml>:
    b53b:	6d783f3c 6576206c 6f697372 31223d6e     <?xml version="1
    b54b:	3f22302e 213c0a3e 54434f44 20455059     .0"?>.<!DOCTYPE 
    b55b:	74616566 20657275 54535953 22204d45     feature SYSTEM "
    b56b:	2d626467 67726174 642e7465 3e226474     gdb-target.dtd">
    b57b:	61743c0a 74656772 663c0a3e 75746165     .<target>.<featu
    b58b:	6e206572 3d656d61 67726f22 756e672e     re name="org.gnu
    b59b:	6264672e 6d72612e 702d6d2e 69666f72     .gdb.arm.m-profi
    b5ab:	3e22656c 65723c0a 616e2067 223d656d     le">.<reg name="
    b5bb:	20223072 73746962 3d657a69 22323322     r0" bitsize="32"
    b5cb:	3c0a3e2f 20676572 656d616e 3172223d     />.<reg name="r1
    b5db:	69622022 7a697374 33223d65 3e2f2232     " bitsize="32"/>
    b5eb:	65723c0a 616e2067 223d656d 20223272     .<reg name="r2" 
    b5fb:	73746962 3d657a69 22323322 3c0a3e2f     bitsize="32"/>.<
    b60b:	20676572 656d616e 3372223d 69622022     reg name="r3" bi
    b61b:	7a697374 33223d65 3e2f2232 65723c0a     tsize="32"/>.<re
    b62b:	616e2067 223d656d 20223472 73746962     g name="r4" bits
    b63b:	3d657a69 22323322 3c0a3e2f 20676572     ize="32"/>.<reg 
    b64b:	656d616e 3572223d 69622022 7a697374     name="r5" bitsiz
    b65b:	33223d65 3e2f2232 65723c0a 616e2067     e="32"/>.<reg na
    b66b:	223d656d 20223672 73746962 3d657a69     me="r6" bitsize=
    b67b:	22323322 3c0a3e2f 20676572 656d616e     "32"/>.<reg name
    b68b:	3772223d 69622022 7a697374 33223d65     ="r7" bitsize="3
    b69b:	3e2f2232 65723c0a 616e2067 223d656d     2"/>.<reg name="
    b6ab:	20223872 73746962 3d657a69 22323322     r8" bitsize="32"
    b6bb:	3c0a3e2f 20676572 656d616e 3972223d     />.<reg name="r9
    b6cb:	69622022 7a697374 33223d65 3e2f2232     " bitsize="32"/>
    b6db:	65723c0a 616e2067 223d656d 22303172     .<reg name="r10"
    b6eb:	74696220 657a6973 3233223d 0a3e2f22      bitsize="32"/>.
    b6fb:	6765723c 6d616e20 72223d65 20223131     <reg name="r11" 
    b70b:	73746962 3d657a69 22323322 3c0a3e2f     bitsize="32"/>.<
    b71b:	20676572 656d616e 3172223d 62202232     reg name="r12" b
    b72b:	69737469 223d657a 2f223233 723c0a3e     itsize="32"/>.<r
    b73b:	6e206765 3d656d61 22707322 74696220     eg name="sp" bit
    b74b:	657a6973 3233223d 79742022 223d6570     size="32" type="
    b75b:	61746164 7274705f 0a3e2f22 6765723c     data_ptr"/>.<reg
    b76b:	6d616e20 6c223d65 62202272 69737469      name="lr" bitsi
    b77b:	223d657a 2f223233 723c0a3e 6e206765     ze="32"/>.<reg n
    b78b:	3d656d61 22637022 74696220 657a6973     ame="pc" bitsize
    b79b:	3233223d 79742022 223d6570 65646f63     ="32" type="code
    b7ab:	7274705f 0a3e2f22 6765723c 6d616e20     _ptr"/>.<reg nam
    b7bb:	78223d65 22727370 74696220 657a6973     e="xpsr" bitsize
    b7cb:	3233223d 65722022 6d756e67 3532223d     ="32" regnum="25
    b7db:	0a3e2f22 65662f3c 72757461 3c0a3e65     "/>.</feature>.<
    b7eb:	7261742f 3e746567 0000000a addead00              /target>.....

0000b7f8 <__mriCortexMFakeStack>:
    b7f8:	deaddead deaddead deaddead deaddead     ................
    b808:	deaddead deaddead deaddead deaddead     ................
    b818:	4d2a2a0a 46205550 746c7561 0a002a2a     .**MPU Fault**..
    b828:	74532020 73757461 67655220 65747369       Status Registe
    b838:	00203a72 2020200a 75614620 4120746c     r: ..    Fault A
    b848:	65726464 203a7373 20200a00 50462020     ddress: ..    FP
    b858:	7a614c20 72502079 72657365 69746176      Lazy Preservati
    b868:	0a006e6f 20202020 63617453 676e696b     on..    Stacking
    b878:	72724520 7720726f 5053202f 00203d20      Error w/ SP = .
    b888:	2020200a 736e5520 6b636174 20676e69     .    Unstacking 
    b898:	6f727245 2f772072 20505320 0a00203d     Error w/ SP = ..
    b8a8:	20202020 61746144 63634120 00737365         Data Access.
    b8b8:	2020200a 736e4920 63757274 6e6f6974     .    Instruction
    b8c8:	74654620 0a006863 75422a2a 61462073      Fetch..**Bus Fa
    b8d8:	2a746c75 200a002a 49202020 6572706d     ult**..    Impre
    b8e8:	65736963 74614420 63412061 73736563     cise Data Access
    b8f8:	20200a00 72502020 73696365 61442065     ..    Precise Da
    b908:	41206174 73656363 200a0073 49202020     ta Access..    I
    b918:	7274736e 69746375 50206e6f 65666572     nstruction Prefe
    b928:	00686374 552a2a0a 65676173 75614620     tch..**Usage Fau
    b938:	2a2a746c 20200a00 69442020 65646976     lt**..    Divide
    b948:	20796220 6f72655a 20200a00 6e552020      by Zero..    Un
    b958:	67696c61 2064656e 65636341 0a007373     aligned Access..
    b968:	20202020 72706f43 7365636f 20726f73         Coprocessor 
    b978:	65636341 0a007373 20202020 61766e49     Access..    Inva
    b988:	2064696c 65637845 6f697470 6552206e     lid Exception Re
    b998:	6e727574 61745320 0a006574 20202020     turn State..    
    b9a8:	61766e49 2064696c 74617453 200a0065     Invalid State.. 
    b9b8:	55202020 6665646e 64656e69 736e4920        Undefined Ins
    b9c8:	63757274 6e6f6974 2a2a0a00 64726148     truction..**Hard
    b9d8:	75614620 2a2a746c 20200a00 65442020      Fault**..    De
    b9e8:	20677562 6e657645 200a0074 56202020     bug Event..    V
    b9f8:	6f746365 61542072 20656c62 64616552     ector Table Read
    ba08:	20200a00 6f462020 64656372 00000a00     ..    Forced....

0000ba18 <debugEventToSignalMap.6836>:
    ba18:	00000010 00000011 00000004 00000005     ................
    ba28:	00000002 00000005 00000001 00000005     ................

0000ba38 <CSWTCH.24>:
    ba38:	4d070506 555f4952 5f545241 4445424d     ...MRI_UART_MBED
    ba48:	4253555f 49524d00 5241555f 424d5f54     _USB.MRI_UART_MB
    ba58:	505f4445 31505f39 524d0030 41555f49     ED_P9_P10.MRI_UA
    ba68:	4d5f5452 5f444542 5f333150 00343150     RT_MBED_P13_P14.
    ba78:	5f49524d 54524155 45424d5f 32505f44     MRI_UART_MBED_P2
    ba88:	32505f38 524d0037 41555f49 305f5452     8_P27.MRI_UART_0
    ba98:	49524d00 5241555f 00315f54 5f49524d     .MRI_UART_1.MRI_
    baa8:	54524155 4d00325f 555f4952 5f545241     UART_2.MRI_UART_
    bab8:	524d0033 41555f49 535f5452 45524148     3.MRI_UART_SHARE
	...

0000bac9 <baudRatePrefix.7200>:
    bac9:	5f49524d 54524155 5541425f 3c003d44              MRI_UART_BAUD=.

0000bad8 <g_memoryMapXml>:
    bad8:	6d783f3c 6576206c 6f697372 31223d6e     <?xml version="1
    bae8:	3f22302e 44213c3e 5954434f 6d204550     .0"?><!DOCTYPE m
    baf8:	726f6d65 616d2d79 55502070 43494c42     emory-map PUBLIC
    bb08:	2f2b2220 4e44492f 756e6720 67726f2e      "+//IDN gnu.org
    bb18:	54442f2f 44472044 654d2042 79726f6d     //DTD GDB Memory
    bb28:	70614d20 2e315620 452f2f30 2220224e      Map V1.0//EN" "
    bb38:	70747468 732f2f3a 6372756f 72617765     http://sourcewar
    bb48:	726f2e65 64672f67 64672f62 656d2d62     e.org/gdb/gdb-me
    bb58:	79726f6d 70616d2d 6474642e 6d3c3e22     mory-map.dtd"><m
    bb68:	726f6d65 616d2d79 6d3c3e70 726f6d65     emory-map><memor
    bb78:	79742079 223d6570 73616c66 73202268     y type="flash" s
    bb88:	74726174 7830223d 6c202230 74676e65     tart="0x0" lengt
    bb98:	30223d68 30303178 3e223030 72703c20     h="0x10000"> <pr
    bba8:	7265706f 6e207974 3d656d61 6f6c6222     operty name="blo
    bbb8:	69736b63 3e22657a 30317830 2f3c3030     cksize">0x1000</
    bbc8:	706f7270 79747265 6d2f3c3e 726f6d65     property></memor
    bbd8:	6d3c3e79 726f6d65 79742079 223d6570     y><memory type="
    bbe8:	73616c66 73202268 74726174 7830223d     flash" start="0x
    bbf8:	30303031 6c202230 74676e65 30223d68     10000" length="0
    bc08:	30303778 3e223030 72703c20 7265706f     x70000"> <proper
    bc18:	6e207974 3d656d61 6f6c6222 69736b63     ty name="blocksi
    bc28:	3e22657a 30387830 2f3c3030 706f7270     ze">0x8000</prop
    bc38:	79747265 6d2f3c3e 726f6d65 6d3c3e79     erty></memory><m
    bc48:	726f6d65 79742079 223d6570 226d6172     emory type="ram"
    bc58:	61747320 223d7472 30317830 30303030      start="0x100000
    bc68:	20223030 676e656c 223d6874 30387830     00" length="0x80
    bc78:	3e223030 6d2f3c20 726f6d65 6d3c3e79     00"> </memory><m
    bc88:	726f6d65 79742079 223d6570 226d6f72     emory type="rom"
    bc98:	61747320 223d7472 46317830 30304646      start="0x1FFF00
    bca8:	20223030 676e656c 223d6874 30327830     00" length="0x20
    bcb8:	3e223030 6d2f3c20 726f6d65 6d3c3e79     00"> </memory><m
    bcc8:	726f6d65 79742079 223d6570 226d6172     emory type="ram"
    bcd8:	61747320 223d7472 30327830 30433730      start="0x2007C0
    bce8:	20223030 676e656c 223d6874 30387830     00" length="0x80
    bcf8:	3e223030 6d2f3c20 726f6d65 6d3c3e79     00"> </memory><m
    bd08:	726f6d65 79742079 223d6570 226d6172     emory type="ram"
    bd18:	61747320 223d7472 30327830 30433930      start="0x2009C0
    bd28:	20223030 676e656c 223d6874 30347830     00" length="0x40
    bd38:	3e223030 6d2f3c20 726f6d65 6d3c3e79     00"> </memory><m
    bd48:	726f6d65 79742079 223d6570 226d6172     emory type="ram"
    bd58:	61747320 223d7472 32327830 30303030      start="0x220000
    bd68:	20223030 676e656c 223d6874 30327830     00" length="0x20
    bd78:	30303030 203e2230 656d2f3c 79726f6d     00000"> </memory
    bd88:	656d3c3e 79726f6d 70797420 72223d65     ><memory type="r
    bd98:	20226d61 72617473 30223d74 30303478     am" start="0x400
    bda8:	30303030 6c202230 74676e65 30223d68     00000" length="0
    bdb8:	30343178 3e223030 6d2f3c20 726f6d65     x14000"> </memor
    bdc8:	6d3c3e79 726f6d65 79742079 223d6570     y><memory type="
    bdd8:	226d6172 61747320 223d7472 30347830     ram" start="0x40
    bde8:	30383130 20223030 676e656c 223d6874     018000" length="
    bdf8:	34337830 22303030 2f3c203e 6f6d656d     0x34000"> </memo
    be08:	3c3e7972 6f6d656d 74207972 3d657079     ry><memory type=
    be18:	6d617222 74732022 3d747261 34783022     "ram" start="0x4
    be28:	43353030 22303030 6e656c20 3d687467     005C000" length=
    be38:	34783022 22303030 2f3c203e 6f6d656d     "0x4000"> </memo
    be48:	3c3e7972 6f6d656d 74207972 3d657079     ry><memory type=
    be58:	6d617222 74732022 3d747261 34783022     "ram" start="0x4
    be68:	38383030 22303030 6e656c20 3d687467     0088000" length=
    be78:	31783022 30303043 3c203e22 6d656d2f     "0x1C000"> </mem
    be88:	3e79726f 6d656d3c 2079726f 65707974     ory><memory type
    be98:	6172223d 7320226d 74726174 7830223d     ="ram" start="0x
    bea8:	41303034 30303038 656c2022 6874676e     400A8000" length
    beb8:	7830223d 30303034 3c203e22 6d656d2f     ="0x4000"> </mem
    bec8:	3e79726f 6d656d3c 2079726f 65707974     ory><memory type
    bed8:	6172223d 7320226d 74726174 7830223d     ="ram" start="0x
    bee8:	42303034 30303030 656c2022 6874676e     400B0000" length
    bef8:	7830223d 30303034 3c203e22 6d656d2f     ="0x4000"> </mem
    bf08:	3e79726f 6d656d3c 2079726f 65707974     ory><memory type
    bf18:	6172223d 7320226d 74726174 7830223d     ="ram" start="0x
    bf28:	42303034 30303038 656c2022 6874676e     400B8000" length
    bf38:	7830223d 30303038 3c203e22 6d656d2f     ="0x8000"> </mem
    bf48:	3e79726f 6d656d3c 2079726f 65707974     ory><memory type
    bf58:	6172223d 7320226d 74726174 7830223d     ="ram" start="0x
    bf68:	46303034 30303043 656c2022 6874676e     400FC000" length
    bf78:	7830223d 30303034 3c203e22 6d656d2f     ="0x4000"> </mem
    bf88:	3e79726f 6d656d3c 2079726f 65707974     ory><memory type
    bf98:	6172223d 7320226d 74726174 7830223d     ="ram" start="0x
    bfa8:	30303234 30303030 656c2022 6874676e     42000000" length
    bfb8:	7830223d 30303032 22303030 2f3c203e     ="0x2000000"> </
    bfc8:	6f6d656d 3c3e7972 6f6d656d 74207972     memory><memory t
    bfd8:	3d657079 6d617222 74732022 3d747261     ype="ram" start=
    bfe8:	35783022 30303030 22303030 6e656c20     "0x50000000" len
    bff8:	3d687467 38783022 22303030 2f3c203e     gth="0x8000"> </
    c008:	6f6d656d 3c3e7972 6f6d656d 74207972     memory><memory t
    c018:	3d657079 6d617222 74732022 3d747261     ype="ram" start=
    c028:	35783022 43303030 22303030 6e656c20     "0x5000C000" len
    c038:	3d687467 34783022 22303030 2f3c203e     gth="0x4000"> </
    c048:	6f6d656d 3c3e7972 6f6d656d 74207972     memory><memory t
    c058:	3d657079 6d617222 74732022 3d747261     ype="ram" start=
    c068:	45783022 30303030 22303030 6e656c20     "0xE0000000" len
    c078:	3d687467 31783022 30303030 203e2230     gth="0x100000"> 
    c088:	656d2f3c 79726f6d 6d2f3c3e 726f6d65     </memory></memor
    c098:	616d2d79 31003e70 30303130 30303030     y-map>.101000000
    c0a8:	30303030 30303030 30303030 46323030     000000000000002F
    c0b8:	30304637 00303030 30000000                       7F00000....

0000c0c3 <NibbleToHexChar>:
    c0c3:	33323130 37363534 62613938 66656463     0123456789abcdef
    c0d3:	00313045 00353045 46004b4f                       E01.E05.OK.

0000c0de <gdbCommand.4562>:
    c0de:	6e657246 2c656d61 6e754600                       Frename,.

0000c0e7 <gdbUnlinkCommand.4550>:
    c0e7:	6c6e7546 2c6b6e69 72774600                       Funlink,.

0000c0f0 <gdbWriteCommand.4524>:
    c0f0:	69727746 002c6574                       Fwrite,.

0000c0f8 <gdbOpenCommand.4519>:
    c0f8:	65706f46 46002c6e                                Fopen,.

0000c0ff <gdbStatCommand.4545>:
    c0ff:	74736646 002c7461                       Ffstat,.

0000c107 <gdbReadCommand.4529>:
    c107:	61657246 46002c64                                Fread,.

0000c10e <gdbSeekCommand.4539>:
    c10e:	65736c46 002c6b65                       Flseek,.

0000c116 <gdbStatCommand.4556>:
    c116:	61747346 46002c74                                Fstat,.

0000c11d <gdbCloseCommand.4534>:
    c11d:	6f6c6346 002c6573                       Fclose,.

0000c125 <controlCFlag.4567>:
    c125:	4500432c 71003330                                ,C.E03.

0000c12c <querySupportResponse.4614>:
    c12c:	65665871 656d3a72 79726f6d 70616d2d     qXfer:memory-map
    c13c:	6165723a 713b2b64 72656658 6165663a     :read+;qXfer:fea
    c14c:	65727574 65723a73 3b2b6461 6b636150     tures:read+;Pack
    c15c:	69537465 003d657a                       etSize=.

0000c164 <qSupportedCommand.4609>:
    c164:	70707553 6574726f 61740064                       Supported.

0000c16e <targetXmlAnnex.4638>:
    c16e:	67726174 782e7465 66006c6d                       target.xml.

0000c179 <featureObject.4622>:
    c179:	74616566 73657275 6d656d00                       features.

0000c182 <memoryMapObject.4621>:
    c182:	6f6d656d 6d2d7972 74007061 65677261     memory-map.targe
    c192:	6d782e74 6572006c                                t.xml.

0000c198 <readCommand.4633>:
    c198:	64616572 65665800                                read.

0000c19d <qXferCommand.4610>:
    c19d:	72656658 00783000 17000000                       Xfer.0x....

0000c1a8 <PinMap_ADC>:
    c1a8:	2009c017 00000000 00000001 2009c018     ... ........... 
    c1b8:	00000001 00000001 2009c019 00000002     ........... ....
    c1c8:	00000001 2009c01a 00000003 00000001     ....... ........
    c1d8:	2009c03e 00000004 00000003 2009c03f     >.. ........?.. 
    c1e8:	00000005 00000003 2009c002 00000007     ........... ....
    c1f8:	00000002 2009c003 00000006 00000002     ....... ........
    c208:	ffffffff ffffffff 00000000              ............

0000c214 <PinMap_DAC>:
    c214:	2009c01a 00000000 00000002 ffffffff     ... ............
    c224:	ffffffff 00000000 6c756f63 6f6e2064     ........could no
    c234:	69702074 74756f6e 00000000 6d6e6970     t pinout....pinm
    c244:	6d207061 6d2d7369 68637461 00000000     ap mis-match....
    c254:	6d6e6970 6e207061 6620746f 646e756f     pinmap not found
    c264:	726f6620 72657020 65687069 006c6172      for peripheral.

0000c274 <_ZTSN4mbed6SerialE>:
    c274:	626d344e 53366465 61697265 0000456c     N4mbed6SerialE..
    c284:	00000000                                ....

0000c288 <_ZTVN4mbed6SerialE>:
    c288:	00000000 0000c2d0 00003e4d 00003e49     ........M>..I>..
    c298:	00003ec5 00003f45 00003f41 00003f49     .>..E?..A?..I?..
    c2a8:	00003f4d 00000a65 00000aa9 00003a61     M?..e.......a:..
    c2b8:	00003a71 fffffffc 0000c2d0 00000aa1     q:..............
    c2c8:	00000ac9 00000000                       ........

0000c2d0 <_ZTIN4mbed6SerialE>:
    c2d0:	0000c648 0000c274 0000c398              H...t.......

0000c2dc <__stdin_name>:
    c2dc:	6474732f 00006e69                       /stdin..

0000c2e4 <__stderr_name>:
    c2e4:	6474732f 00727265                       /stderr.

0000c2ec <_ZTSN4mbed10FileHandleE>:
    c2ec:	626d344e 30316465 656c6946 646e6148     N4mbed10FileHand
    c2fc:	0045656c                                leE.

0000c300 <__stdout_name>:
    c300:	6474732f 0074756f                       /stdout.

0000c308 <_ZTIN4mbed10FileHandleE>:
    c308:	0000c5e8 0000c2ec                       ........

0000c310 <_ZTVN4mbed10FileHandleE>:
    c310:	00000000 0000c308 00000cad 00000cad     ................
    c320:	00000cad 00000cad 00000cad 00000cad     ................
    c330:	00003b31 00003b69 00003ba9 00000000     1;..i;...;......
    c340:	0070253a 65637845 6f697470 0000006e     :%p.Exception...

0000c350 <_ZTVN4mbed6StreamE>:
    c350:	00000000 0000c398 00003e4d 00003e49     ........M>..I>..
    c360:	00003ec5 00003f45 00003f41 00003f49     .>..E?..A?..I?..
    c370:	00003f4d 00003f51 00003f81 00000cad     M?..Q?...?......
    c380:	00000cad fffffffc 0000c398 00003f79     ............y?..
    c390:	00003f95 00000000                       .?......

0000c398 <_ZTIN4mbed6StreamE>:
    c398:	0000c648 0000c3a8 0000c538 00002b77     H.......8...w+..

0000c3a8 <_ZTSN4mbed6StreamE>:
    c3a8:	626d344e 53366465 61657274 0000456d     N4mbed6StreamE..

0000c3b8 <PinMap_UART_RX>:
    c3b8:	2009c001 4009c000 00000002 2009c003     ... ...@....... 
    c3c8:	4000c000 00000001 2009c00b 40098000     ...@....... ...@
    c3d8:	00000001 2009c010 40010000 00000001     ....... ...@....
    c3e8:	2009c01a 4009c000 00000003 2009c041     ... ...@....A.. 
    c3f8:	40010000 00000002 2009c049 40098000     ...@....I.. ...@
    c408:	00000002 2009c09d 4009c000 00000003     ....... ...@....
    c418:	ffffffff ffffffff 00000000 69726573     ............seri
    c428:	625f6c61 00647561 61766e49 2064696c     al_baud.Invalid 
    c438:	626d756e 6f207265 69622066 28207374     number of bits (
    c448:	20296425 73206e69 61697265 6f66206c     %d) in serial fo
    c458:	74616d72 6873202c 646c756f 20656220     rmat, should be 
    c468:	382e2e35 00000000 61766e49 2064696c     5..8....Invalid 
    c478:	69726573 70206c61 74697261 65732079     serial parity se
    c488:	6e697474 00000067 61766e49 2064696c     tting...Invalid 
    c498:	706f7473 74696220 70732073 66696365     stop bits specif
    c4a8:	00646569 69726553 70206c61 756f6e69     ied.Serial pinou
    c4b8:	616d2074 6e697070 61662067 64656c69     t mapping failed
    c4c8:	00000000                                ....

0000c4cc <PinMap_UART_TX>:
    c4cc:	2009c000 4009c000 00000002 2009c002     ... ...@....... 
    c4dc:	4000c000 00000001 2009c00a 40098000     ...@....... ...@
    c4ec:	00000001 2009c00f 40010000 00000001     ....... ...@....
    c4fc:	2009c019 4009c000 00000003 2009c040     ... ...@....@.. 
    c50c:	40010000 00000002 2009c048 40098000     ...@....H.. ...@
    c51c:	00000002 2009c09c 4009c000 00000003     ....... ...@....
    c52c:	ffffffff ffffffff 00000000              ............

0000c538 <_ZTIN4mbed8FileLikeE>:
    c538:	0000c720 0000c558 00000000 00000002      ...X...........
    c548:	0000c308 00000002 0000c5d8 00000402     ................

0000c558 <_ZTSN4mbed8FileLikeE>:
    c558:	626d344e 46386465 4c656c69 45656b69     N4mbed8FileLikeE
	...

0000c570 <_ZTVN4mbed8FileLikeE>:
    c570:	00000000 0000c538 00000cad 00000cad     ....8...........
    c580:	00000cad 00000cad 00000cad 00000cad     ................
    c590:	00003b31 0000482d 0000485d fffffffc     1;..-H..]H......
    c5a0:	0000c538 00004855 00004871 00000000     8...UH..qH......

0000c5b0 <_ZTSN4mbed8FileBaseE>:
    c5b0:	626d344e 46386465 42656c69 45657361     N4mbed8FileBaseE
	...

0000c5c8 <_ZTVN4mbed8FileBaseE>:
    c5c8:	00000000 0000c5d8 0000497d 000049ad     ........}I...I..

0000c5d8 <_ZTIN4mbed8FileBaseE>:
    c5d8:	0000c5e8 0000c5b0                       ........

0000c5e0 <_ZTVN10__cxxabiv117__class_type_infoE>:
    c5e0:	00000000 0000c610 00004a99 00004aad     .........J...J..
    c5f0:	00004c49 00004c4d 00004ad9 00004a57     IL..ML...J..WJ..
    c600:	00004abf 00004aff 00004a8b 00000000     .J...J...J......

0000c610 <_ZTIN10__cxxabiv117__class_type_infoE>:
    c610:	0000c648 0000c61c 0000c6a4              H...........

0000c61c <_ZTSN10__cxxabiv117__class_type_infoE>:
    c61c:	5f30314e 7878635f 76696261 5f373131     N10__cxxabiv117_
    c62c:	616c635f 745f7373 5f657079 6f666e69     _class_type_info
    c63c:	00000045                                E...

0000c640 <_ZTVN10__cxxabiv120__si_class_type_infoE>:
    c640:	00000000 0000c670 00004b41 00004b55     ....p...AK..UK..
    c650:	00004c49 00004c4d 00004ad9 00004a57     IL..ML...J..WJ..
    c660:	00004c17 00004b9b 00004b67 00000000     .L...K..gK......

0000c670 <_ZTIN10__cxxabiv120__si_class_type_infoE>:
    c670:	0000c648 0000c67c 0000c610              H...|.......

0000c67c <_ZTSN10__cxxabiv120__si_class_type_infoE>:
    c67c:	5f30314e 7878635f 76696261 5f303231     N10__cxxabiv120_
    c68c:	5f69735f 73616c63 79745f73 695f6570     _si_class_type_i
    c69c:	456f666e 00000000                       nfoE....

0000c6a4 <_ZTISt9type_info>:
    c6a4:	0000c5e8 0000c6ac                       ........

0000c6ac <_ZTSSt9type_info>:
    c6ac:	74397453 5f657079 6f666e69 00000000     St9type_info....
    c6bc:	00000000                                ....

0000c6c0 <_ZTVSt9type_info>:
    c6c0:	00000000 0000c6a4 00004c3d 00004c55     ........=L..UL..
    c6d0:	00004c49 00004c4d 00004c97 00004c51     IL..ML...L..QL..

0000c6e0 <_ZTIN10__cxxabiv121__vmi_class_type_infoE>:
    c6e0:	0000c648 0000c6ec 0000c610              H...........

0000c6ec <_ZTSN10__cxxabiv121__vmi_class_type_infoE>:
    c6ec:	5f30314e 7878635f 76696261 5f313231     N10__cxxabiv121_
    c6fc:	696d765f 616c635f 745f7373 5f657079     _vmi_class_type_
    c70c:	6f666e69 00000045 00000000              infoE.......

0000c718 <_ZTVN10__cxxabiv121__vmi_class_type_infoE>:
    c718:	00000000 0000c6e0 00004c9d 00004cb1     .........L...L..
    c728:	00004c49 00004c4d 00004ad9 00004a57     IL..ML...J..WJ..
    c738:	00004fd5 00004d65 00004cc3 00000000     .O..eM...L......

0000c748 <__sf_fake_stdin>:
	...

0000c768 <__sf_fake_stdout>:
	...

0000c788 <__sf_fake_stderr>:
	...
    c7a8:	00000043                                C...

0000c7ac <_global_impure_ptr>:
    c7ac:	10000160 2b302d23 6c680020 6665004c     `...#-0+ .hlL.ef
    c7bc:	47464567 464e4900 666e6900 4e414e00     gEFG.INF.inf.NAN
    c7cc:	6e616e00 32313000 36353433 41393837     .nan.0123456789A
    c7dc:	45444342 31300046 35343332 39383736     BCDEF.0123456789
    c7ec:	64636261 65006665 00646c25 0000c816     abcdef.e%ld.....
    c7fc:	0000c819 0000c81c 61462d41 3938662d     ........A-Fa-f89
    c80c:	33323130 37363534 2d2b005d 00303000     01234567].+-.00.
    c81c:	00005878                                         xX.

0000c81f <_ctype_>:
    c81f:	20202000 20202020 28282020 20282828     .         ((((( 
    c82f:	20202020 20202020 20202020 20202020                     
    c83f:	10108820 10101010 10101010 10101010      ...............
    c84f:	04040410 04040404 10040404 10101010     ................
    c85f:	41411010 41414141 01010101 01010101     ..AAAAAA........
    c86f:	01010101 01010101 01010101 10101010     ................
    c87f:	42421010 42424242 02020202 02020202     ..BBBBBB........
    c88f:	02020202 02020202 02020202 10101010     ................
    c89f:	00000020 00000000 00000000 00000000      ...............
	...
    c91f:	666e4900 74696e69 614e0079 4f50004e     .Infinity.NaN.PO
    c92f:	00584953 0000002e 00000000                       SIX......

0000c938 <__mprec_tens>:
    c938:	00000000 3ff00000 00000000 40240000     .......?......$@
    c948:	00000000 40590000 00000000 408f4000     ......Y@.....@.@
    c958:	00000000 40c38800 00000000 40f86a00     .......@.....j.@
    c968:	00000000 412e8480 00000000 416312d0     .......A......cA
    c978:	00000000 4197d784 00000000 41cdcd65     .......A....e..A
    c988:	20000000 4202a05f e8000000 42374876     ... _..B....vH7B
    c998:	a2000000 426d1a94 e5400000 42a2309c     ......mB..@..0.B
    c9a8:	1e900000 42d6bcc4 26340000 430c6bf5     .......B..4&.k.C
    c9b8:	37e08000 4341c379 85d8a000 43763457     ...7y.AC....W4vC
    c9c8:	674ec800 43abc16d 60913d00 43e158e4     ..Ngm..C.=.`.X.C
    c9d8:	78b58c40 4415af1d d6e2ef50 444b1ae4     @..x...DP.....KD
    c9e8:	064dd592 4480f0cf c7e14af6 44b52d02     ..M....D.J...-.D
    c9f8:	79d99db4 44ea7843                       ...yCx.D

0000ca00 <__mprec_bigtens>:
    ca00:	37e08000 4341c379 b5056e17 4693b8b5     ...7y.AC.n.....F
    ca10:	e93ff9f5 4d384f03 f9301d32 5a827748     ..?..O8M2.0.Hw.Z
    ca20:	7f73bf3c 75154fdd                       <.s..O.u

0000ca28 <p05.5281>:
    ca28:	00000005 00000019 0000007d 00000000     ........}.......

0000ca38 <tinytens>:
    ca38:	97d889bc 3c9cd2b2 d5a8a733 3949f623     .......<3...#.I9
    ca48:	44f4a73d 32a50ffd cf8c979d 255bba08     =..D...2......[%
    ca58:	64ac6f43 11680628                       Co.d(.h.

0000ca60 <fpi.5246>:
    ca60:	00000035 fffffbce 000003cb 00000001     5...............
    ca70:	00000000                                ....

0000ca74 <fpinan.5282>:
    ca74:	00000034 fffffbce 000003cb 00000001     4...............
    ca84:	00000000                                ....

0000ca88 <__EH_FRAME_BEGIN__>:
    ca88:	00000000                                ....
