
EegTire.elf:     file format elf32-littlearm
architecture: arm, flags 0x00000112:
EXEC_P, HAS_SYMS, D_PAGED
start address 0x000033e5


Disassembly of section .text:

00000000 <__isr_vector>:
       0:	10008000 	.word	0x10008000
       4:	000033e5 	.word	0x000033e5
       8:	00003419 	.word	0x00003419
       c:	000024db 	.word	0x000024db
      10:	000024dd 	.word	0x000024dd
      14:	000024df 	.word	0x000024df
      18:	000024e1 	.word	0x000024e1
	...
      2c:	00003423 	.word	0x00003423
      30:	000024e3 	.word	0x000024e3
      34:	00000000 	.word	0x00000000
      38:	00003427 	.word	0x00003427
      3c:	00003429 	.word	0x00003429
      40:	0000342d 	.word	0x0000342d
      44:	0000342f 	.word	0x0000342f
      48:	00003431 	.word	0x00003431
      4c:	00003433 	.word	0x00003433
      50:	00003435 	.word	0x00003435
      54:	000024e5 	.word	0x000024e5
      58:	000024e7 	.word	0x000024e7
      5c:	000024e9 	.word	0x000024e9
      60:	000024eb 	.word	0x000024eb
      64:	0000343f 	.word	0x0000343f
      68:	00003441 	.word	0x00003441
      6c:	00003443 	.word	0x00003443
      70:	00003445 	.word	0x00003445
      74:	00003447 	.word	0x00003447
      78:	00003449 	.word	0x00003449
      7c:	0000344b 	.word	0x0000344b
      80:	0000344d 	.word	0x0000344d
      84:	0000344f 	.word	0x0000344f
      88:	00003451 	.word	0x00003451
      8c:	00003453 	.word	0x00003453
      90:	00003455 	.word	0x00003455
      94:	00003457 	.word	0x00003457
      98:	00003459 	.word	0x00003459
      9c:	0000345b 	.word	0x0000345b
      a0:	0000345d 	.word	0x0000345d
      a4:	0000345f 	.word	0x0000345f
      a8:	00003461 	.word	0x00003461
      ac:	00003463 	.word	0x00003463
      b0:	00003465 	.word	0x00003465
      b4:	00003467 	.word	0x00003467
      b8:	00003469 	.word	0x00003469
      bc:	0000346b 	.word	0x0000346b
      c0:	0000346d 	.word	0x0000346d
      c4:	0000346f 	.word	0x0000346f
      c8:	00003471 	.word	0x00003471

000000cc <__do_global_dtors_aux>:
      cc:	b510      	push	{r4, lr}
      ce:	4c05      	ldr	r4, [pc, #20]	; (e4 <__do_global_dtors_aux+0x18>)
      d0:	7823      	ldrb	r3, [r4, #0]
      d2:	b933      	cbnz	r3, e2 <__do_global_dtors_aux+0x16>
      d4:	4b04      	ldr	r3, [pc, #16]	; (e8 <__do_global_dtors_aux+0x1c>)
      d6:	b113      	cbz	r3, de <__do_global_dtors_aux+0x12>
      d8:	4804      	ldr	r0, [pc, #16]	; (ec <__do_global_dtors_aux+0x20>)
      da:	f3af 8000 	nop.w
      de:	2301      	movs	r3, #1
      e0:	7023      	strb	r3, [r4, #0]
      e2:	bd10      	pop	{r4, pc}
      e4:	10000210 	.word	0x10000210
      e8:	00000000 	.word	0x00000000
      ec:	0000ca88 	.word	0x0000ca88

000000f0 <frame_dummy>:
      f0:	b508      	push	{r3, lr}
      f2:	4b06      	ldr	r3, [pc, #24]	; (10c <frame_dummy+0x1c>)
      f4:	b11b      	cbz	r3, fe <frame_dummy+0xe>
      f6:	4806      	ldr	r0, [pc, #24]	; (110 <frame_dummy+0x20>)
      f8:	4906      	ldr	r1, [pc, #24]	; (114 <frame_dummy+0x24>)
      fa:	f3af 8000 	nop.w
      fe:	4806      	ldr	r0, [pc, #24]	; (118 <frame_dummy+0x28>)
     100:	6803      	ldr	r3, [r0, #0]
     102:	b113      	cbz	r3, 10a <frame_dummy+0x1a>
     104:	4b05      	ldr	r3, [pc, #20]	; (11c <frame_dummy+0x2c>)
     106:	b103      	cbz	r3, 10a <frame_dummy+0x1a>
     108:	4798      	blx	r3
     10a:	bd08      	pop	{r3, pc}
     10c:	00000000 	.word	0x00000000
     110:	0000ca88 	.word	0x0000ca88
     114:	10000214 	.word	0x10000214
     118:	1000020c 	.word	0x1000020c
     11c:	00000000 	.word	0x00000000

00000120 <NVIC_EnableIRQ>:
     120:	b480      	push	{r7}
     122:	b083      	sub	sp, #12
     124:	af00      	add	r7, sp, #0
     126:	4603      	mov	r3, r0
     128:	71fb      	strb	r3, [r7, #7]
     12a:	4b08      	ldr	r3, [pc, #32]	; (14c <NVIC_EnableIRQ+0x2c>)
     12c:	f997 2007 	ldrsb.w	r2, [r7, #7]
     130:	0952      	lsrs	r2, r2, #5
     132:	79f9      	ldrb	r1, [r7, #7]
     134:	f001 011f 	and.w	r1, r1, #31
     138:	2001      	movs	r0, #1
     13a:	fa00 f101 	lsl.w	r1, r0, r1
     13e:	f843 1022 	str.w	r1, [r3, r2, lsl #2]
     142:	370c      	adds	r7, #12
     144:	46bd      	mov	sp, r7
     146:	f85d 7b04 	ldr.w	r7, [sp], #4
     14a:	4770      	bx	lr
     14c:	e000e100 	.word	0xe000e100

00000150 <NVIC_DisableIRQ>:
     150:	b480      	push	{r7}
     152:	b083      	sub	sp, #12
     154:	af00      	add	r7, sp, #0
     156:	4603      	mov	r3, r0
     158:	71fb      	strb	r3, [r7, #7]
     15a:	4b09      	ldr	r3, [pc, #36]	; (180 <NVIC_DisableIRQ+0x30>)
     15c:	f997 2007 	ldrsb.w	r2, [r7, #7]
     160:	0952      	lsrs	r2, r2, #5
     162:	79f9      	ldrb	r1, [r7, #7]
     164:	f001 011f 	and.w	r1, r1, #31
     168:	2001      	movs	r0, #1
     16a:	fa00 f101 	lsl.w	r1, r0, r1
     16e:	3220      	adds	r2, #32
     170:	f843 1022 	str.w	r1, [r3, r2, lsl #2]
     174:	370c      	adds	r7, #12
     176:	46bd      	mov	sp, r7
     178:	f85d 7b04 	ldr.w	r7, [sp], #4
     17c:	4770      	bx	lr
     17e:	bf00      	nop
     180:	e000e100 	.word	0xe000e100

00000184 <gpio_write>:
     184:	b480      	push	{r7}
     186:	b083      	sub	sp, #12
     188:	af00      	add	r7, sp, #0
     18a:	6078      	str	r0, [r7, #4]
     18c:	6039      	str	r1, [r7, #0]
     18e:	683b      	ldr	r3, [r7, #0]
     190:	2b00      	cmp	r3, #0
     192:	d005      	beq.n	1a0 <gpio_write+0x1c>
     194:	687b      	ldr	r3, [r7, #4]
     196:	68db      	ldr	r3, [r3, #12]
     198:	687a      	ldr	r2, [r7, #4]
     19a:	6852      	ldr	r2, [r2, #4]
     19c:	601a      	str	r2, [r3, #0]
     19e:	e004      	b.n	1aa <gpio_write+0x26>
     1a0:	687b      	ldr	r3, [r7, #4]
     1a2:	691b      	ldr	r3, [r3, #16]
     1a4:	687a      	ldr	r2, [r7, #4]
     1a6:	6852      	ldr	r2, [r2, #4]
     1a8:	601a      	str	r2, [r3, #0]
     1aa:	370c      	adds	r7, #12
     1ac:	46bd      	mov	sp, r7
     1ae:	f85d 7b04 	ldr.w	r7, [sp], #4
     1b2:	4770      	bx	lr

000001b4 <_ZN4mbed10DigitalOutC1E7PinName>:
     1b4:	b580      	push	{r7, lr}
     1b6:	b082      	sub	sp, #8
     1b8:	af00      	add	r7, sp, #0
     1ba:	6078      	str	r0, [r7, #4]
     1bc:	6039      	str	r1, [r7, #0]
     1be:	687b      	ldr	r3, [r7, #4]
     1c0:	4618      	mov	r0, r3
     1c2:	6839      	ldr	r1, [r7, #0]
     1c4:	2201      	movs	r2, #1
     1c6:	f003 fb25 	bl	3814 <gpio_init>
     1ca:	687b      	ldr	r3, [r7, #4]
     1cc:	4618      	mov	r0, r3
     1ce:	3708      	adds	r7, #8
     1d0:	46bd      	mov	sp, r7
     1d2:	bd80      	pop	{r7, pc}

000001d4 <_ZN4mbed10DigitalOut5writeEi>:
     1d4:	b580      	push	{r7, lr}
     1d6:	b082      	sub	sp, #8
     1d8:	af00      	add	r7, sp, #0
     1da:	6078      	str	r0, [r7, #4]
     1dc:	6039      	str	r1, [r7, #0]
     1de:	687b      	ldr	r3, [r7, #4]
     1e0:	4618      	mov	r0, r3
     1e2:	6839      	ldr	r1, [r7, #0]
     1e4:	f7ff ffce 	bl	184 <gpio_write>
     1e8:	3708      	adds	r7, #8
     1ea:	46bd      	mov	sp, r7
     1ec:	bd80      	pop	{r7, pc}
     1ee:	bf00      	nop

000001f0 <_ZN4mbed10DigitalOutaSEi>:
     1f0:	b580      	push	{r7, lr}
     1f2:	b082      	sub	sp, #8
     1f4:	af00      	add	r7, sp, #0
     1f6:	6078      	str	r0, [r7, #4]
     1f8:	6039      	str	r1, [r7, #0]
     1fa:	6878      	ldr	r0, [r7, #4]
     1fc:	6839      	ldr	r1, [r7, #0]
     1fe:	f7ff ffe9 	bl	1d4 <_ZN4mbed10DigitalOut5writeEi>
     202:	687b      	ldr	r3, [r7, #4]
     204:	4618      	mov	r0, r3
     206:	3708      	adds	r7, #8
     208:	46bd      	mov	sp, r7
     20a:	bd80      	pop	{r7, pc}

0000020c <_ZN4mbed8AnalogInC1E7PinName>:
     20c:	b580      	push	{r7, lr}
     20e:	b082      	sub	sp, #8
     210:	af00      	add	r7, sp, #0
     212:	6078      	str	r0, [r7, #4]
     214:	6039      	str	r1, [r7, #0]
     216:	687b      	ldr	r3, [r7, #4]
     218:	4618      	mov	r0, r3
     21a:	6839      	ldr	r1, [r7, #0]
     21c:	f003 f9c4 	bl	35a8 <analogin_init>
     220:	687b      	ldr	r3, [r7, #4]
     222:	4618      	mov	r0, r3
     224:	3708      	adds	r7, #8
     226:	46bd      	mov	sp, r7
     228:	bd80      	pop	{r7, pc}
     22a:	bf00      	nop

0000022c <_ZN4mbed8AnalogIn4readEv>:
     22c:	b580      	push	{r7, lr}
     22e:	b082      	sub	sp, #8
     230:	af00      	add	r7, sp, #0
     232:	6078      	str	r0, [r7, #4]
     234:	687b      	ldr	r3, [r7, #4]
     236:	4618      	mov	r0, r3
     238:	f003 f9fe 	bl	3638 <analogin_read>
     23c:	4603      	mov	r3, r0
     23e:	4618      	mov	r0, r3
     240:	3708      	adds	r7, #8
     242:	46bd      	mov	sp, r7
     244:	bd80      	pop	{r7, pc}
     246:	bf00      	nop

00000248 <_ZN4mbed8AnalogIncvfEv>:
     248:	b580      	push	{r7, lr}
     24a:	b082      	sub	sp, #8
     24c:	af00      	add	r7, sp, #0
     24e:	6078      	str	r0, [r7, #4]
     250:	6878      	ldr	r0, [r7, #4]
     252:	f7ff ffeb 	bl	22c <_ZN4mbed8AnalogIn4readEv>
     256:	4603      	mov	r3, r0
     258:	4618      	mov	r0, r3
     25a:	3708      	adds	r7, #8
     25c:	46bd      	mov	sp, r7
     25e:	bd80      	pop	{r7, pc}

00000260 <_ZN4mbed9AnalogOutC1E7PinName>:
     260:	b580      	push	{r7, lr}
     262:	b082      	sub	sp, #8
     264:	af00      	add	r7, sp, #0
     266:	6078      	str	r0, [r7, #4]
     268:	6039      	str	r1, [r7, #0]
     26a:	687b      	ldr	r3, [r7, #4]
     26c:	4618      	mov	r0, r3
     26e:	6839      	ldr	r1, [r7, #0]
     270:	f003 fa60 	bl	3734 <analogout_init>
     274:	687b      	ldr	r3, [r7, #4]
     276:	4618      	mov	r0, r3
     278:	3708      	adds	r7, #8
     27a:	46bd      	mov	sp, r7
     27c:	bd80      	pop	{r7, pc}
     27e:	bf00      	nop

00000280 <_ZN4mbed9AnalogOut5writeEf>:
     280:	b580      	push	{r7, lr}
     282:	b082      	sub	sp, #8
     284:	af00      	add	r7, sp, #0
     286:	6078      	str	r0, [r7, #4]
     288:	6039      	str	r1, [r7, #0]
     28a:	687b      	ldr	r3, [r7, #4]
     28c:	4618      	mov	r0, r3
     28e:	6839      	ldr	r1, [r7, #0]
     290:	f003 fa72 	bl	3778 <analogout_write>
     294:	3708      	adds	r7, #8
     296:	46bd      	mov	sp, r7
     298:	bd80      	pop	{r7, pc}
     29a:	bf00      	nop

0000029c <_ZN4mbed9AnalogOutaSEf>:
     29c:	b580      	push	{r7, lr}
     29e:	b082      	sub	sp, #8
     2a0:	af00      	add	r7, sp, #0
     2a2:	6078      	str	r0, [r7, #4]
     2a4:	6039      	str	r1, [r7, #0]
     2a6:	6878      	ldr	r0, [r7, #4]
     2a8:	6839      	ldr	r1, [r7, #0]
     2aa:	f7ff ffe9 	bl	280 <_ZN4mbed9AnalogOut5writeEf>
     2ae:	687b      	ldr	r3, [r7, #4]
     2b0:	4618      	mov	r0, r3
     2b2:	3708      	adds	r7, #8
     2b4:	46bd      	mov	sp, r7
     2b6:	bd80      	pop	{r7, pc}

000002b8 <_Z4pushf>:
     2b8:	b580      	push	{r7, lr}
     2ba:	b082      	sub	sp, #8
     2bc:	af00      	add	r7, sp, #0
     2be:	6078      	str	r0, [r7, #4]
     2c0:	4808      	ldr	r0, [pc, #32]	; (2e4 <_Z4pushf+0x2c>)
     2c2:	2100      	movs	r1, #0
     2c4:	f7ff ff94 	bl	1f0 <_ZN4mbed10DigitalOutaSEi>
     2c8:	4807      	ldr	r0, [pc, #28]	; (2e8 <_Z4pushf+0x30>)
     2ca:	2100      	movs	r1, #0
     2cc:	f7ff ff90 	bl	1f0 <_ZN4mbed10DigitalOutaSEi>
     2d0:	4806      	ldr	r0, [pc, #24]	; (2ec <_Z4pushf+0x34>)
     2d2:	f003 fbb1 	bl	3a38 <wait>
     2d6:	4806      	ldr	r0, [pc, #24]	; (2f0 <_Z4pushf+0x38>)
     2d8:	6879      	ldr	r1, [r7, #4]
     2da:	f7ff ffdf 	bl	29c <_ZN4mbed9AnalogOutaSEf>
     2de:	3708      	adds	r7, #8
     2e0:	46bd      	mov	sp, r7
     2e2:	bd80      	pop	{r7, pc}
     2e4:	100002a4 	.word	0x100002a4
     2e8:	1000028c 	.word	0x1000028c
     2ec:	3ca3d70a 	.word	0x3ca3d70a
     2f0:	10000284 	.word	0x10000284

000002f4 <_Z4turnf>:
     2f4:	b580      	push	{r7, lr}
     2f6:	b082      	sub	sp, #8
     2f8:	af00      	add	r7, sp, #0
     2fa:	6078      	str	r0, [r7, #4]
     2fc:	4808      	ldr	r0, [pc, #32]	; (320 <_Z4turnf+0x2c>)
     2fe:	2100      	movs	r1, #0
     300:	f7ff ff76 	bl	1f0 <_ZN4mbed10DigitalOutaSEi>
     304:	4807      	ldr	r0, [pc, #28]	; (324 <_Z4turnf+0x30>)
     306:	2100      	movs	r1, #0
     308:	f7ff ff72 	bl	1f0 <_ZN4mbed10DigitalOutaSEi>
     30c:	4806      	ldr	r0, [pc, #24]	; (328 <_Z4turnf+0x34>)
     30e:	f003 fb93 	bl	3a38 <wait>
     312:	4806      	ldr	r0, [pc, #24]	; (32c <_Z4turnf+0x38>)
     314:	6879      	ldr	r1, [r7, #4]
     316:	f7ff ffc1 	bl	29c <_ZN4mbed9AnalogOutaSEf>
     31a:	3708      	adds	r7, #8
     31c:	46bd      	mov	sp, r7
     31e:	bd80      	pop	{r7, pc}
     320:	100002a4 	.word	0x100002a4
     324:	1000028c 	.word	0x1000028c
     328:	3ca3d70a 	.word	0x3ca3d70a
     32c:	10000284 	.word	0x10000284

00000330 <_Z5_stopv>:
     330:	b580      	push	{r7, lr}
     332:	af00      	add	r7, sp, #0
     334:	4808      	ldr	r0, [pc, #32]	; (358 <_Z5_stopv+0x28>)
     336:	2100      	movs	r1, #0
     338:	f7ff ff5a 	bl	1f0 <_ZN4mbed10DigitalOutaSEi>
     33c:	4807      	ldr	r0, [pc, #28]	; (35c <_Z5_stopv+0x2c>)
     33e:	f003 fb7b 	bl	3a38 <wait>
     342:	4807      	ldr	r0, [pc, #28]	; (360 <_Z5_stopv+0x30>)
     344:	2100      	movs	r1, #0
     346:	f7ff ff53 	bl	1f0 <_ZN4mbed10DigitalOutaSEi>
     34a:	4806      	ldr	r0, [pc, #24]	; (364 <_Z5_stopv+0x34>)
     34c:	f04f 0100 	mov.w	r1, #0
     350:	f7ff ffa4 	bl	29c <_ZN4mbed9AnalogOutaSEf>
     354:	bd80      	pop	{r7, pc}
     356:	bf00      	nop
     358:	100002a4 	.word	0x100002a4
     35c:	3d23d70a 	.word	0x3d23d70a
     360:	1000028c 	.word	0x1000028c
     364:	10000284 	.word	0x10000284

00000368 <_Z6_breakv>:
     368:	b580      	push	{r7, lr}
     36a:	af00      	add	r7, sp, #0
     36c:	4808      	ldr	r0, [pc, #32]	; (390 <_Z6_breakv+0x28>)
     36e:	2100      	movs	r1, #0
     370:	f7ff ff3e 	bl	1f0 <_ZN4mbed10DigitalOutaSEi>
     374:	4807      	ldr	r0, [pc, #28]	; (394 <_Z6_breakv+0x2c>)
     376:	f04f 0100 	mov.w	r1, #0
     37a:	f7ff ff8f 	bl	29c <_ZN4mbed9AnalogOutaSEf>
     37e:	4806      	ldr	r0, [pc, #24]	; (398 <_Z6_breakv+0x30>)
     380:	f003 fb5a 	bl	3a38 <wait>
     384:	4805      	ldr	r0, [pc, #20]	; (39c <_Z6_breakv+0x34>)
     386:	2101      	movs	r1, #1
     388:	f7ff ff32 	bl	1f0 <_ZN4mbed10DigitalOutaSEi>
     38c:	bd80      	pop	{r7, pc}
     38e:	bf00      	nop
     390:	1000028c 	.word	0x1000028c
     394:	10000284 	.word	0x10000284
     398:	3ca3d70a 	.word	0x3ca3d70a
     39c:	100002a4 	.word	0x100002a4

000003a0 <_Z4pullf>:
     3a0:	b580      	push	{r7, lr}
     3a2:	b082      	sub	sp, #8
     3a4:	af00      	add	r7, sp, #0
     3a6:	6078      	str	r0, [r7, #4]
     3a8:	4808      	ldr	r0, [pc, #32]	; (3cc <_Z4pullf+0x2c>)
     3aa:	2100      	movs	r1, #0
     3ac:	f7ff ff20 	bl	1f0 <_ZN4mbed10DigitalOutaSEi>
     3b0:	4807      	ldr	r0, [pc, #28]	; (3d0 <_Z4pullf+0x30>)
     3b2:	2101      	movs	r1, #1
     3b4:	f7ff ff1c 	bl	1f0 <_ZN4mbed10DigitalOutaSEi>
     3b8:	4806      	ldr	r0, [pc, #24]	; (3d4 <_Z4pullf+0x34>)
     3ba:	f003 fb3d 	bl	3a38 <wait>
     3be:	4806      	ldr	r0, [pc, #24]	; (3d8 <_Z4pullf+0x38>)
     3c0:	6879      	ldr	r1, [r7, #4]
     3c2:	f7ff ff6b 	bl	29c <_ZN4mbed9AnalogOutaSEf>
     3c6:	3708      	adds	r7, #8
     3c8:	46bd      	mov	sp, r7
     3ca:	bd80      	pop	{r7, pc}
     3cc:	100002a4 	.word	0x100002a4
     3d0:	1000028c 	.word	0x1000028c
     3d4:	3d23d70a 	.word	0x3d23d70a
     3d8:	10000284 	.word	0x10000284

000003dc <_Z9send_linev>:
     3dc:	b580      	push	{r7, lr}
     3de:	b082      	sub	sp, #8
     3e0:	af00      	add	r7, sp, #0
     3e2:	2300      	movs	r3, #0
     3e4:	607b      	str	r3, [r7, #4]
     3e6:	2006      	movs	r0, #6
     3e8:	f7ff feb2 	bl	150 <NVIC_DisableIRQ>
     3ec:	4b48      	ldr	r3, [pc, #288]	; (510 <CFSR_BUS_IMPRECISE_BIT+0x110>)
     3ee:	681a      	ldr	r2, [r3, #0]
     3f0:	4b48      	ldr	r3, [pc, #288]	; (514 <CFSR_BUS_IMPRECISE_BIT+0x114>)
     3f2:	681b      	ldr	r3, [r3, #0]
     3f4:	429a      	cmp	r2, r3
     3f6:	bf14      	ite	ne
     3f8:	2300      	movne	r3, #0
     3fa:	2301      	moveq	r3, #1
     3fc:	70fb      	strb	r3, [r7, #3]
     3fe:	e04f      	b.n	4a0 <CFSR_BUS_IMPRECISE_BIT+0xa0>
     400:	4b43      	ldr	r3, [pc, #268]	; (510 <CFSR_BUS_IMPRECISE_BIT+0x110>)
     402:	681b      	ldr	r3, [r3, #0]
     404:	1c59      	adds	r1, r3, #1
     406:	4b44      	ldr	r3, [pc, #272]	; (518 <CFSR_BUS_IMPRECISE_BIT+0x118>)
     408:	fb81 2303 	smull	r2, r3, r1, r3
     40c:	440b      	add	r3, r1
     40e:	11da      	asrs	r2, r3, #7
     410:	17cb      	asrs	r3, r1, #31
     412:	1ad2      	subs	r2, r2, r3
     414:	4613      	mov	r3, r2
     416:	021b      	lsls	r3, r3, #8
     418:	1a9b      	subs	r3, r3, r2
     41a:	1aca      	subs	r2, r1, r3
     41c:	4b3d      	ldr	r3, [pc, #244]	; (514 <CFSR_BUS_IMPRECISE_BIT+0x114>)
     41e:	681b      	ldr	r3, [r3, #0]
     420:	429a      	cmp	r2, r3
     422:	bf14      	ite	ne
     424:	2300      	movne	r3, #0
     426:	2301      	moveq	r3, #1
     428:	b2db      	uxtb	r3, r3
     42a:	2b00      	cmp	r3, #0
     42c:	d01d      	beq.n	46a <CFSR_BUS_IMPRECISE_BIT+0x6a>
     42e:	2006      	movs	r0, #6
     430:	f7ff fe76 	bl	120 <NVIC_EnableIRQ>
     434:	bf00      	nop
     436:	4b36      	ldr	r3, [pc, #216]	; (510 <CFSR_BUS_IMPRECISE_BIT+0x110>)
     438:	681b      	ldr	r3, [r3, #0]
     43a:	1c59      	adds	r1, r3, #1
     43c:	4b36      	ldr	r3, [pc, #216]	; (518 <CFSR_BUS_IMPRECISE_BIT+0x118>)
     43e:	fb81 2303 	smull	r2, r3, r1, r3
     442:	440b      	add	r3, r1
     444:	11da      	asrs	r2, r3, #7
     446:	17cb      	asrs	r3, r1, #31
     448:	1ad2      	subs	r2, r2, r3
     44a:	4613      	mov	r3, r2
     44c:	021b      	lsls	r3, r3, #8
     44e:	1a9b      	subs	r3, r3, r2
     450:	1aca      	subs	r2, r1, r3
     452:	4b30      	ldr	r3, [pc, #192]	; (514 <CFSR_BUS_IMPRECISE_BIT+0x114>)
     454:	681b      	ldr	r3, [r3, #0]
     456:	429a      	cmp	r2, r3
     458:	bf14      	ite	ne
     45a:	2300      	movne	r3, #0
     45c:	2301      	moveq	r3, #1
     45e:	b2db      	uxtb	r3, r3
     460:	2b00      	cmp	r3, #0
     462:	d1e8      	bne.n	436 <CFSR_BUS_IMPRECISE_BIT+0x36>
     464:	2006      	movs	r0, #6
     466:	f7ff fe73 	bl	150 <NVIC_DisableIRQ>
     46a:	4b29      	ldr	r3, [pc, #164]	; (510 <CFSR_BUS_IMPRECISE_BIT+0x110>)
     46c:	681b      	ldr	r3, [r3, #0]
     46e:	492b      	ldr	r1, [pc, #172]	; (51c <CFSR_BUS_IMPRECISE_BIT+0x11c>)
     470:	687a      	ldr	r2, [r7, #4]
     472:	440a      	add	r2, r1
     474:	7811      	ldrb	r1, [r2, #0]
     476:	4a2a      	ldr	r2, [pc, #168]	; (520 <CFSR_BUS_IMPRECISE_BIT+0x120>)
     478:	54d1      	strb	r1, [r2, r3]
     47a:	687b      	ldr	r3, [r7, #4]
     47c:	3301      	adds	r3, #1
     47e:	607b      	str	r3, [r7, #4]
     480:	4b23      	ldr	r3, [pc, #140]	; (510 <CFSR_BUS_IMPRECISE_BIT+0x110>)
     482:	681b      	ldr	r3, [r3, #0]
     484:	1c59      	adds	r1, r3, #1
     486:	4b24      	ldr	r3, [pc, #144]	; (518 <CFSR_BUS_IMPRECISE_BIT+0x118>)
     488:	fb81 2303 	smull	r2, r3, r1, r3
     48c:	440b      	add	r3, r1
     48e:	11da      	asrs	r2, r3, #7
     490:	17cb      	asrs	r3, r1, #31
     492:	1ad2      	subs	r2, r2, r3
     494:	4613      	mov	r3, r2
     496:	021b      	lsls	r3, r3, #8
     498:	1a9b      	subs	r3, r3, r2
     49a:	1aca      	subs	r2, r1, r3
     49c:	4b1c      	ldr	r3, [pc, #112]	; (510 <CFSR_BUS_IMPRECISE_BIT+0x110>)
     49e:	601a      	str	r2, [r3, #0]
     4a0:	687b      	ldr	r3, [r7, #4]
     4a2:	2b00      	cmp	r3, #0
     4a4:	d0ac      	beq.n	400 <CFSR_BUS_IMPRECISE_BIT>
     4a6:	687b      	ldr	r3, [r7, #4]
     4a8:	3b01      	subs	r3, #1
     4aa:	4a1c      	ldr	r2, [pc, #112]	; (51c <CFSR_BUS_IMPRECISE_BIT+0x11c>)
     4ac:	5cd3      	ldrb	r3, [r2, r3]
     4ae:	2b0a      	cmp	r3, #10
     4b0:	d1a6      	bne.n	400 <CFSR_BUS_IMPRECISE_BIT>
     4b2:	481c      	ldr	r0, [pc, #112]	; (524 <CFSR_BUS_IMPRECISE_BIT+0x124>)
     4b4:	f003 fb1c 	bl	3af0 <_ZN4mbed6Serial9writeableEv>
     4b8:	4603      	mov	r3, r0
     4ba:	2b00      	cmp	r3, #0
     4bc:	d004      	beq.n	4c8 <CFSR_BUS_IMPRECISE_BIT+0xc8>
     4be:	78fb      	ldrb	r3, [r7, #3]
     4c0:	2b00      	cmp	r3, #0
     4c2:	d001      	beq.n	4c8 <CFSR_BUS_IMPRECISE_BIT+0xc8>
     4c4:	2301      	movs	r3, #1
     4c6:	e000      	b.n	4ca <CFSR_BUS_IMPRECISE_BIT+0xca>
     4c8:	2300      	movs	r3, #0
     4ca:	2b00      	cmp	r3, #0
     4cc:	d019      	beq.n	502 <CFSR_BUS_IMPRECISE_BIT+0x102>
     4ce:	4b11      	ldr	r3, [pc, #68]	; (514 <CFSR_BUS_IMPRECISE_BIT+0x114>)
     4d0:	681b      	ldr	r3, [r3, #0]
     4d2:	4a13      	ldr	r2, [pc, #76]	; (520 <CFSR_BUS_IMPRECISE_BIT+0x120>)
     4d4:	5cd3      	ldrb	r3, [r2, r3]
     4d6:	70bb      	strb	r3, [r7, #2]
     4d8:	4b0e      	ldr	r3, [pc, #56]	; (514 <CFSR_BUS_IMPRECISE_BIT+0x114>)
     4da:	681b      	ldr	r3, [r3, #0]
     4dc:	1c59      	adds	r1, r3, #1
     4de:	4b0e      	ldr	r3, [pc, #56]	; (518 <CFSR_BUS_IMPRECISE_BIT+0x118>)
     4e0:	fb81 2303 	smull	r2, r3, r1, r3
     4e4:	440b      	add	r3, r1
     4e6:	11da      	asrs	r2, r3, #7
     4e8:	17cb      	asrs	r3, r1, #31
     4ea:	1ad2      	subs	r2, r2, r3
     4ec:	4613      	mov	r3, r2
     4ee:	021b      	lsls	r3, r3, #8
     4f0:	1a9b      	subs	r3, r3, r2
     4f2:	1aca      	subs	r2, r1, r3
     4f4:	4b07      	ldr	r3, [pc, #28]	; (514 <CFSR_BUS_IMPRECISE_BIT+0x114>)
     4f6:	601a      	str	r2, [r3, #0]
     4f8:	78bb      	ldrb	r3, [r7, #2]
     4fa:	480a      	ldr	r0, [pc, #40]	; (524 <CFSR_BUS_IMPRECISE_BIT+0x124>)
     4fc:	4619      	mov	r1, r3
     4fe:	f003 fd71 	bl	3fe4 <_ZN4mbed6Stream4putcEi>
     502:	2006      	movs	r0, #6
     504:	f7ff fe0c 	bl	120 <NVIC_EnableIRQ>
     508:	bf00      	nop
     50a:	3708      	adds	r7, #8
     50c:	46bd      	mov	sp, r7
     50e:	bd80      	pop	{r7, pc}
     510:	100004ec 	.word	0x100004ec
     514:	100004f0 	.word	0x100004f0
     518:	80808081 	.word	0x80808081
     51c:	100004fc 	.word	0x100004fc
     520:	100002ec 	.word	0x100002ec
     524:	1000022c 	.word	0x1000022c

00000528 <_Z9read_linev>:
     528:	b580      	push	{r7, lr}
     52a:	b082      	sub	sp, #8
     52c:	af00      	add	r7, sp, #0
     52e:	2300      	movs	r3, #0
     530:	607b      	str	r3, [r7, #4]
     532:	2006      	movs	r0, #6
     534:	f7ff fe0c 	bl	150 <NVIC_DisableIRQ>
     538:	e037      	b.n	5aa <_Z9read_linev+0x82>
     53a:	4b26      	ldr	r3, [pc, #152]	; (5d4 <_Z9read_linev+0xac>)
     53c:	681a      	ldr	r2, [r3, #0]
     53e:	4b26      	ldr	r3, [pc, #152]	; (5d8 <_Z9read_linev+0xb0>)
     540:	681b      	ldr	r3, [r3, #0]
     542:	429a      	cmp	r2, r3
     544:	bf14      	ite	ne
     546:	2300      	movne	r3, #0
     548:	2301      	moveq	r3, #1
     54a:	b2db      	uxtb	r3, r3
     54c:	2b00      	cmp	r3, #0
     54e:	d011      	beq.n	574 <_Z9read_linev+0x4c>
     550:	2006      	movs	r0, #6
     552:	f7ff fde5 	bl	120 <NVIC_EnableIRQ>
     556:	bf00      	nop
     558:	4b1e      	ldr	r3, [pc, #120]	; (5d4 <_Z9read_linev+0xac>)
     55a:	681a      	ldr	r2, [r3, #0]
     55c:	4b1e      	ldr	r3, [pc, #120]	; (5d8 <_Z9read_linev+0xb0>)
     55e:	681b      	ldr	r3, [r3, #0]
     560:	429a      	cmp	r2, r3
     562:	bf14      	ite	ne
     564:	2300      	movne	r3, #0
     566:	2301      	moveq	r3, #1
     568:	b2db      	uxtb	r3, r3
     56a:	2b00      	cmp	r3, #0
     56c:	d1f4      	bne.n	558 <_Z9read_linev+0x30>
     56e:	2006      	movs	r0, #6
     570:	f7ff fdee 	bl	150 <NVIC_DisableIRQ>
     574:	4b18      	ldr	r3, [pc, #96]	; (5d8 <_Z9read_linev+0xb0>)
     576:	681b      	ldr	r3, [r3, #0]
     578:	4a18      	ldr	r2, [pc, #96]	; (5dc <_Z9read_linev+0xb4>)
     57a:	5cd2      	ldrb	r2, [r2, r3]
     57c:	4918      	ldr	r1, [pc, #96]	; (5e0 <_Z9read_linev+0xb8>)
     57e:	687b      	ldr	r3, [r7, #4]
     580:	440b      	add	r3, r1
     582:	701a      	strb	r2, [r3, #0]
     584:	687b      	ldr	r3, [r7, #4]
     586:	3301      	adds	r3, #1
     588:	607b      	str	r3, [r7, #4]
     58a:	4b13      	ldr	r3, [pc, #76]	; (5d8 <_Z9read_linev+0xb0>)
     58c:	681b      	ldr	r3, [r3, #0]
     58e:	1c59      	adds	r1, r3, #1
     590:	4b14      	ldr	r3, [pc, #80]	; (5e4 <_Z9read_linev+0xbc>)
     592:	fb81 2303 	smull	r2, r3, r1, r3
     596:	440b      	add	r3, r1
     598:	11da      	asrs	r2, r3, #7
     59a:	17cb      	asrs	r3, r1, #31
     59c:	1ad2      	subs	r2, r2, r3
     59e:	4613      	mov	r3, r2
     5a0:	021b      	lsls	r3, r3, #8
     5a2:	1a9b      	subs	r3, r3, r2
     5a4:	1aca      	subs	r2, r1, r3
     5a6:	4b0c      	ldr	r3, [pc, #48]	; (5d8 <_Z9read_linev+0xb0>)
     5a8:	601a      	str	r2, [r3, #0]
     5aa:	687b      	ldr	r3, [r7, #4]
     5ac:	2b00      	cmp	r3, #0
     5ae:	d0c4      	beq.n	53a <_Z9read_linev+0x12>
     5b0:	687b      	ldr	r3, [r7, #4]
     5b2:	3b01      	subs	r3, #1
     5b4:	4a0a      	ldr	r2, [pc, #40]	; (5e0 <_Z9read_linev+0xb8>)
     5b6:	5cd3      	ldrb	r3, [r2, r3]
     5b8:	2b0d      	cmp	r3, #13
     5ba:	d1be      	bne.n	53a <_Z9read_linev+0x12>
     5bc:	2006      	movs	r0, #6
     5be:	f7ff fdaf 	bl	120 <NVIC_EnableIRQ>
     5c2:	687b      	ldr	r3, [r7, #4]
     5c4:	3b01      	subs	r3, #1
     5c6:	4a06      	ldr	r2, [pc, #24]	; (5e0 <_Z9read_linev+0xb8>)
     5c8:	2100      	movs	r1, #0
     5ca:	54d1      	strb	r1, [r2, r3]
     5cc:	bf00      	nop
     5ce:	3708      	adds	r7, #8
     5d0:	46bd      	mov	sp, r7
     5d2:	bd80      	pop	{r7, pc}
     5d4:	100004f4 	.word	0x100004f4
     5d8:	100004f8 	.word	0x100004f8
     5dc:	100003ec 	.word	0x100003ec
     5e0:	1000054c 	.word	0x1000054c
     5e4:	80808081 	.word	0x80808081

000005e8 <_Z12Rx_interruptv>:
     5e8:	b598      	push	{r3, r4, r7, lr}
     5ea:	af00      	add	r7, sp, #0
     5ec:	4820      	ldr	r0, [pc, #128]	; (670 <_Z12Rx_interruptv+0x88>)
     5ee:	2101      	movs	r1, #1
     5f0:	f7ff fdfe 	bl	1f0 <_ZN4mbed10DigitalOutaSEi>
     5f4:	e018      	b.n	628 <_Z12Rx_interruptv+0x40>
     5f6:	4b1f      	ldr	r3, [pc, #124]	; (674 <_Z12Rx_interruptv+0x8c>)
     5f8:	681c      	ldr	r4, [r3, #0]
     5fa:	481f      	ldr	r0, [pc, #124]	; (678 <_Z12Rx_interruptv+0x90>)
     5fc:	f003 fcfe 	bl	3ffc <_ZN4mbed6Stream4getcEv>
     600:	4603      	mov	r3, r0
     602:	b2da      	uxtb	r2, r3
     604:	4b1d      	ldr	r3, [pc, #116]	; (67c <_Z12Rx_interruptv+0x94>)
     606:	551a      	strb	r2, [r3, r4]
     608:	4b1a      	ldr	r3, [pc, #104]	; (674 <_Z12Rx_interruptv+0x8c>)
     60a:	681b      	ldr	r3, [r3, #0]
     60c:	1c59      	adds	r1, r3, #1
     60e:	4b1c      	ldr	r3, [pc, #112]	; (680 <_Z12Rx_interruptv+0x98>)
     610:	fb81 2303 	smull	r2, r3, r1, r3
     614:	440b      	add	r3, r1
     616:	11da      	asrs	r2, r3, #7
     618:	17cb      	asrs	r3, r1, #31
     61a:	1ad2      	subs	r2, r2, r3
     61c:	4613      	mov	r3, r2
     61e:	021b      	lsls	r3, r3, #8
     620:	1a9b      	subs	r3, r3, r2
     622:	1aca      	subs	r2, r1, r3
     624:	4b13      	ldr	r3, [pc, #76]	; (674 <_Z12Rx_interruptv+0x8c>)
     626:	601a      	str	r2, [r3, #0]
     628:	4813      	ldr	r0, [pc, #76]	; (678 <_Z12Rx_interruptv+0x90>)
     62a:	f003 fa5d 	bl	3ae8 <_ZN4mbed6Serial8readableEv>
     62e:	4603      	mov	r3, r0
     630:	2b00      	cmp	r3, #0
     632:	d013      	beq.n	65c <_Z12Rx_interruptv+0x74>
     634:	4b0f      	ldr	r3, [pc, #60]	; (674 <_Z12Rx_interruptv+0x8c>)
     636:	681b      	ldr	r3, [r3, #0]
     638:	1c59      	adds	r1, r3, #1
     63a:	4b11      	ldr	r3, [pc, #68]	; (680 <_Z12Rx_interruptv+0x98>)
     63c:	fb81 2303 	smull	r2, r3, r1, r3
     640:	440b      	add	r3, r1
     642:	11da      	asrs	r2, r3, #7
     644:	17cb      	asrs	r3, r1, #31
     646:	1ad2      	subs	r2, r2, r3
     648:	4613      	mov	r3, r2
     64a:	021b      	lsls	r3, r3, #8
     64c:	1a9b      	subs	r3, r3, r2
     64e:	1aca      	subs	r2, r1, r3
     650:	4b0c      	ldr	r3, [pc, #48]	; (684 <_Z12Rx_interruptv+0x9c>)
     652:	681b      	ldr	r3, [r3, #0]
     654:	429a      	cmp	r2, r3
     656:	d001      	beq.n	65c <_Z12Rx_interruptv+0x74>
     658:	2301      	movs	r3, #1
     65a:	e000      	b.n	65e <_Z12Rx_interruptv+0x76>
     65c:	2300      	movs	r3, #0
     65e:	2b00      	cmp	r3, #0
     660:	d1c9      	bne.n	5f6 <_Z12Rx_interruptv+0xe>
     662:	4803      	ldr	r0, [pc, #12]	; (670 <_Z12Rx_interruptv+0x88>)
     664:	2100      	movs	r1, #0
     666:	f7ff fdc3 	bl	1f0 <_ZN4mbed10DigitalOutaSEi>
     66a:	bf00      	nop
     66c:	bd98      	pop	{r3, r4, r7, pc}
     66e:	bf00      	nop
     670:	100002bc 	.word	0x100002bc
     674:	100004f4 	.word	0x100004f4
     678:	1000022c 	.word	0x1000022c
     67c:	100003ec 	.word	0x100003ec
     680:	80808081 	.word	0x80808081
     684:	100004f8 	.word	0x100004f8

00000688 <_Z12Tx_interruptv>:
     688:	b580      	push	{r7, lr}
     68a:	af00      	add	r7, sp, #0
     68c:	4819      	ldr	r0, [pc, #100]	; (6f4 <_Z12Tx_interruptv+0x6c>)
     68e:	2101      	movs	r1, #1
     690:	f7ff fdae 	bl	1f0 <_ZN4mbed10DigitalOutaSEi>
     694:	e017      	b.n	6c6 <_Z12Tx_interruptv+0x3e>
     696:	4b18      	ldr	r3, [pc, #96]	; (6f8 <_Z12Tx_interruptv+0x70>)
     698:	681b      	ldr	r3, [r3, #0]
     69a:	4a18      	ldr	r2, [pc, #96]	; (6fc <_Z12Tx_interruptv+0x74>)
     69c:	5cd3      	ldrb	r3, [r2, r3]
     69e:	4818      	ldr	r0, [pc, #96]	; (700 <_Z12Tx_interruptv+0x78>)
     6a0:	4619      	mov	r1, r3
     6a2:	f003 fc9f 	bl	3fe4 <_ZN4mbed6Stream4putcEi>
     6a6:	4b14      	ldr	r3, [pc, #80]	; (6f8 <_Z12Tx_interruptv+0x70>)
     6a8:	681b      	ldr	r3, [r3, #0]
     6aa:	1c59      	adds	r1, r3, #1
     6ac:	4b15      	ldr	r3, [pc, #84]	; (704 <_Z12Tx_interruptv+0x7c>)
     6ae:	fb81 2303 	smull	r2, r3, r1, r3
     6b2:	440b      	add	r3, r1
     6b4:	11da      	asrs	r2, r3, #7
     6b6:	17cb      	asrs	r3, r1, #31
     6b8:	1ad2      	subs	r2, r2, r3
     6ba:	4613      	mov	r3, r2
     6bc:	021b      	lsls	r3, r3, #8
     6be:	1a9b      	subs	r3, r3, r2
     6c0:	1aca      	subs	r2, r1, r3
     6c2:	4b0d      	ldr	r3, [pc, #52]	; (6f8 <_Z12Tx_interruptv+0x70>)
     6c4:	601a      	str	r2, [r3, #0]
     6c6:	480e      	ldr	r0, [pc, #56]	; (700 <_Z12Tx_interruptv+0x78>)
     6c8:	f003 fa12 	bl	3af0 <_ZN4mbed6Serial9writeableEv>
     6cc:	4603      	mov	r3, r0
     6ce:	2b00      	cmp	r3, #0
     6d0:	d007      	beq.n	6e2 <_Z12Tx_interruptv+0x5a>
     6d2:	4b0d      	ldr	r3, [pc, #52]	; (708 <_Z12Tx_interruptv+0x80>)
     6d4:	681a      	ldr	r2, [r3, #0]
     6d6:	4b08      	ldr	r3, [pc, #32]	; (6f8 <_Z12Tx_interruptv+0x70>)
     6d8:	681b      	ldr	r3, [r3, #0]
     6da:	429a      	cmp	r2, r3
     6dc:	d001      	beq.n	6e2 <_Z12Tx_interruptv+0x5a>
     6de:	2301      	movs	r3, #1
     6e0:	e000      	b.n	6e4 <_Z12Tx_interruptv+0x5c>
     6e2:	2300      	movs	r3, #0
     6e4:	2b00      	cmp	r3, #0
     6e6:	d1d6      	bne.n	696 <_Z12Tx_interruptv+0xe>
     6e8:	4802      	ldr	r0, [pc, #8]	; (6f4 <_Z12Tx_interruptv+0x6c>)
     6ea:	2100      	movs	r1, #0
     6ec:	f7ff fd80 	bl	1f0 <_ZN4mbed10DigitalOutaSEi>
     6f0:	bf00      	nop
     6f2:	bd80      	pop	{r7, pc}
     6f4:	100002d4 	.word	0x100002d4
     6f8:	100004f0 	.word	0x100004f0
     6fc:	100002ec 	.word	0x100002ec
     700:	1000022c 	.word	0x1000022c
     704:	80808081 	.word	0x80808081
     708:	100004ec 	.word	0x100004ec

0000070c <_Z21init_serial_interruptv>:
     70c:	b580      	push	{r7, lr}
     70e:	af00      	add	r7, sp, #0
     710:	4807      	ldr	r0, [pc, #28]	; (730 <_Z21init_serial_interruptv+0x24>)
     712:	f44f 5116 	mov.w	r1, #9600	; 0x2580
     716:	f003 f9e3 	bl	3ae0 <_ZN4mbed6Serial4baudEi>
     71a:	4805      	ldr	r0, [pc, #20]	; (730 <_Z21init_serial_interruptv+0x24>)
     71c:	4905      	ldr	r1, [pc, #20]	; (734 <_Z21init_serial_interruptv+0x28>)
     71e:	2200      	movs	r2, #0
     720:	f003 f9ea 	bl	3af8 <_ZN4mbed6Serial6attachEPFvvENS0_7IrqTypeE>
     724:	4802      	ldr	r0, [pc, #8]	; (730 <_Z21init_serial_interruptv+0x24>)
     726:	4904      	ldr	r1, [pc, #16]	; (738 <_Z21init_serial_interruptv+0x2c>)
     728:	2201      	movs	r2, #1
     72a:	f003 f9e5 	bl	3af8 <_ZN4mbed6Serial6attachEPFvvENS0_7IrqTypeE>
     72e:	bd80      	pop	{r7, pc}
     730:	1000022c 	.word	0x1000022c
     734:	000005e9 	.word	0x000005e9
     738:	00000689 	.word	0x00000689

0000073c <_Z13parse_commandPc>:
     73c:	b480      	push	{r7}
     73e:	b083      	sub	sp, #12
     740:	af00      	add	r7, sp, #0
     742:	6078      	str	r0, [r7, #4]
     744:	687b      	ldr	r3, [r7, #4]
     746:	781b      	ldrb	r3, [r3, #0]
     748:	2b77      	cmp	r3, #119	; 0x77
     74a:	d101      	bne.n	750 <_Z13parse_commandPc+0x14>
     74c:	2300      	movs	r3, #0
     74e:	e01d      	b.n	78c <_Z13parse_commandPc+0x50>
     750:	687b      	ldr	r3, [r7, #4]
     752:	781b      	ldrb	r3, [r3, #0]
     754:	2b78      	cmp	r3, #120	; 0x78
     756:	d101      	bne.n	75c <_Z13parse_commandPc+0x20>
     758:	2301      	movs	r3, #1
     75a:	e017      	b.n	78c <_Z13parse_commandPc+0x50>
     75c:	687b      	ldr	r3, [r7, #4]
     75e:	781b      	ldrb	r3, [r3, #0]
     760:	2b64      	cmp	r3, #100	; 0x64
     762:	d101      	bne.n	768 <_Z13parse_commandPc+0x2c>
     764:	2302      	movs	r3, #2
     766:	e011      	b.n	78c <_Z13parse_commandPc+0x50>
     768:	687b      	ldr	r3, [r7, #4]
     76a:	781b      	ldrb	r3, [r3, #0]
     76c:	2b61      	cmp	r3, #97	; 0x61
     76e:	d101      	bne.n	774 <_Z13parse_commandPc+0x38>
     770:	2303      	movs	r3, #3
     772:	e00b      	b.n	78c <_Z13parse_commandPc+0x50>
     774:	687b      	ldr	r3, [r7, #4]
     776:	781b      	ldrb	r3, [r3, #0]
     778:	2b73      	cmp	r3, #115	; 0x73
     77a:	d101      	bne.n	780 <_Z13parse_commandPc+0x44>
     77c:	2304      	movs	r3, #4
     77e:	e005      	b.n	78c <_Z13parse_commandPc+0x50>
     780:	687b      	ldr	r3, [r7, #4]
     782:	781b      	ldrb	r3, [r3, #0]
     784:	2b62      	cmp	r3, #98	; 0x62
     786:	d101      	bne.n	78c <_Z13parse_commandPc+0x50>
     788:	2305      	movs	r3, #5
     78a:	e7ff      	b.n	78c <_Z13parse_commandPc+0x50>
     78c:	4618      	mov	r0, r3
     78e:	370c      	adds	r7, #12
     790:	46bd      	mov	sp, r7
     792:	f85d 7b04 	ldr.w	r7, [sp], #4
     796:	4770      	bx	lr

00000798 <_Z10parse_argsPc>:
     798:	b480      	push	{r7}
     79a:	b087      	sub	sp, #28
     79c:	af00      	add	r7, sp, #0
     79e:	6078      	str	r0, [r7, #4]
     7a0:	687b      	ldr	r3, [r7, #4]
     7a2:	3302      	adds	r3, #2
     7a4:	617b      	str	r3, [r7, #20]
     7a6:	2300      	movs	r3, #0
     7a8:	613b      	str	r3, [r7, #16]
     7aa:	697b      	ldr	r3, [r7, #20]
     7ac:	781b      	ldrb	r3, [r3, #0]
     7ae:	73fb      	strb	r3, [r7, #15]
     7b0:	7bfb      	ldrb	r3, [r7, #15]
     7b2:	2b39      	cmp	r3, #57	; 0x39
     7b4:	d802      	bhi.n	7bc <_Z10parse_argsPc+0x24>
     7b6:	7bfb      	ldrb	r3, [r7, #15]
     7b8:	3b30      	subs	r3, #48	; 0x30
     7ba:	613b      	str	r3, [r7, #16]
     7bc:	697b      	ldr	r3, [r7, #20]
     7be:	3301      	adds	r3, #1
     7c0:	617b      	str	r3, [r7, #20]
     7c2:	e00c      	b.n	7de <_Z10parse_argsPc+0x46>
     7c4:	693a      	ldr	r2, [r7, #16]
     7c6:	4613      	mov	r3, r2
     7c8:	009b      	lsls	r3, r3, #2
     7ca:	4413      	add	r3, r2
     7cc:	005b      	lsls	r3, r3, #1
     7ce:	461a      	mov	r2, r3
     7d0:	697b      	ldr	r3, [r7, #20]
     7d2:	1c59      	adds	r1, r3, #1
     7d4:	6179      	str	r1, [r7, #20]
     7d6:	781b      	ldrb	r3, [r3, #0]
     7d8:	3b30      	subs	r3, #48	; 0x30
     7da:	4413      	add	r3, r2
     7dc:	613b      	str	r3, [r7, #16]
     7de:	697b      	ldr	r3, [r7, #20]
     7e0:	781b      	ldrb	r3, [r3, #0]
     7e2:	2b2f      	cmp	r3, #47	; 0x2f
     7e4:	d903      	bls.n	7ee <_Z10parse_argsPc+0x56>
     7e6:	697b      	ldr	r3, [r7, #20]
     7e8:	781b      	ldrb	r3, [r3, #0]
     7ea:	2b39      	cmp	r3, #57	; 0x39
     7ec:	d9ea      	bls.n	7c4 <_Z10parse_argsPc+0x2c>
     7ee:	693b      	ldr	r3, [r7, #16]
     7f0:	4618      	mov	r0, r3
     7f2:	371c      	adds	r7, #28
     7f4:	46bd      	mov	sp, r7
     7f6:	f85d 7b04 	ldr.w	r7, [sp], #4
     7fa:	4770      	bx	lr
     7fc:	0000      	movs	r0, r0
	...

00000800 <_Z7execute9COMMAND_ti>:
     800:	b580      	push	{r7, lr}
     802:	b084      	sub	sp, #16
     804:	af00      	add	r7, sp, #0
     806:	4603      	mov	r3, r0
     808:	6039      	str	r1, [r7, #0]
     80a:	71fb      	strb	r3, [r7, #7]
     80c:	6838      	ldr	r0, [r7, #0]
     80e:	f005 f9f9 	bl	5c04 <__aeabi_i2f>
     812:	4603      	mov	r3, r0
     814:	4618      	mov	r0, r3
     816:	f004 fdd5 	bl	53c4 <__aeabi_f2d>
     81a:	4602      	mov	r2, r0
     81c:	460b      	mov	r3, r1
     81e:	4610      	mov	r0, r2
     820:	4619      	mov	r1, r3
     822:	a317      	add	r3, pc, #92	; (adr r3, 880 <Heap_Size+0x80>)
     824:	e9d3 2300 	ldrd	r2, r3, [r3]
     828:	f004 fe20 	bl	546c <__aeabi_dmul>
     82c:	4602      	mov	r2, r0
     82e:	460b      	mov	r3, r1
     830:	4610      	mov	r0, r2
     832:	4619      	mov	r1, r3
     834:	f005 f8dc 	bl	59f0 <__aeabi_d2f>
     838:	4603      	mov	r3, r0
     83a:	60fb      	str	r3, [r7, #12]
     83c:	79fb      	ldrb	r3, [r7, #7]
     83e:	2b04      	cmp	r3, #4
     840:	d101      	bne.n	846 <_Z7execute9COMMAND_ti+0x46>
     842:	f7ff fd75 	bl	330 <_Z5_stopv>
     846:	79fb      	ldrb	r3, [r7, #7]
     848:	2b00      	cmp	r3, #0
     84a:	d102      	bne.n	852 <_Z7execute9COMMAND_ti+0x52>
     84c:	68f8      	ldr	r0, [r7, #12]
     84e:	f7ff fd33 	bl	2b8 <_Z4pushf>
     852:	79fb      	ldrb	r3, [r7, #7]
     854:	2b01      	cmp	r3, #1
     856:	d102      	bne.n	85e <_Z7execute9COMMAND_ti+0x5e>
     858:	68f8      	ldr	r0, [r7, #12]
     85a:	f7ff fda1 	bl	3a0 <_Z4pullf>
     85e:	79fb      	ldrb	r3, [r7, #7]
     860:	2b02      	cmp	r3, #2
     862:	d002      	beq.n	86a <Heap_Size+0x6a>
     864:	79fb      	ldrb	r3, [r7, #7]
     866:	2b03      	cmp	r3, #3
     868:	d102      	bne.n	870 <Heap_Size+0x70>
     86a:	68f8      	ldr	r0, [r7, #12]
     86c:	f7ff fd42 	bl	2f4 <_Z4turnf>
     870:	79fb      	ldrb	r3, [r7, #7]
     872:	2b05      	cmp	r3, #5
     874:	d101      	bne.n	87a <Heap_Size+0x7a>
     876:	f7ff fd77 	bl	368 <_Z6_breakv>
     87a:	3710      	adds	r7, #16
     87c:	46bd      	mov	sp, r7
     87e:	bd80      	pop	{r7, pc}
     880:	47ae147b 	.word	0x47ae147b
     884:	3f847ae1 	.word	0x3f847ae1

00000888 <_Z14read_voltage24v>:
     888:	b580      	push	{r7, lr}
     88a:	b082      	sub	sp, #8
     88c:	af00      	add	r7, sp, #0
     88e:	f04f 507c 	mov.w	r0, #1056964608	; 0x3f000000
     892:	f003 f8d1 	bl	3a38 <wait>
     896:	481a      	ldr	r0, [pc, #104]	; (900 <_Z14read_voltage24v+0x78>)
     898:	f7ff fcd6 	bl	248 <_ZN4mbed8AnalogIncvfEv>
     89c:	6078      	str	r0, [r7, #4]
     89e:	f04f 507c 	mov.w	r0, #1056964608	; 0x3f000000
     8a2:	f003 f8c9 	bl	3a38 <wait>
     8a6:	4816      	ldr	r0, [pc, #88]	; (900 <_Z14read_voltage24v+0x78>)
     8a8:	f7ff fcce 	bl	248 <_ZN4mbed8AnalogIncvfEv>
     8ac:	6078      	str	r0, [r7, #4]
     8ae:	f04f 507c 	mov.w	r0, #1056964608	; 0x3f000000
     8b2:	f003 f8c1 	bl	3a38 <wait>
     8b6:	4812      	ldr	r0, [pc, #72]	; (900 <_Z14read_voltage24v+0x78>)
     8b8:	f7ff fcc6 	bl	248 <_ZN4mbed8AnalogIncvfEv>
     8bc:	6078      	str	r0, [r7, #4]
     8be:	4810      	ldr	r0, [pc, #64]	; (900 <_Z14read_voltage24v+0x78>)
     8c0:	f7ff fcc2 	bl	248 <_ZN4mbed8AnalogIncvfEv>
     8c4:	4603      	mov	r3, r0
     8c6:	4618      	mov	r0, r3
     8c8:	f004 fd7c 	bl	53c4 <__aeabi_f2d>
     8cc:	4602      	mov	r2, r0
     8ce:	460b      	mov	r3, r1
     8d0:	4610      	mov	r0, r2
     8d2:	4619      	mov	r1, r3
     8d4:	a308      	add	r3, pc, #32	; (adr r3, 8f8 <_Z14read_voltage24v+0x70>)
     8d6:	e9d3 2300 	ldrd	r2, r3, [r3]
     8da:	f004 fdc7 	bl	546c <__aeabi_dmul>
     8de:	4602      	mov	r2, r0
     8e0:	460b      	mov	r3, r1
     8e2:	4610      	mov	r0, r2
     8e4:	4619      	mov	r1, r3
     8e6:	f005 f85b 	bl	59a0 <__aeabi_d2iz>
     8ea:	4603      	mov	r3, r0
     8ec:	4618      	mov	r0, r3
     8ee:	3708      	adds	r7, #8
     8f0:	46bd      	mov	sp, r7
     8f2:	bd80      	pop	{r7, pc}
     8f4:	f3af 8000 	nop.w
     8f8:	00000000 	.word	0x00000000
     8fc:	4074a000 	.word	0x4074a000
     900:	100005a0 	.word	0x100005a0
     904:	f3af 8000 	nop.w

00000908 <_Z14read_voltage48v>:
     908:	b580      	push	{r7, lr}
     90a:	b082      	sub	sp, #8
     90c:	af00      	add	r7, sp, #0
     90e:	f04f 507c 	mov.w	r0, #1056964608	; 0x3f000000
     912:	f003 f891 	bl	3a38 <wait>
     916:	4817      	ldr	r0, [pc, #92]	; (974 <_Z14read_voltage48v+0x6c>)
     918:	f7ff fc96 	bl	248 <_ZN4mbed8AnalogIncvfEv>
     91c:	6078      	str	r0, [r7, #4]
     91e:	f04f 507c 	mov.w	r0, #1056964608	; 0x3f000000
     922:	f003 f889 	bl	3a38 <wait>
     926:	4813      	ldr	r0, [pc, #76]	; (974 <_Z14read_voltage48v+0x6c>)
     928:	f7ff fc8e 	bl	248 <_ZN4mbed8AnalogIncvfEv>
     92c:	6078      	str	r0, [r7, #4]
     92e:	f04f 507c 	mov.w	r0, #1056964608	; 0x3f000000
     932:	f003 f881 	bl	3a38 <wait>
     936:	480f      	ldr	r0, [pc, #60]	; (974 <_Z14read_voltage48v+0x6c>)
     938:	f7ff fc86 	bl	248 <_ZN4mbed8AnalogIncvfEv>
     93c:	6078      	str	r0, [r7, #4]
     93e:	480d      	ldr	r0, [pc, #52]	; (974 <_Z14read_voltage48v+0x6c>)
     940:	f7ff fc82 	bl	248 <_ZN4mbed8AnalogIncvfEv>
     944:	4603      	mov	r3, r0
     946:	4618      	mov	r0, r3
     948:	f004 fd3c 	bl	53c4 <__aeabi_f2d>
     94c:	4602      	mov	r2, r0
     94e:	460b      	mov	r3, r1
     950:	4610      	mov	r0, r2
     952:	4619      	mov	r1, r3
     954:	f04f 0200 	mov.w	r2, #0
     958:	4b07      	ldr	r3, [pc, #28]	; (978 <_Z14read_voltage48v+0x70>)
     95a:	f004 fd87 	bl	546c <__aeabi_dmul>
     95e:	4602      	mov	r2, r0
     960:	460b      	mov	r3, r1
     962:	4610      	mov	r0, r2
     964:	4619      	mov	r1, r3
     966:	f005 f81b 	bl	59a0 <__aeabi_d2iz>
     96a:	4603      	mov	r3, r0
     96c:	4618      	mov	r0, r3
     96e:	3708      	adds	r7, #8
     970:	46bd      	mov	sp, r7
     972:	bd80      	pop	{r7, pc}
     974:	100005a4 	.word	0x100005a4
     978:	40829000 	.word	0x40829000
     97c:	00000000 	.word	0x00000000

00000980 <_Z8read_potv>:
     980:	b580      	push	{r7, lr}
     982:	b082      	sub	sp, #8
     984:	af00      	add	r7, sp, #0
     986:	f04f 507c 	mov.w	r0, #1056964608	; 0x3f000000
     98a:	f003 f855 	bl	3a38 <wait>
     98e:	481a      	ldr	r0, [pc, #104]	; (9f8 <_Z8read_potv+0x78>)
     990:	f7ff fc5a 	bl	248 <_ZN4mbed8AnalogIncvfEv>
     994:	6078      	str	r0, [r7, #4]
     996:	f04f 507c 	mov.w	r0, #1056964608	; 0x3f000000
     99a:	f003 f84d 	bl	3a38 <wait>
     99e:	4816      	ldr	r0, [pc, #88]	; (9f8 <_Z8read_potv+0x78>)
     9a0:	f7ff fc52 	bl	248 <_ZN4mbed8AnalogIncvfEv>
     9a4:	6078      	str	r0, [r7, #4]
     9a6:	f04f 507c 	mov.w	r0, #1056964608	; 0x3f000000
     9aa:	f003 f845 	bl	3a38 <wait>
     9ae:	4812      	ldr	r0, [pc, #72]	; (9f8 <_Z8read_potv+0x78>)
     9b0:	f7ff fc4a 	bl	248 <_ZN4mbed8AnalogIncvfEv>
     9b4:	6078      	str	r0, [r7, #4]
     9b6:	4810      	ldr	r0, [pc, #64]	; (9f8 <_Z8read_potv+0x78>)
     9b8:	f7ff fc46 	bl	248 <_ZN4mbed8AnalogIncvfEv>
     9bc:	4603      	mov	r3, r0
     9be:	4618      	mov	r0, r3
     9c0:	f004 fd00 	bl	53c4 <__aeabi_f2d>
     9c4:	4602      	mov	r2, r0
     9c6:	460b      	mov	r3, r1
     9c8:	4610      	mov	r0, r2
     9ca:	4619      	mov	r1, r3
     9cc:	a308      	add	r3, pc, #32	; (adr r3, 9f0 <_Z8read_potv+0x70>)
     9ce:	e9d3 2300 	ldrd	r2, r3, [r3]
     9d2:	f004 fd4b 	bl	546c <__aeabi_dmul>
     9d6:	4602      	mov	r2, r0
     9d8:	460b      	mov	r3, r1
     9da:	4610      	mov	r0, r2
     9dc:	4619      	mov	r1, r3
     9de:	f004 ffdf 	bl	59a0 <__aeabi_d2iz>
     9e2:	4603      	mov	r3, r0
     9e4:	4618      	mov	r0, r3
     9e6:	3708      	adds	r7, #8
     9e8:	46bd      	mov	sp, r7
     9ea:	bd80      	pop	{r7, pc}
     9ec:	f3af 8000 	nop.w
     9f0:	00000000 	.word	0x00000000
     9f4:	4074a000 	.word	0x4074a000
     9f8:	1000059c 	.word	0x1000059c
     9fc:	f3af 8000 	nop.w

00000a00 <main>:
     a00:	b5b0      	push	{r4, r5, r7, lr}
     a02:	b086      	sub	sp, #24
     a04:	af02      	add	r7, sp, #8
     a06:	2300      	movs	r3, #0
     a08:	60fb      	str	r3, [r7, #12]
     a0a:	2300      	movs	r3, #0
     a0c:	60bb      	str	r3, [r7, #8]
     a0e:	f7ff fe7d 	bl	70c <_Z21init_serial_interruptv>
     a12:	f7ff fd89 	bl	528 <_Z9read_linev>
     a16:	4810      	ldr	r0, [pc, #64]	; (a58 <main+0x58>)
     a18:	f7ff fe90 	bl	73c <_Z13parse_commandPc>
     a1c:	4603      	mov	r3, r0
     a1e:	71fb      	strb	r3, [r7, #7]
     a20:	480d      	ldr	r0, [pc, #52]	; (a58 <main+0x58>)
     a22:	f7ff feb9 	bl	798 <_Z10parse_argsPc>
     a26:	6038      	str	r0, [r7, #0]
     a28:	79fb      	ldrb	r3, [r7, #7]
     a2a:	4618      	mov	r0, r3
     a2c:	6839      	ldr	r1, [r7, #0]
     a2e:	f7ff fee7 	bl	800 <_Z7execute9COMMAND_ti>
     a32:	f7ff ffa5 	bl	980 <_Z8read_potv>
     a36:	4605      	mov	r5, r0
     a38:	f7ff ff26 	bl	888 <_Z14read_voltage24v>
     a3c:	4604      	mov	r4, r0
     a3e:	f7ff ff63 	bl	908 <_Z14read_voltage48v>
     a42:	4603      	mov	r3, r0
     a44:	9300      	str	r3, [sp, #0]
     a46:	4805      	ldr	r0, [pc, #20]	; (a5c <main+0x5c>)
     a48:	4905      	ldr	r1, [pc, #20]	; (a60 <main+0x60>)
     a4a:	462a      	mov	r2, r5
     a4c:	4623      	mov	r3, r4
     a4e:	f006 f975 	bl	6d3c <siprintf>
     a52:	f7ff fcc3 	bl	3dc <_Z9send_linev>
     a56:	e7dc      	b.n	a12 <main+0x12>
     a58:	1000054c 	.word	0x1000054c
     a5c:	100004fc 	.word	0x100004fc
     a60:	0000b4a4 	.word	0x0000b4a4

00000a64 <_ZN4mbed6SerialD1Ev>:
     a64:	b580      	push	{r7, lr}
     a66:	b082      	sub	sp, #8
     a68:	af00      	add	r7, sp, #0
     a6a:	6078      	str	r0, [r7, #4]
     a6c:	687b      	ldr	r3, [r7, #4]
     a6e:	4a0a      	ldr	r2, [pc, #40]	; (a98 <_ZN4mbed6SerialD1Ev+0x34>)
     a70:	601a      	str	r2, [r3, #0]
     a72:	687b      	ldr	r3, [r7, #4]
     a74:	4a09      	ldr	r2, [pc, #36]	; (a9c <_ZN4mbed6SerialD1Ev+0x38>)
     a76:	605a      	str	r2, [r3, #4]
     a78:	687b      	ldr	r3, [r7, #4]
     a7a:	4618      	mov	r0, r3
     a7c:	f003 fa68 	bl	3f50 <_ZN4mbed6StreamD1Ev>
     a80:	2300      	movs	r3, #0
     a82:	2b00      	cmp	r3, #0
     a84:	d002      	beq.n	a8c <_ZN4mbed6SerialD1Ev+0x28>
     a86:	6878      	ldr	r0, [r7, #4]
     a88:	f004 f855 	bl	4b36 <_ZdlPv>
     a8c:	687b      	ldr	r3, [r7, #4]
     a8e:	4618      	mov	r0, r3
     a90:	3708      	adds	r7, #8
     a92:	46bd      	mov	sp, r7
     a94:	bd80      	pop	{r7, pc}
     a96:	bf00      	nop
     a98:	0000c290 	.word	0x0000c290
     a9c:	0000c2c4 	.word	0x0000c2c4

00000aa0 <_ZThn4_N4mbed6SerialD1Ev>:
     aa0:	f1a0 0004 	sub.w	r0, r0, #4
     aa4:	f7ff bfde 	b.w	a64 <_ZN4mbed6SerialD1Ev>

00000aa8 <_ZN4mbed6SerialD0Ev>:
     aa8:	b580      	push	{r7, lr}
     aaa:	b082      	sub	sp, #8
     aac:	af00      	add	r7, sp, #0
     aae:	6078      	str	r0, [r7, #4]
     ab0:	6878      	ldr	r0, [r7, #4]
     ab2:	f7ff ffd7 	bl	a64 <_ZN4mbed6SerialD1Ev>
     ab6:	6878      	ldr	r0, [r7, #4]
     ab8:	f004 f83d 	bl	4b36 <_ZdlPv>
     abc:	687b      	ldr	r3, [r7, #4]
     abe:	4618      	mov	r0, r3
     ac0:	3708      	adds	r7, #8
     ac2:	46bd      	mov	sp, r7
     ac4:	bd80      	pop	{r7, pc}
     ac6:	bf00      	nop

00000ac8 <_ZThn4_N4mbed6SerialD0Ev>:
     ac8:	f1a0 0004 	sub.w	r0, r0, #4
     acc:	e7ec      	b.n	aa8 <_ZN4mbed6SerialD0Ev>
     ace:	bf00      	nop

00000ad0 <_Z41__static_initialization_and_destruction_0ii>:
     ad0:	b580      	push	{r7, lr}
     ad2:	b082      	sub	sp, #8
     ad4:	af00      	add	r7, sp, #0
     ad6:	6078      	str	r0, [r7, #4]
     ad8:	6039      	str	r1, [r7, #0]
     ada:	687b      	ldr	r3, [r7, #4]
     adc:	2b01      	cmp	r3, #1
     ade:	d133      	bne.n	b48 <_Z41__static_initialization_and_destruction_0ii+0x78>
     ae0:	683a      	ldr	r2, [r7, #0]
     ae2:	f64f 73ff 	movw	r3, #65535	; 0xffff
     ae6:	429a      	cmp	r2, r3
     ae8:	d12e      	bne.n	b48 <_Z41__static_initialization_and_destruction_0ii+0x78>
     aea:	4819      	ldr	r0, [pc, #100]	; (b50 <_Z41__static_initialization_and_destruction_0ii+0x80>)
     aec:	4919      	ldr	r1, [pc, #100]	; (b54 <_Z41__static_initialization_and_destruction_0ii+0x84>)
     aee:	4a1a      	ldr	r2, [pc, #104]	; (b58 <_Z41__static_initialization_and_destruction_0ii+0x88>)
     af0:	2300      	movs	r3, #0
     af2:	f002 ffc9 	bl	3a88 <_ZN4mbed6SerialC1E7PinNameS1_PKc>
     af6:	4816      	ldr	r0, [pc, #88]	; (b50 <_Z41__static_initialization_and_destruction_0ii+0x80>)
     af8:	4918      	ldr	r1, [pc, #96]	; (b5c <_Z41__static_initialization_and_destruction_0ii+0x8c>)
     afa:	4a19      	ldr	r2, [pc, #100]	; (b60 <_Z41__static_initialization_and_destruction_0ii+0x90>)
     afc:	f003 ffa6 	bl	4a4c <__aeabi_atexit>
     b00:	4818      	ldr	r0, [pc, #96]	; (b64 <_Z41__static_initialization_and_destruction_0ii+0x94>)
     b02:	4919      	ldr	r1, [pc, #100]	; (b68 <_Z41__static_initialization_and_destruction_0ii+0x98>)
     b04:	f7ff fbac 	bl	260 <_ZN4mbed9AnalogOutC1E7PinName>
     b08:	4818      	ldr	r0, [pc, #96]	; (b6c <_Z41__static_initialization_and_destruction_0ii+0x9c>)
     b0a:	4919      	ldr	r1, [pc, #100]	; (b70 <_Z41__static_initialization_and_destruction_0ii+0xa0>)
     b0c:	f7ff fb7e 	bl	20c <_ZN4mbed8AnalogInC1E7PinName>
     b10:	4818      	ldr	r0, [pc, #96]	; (b74 <_Z41__static_initialization_and_destruction_0ii+0xa4>)
     b12:	4919      	ldr	r1, [pc, #100]	; (b78 <_Z41__static_initialization_and_destruction_0ii+0xa8>)
     b14:	f7ff fb4e 	bl	1b4 <_ZN4mbed10DigitalOutC1E7PinName>
     b18:	4818      	ldr	r0, [pc, #96]	; (b7c <_Z41__static_initialization_and_destruction_0ii+0xac>)
     b1a:	4919      	ldr	r1, [pc, #100]	; (b80 <_Z41__static_initialization_and_destruction_0ii+0xb0>)
     b1c:	f7ff fb4a 	bl	1b4 <_ZN4mbed10DigitalOutC1E7PinName>
     b20:	4818      	ldr	r0, [pc, #96]	; (b84 <_Z41__static_initialization_and_destruction_0ii+0xb4>)
     b22:	4919      	ldr	r1, [pc, #100]	; (b88 <_Z41__static_initialization_and_destruction_0ii+0xb8>)
     b24:	f7ff fb46 	bl	1b4 <_ZN4mbed10DigitalOutC1E7PinName>
     b28:	4818      	ldr	r0, [pc, #96]	; (b8c <_Z41__static_initialization_and_destruction_0ii+0xbc>)
     b2a:	4919      	ldr	r1, [pc, #100]	; (b90 <_Z41__static_initialization_and_destruction_0ii+0xc0>)
     b2c:	f7ff fb42 	bl	1b4 <_ZN4mbed10DigitalOutC1E7PinName>
     b30:	4818      	ldr	r0, [pc, #96]	; (b94 <_Z41__static_initialization_and_destruction_0ii+0xc4>)
     b32:	4919      	ldr	r1, [pc, #100]	; (b98 <_Z41__static_initialization_and_destruction_0ii+0xc8>)
     b34:	f7ff fb6a 	bl	20c <_ZN4mbed8AnalogInC1E7PinName>
     b38:	4818      	ldr	r0, [pc, #96]	; (b9c <_Z41__static_initialization_and_destruction_0ii+0xcc>)
     b3a:	4919      	ldr	r1, [pc, #100]	; (ba0 <_Z41__static_initialization_and_destruction_0ii+0xd0>)
     b3c:	f7ff fb66 	bl	20c <_ZN4mbed8AnalogInC1E7PinName>
     b40:	4818      	ldr	r0, [pc, #96]	; (ba4 <_Z41__static_initialization_and_destruction_0ii+0xd4>)
     b42:	4919      	ldr	r1, [pc, #100]	; (ba8 <_Z41__static_initialization_and_destruction_0ii+0xd8>)
     b44:	f7ff fb62 	bl	20c <_ZN4mbed8AnalogInC1E7PinName>
     b48:	3708      	adds	r7, #8
     b4a:	46bd      	mov	sp, r7
     b4c:	bd80      	pop	{r7, pc}
     b4e:	bf00      	nop
     b50:	1000022c 	.word	0x1000022c
     b54:	2009c002 	.word	0x2009c002
     b58:	2009c003 	.word	0x2009c003
     b5c:	00000a65 	.word	0x00000a65
     b60:	100000c8 	.word	0x100000c8
     b64:	10000284 	.word	0x10000284
     b68:	2009c01a 	.word	0x2009c01a
     b6c:	10000288 	.word	0x10000288
     b70:	2009c03e 	.word	0x2009c03e
     b74:	1000028c 	.word	0x1000028c
     b78:	2009c012 	.word	0x2009c012
     b7c:	100002a4 	.word	0x100002a4
     b80:	2009c00f 	.word	0x2009c00f
     b84:	100002bc 	.word	0x100002bc
     b88:	2009c032 	.word	0x2009c032
     b8c:	100002d4 	.word	0x100002d4
     b90:	2009c034 	.word	0x2009c034
     b94:	1000059c 	.word	0x1000059c
     b98:	2009c017 	.word	0x2009c017
     b9c:	100005a0 	.word	0x100005a0
     ba0:	2009c018 	.word	0x2009c018
     ba4:	100005a4 	.word	0x100005a4
     ba8:	2009c019 	.word	0x2009c019

00000bac <_GLOBAL__sub_I_pc>:
     bac:	b580      	push	{r7, lr}
     bae:	af00      	add	r7, sp, #0
     bb0:	2001      	movs	r0, #1
     bb2:	f64f 71ff 	movw	r1, #65535	; 0xffff
     bb6:	f7ff ff8b 	bl	ad0 <_Z41__static_initialization_and_destruction_0ii>
     bba:	bd80      	pop	{r7, pc}

00000bbc <_start>:
     bbc:	b580      	push	{r7, lr}
     bbe:	b082      	sub	sp, #8
     bc0:	af00      	add	r7, sp, #0
     bc2:	4a0c      	ldr	r2, [pc, #48]	; (bf4 <_start+0x38>)
     bc4:	4b0c      	ldr	r3, [pc, #48]	; (bf8 <_start+0x3c>)
     bc6:	1ad3      	subs	r3, r2, r3
     bc8:	607b      	str	r3, [r7, #4]
     bca:	687b      	ldr	r3, [r7, #4]
     bcc:	480a      	ldr	r0, [pc, #40]	; (bf8 <_start+0x3c>)
     bce:	2100      	movs	r1, #0
     bd0:	461a      	mov	r2, r3
     bd2:	f005 fe68 	bl	68a6 <memset>
     bd6:	4809      	ldr	r0, [pc, #36]	; (bfc <_start+0x40>)
     bd8:	f000 f86c 	bl	cb4 <__mriInit>
     bdc:	be00      	bkpt	0x0000
     bde:	f3af 8000 	nop.w
     be2:	f005 fdc7 	bl	6774 <__libc_init_array>
     be6:	f7ff ff0b 	bl	a00 <main>
     bea:	6038      	str	r0, [r7, #0]
     bec:	6838      	ldr	r0, [r7, #0]
     bee:	f002 fe97 	bl	3920 <exit>
     bf2:	bf00      	nop
     bf4:	10000a3c 	.word	0x10000a3c
     bf8:	10000210 	.word	0x10000210
     bfc:	0000b4b0 	.word	0x0000b4b0

00000c00 <__wrap__read>:
     c00:	b580      	push	{r7, lr}
     c02:	b084      	sub	sp, #16
     c04:	af00      	add	r7, sp, #0
     c06:	60f8      	str	r0, [r7, #12]
     c08:	60b9      	str	r1, [r7, #8]
     c0a:	607a      	str	r2, [r7, #4]
     c0c:	68fb      	ldr	r3, [r7, #12]
     c0e:	2b02      	cmp	r3, #2
     c10:	dc06      	bgt.n	c20 <Stack_Size+0x20>
     c12:	68f8      	ldr	r0, [r7, #12]
     c14:	68b9      	ldr	r1, [r7, #8]
     c16:	687a      	ldr	r2, [r7, #4]
     c18:	f001 fc96 	bl	2548 <__mriNewlib_SemihostRead>
     c1c:	4603      	mov	r3, r0
     c1e:	e005      	b.n	c2c <Stack_Size+0x2c>
     c20:	68f8      	ldr	r0, [r7, #12]
     c22:	68b9      	ldr	r1, [r7, #8]
     c24:	687a      	ldr	r2, [r7, #4]
     c26:	f003 f8cd 	bl	3dc4 <_read>
     c2a:	4603      	mov	r3, r0
     c2c:	4618      	mov	r0, r3
     c2e:	3710      	adds	r7, #16
     c30:	46bd      	mov	sp, r7
     c32:	bd80      	pop	{r7, pc}

00000c34 <__wrap__write>:
     c34:	b580      	push	{r7, lr}
     c36:	b084      	sub	sp, #16
     c38:	af00      	add	r7, sp, #0
     c3a:	60f8      	str	r0, [r7, #12]
     c3c:	60b9      	str	r1, [r7, #8]
     c3e:	607a      	str	r2, [r7, #4]
     c40:	68fb      	ldr	r3, [r7, #12]
     c42:	2b02      	cmp	r3, #2
     c44:	dc06      	bgt.n	c54 <__wrap__write+0x20>
     c46:	68f8      	ldr	r0, [r7, #12]
     c48:	68b9      	ldr	r1, [r7, #8]
     c4a:	687a      	ldr	r2, [r7, #4]
     c4c:	f001 fc7a 	bl	2544 <__mriNewlib_SemihostWrite>
     c50:	4603      	mov	r3, r0
     c52:	e005      	b.n	c60 <__wrap__write+0x2c>
     c54:	68f8      	ldr	r0, [r7, #12]
     c56:	68b9      	ldr	r1, [r7, #8]
     c58:	687a      	ldr	r2, [r7, #4]
     c5a:	f003 f86d 	bl	3d38 <_write>
     c5e:	4603      	mov	r3, r0
     c60:	4618      	mov	r0, r3
     c62:	3710      	adds	r7, #16
     c64:	46bd      	mov	sp, r7
     c66:	bd80      	pop	{r7, pc}

00000c68 <__wrap__isatty>:
     c68:	b580      	push	{r7, lr}
     c6a:	b082      	sub	sp, #8
     c6c:	af00      	add	r7, sp, #0
     c6e:	6078      	str	r0, [r7, #4]
     c70:	687b      	ldr	r3, [r7, #4]
     c72:	2b02      	cmp	r3, #2
     c74:	dc01      	bgt.n	c7a <__wrap__isatty+0x12>
     c76:	2301      	movs	r3, #1
     c78:	e003      	b.n	c82 <__wrap__isatty+0x1a>
     c7a:	6878      	ldr	r0, [r7, #4]
     c7c:	f00a fbe0 	bl	b440 <_isatty>
     c80:	4603      	mov	r3, r0
     c82:	4618      	mov	r0, r3
     c84:	3708      	adds	r7, #8
     c86:	46bd      	mov	sp, r7
     c88:	bd80      	pop	{r7, pc}
     c8a:	bf00      	nop

00000c8c <__wrap_semihost_connected>:
     c8c:	b480      	push	{r7}
     c8e:	af00      	add	r7, sp, #0
     c90:	f04f 33ff 	mov.w	r3, #4294967295	; 0xffffffff
     c94:	4618      	mov	r0, r3
     c96:	46bd      	mov	sp, r7
     c98:	f85d 7b04 	ldr.w	r7, [sp], #4
     c9c:	4770      	bx	lr
     c9e:	bf00      	nop

00000ca0 <abort>:
     ca0:	b580      	push	{r7, lr}
     ca2:	af00      	add	r7, sp, #0
     ca4:	be00      	bkpt	0x0000
     ca6:	2001      	movs	r0, #1
     ca8:	f002 fe3a 	bl	3920 <exit>

00000cac <__cxa_pure_virtual>:
     cac:	b580      	push	{r7, lr}
     cae:	af00      	add	r7, sp, #0
     cb0:	f7ff fff6 	bl	ca0 <abort>

00000cb4 <__mriInit>:
     cb4:	b570      	push	{r4, r5, r6, lr}
     cb6:	2100      	movs	r1, #0
     cb8:	b09e      	sub	sp, #120	; 0x78
     cba:	2224      	movs	r2, #36	; 0x24
     cbc:	4604      	mov	r4, r0
     cbe:	480f      	ldr	r0, [pc, #60]	; (cfc <__mriInit+0x48>)
     cc0:	f005 fdf1 	bl	68a6 <memset>
     cc4:	4d0e      	ldr	r5, [pc, #56]	; (d00 <__mriInit+0x4c>)
     cc6:	480d      	ldr	r0, [pc, #52]	; (cfc <__mriInit+0x48>)
     cc8:	f000 f958 	bl	f7c <__mriPacket_Init>
     ccc:	2600      	movs	r6, #0
     cce:	a801      	add	r0, sp, #4
     cd0:	602e      	str	r6, [r5, #0]
     cd2:	f000 f9ed 	bl	10b0 <__mriToken_Init>
     cd6:	a801      	add	r0, sp, #4
     cd8:	4621      	mov	r1, r4
     cda:	602e      	str	r6, [r5, #0]
     cdc:	f000 f9ee 	bl	10bc <__mriToken_SplitString>
     ce0:	682b      	ldr	r3, [r5, #0]
     ce2:	b913      	cbnz	r3, cea <__mriInit+0x36>
     ce4:	a801      	add	r0, sp, #4
     ce6:	f001 f9cb 	bl	2080 <__mriPlatform_Init>
     cea:	682b      	ldr	r3, [r5, #0]
     cec:	b923      	cbnz	r3, cf8 <__mriInit+0x44>
     cee:	4b03      	ldr	r3, [pc, #12]	; (cfc <__mriInit+0x48>)
     cf0:	695a      	ldr	r2, [r3, #20]
     cf2:	f042 0203 	orr.w	r2, r2, #3
     cf6:	615a      	str	r2, [r3, #20]
     cf8:	b01e      	add	sp, #120	; 0x78
     cfa:	bd70      	pop	{r4, r5, r6, pc}
     cfc:	100005a8 	.word	0x100005a8
     d00:	10000724 	.word	0x10000724

00000d04 <__mriCore_InitBuffer>:
     d04:	b510      	push	{r4, lr}
     d06:	f000 fcb9 	bl	167c <__mriPlatform_GetPacketBuffer>
     d0a:	4604      	mov	r4, r0
     d0c:	f000 fcba 	bl	1684 <__mriPlatform_GetPacketBufferSize>
     d10:	4602      	mov	r2, r0
     d12:	4803      	ldr	r0, [pc, #12]	; (d20 <__mriCore_InitBuffer+0x1c>)
     d14:	4621      	mov	r1, r4
     d16:	e8bd 4010 	ldmia.w	sp!, {r4, lr}
     d1a:	f001 bc43 	b.w	25a4 <__mriBuffer_Init>
     d1e:	bf00      	nop
     d20:	100005b0 	.word	0x100005b0

00000d24 <__mriCore_PrepareStringResponse>:
     d24:	b510      	push	{r4, lr}
     d26:	4604      	mov	r4, r0
     d28:	f7ff ffec 	bl	d04 <__mriCore_InitBuffer>
     d2c:	4802      	ldr	r0, [pc, #8]	; (d38 <__mriCore_PrepareStringResponse+0x14>)
     d2e:	4621      	mov	r1, r4
     d30:	e8bd 4010 	ldmia.w	sp!, {r4, lr}
     d34:	f001 bce4 	b.w	2700 <__mriBuffer_WriteString>
     d38:	100005b0 	.word	0x100005b0

00000d3c <__mriCore_WasControlCFlagSentFromGdb>:
     d3c:	4b02      	ldr	r3, [pc, #8]	; (d48 <__mriCore_WasControlCFlagSentFromGdb+0xc>)
     d3e:	6958      	ldr	r0, [r3, #20]
     d40:	f000 0004 	and.w	r0, r0, #4
     d44:	4770      	bx	lr
     d46:	bf00      	nop
     d48:	100005a8 	.word	0x100005a8

00000d4c <__mriCore_IsWaitingForGdbToConnect>:
     d4c:	b508      	push	{r3, lr}
     d4e:	4b05      	ldr	r3, [pc, #20]	; (d64 <__mriCore_IsWaitingForGdbToConnect+0x18>)
     d50:	6958      	ldr	r0, [r3, #20]
     d52:	f010 0002 	ands.w	r0, r0, #2
     d56:	d004      	beq.n	d62 <__mriCore_IsWaitingForGdbToConnect+0x16>
     d58:	f000 ffc0 	bl	1cdc <__mriPlatform_CommShouldWaitForGdbConnect>
     d5c:	3000      	adds	r0, #0
     d5e:	bf18      	it	ne
     d60:	2001      	movne	r0, #1
     d62:	bd08      	pop	{r3, pc}
     d64:	100005a8 	.word	0x100005a8

00000d68 <__mriCore_RecordControlCFlagSentFromGdb>:
     d68:	4b04      	ldr	r3, [pc, #16]	; (d7c <__mriCore_RecordControlCFlagSentFromGdb+0x14>)
     d6a:	695a      	ldr	r2, [r3, #20]
     d6c:	b110      	cbz	r0, d74 <__mriCore_RecordControlCFlagSentFromGdb+0xc>
     d6e:	f042 0204 	orr.w	r2, r2, #4
     d72:	e001      	b.n	d78 <__mriCore_RecordControlCFlagSentFromGdb+0x10>
     d74:	f022 0204 	bic.w	r2, r2, #4
     d78:	615a      	str	r2, [r3, #20]
     d7a:	4770      	bx	lr
     d7c:	100005a8 	.word	0x100005a8

00000d80 <__mriCore_WasSemihostCallCancelledByGdb>:
     d80:	4b03      	ldr	r3, [pc, #12]	; (d90 <__mriCore_WasSemihostCallCancelledByGdb+0x10>)
     d82:	69d8      	ldr	r0, [r3, #28]
     d84:	f1a0 0304 	sub.w	r3, r0, #4
     d88:	4258      	negs	r0, r3
     d8a:	eb40 0003 	adc.w	r0, r0, r3
     d8e:	4770      	bx	lr
     d90:	100005a8 	.word	0x100005a8

00000d94 <__mriCore_FlagSemihostCallAsHandled>:
     d94:	b510      	push	{r4, lr}
     d96:	4c06      	ldr	r4, [pc, #24]	; (db0 <__mriCore_FlagSemihostCallAsHandled+0x1c>)
     d98:	f000 fdce 	bl	1938 <__mriPlatform_AdvanceProgramCounterToNextInstruction>
     d9c:	69a0      	ldr	r0, [r4, #24]
     d9e:	f000 fe23 	bl	19e8 <__mriPlatform_SetSemihostCallReturnValue>
     da2:	69a3      	ldr	r3, [r4, #24]
     da4:	b113      	cbz	r3, dac <__mriCore_FlagSemihostCallAsHandled+0x18>
     da6:	69e2      	ldr	r2, [r4, #28]
     da8:	4b02      	ldr	r3, [pc, #8]	; (db4 <__mriCore_FlagSemihostCallAsHandled+0x20>)
     daa:	601a      	str	r2, [r3, #0]
     dac:	bd10      	pop	{r4, pc}
     dae:	bf00      	nop
     db0:	100005a8 	.word	0x100005a8
     db4:	10000a38 	.word	0x10000a38

00000db8 <__mriCore_IsFirstException>:
     db8:	4b02      	ldr	r3, [pc, #8]	; (dc4 <__mriCore_IsFirstException+0xc>)
     dba:	6958      	ldr	r0, [r3, #20]
     dbc:	f000 0002 	and.w	r0, r0, #2
     dc0:	4770      	bx	lr
     dc2:	bf00      	nop
     dc4:	100005a8 	.word	0x100005a8

00000dc8 <__mriCore_SetSignalValue>:
     dc8:	4b01      	ldr	r3, [pc, #4]	; (dd0 <__mriCore_SetSignalValue+0x8>)
     dca:	f883 0020 	strb.w	r0, [r3, #32]
     dce:	4770      	bx	lr
     dd0:	100005a8 	.word	0x100005a8

00000dd4 <__mriCore_GetSignalValue>:
     dd4:	4b01      	ldr	r3, [pc, #4]	; (ddc <__mriCore_GetSignalValue+0x8>)
     dd6:	f893 0020 	ldrb.w	r0, [r3, #32]
     dda:	4770      	bx	lr
     ddc:	100005a8 	.word	0x100005a8

00000de0 <__mriCore_SetSemihostReturnValues>:
     de0:	4b01      	ldr	r3, [pc, #4]	; (de8 <__mriCore_SetSemihostReturnValues+0x8>)
     de2:	6198      	str	r0, [r3, #24]
     de4:	61d9      	str	r1, [r3, #28]
     de6:	4770      	bx	lr
     de8:	100005a8 	.word	0x100005a8

00000dec <__mriCore_GetSemihostReturnCode>:
     dec:	4b01      	ldr	r3, [pc, #4]	; (df4 <__mriCore_GetSemihostReturnCode+0x8>)
     dee:	6998      	ldr	r0, [r3, #24]
     df0:	4770      	bx	lr
     df2:	bf00      	nop
     df4:	100005a8 	.word	0x100005a8

00000df8 <__mriCore_GetBuffer>:
     df8:	4800      	ldr	r0, [pc, #0]	; (dfc <__mriCore_GetBuffer+0x4>)
     dfa:	4770      	bx	lr
     dfc:	100005b0 	.word	0x100005b0

00000e00 <__mriCore_GetInitializedBuffer>:
     e00:	b508      	push	{r3, lr}
     e02:	f7ff ff7f 	bl	d04 <__mriCore_InitBuffer>
     e06:	4801      	ldr	r0, [pc, #4]	; (e0c <__mriCore_GetInitializedBuffer+0xc>)
     e08:	bd08      	pop	{r3, pc}
     e0a:	bf00      	nop
     e0c:	100005b0 	.word	0x100005b0

00000e10 <__mriCore_SendPacketToGdb>:
     e10:	b508      	push	{r3, lr}
     e12:	480a      	ldr	r0, [pc, #40]	; (e3c <__mriCore_SendPacketToGdb+0x2c>)
     e14:	f001 fbee 	bl	25f4 <__mriBuffer_OverrunDetected>
     e18:	b128      	cbz	r0, e26 <__mriCore_SendPacketToGdb+0x16>
     e1a:	f7ff ff73 	bl	d04 <__mriCore_InitBuffer>
     e1e:	4807      	ldr	r0, [pc, #28]	; (e3c <__mriCore_SendPacketToGdb+0x2c>)
     e20:	4907      	ldr	r1, [pc, #28]	; (e40 <__mriCore_SendPacketToGdb+0x30>)
     e22:	f001 fc6d 	bl	2700 <__mriBuffer_WriteString>
     e26:	4805      	ldr	r0, [pc, #20]	; (e3c <__mriCore_SendPacketToGdb+0x2c>)
     e28:	f001 fbc4 	bl	25b4 <__mriBuffer_SetEndOfBuffer>
     e2c:	4805      	ldr	r0, [pc, #20]	; (e44 <__mriCore_SendPacketToGdb+0x34>)
     e2e:	f100 0108 	add.w	r1, r0, #8
     e32:	e8bd 4008 	ldmia.w	sp!, {r3, lr}
     e36:	f000 b8f7 	b.w	1028 <__mriPacket_SendToGDB>
     e3a:	bf00      	nop
     e3c:	100005b0 	.word	0x100005b0
     e40:	0000b524 	.word	0x0000b524
     e44:	100005a8 	.word	0x100005a8

00000e48 <__mriCore_GdbCommandHandlingLoop>:
     e48:	b570      	push	{r4, r5, r6, lr}
     e4a:	4c14      	ldr	r4, [pc, #80]	; (e9c <__mriCore_GdbCommandHandlingLoop+0x54>)
     e4c:	4625      	mov	r5, r4
     e4e:	f7ff ff59 	bl	d04 <__mriCore_InitBuffer>
     e52:	4813      	ldr	r0, [pc, #76]	; (ea0 <__mriCore_GdbCommandHandlingLoop+0x58>)
     e54:	f100 0108 	add.w	r1, r0, #8
     e58:	f000 f894 	bl	f84 <__mriPacket_GetFromGDB>
     e5c:	4811      	ldr	r0, [pc, #68]	; (ea4 <__mriCore_GdbCommandHandlingLoop+0x5c>)
     e5e:	f001 fbe3 	bl	2628 <__mriBuffer_ReadChar>
     e62:	2300      	movs	r3, #0
     e64:	eb04 02c3 	add.w	r2, r4, r3, lsl #3
     e68:	7912      	ldrb	r2, [r2, #4]
     e6a:	4282      	cmp	r2, r0
     e6c:	d106      	bne.n	e7c <__mriCore_GdbCommandHandlingLoop+0x34>
     e6e:	f855 3033 	ldr.w	r3, [r5, r3, lsl #3]
     e72:	4798      	blx	r3
     e74:	0782      	lsls	r2, r0, #30
     e76:	4606      	mov	r6, r0
     e78:	d504      	bpl.n	e84 <__mriCore_GdbCommandHandlingLoop+0x3c>
     e7a:	e005      	b.n	e88 <__mriCore_GdbCommandHandlingLoop+0x40>
     e7c:	3301      	adds	r3, #1
     e7e:	2b0c      	cmp	r3, #12
     e80:	d1f0      	bne.n	e64 <__mriCore_GdbCommandHandlingLoop+0x1c>
     e82:	e006      	b.n	e92 <__mriCore_GdbCommandHandlingLoop+0x4a>
     e84:	f7ff ffc4 	bl	e10 <__mriCore_SendPacketToGdb>
     e88:	f006 0601 	and.w	r6, r6, #1
     e8c:	2e00      	cmp	r6, #0
     e8e:	d0de      	beq.n	e4e <__mriCore_GdbCommandHandlingLoop+0x6>
     e90:	bd70      	pop	{r4, r5, r6, pc}
     e92:	4805      	ldr	r0, [pc, #20]	; (ea8 <__mriCore_GdbCommandHandlingLoop+0x60>)
     e94:	f7ff ff46 	bl	d24 <__mriCore_PrepareStringResponse>
     e98:	2600      	movs	r6, #0
     e9a:	e7f3      	b.n	e84 <__mriCore_GdbCommandHandlingLoop+0x3c>
     e9c:	0000b4c4 	.word	0x0000b4c4
     ea0:	100005a8 	.word	0x100005a8
     ea4:	100005b0 	.word	0x100005b0
     ea8:	0000b53a 	.word	0x0000b53a

00000eac <__mriDebugException>:
     eac:	b570      	push	{r4, r5, r6, lr}
     eae:	f7ff ff4d 	bl	d4c <__mriCore_IsWaitingForGdbToConnect>
     eb2:	4605      	mov	r5, r0
     eb4:	f000 fbda 	bl	166c <__mriPlatform_IsSingleStepping>
     eb8:	4606      	mov	r6, r0
     eba:	f000 fef1 	bl	1ca0 <__mriPlatform_CommCausedInterrupt>
     ebe:	b130      	cbz	r0, ece <__mriDebugException+0x22>
     ec0:	f000 fecc 	bl	1c5c <__mriPlatform_CommHasReceiveData>
     ec4:	b918      	cbnz	r0, ece <__mriDebugException+0x22>
     ec6:	e8bd 4070 	ldmia.w	sp!, {r4, r5, r6, lr}
     eca:	f000 bef7 	b.w	1cbc <__mriPlatform_CommClearInterrupt>
     ece:	f7ff ff3d 	bl	d4c <__mriCore_IsWaitingForGdbToConnect>
     ed2:	b160      	cbz	r0, eee <__mriDebugException+0x42>
     ed4:	f000 ff0e 	bl	1cf4 <__mriPlatform_CommIsWaitingForGdbToConnect>
     ed8:	2800      	cmp	r0, #0
     eda:	d1fb      	bne.n	ed4 <__mriDebugException+0x28>
     edc:	f000 fec8 	bl	1c70 <__mriPlatform_CommReceiveChar>
     ee0:	282b      	cmp	r0, #43	; 0x2b
     ee2:	d004      	beq.n	eee <__mriDebugException+0x42>
     ee4:	f001 f87a 	bl	1fdc <__mriPlatform_CommWaitForReceiveDataToStop>
     ee8:	f000 ff12 	bl	1d10 <__mriPlatform_CommPrepareToWaitForGdbConnection>
     eec:	e7f2      	b.n	ed4 <__mriDebugException+0x28>
     eee:	f000 fc47 	bl	1780 <__mriPlatform_EnteringDebugger>
     ef2:	f000 fbc9 	bl	1688 <__mriPlatform_DetermineCauseOfException>
     ef6:	4c11      	ldr	r4, [pc, #68]	; (f3c <__mriDebugException+0x90>)
     ef8:	2805      	cmp	r0, #5
     efa:	f884 0020 	strb.w	r0, [r4, #32]
     efe:	d10d      	bne.n	f1c <__mriDebugException+0x70>
     f00:	f001 f906 	bl	2110 <__mriSemihost_IsDebuggeeMakingSemihostCall>
     f04:	b150      	cbz	r0, f1c <__mriDebugException+0x70>
     f06:	f001 f90d 	bl	2124 <__mriSemihost_HandleSemihostRequest>
     f0a:	b138      	cbz	r0, f1c <__mriDebugException+0x70>
     f0c:	b936      	cbnz	r6, f1c <__mriDebugException+0x70>
     f0e:	f000 fcb5 	bl	187c <__mriPlatform_LeavingDebugger>
     f12:	6963      	ldr	r3, [r4, #20]
     f14:	f023 0302 	bic.w	r3, r3, #2
     f18:	6163      	str	r3, [r4, #20]
     f1a:	bd70      	pop	{r4, r5, r6, pc}
     f1c:	b91d      	cbnz	r5, f26 <__mriDebugException+0x7a>
     f1e:	f000 fbe9 	bl	16f4 <__mriPlatform_DisplayFaultCauseToGdbConsole>
     f22:	f002 f90f 	bl	3144 <__mriCmd_Send_T_StopResponse>
     f26:	f7ff ff8f 	bl	e48 <__mriCore_GdbCommandHandlingLoop>
     f2a:	f000 fca7 	bl	187c <__mriPlatform_LeavingDebugger>
     f2e:	4b03      	ldr	r3, [pc, #12]	; (f3c <__mriDebugException+0x90>)
     f30:	695a      	ldr	r2, [r3, #20]
     f32:	f022 0202 	bic.w	r2, r2, #2
     f36:	615a      	str	r2, [r3, #20]
     f38:	bd70      	pop	{r4, r5, r6, pc}
     f3a:	bf00      	nop
     f3c:	100005a8 	.word	0x100005a8

00000f40 <HexCharToNibble>:
     f40:	f1a0 0361 	sub.w	r3, r0, #97	; 0x61
     f44:	b2db      	uxtb	r3, r3
     f46:	2b05      	cmp	r3, #5
     f48:	d801      	bhi.n	f4e <HexCharToNibble+0xe>
     f4a:	3857      	subs	r0, #87	; 0x57
     f4c:	4770      	bx	lr
     f4e:	f1a0 0341 	sub.w	r3, r0, #65	; 0x41
     f52:	b2db      	uxtb	r3, r3
     f54:	2b05      	cmp	r3, #5
     f56:	d801      	bhi.n	f5c <HexCharToNibble+0x1c>
     f58:	3837      	subs	r0, #55	; 0x37
     f5a:	4770      	bx	lr
     f5c:	3830      	subs	r0, #48	; 0x30
     f5e:	b2c3      	uxtb	r3, r0
     f60:	2b09      	cmp	r3, #9
     f62:	d907      	bls.n	f74 <HexCharToNibble+0x34>
     f64:	4b04      	ldr	r3, [pc, #16]	; (f78 <HexCharToNibble+0x38>)
     f66:	f04f 30ff 	mov.w	r0, #4294967295	; 0xffffffff
     f6a:	681a      	ldr	r2, [r3, #0]
     f6c:	2a02      	cmp	r2, #2
     f6e:	bfb8      	it	lt
     f70:	2202      	movlt	r2, #2
     f72:	601a      	str	r2, [r3, #0]
     f74:	4770      	bx	lr
     f76:	bf00      	nop
     f78:	10000724 	.word	0x10000724

00000f7c <__mriPacket_Init>:
     f7c:	2100      	movs	r1, #0
     f7e:	2208      	movs	r2, #8
     f80:	f005 bc91 	b.w	68a6 <memset>

00000f84 <__mriPacket_GetFromGDB>:
     f84:	b570      	push	{r4, r5, r6, lr}
     f86:	4604      	mov	r4, r0
     f88:	6001      	str	r1, [r0, #0]
     f8a:	2500      	movs	r5, #0
     f8c:	7920      	ldrb	r0, [r4, #4]
     f8e:	e003      	b.n	f98 <__mriPacket_GetFromGDB+0x14>
     f90:	f000 fe6e 	bl	1c70 <__mriPlatform_CommReceiveChar>
     f94:	b2c0      	uxtb	r0, r0
     f96:	7120      	strb	r0, [r4, #4]
     f98:	2824      	cmp	r0, #36	; 0x24
     f9a:	d1f9      	bne.n	f90 <__mriPacket_GetFromGDB+0xc>
     f9c:	6820      	ldr	r0, [r4, #0]
     f9e:	f001 fb06 	bl	25ae <__mriBuffer_Reset>
     fa2:	7165      	strb	r5, [r4, #5]
     fa4:	e006      	b.n	fb4 <__mriPacket_GetFromGDB+0x30>
     fa6:	7963      	ldrb	r3, [r4, #5]
     fa8:	6820      	ldr	r0, [r4, #0]
     faa:	18f3      	adds	r3, r6, r3
     fac:	7163      	strb	r3, [r4, #5]
     fae:	4631      	mov	r1, r6
     fb0:	f001 fb28 	bl	2604 <__mriBuffer_WriteChar>
     fb4:	f000 fe5c 	bl	1c70 <__mriPlatform_CommReceiveChar>
     fb8:	b2c6      	uxtb	r6, r0
     fba:	7126      	strb	r6, [r4, #4]
     fbc:	6820      	ldr	r0, [r4, #0]
     fbe:	f001 fafc 	bl	25ba <__mriBuffer_BytesLeft>
     fc2:	b120      	cbz	r0, fce <__mriPacket_GetFromGDB+0x4a>
     fc4:	2e24      	cmp	r6, #36	; 0x24
     fc6:	d0e1      	beq.n	f8c <__mriPacket_GetFromGDB+0x8>
     fc8:	2e23      	cmp	r6, #35	; 0x23
     fca:	d1ec      	bne.n	fa6 <__mriPacket_GetFromGDB+0x22>
     fcc:	e001      	b.n	fd2 <__mriPacket_GetFromGDB+0x4e>
     fce:	2e23      	cmp	r6, #35	; 0x23
     fd0:	d1dc      	bne.n	f8c <__mriPacket_GetFromGDB+0x8>
     fd2:	f000 fe4d 	bl	1c70 <__mriPlatform_CommReceiveChar>
     fd6:	b2c0      	uxtb	r0, r0
     fd8:	7120      	strb	r0, [r4, #4]
     fda:	f7ff ffb1 	bl	f40 <HexCharToNibble>
     fde:	4606      	mov	r6, r0
     fe0:	f000 fe46 	bl	1c70 <__mriPlatform_CommReceiveChar>
     fe4:	b2c0      	uxtb	r0, r0
     fe6:	7120      	strb	r0, [r4, #4]
     fe8:	f7ff ffaa 	bl	f40 <HexCharToNibble>
     fec:	b2f6      	uxtb	r6, r6
     fee:	ea40 1606 	orr.w	r6, r0, r6, lsl #4
     ff2:	71a6      	strb	r6, [r4, #6]
     ff4:	f000 fe32 	bl	1c5c <__mriPlatform_CommHasReceiveData>
     ff8:	2800      	cmp	r0, #0
     ffa:	d1c7      	bne.n	f8c <__mriPacket_GetFromGDB+0x8>
     ffc:	79a2      	ldrb	r2, [r4, #6]
     ffe:	7963      	ldrb	r3, [r4, #5]
    1000:	429a      	cmp	r2, r3
    1002:	d001      	beq.n	1008 <__mriPacket_GetFromGDB+0x84>
    1004:	202d      	movs	r0, #45	; 0x2d
    1006:	e000      	b.n	100a <__mriPacket_GetFromGDB+0x86>
    1008:	202b      	movs	r0, #43	; 0x2b
    100a:	f000 fe3d 	bl	1c88 <__mriPlatform_CommSendChar>
    100e:	79a2      	ldrb	r2, [r4, #6]
    1010:	7963      	ldrb	r3, [r4, #5]
    1012:	429a      	cmp	r2, r3
    1014:	d1ba      	bne.n	f8c <__mriPacket_GetFromGDB+0x8>
    1016:	6820      	ldr	r0, [r4, #0]
    1018:	f001 facc 	bl	25b4 <__mriBuffer_SetEndOfBuffer>
    101c:	6820      	ldr	r0, [r4, #0]
    101e:	e8bd 4070 	ldmia.w	sp!, {r4, r5, r6, lr}
    1022:	f001 bac4 	b.w	25ae <__mriBuffer_Reset>
	...

00001028 <__mriPacket_SendToGDB>:
    1028:	b5f8      	push	{r3, r4, r5, r6, r7, lr}
    102a:	4d19      	ldr	r5, [pc, #100]	; (1090 <__mriPacket_SendToGDB+0x68>)
    102c:	4604      	mov	r4, r0
    102e:	6001      	str	r1, [r0, #0]
    1030:	2700      	movs	r7, #0
    1032:	6820      	ldr	r0, [r4, #0]
    1034:	f001 fabb 	bl	25ae <__mriBuffer_Reset>
    1038:	7167      	strb	r7, [r4, #5]
    103a:	2024      	movs	r0, #36	; 0x24
    103c:	f000 fe24 	bl	1c88 <__mriPlatform_CommSendChar>
    1040:	e008      	b.n	1054 <__mriPacket_SendToGDB+0x2c>
    1042:	6820      	ldr	r0, [r4, #0]
    1044:	f001 faf0 	bl	2628 <__mriBuffer_ReadChar>
    1048:	4606      	mov	r6, r0
    104a:	f000 fe1d 	bl	1c88 <__mriPlatform_CommSendChar>
    104e:	7963      	ldrb	r3, [r4, #5]
    1050:	18f6      	adds	r6, r6, r3
    1052:	7166      	strb	r6, [r4, #5]
    1054:	6820      	ldr	r0, [r4, #0]
    1056:	f001 fab0 	bl	25ba <__mriBuffer_BytesLeft>
    105a:	2800      	cmp	r0, #0
    105c:	d1f1      	bne.n	1042 <__mriPacket_SendToGDB+0x1a>
    105e:	2023      	movs	r0, #35	; 0x23
    1060:	f000 fe12 	bl	1c88 <__mriPlatform_CommSendChar>
    1064:	7966      	ldrb	r6, [r4, #5]
    1066:	0933      	lsrs	r3, r6, #4
    1068:	5ce8      	ldrb	r0, [r5, r3]
    106a:	f006 060f 	and.w	r6, r6, #15
    106e:	f000 fe0b 	bl	1c88 <__mriPlatform_CommSendChar>
    1072:	5da8      	ldrb	r0, [r5, r6]
    1074:	f000 fe08 	bl	1c88 <__mriPlatform_CommSendChar>
    1078:	f000 fdfa 	bl	1c70 <__mriPlatform_CommReceiveChar>
    107c:	b2c0      	uxtb	r0, r0
    107e:	2803      	cmp	r0, #3
    1080:	7120      	strb	r0, [r4, #4]
    1082:	d0f9      	beq.n	1078 <__mriPacket_SendToGDB+0x50>
    1084:	282b      	cmp	r0, #43	; 0x2b
    1086:	d001      	beq.n	108c <__mriPacket_SendToGDB+0x64>
    1088:	2824      	cmp	r0, #36	; 0x24
    108a:	d1d2      	bne.n	1032 <__mriPacket_SendToGDB+0xa>
    108c:	bdf8      	pop	{r3, r4, r5, r6, r7, pc}
    108e:	bf00      	nop
    1090:	0000b528 	.word	0x0000b528

00001094 <__mriToken_InitWith>:
    1094:	b538      	push	{r3, r4, r5, lr}
    1096:	2228      	movs	r2, #40	; 0x28
    1098:	460d      	mov	r5, r1
    109a:	2100      	movs	r1, #0
    109c:	4604      	mov	r4, r0
    109e:	f005 fc02 	bl	68a6 <memset>
    10a2:	2300      	movs	r3, #0
    10a4:	62e3      	str	r3, [r4, #44]	; 0x2c
    10a6:	f884 3030 	strb.w	r3, [r4, #48]	; 0x30
    10aa:	62a5      	str	r5, [r4, #40]	; 0x28
    10ac:	bd38      	pop	{r3, r4, r5, pc}
	...

000010b0 <__mriToken_Init>:
    10b0:	4901      	ldr	r1, [pc, #4]	; (10b8 <__mriToken_Init+0x8>)
    10b2:	f7ff bfef 	b.w	1094 <__mriToken_InitWith>
    10b6:	bf00      	nop
    10b8:	0000b538 	.word	0x0000b538

000010bc <__mriToken_SplitString>:
    10bc:	4b2f      	ldr	r3, [pc, #188]	; (117c <__mriToken_SplitString+0xc0>)
    10be:	e92d 41f0 	stmdb	sp!, {r4, r5, r6, r7, r8, lr}
    10c2:	2500      	movs	r5, #0
    10c4:	4604      	mov	r4, r0
    10c6:	601d      	str	r5, [r3, #0]
    10c8:	2228      	movs	r2, #40	; 0x28
    10ca:	460e      	mov	r6, r1
    10cc:	4629      	mov	r1, r5
    10ce:	f005 fbea 	bl	68a6 <memset>
    10d2:	4623      	mov	r3, r4
    10d4:	f803 5f30 	strb.w	r5, [r3, #48]!
    10d8:	62e5      	str	r5, [r4, #44]	; 0x2c
    10da:	461a      	mov	r2, r3
    10dc:	2140      	movs	r1, #64	; 0x40
    10de:	e004      	b.n	10ea <__mriToken_SplitString+0x2e>
    10e0:	3901      	subs	r1, #1
    10e2:	f802 5b01 	strb.w	r5, [r2], #1
    10e6:	4630      	mov	r0, r6
    10e8:	d004      	beq.n	10f4 <__mriToken_SplitString+0x38>
    10ea:	4630      	mov	r0, r6
    10ec:	f816 5b01 	ldrb.w	r5, [r6], #1
    10f0:	2d00      	cmp	r5, #0
    10f2:	d1f5      	bne.n	10e0 <__mriToken_SplitString+0x24>
    10f4:	2100      	movs	r1, #0
    10f6:	7011      	strb	r1, [r2, #0]
    10f8:	7801      	ldrb	r1, [r0, #0]
    10fa:	4a20      	ldr	r2, [pc, #128]	; (117c <__mriToken_SplitString+0xc0>)
    10fc:	b121      	cbz	r1, 1108 <__mriToken_SplitString+0x4c>
    10fe:	6811      	ldr	r1, [r2, #0]
    1100:	2901      	cmp	r1, #1
    1102:	bfb8      	it	lt
    1104:	2101      	movlt	r1, #1
    1106:	6011      	str	r1, [r2, #0]
    1108:	6810      	ldr	r0, [r2, #0]
    110a:	2800      	cmp	r0, #0
    110c:	d133      	bne.n	1176 <__mriToken_SplitString+0xba>
    110e:	e02c      	b.n	116a <__mriToken_SplitString+0xae>
    1110:	4619      	mov	r1, r3
    1112:	f813 6b01 	ldrb.w	r6, [r3], #1
    1116:	b146      	cbz	r6, 112a <__mriToken_SplitString+0x6e>
    1118:	6aa5      	ldr	r5, [r4, #40]	; 0x28
    111a:	e001      	b.n	1120 <__mriToken_SplitString+0x64>
    111c:	4546      	cmp	r6, r8
    111e:	d0f7      	beq.n	1110 <__mriToken_SplitString+0x54>
    1120:	f815 8b01 	ldrb.w	r8, [r5], #1
    1124:	f1b8 0f00 	cmp.w	r8, #0
    1128:	d1f8      	bne.n	111c <__mriToken_SplitString+0x60>
    112a:	6010      	str	r0, [r2, #0]
    112c:	780b      	ldrb	r3, [r1, #0]
    112e:	b143      	cbz	r3, 1142 <__mriToken_SplitString+0x86>
    1130:	6ae3      	ldr	r3, [r4, #44]	; 0x2c
    1132:	2b09      	cmp	r3, #9
    1134:	d901      	bls.n	113a <__mriToken_SplitString+0x7e>
    1136:	6017      	str	r7, [r2, #0]
    1138:	e003      	b.n	1142 <__mriToken_SplitString+0x86>
    113a:	f844 1023 	str.w	r1, [r4, r3, lsl #2]
    113e:	3301      	adds	r3, #1
    1140:	62e3      	str	r3, [r4, #44]	; 0x2c
    1142:	f8dc 3000 	ldr.w	r3, [r12]
    1146:	b9b3      	cbnz	r3, 1176 <__mriToken_SplitString+0xba>
    1148:	460b      	mov	r3, r1
    114a:	f811 6b01 	ldrb.w	r6, [r1], #1
    114e:	b17e      	cbz	r6, 1170 <__mriToken_SplitString+0xb4>
    1150:	6aa5      	ldr	r5, [r4, #40]	; 0x28
    1152:	e004      	b.n	115e <__mriToken_SplitString+0xa2>
    1154:	4546      	cmp	r6, r8
    1156:	d102      	bne.n	115e <__mriToken_SplitString+0xa2>
    1158:	f803 0b01 	strb.w	r0, [r3], #1
    115c:	e008      	b.n	1170 <__mriToken_SplitString+0xb4>
    115e:	f815 8b01 	ldrb.w	r8, [r5], #1
    1162:	f1b8 0f00 	cmp.w	r8, #0
    1166:	d1f5      	bne.n	1154 <__mriToken_SplitString+0x98>
    1168:	e7ee      	b.n	1148 <__mriToken_SplitString+0x8c>
    116a:	4a04      	ldr	r2, [pc, #16]	; (117c <__mriToken_SplitString+0xc0>)
    116c:	2701      	movs	r7, #1
    116e:	4694      	mov	r12, r2
    1170:	7819      	ldrb	r1, [r3, #0]
    1172:	2900      	cmp	r1, #0
    1174:	d1cc      	bne.n	1110 <__mriToken_SplitString+0x54>
    1176:	e8bd 81f0 	ldmia.w	sp!, {r4, r5, r6, r7, r8, pc}
    117a:	bf00      	nop
    117c:	10000724 	.word	0x10000724

00001180 <__mriToken_MatchingString>:
    1180:	e92d 41f0 	stmdb	sp!, {r4, r5, r6, r7, r8, lr}
    1184:	4607      	mov	r7, r0
    1186:	4688      	mov	r8, r1
    1188:	4606      	mov	r6, r0
    118a:	2500      	movs	r5, #0
    118c:	e007      	b.n	119e <__mriToken_MatchingString+0x1e>
    118e:	f856 4b04 	ldr.w	r4, [r6], #4
    1192:	4641      	mov	r1, r8
    1194:	4620      	mov	r0, r4
    1196:	f005 fe64 	bl	6e62 <strcmp>
    119a:	b120      	cbz	r0, 11a6 <__mriToken_MatchingString+0x26>
    119c:	3501      	adds	r5, #1
    119e:	6afb      	ldr	r3, [r7, #44]	; 0x2c
    11a0:	429d      	cmp	r5, r3
    11a2:	d3f4      	bcc.n	118e <__mriToken_MatchingString+0xe>
    11a4:	2400      	movs	r4, #0
    11a6:	4620      	mov	r0, r4
    11a8:	e8bd 81f0 	ldmia.w	sp!, {r4, r5, r6, r7, r8, pc}

000011ac <__mriToken_MatchingStringPrefix>:
    11ac:	e92d 41f0 	stmdb	sp!, {r4, r5, r6, r7, r8, lr}
    11b0:	4607      	mov	r7, r0
    11b2:	4688      	mov	r8, r1
    11b4:	4606      	mov	r6, r0
    11b6:	2500      	movs	r5, #0
    11b8:	e008      	b.n	11cc <__mriToken_MatchingStringPrefix+0x20>
    11ba:	f856 4b04 	ldr.w	r4, [r6], #4
    11be:	4641      	mov	r1, r8
    11c0:	4620      	mov	r0, r4
    11c2:	f005 fe76 	bl	6eb2 <strstr>
    11c6:	4284      	cmp	r4, r0
    11c8:	d004      	beq.n	11d4 <__mriToken_MatchingStringPrefix+0x28>
    11ca:	3501      	adds	r5, #1
    11cc:	6afb      	ldr	r3, [r7, #44]	; 0x2c
    11ce:	429d      	cmp	r5, r3
    11d0:	d3f3      	bcc.n	11ba <__mriToken_MatchingStringPrefix+0xe>
    11d2:	2400      	movs	r4, #0
    11d4:	4620      	mov	r0, r4
    11d6:	e8bd 81f0 	ldmia.w	sp!, {r4, r5, r6, r7, r8, pc}
	...

000011dc <NVIC_SetPriority>:
    11dc:	2800      	cmp	r0, #0
    11de:	ea4f 01c1 	mov.w	r1, r1, lsl #3
    11e2:	da06      	bge.n	11f2 <NVIC_SetPriority+0x16>
    11e4:	4b06      	ldr	r3, [pc, #24]	; (1200 <NVIC_SetPriority+0x24>)
    11e6:	f000 000f 	and.w	r0, r0, #15
    11ea:	b2c9      	uxtb	r1, r1
    11ec:	18c3      	adds	r3, r0, r3
    11ee:	7619      	strb	r1, [r3, #24]
    11f0:	4770      	bx	lr
    11f2:	4b04      	ldr	r3, [pc, #16]	; (1204 <NVIC_SetPriority+0x28>)
    11f4:	b2c9      	uxtb	r1, r1
    11f6:	18c3      	adds	r3, r0, r3
    11f8:	f883 1300 	strb.w	r1, [r3, #768]	; 0x300
    11fc:	4770      	bx	lr
    11fe:	bf00      	nop
    1200:	e000ecfc 	.word	0xe000ecfc
    1204:	e000e100 	.word	0xe000e100

00001208 <findDWTComparator>:
    1208:	b5f0      	push	{r4, r5, r6, r7, lr}
    120a:	4603      	mov	r3, r0
    120c:	4810      	ldr	r0, [pc, #64]	; (1250 <findDWTComparator+0x48>)
    120e:	2400      	movs	r4, #0
    1210:	6807      	ldr	r7, [r0, #0]
    1212:	3020      	adds	r0, #32
    1214:	0f3f      	lsrs	r7, r7, #28
    1216:	e013      	b.n	1240 <findDWTComparator+0x38>
    1218:	6886      	ldr	r6, [r0, #8]
    121a:	4d0e      	ldr	r5, [pc, #56]	; (1254 <findDWTComparator+0x4c>)
    121c:	4035      	ands	r5, r6
    121e:	4295      	cmp	r5, r2
    1220:	d112      	bne.n	1248 <findDWTComparator+0x40>
    1222:	6805      	ldr	r5, [r0, #0]
    1224:	429d      	cmp	r5, r3
    1226:	d10f      	bne.n	1248 <findDWTComparator+0x40>
    1228:	f8d0 c004 	ldr.w	r12, [r0, #4]
    122c:	460e      	mov	r6, r1
    122e:	2500      	movs	r5, #0
    1230:	e001      	b.n	1236 <findDWTComparator+0x2e>
    1232:	0876      	lsrs	r6, r6, #1
    1234:	3501      	adds	r5, #1
    1236:	2e01      	cmp	r6, #1
    1238:	d8fb      	bhi.n	1232 <findDWTComparator+0x2a>
    123a:	45ac      	cmp	r12, r5
    123c:	d104      	bne.n	1248 <findDWTComparator+0x40>
    123e:	bdf0      	pop	{r4, r5, r6, r7, pc}
    1240:	42bc      	cmp	r4, r7
    1242:	d1e9      	bne.n	1218 <findDWTComparator+0x10>
    1244:	2000      	movs	r0, #0
    1246:	bdf0      	pop	{r4, r5, r6, r7, pc}
    1248:	3010      	adds	r0, #16
    124a:	3401      	adds	r4, #1
    124c:	e7f8      	b.n	1240 <findDWTComparator+0x38>
    124e:	bf00      	nop
    1250:	e0001000 	.word	0xe0001000
    1254:	000ffdaf 	.word	0x000ffdaf

00001258 <getFPBCodeComparatorCount>:
    1258:	4b04      	ldr	r3, [pc, #16]	; (126c <getFPBCodeComparatorCount+0x14>)
    125a:	681b      	ldr	r3, [r3, #0]
    125c:	f3c3 1203 	ubfx	r2, r3, #4, #4
    1260:	f403 43e0 	and.w	r3, r3, #28672	; 0x7000
    1264:	ea42 2013 	orr.w	r0, r2, r3, lsr #8
    1268:	4770      	bx	lr
    126a:	bf00      	nop
    126c:	e0002000 	.word	0xe0002000

00001270 <isMPUNotPresent>:
    1270:	4b04      	ldr	r3, [pc, #16]	; (1284 <isMPUNotPresent+0x14>)
    1272:	6818      	ldr	r0, [r3, #0]
    1274:	f3c0 2007 	ubfx	r0, r0, #8, #8
    1278:	f1d0 0001 	rsbs	r0, r0, #1
    127c:	bf38      	it	cc
    127e:	2000      	movcc	r0, #0
    1280:	4770      	bx	lr
    1282:	bf00      	nop
    1284:	e000ed90 	.word	0xe000ed90

00001288 <prepareToAccessMPURegion>:
    1288:	4b05      	ldr	r3, [pc, #20]	; (12a0 <prepareToAccessMPURegion+0x18>)
    128a:	681a      	ldr	r2, [r3, #0]
    128c:	f3c2 2207 	ubfx	r2, r2, #8, #8
    1290:	4290      	cmp	r0, r2
    1292:	d202      	bcs.n	129a <prepareToAccessMPURegion+0x12>
    1294:	6098      	str	r0, [r3, #8]
    1296:	2001      	movs	r0, #1
    1298:	4770      	bx	lr
    129a:	2000      	movs	r0, #0
    129c:	4770      	bx	lr
    129e:	bf00      	nop
    12a0:	e000ed90 	.word	0xe000ed90

000012a4 <sendRegisterForTResponse>:
    12a4:	b573      	push	{r0, r1, r4, r5, r6, lr}
    12a6:	4604      	mov	r4, r0
    12a8:	ad02      	add	r5, sp, #8
    12aa:	f845 2d04 	str.w	r2, [r5, #-4]!
    12ae:	f001 f9cf 	bl	2650 <__mriBuffer_WriteByteAsHex>
    12b2:	4620      	mov	r0, r4
    12b4:	213a      	movs	r1, #58	; 0x3a
    12b6:	f001 f9a5 	bl	2604 <__mriBuffer_WriteChar>
    12ba:	ae02      	add	r6, sp, #8
    12bc:	f815 1b01 	ldrb.w	r1, [r5], #1
    12c0:	4620      	mov	r0, r4
    12c2:	f001 f9c5 	bl	2650 <__mriBuffer_WriteByteAsHex>
    12c6:	42b5      	cmp	r5, r6
    12c8:	d1f8      	bne.n	12bc <sendRegisterForTResponse+0x18>
    12ca:	4620      	mov	r0, r4
    12cc:	213b      	movs	r1, #59	; 0x3b
    12ce:	f001 f999 	bl	2604 <__mriBuffer_WriteChar>
    12d2:	bd7c      	pop	{r2, r3, r4, r5, r6, pc}

000012d4 <displayMemFaultCauseToGdbConsole>:
    12d4:	b538      	push	{r3, r4, r5, lr}
    12d6:	4d1e      	ldr	r5, [pc, #120]	; (1350 <displayMemFaultCauseToGdbConsole+0x7c>)
    12d8:	6aac      	ldr	r4, [r5, #40]	; 0x28
    12da:	b2e4      	uxtb	r4, r4
    12dc:	2c00      	cmp	r4, #0
    12de:	d035      	beq.n	134c <displayMemFaultCauseToGdbConsole+0x78>
    12e0:	481c      	ldr	r0, [pc, #112]	; (1354 <displayMemFaultCauseToGdbConsole+0x80>)
    12e2:	f001 ff6e 	bl	31c2 <__mriGdbConsole_WriteString>
    12e6:	481c      	ldr	r0, [pc, #112]	; (1358 <displayMemFaultCauseToGdbConsole+0x84>)
    12e8:	f001 ff6b 	bl	31c2 <__mriGdbConsole_WriteString>
    12ec:	4620      	mov	r0, r4
    12ee:	f001 ff8f 	bl	3210 <__mriGdbConsole_WriteHexValue>
    12f2:	0622      	lsls	r2, r4, #24
    12f4:	d505      	bpl.n	1302 <displayMemFaultCauseToGdbConsole+0x2e>
    12f6:	4819      	ldr	r0, [pc, #100]	; (135c <displayMemFaultCauseToGdbConsole+0x88>)
    12f8:	f001 ff63 	bl	31c2 <__mriGdbConsole_WriteString>
    12fc:	6b68      	ldr	r0, [r5, #52]	; 0x34
    12fe:	f001 ff87 	bl	3210 <__mriGdbConsole_WriteHexValue>
    1302:	06a3      	lsls	r3, r4, #26
    1304:	d502      	bpl.n	130c <displayMemFaultCauseToGdbConsole+0x38>
    1306:	4816      	ldr	r0, [pc, #88]	; (1360 <displayMemFaultCauseToGdbConsole+0x8c>)
    1308:	f001 ff5b 	bl	31c2 <__mriGdbConsole_WriteString>
    130c:	06e0      	lsls	r0, r4, #27
    130e:	d507      	bpl.n	1320 <displayMemFaultCauseToGdbConsole+0x4c>
    1310:	4814      	ldr	r0, [pc, #80]	; (1364 <displayMemFaultCauseToGdbConsole+0x90>)
    1312:	f001 ff56 	bl	31c2 <__mriGdbConsole_WriteString>
    1316:	4b14      	ldr	r3, [pc, #80]	; (1368 <displayMemFaultCauseToGdbConsole+0x94>)
    1318:	f8d3 0208 	ldr.w	r0, [r3, #520]	; 0x208
    131c:	f001 ff78 	bl	3210 <__mriGdbConsole_WriteHexValue>
    1320:	0721      	lsls	r1, r4, #28
    1322:	d507      	bpl.n	1334 <displayMemFaultCauseToGdbConsole+0x60>
    1324:	4811      	ldr	r0, [pc, #68]	; (136c <displayMemFaultCauseToGdbConsole+0x98>)
    1326:	f001 ff4c 	bl	31c2 <__mriGdbConsole_WriteString>
    132a:	4b0f      	ldr	r3, [pc, #60]	; (1368 <displayMemFaultCauseToGdbConsole+0x94>)
    132c:	f8d3 0208 	ldr.w	r0, [r3, #520]	; 0x208
    1330:	f001 ff6e 	bl	3210 <__mriGdbConsole_WriteHexValue>
    1334:	07a2      	lsls	r2, r4, #30
    1336:	d502      	bpl.n	133e <displayMemFaultCauseToGdbConsole+0x6a>
    1338:	480d      	ldr	r0, [pc, #52]	; (1370 <displayMemFaultCauseToGdbConsole+0x9c>)
    133a:	f001 ff42 	bl	31c2 <__mriGdbConsole_WriteString>
    133e:	07e3      	lsls	r3, r4, #31
    1340:	d504      	bpl.n	134c <displayMemFaultCauseToGdbConsole+0x78>
    1342:	480c      	ldr	r0, [pc, #48]	; (1374 <displayMemFaultCauseToGdbConsole+0xa0>)
    1344:	e8bd 4038 	ldmia.w	sp!, {r3, r4, r5, lr}
    1348:	f001 bf3b 	b.w	31c2 <__mriGdbConsole_WriteString>
    134c:	bd38      	pop	{r3, r4, r5, pc}
    134e:	bf00      	nop
    1350:	e000ed00 	.word	0xe000ed00
    1354:	0000b818 	.word	0x0000b818
    1358:	0000b827 	.word	0x0000b827
    135c:	0000b83c 	.word	0x0000b83c
    1360:	0000b851 	.word	0x0000b851
    1364:	0000b86b 	.word	0x0000b86b
    1368:	10000728 	.word	0x10000728
    136c:	0000b888 	.word	0x0000b888
    1370:	0000b8a7 	.word	0x0000b8a7
    1374:	0000b8b8 	.word	0x0000b8b8

00001378 <displayBusFaultCauseToGdbConsole>:
    1378:	b538      	push	{r3, r4, r5, lr}
    137a:	4d21      	ldr	r5, [pc, #132]	; (1400 <displayBusFaultCauseToGdbConsole+0x88>)
    137c:	6aac      	ldr	r4, [r5, #40]	; 0x28
    137e:	f3c4 2407 	ubfx	r4, r4, #8, #8
    1382:	2c00      	cmp	r4, #0
    1384:	d03a      	beq.n	13fc <displayBusFaultCauseToGdbConsole+0x84>
    1386:	481f      	ldr	r0, [pc, #124]	; (1404 <displayBusFaultCauseToGdbConsole+0x8c>)
    1388:	f001 ff1b 	bl	31c2 <__mriGdbConsole_WriteString>
    138c:	481e      	ldr	r0, [pc, #120]	; (1408 <displayBusFaultCauseToGdbConsole+0x90>)
    138e:	f001 ff18 	bl	31c2 <__mriGdbConsole_WriteString>
    1392:	4620      	mov	r0, r4
    1394:	f001 ff3c 	bl	3210 <__mriGdbConsole_WriteHexValue>
    1398:	0623      	lsls	r3, r4, #24
    139a:	d505      	bpl.n	13a8 <displayBusFaultCauseToGdbConsole+0x30>
    139c:	481b      	ldr	r0, [pc, #108]	; (140c <displayBusFaultCauseToGdbConsole+0x94>)
    139e:	f001 ff10 	bl	31c2 <__mriGdbConsole_WriteString>
    13a2:	6ba8      	ldr	r0, [r5, #56]	; 0x38
    13a4:	f001 ff34 	bl	3210 <__mriGdbConsole_WriteHexValue>
    13a8:	06a0      	lsls	r0, r4, #26
    13aa:	d502      	bpl.n	13b2 <displayBusFaultCauseToGdbConsole+0x3a>
    13ac:	4818      	ldr	r0, [pc, #96]	; (1410 <displayBusFaultCauseToGdbConsole+0x98>)
    13ae:	f001 ff08 	bl	31c2 <__mriGdbConsole_WriteString>
    13b2:	06e1      	lsls	r1, r4, #27
    13b4:	d507      	bpl.n	13c6 <displayBusFaultCauseToGdbConsole+0x4e>
    13b6:	4817      	ldr	r0, [pc, #92]	; (1414 <displayBusFaultCauseToGdbConsole+0x9c>)
    13b8:	f001 ff03 	bl	31c2 <__mriGdbConsole_WriteString>
    13bc:	4b16      	ldr	r3, [pc, #88]	; (1418 <displayBusFaultCauseToGdbConsole+0xa0>)
    13be:	f8d3 0208 	ldr.w	r0, [r3, #520]	; 0x208
    13c2:	f001 ff25 	bl	3210 <__mriGdbConsole_WriteHexValue>
    13c6:	0722      	lsls	r2, r4, #28
    13c8:	d507      	bpl.n	13da <displayBusFaultCauseToGdbConsole+0x62>
    13ca:	4814      	ldr	r0, [pc, #80]	; (141c <displayBusFaultCauseToGdbConsole+0xa4>)
    13cc:	f001 fef9 	bl	31c2 <__mriGdbConsole_WriteString>
    13d0:	4b11      	ldr	r3, [pc, #68]	; (1418 <displayBusFaultCauseToGdbConsole+0xa0>)
    13d2:	f8d3 0208 	ldr.w	r0, [r3, #520]	; 0x208
    13d6:	f001 ff1b 	bl	3210 <__mriGdbConsole_WriteHexValue>
    13da:	0763      	lsls	r3, r4, #29
    13dc:	d502      	bpl.n	13e4 <displayBusFaultCauseToGdbConsole+0x6c>
    13de:	4810      	ldr	r0, [pc, #64]	; (1420 <displayBusFaultCauseToGdbConsole+0xa8>)
    13e0:	f001 feef 	bl	31c2 <__mriGdbConsole_WriteString>
    13e4:	07a0      	lsls	r0, r4, #30
    13e6:	d502      	bpl.n	13ee <displayBusFaultCauseToGdbConsole+0x76>
    13e8:	480e      	ldr	r0, [pc, #56]	; (1424 <displayBusFaultCauseToGdbConsole+0xac>)
    13ea:	f001 feea 	bl	31c2 <__mriGdbConsole_WriteString>
    13ee:	07e1      	lsls	r1, r4, #31
    13f0:	d504      	bpl.n	13fc <displayBusFaultCauseToGdbConsole+0x84>
    13f2:	480d      	ldr	r0, [pc, #52]	; (1428 <displayBusFaultCauseToGdbConsole+0xb0>)
    13f4:	e8bd 4038 	ldmia.w	sp!, {r3, r4, r5, lr}
    13f8:	f001 bee3 	b.w	31c2 <__mriGdbConsole_WriteString>
    13fc:	bd38      	pop	{r3, r4, r5, pc}
    13fe:	bf00      	nop
    1400:	e000ed00 	.word	0xe000ed00
    1404:	0000b8cf 	.word	0x0000b8cf
    1408:	0000b827 	.word	0x0000b827
    140c:	0000b83c 	.word	0x0000b83c
    1410:	0000b851 	.word	0x0000b851
    1414:	0000b86b 	.word	0x0000b86b
    1418:	10000728 	.word	0x10000728
    141c:	0000b888 	.word	0x0000b888
    1420:	0000b8de 	.word	0x0000b8de
    1424:	0000b8f9 	.word	0x0000b8f9
    1428:	0000b912 	.word	0x0000b912

0000142c <displayUsageFaultCauseToGdbConsole>:
    142c:	b510      	push	{r4, lr}
    142e:	4b17      	ldr	r3, [pc, #92]	; (148c <displayUsageFaultCauseToGdbConsole+0x60>)
    1430:	6a9c      	ldr	r4, [r3, #40]	; 0x28
    1432:	0c24      	lsrs	r4, r4, #16
    1434:	d028      	beq.n	1488 <displayUsageFaultCauseToGdbConsole+0x5c>
    1436:	4816      	ldr	r0, [pc, #88]	; (1490 <displayUsageFaultCauseToGdbConsole+0x64>)
    1438:	f001 fec3 	bl	31c2 <__mriGdbConsole_WriteString>
    143c:	4815      	ldr	r0, [pc, #84]	; (1494 <displayUsageFaultCauseToGdbConsole+0x68>)
    143e:	f001 fec0 	bl	31c2 <__mriGdbConsole_WriteString>
    1442:	4620      	mov	r0, r4
    1444:	f001 fee4 	bl	3210 <__mriGdbConsole_WriteHexValue>
    1448:	05a1      	lsls	r1, r4, #22
    144a:	d502      	bpl.n	1452 <displayUsageFaultCauseToGdbConsole+0x26>
    144c:	4812      	ldr	r0, [pc, #72]	; (1498 <displayUsageFaultCauseToGdbConsole+0x6c>)
    144e:	f001 feb8 	bl	31c2 <__mriGdbConsole_WriteString>
    1452:	05e2      	lsls	r2, r4, #23
    1454:	d502      	bpl.n	145c <displayUsageFaultCauseToGdbConsole+0x30>
    1456:	4811      	ldr	r0, [pc, #68]	; (149c <displayUsageFaultCauseToGdbConsole+0x70>)
    1458:	f001 feb3 	bl	31c2 <__mriGdbConsole_WriteString>
    145c:	0723      	lsls	r3, r4, #28
    145e:	d502      	bpl.n	1466 <displayUsageFaultCauseToGdbConsole+0x3a>
    1460:	480f      	ldr	r0, [pc, #60]	; (14a0 <displayUsageFaultCauseToGdbConsole+0x74>)
    1462:	f001 feae 	bl	31c2 <__mriGdbConsole_WriteString>
    1466:	0760      	lsls	r0, r4, #29
    1468:	d502      	bpl.n	1470 <displayUsageFaultCauseToGdbConsole+0x44>
    146a:	480e      	ldr	r0, [pc, #56]	; (14a4 <displayUsageFaultCauseToGdbConsole+0x78>)
    146c:	f001 fea9 	bl	31c2 <__mriGdbConsole_WriteString>
    1470:	07a1      	lsls	r1, r4, #30
    1472:	d502      	bpl.n	147a <displayUsageFaultCauseToGdbConsole+0x4e>
    1474:	480c      	ldr	r0, [pc, #48]	; (14a8 <displayUsageFaultCauseToGdbConsole+0x7c>)
    1476:	f001 fea4 	bl	31c2 <__mriGdbConsole_WriteString>
    147a:	07e2      	lsls	r2, r4, #31
    147c:	d504      	bpl.n	1488 <displayUsageFaultCauseToGdbConsole+0x5c>
    147e:	480b      	ldr	r0, [pc, #44]	; (14ac <displayUsageFaultCauseToGdbConsole+0x80>)
    1480:	e8bd 4010 	ldmia.w	sp!, {r4, lr}
    1484:	f001 be9d 	b.w	31c2 <__mriGdbConsole_WriteString>
    1488:	bd10      	pop	{r4, pc}
    148a:	bf00      	nop
    148c:	e000ed00 	.word	0xe000ed00
    1490:	0000b92c 	.word	0x0000b92c
    1494:	0000b827 	.word	0x0000b827
    1498:	0000b93d 	.word	0x0000b93d
    149c:	0000b951 	.word	0x0000b951
    14a0:	0000b967 	.word	0x0000b967
    14a4:	0000b97f 	.word	0x0000b97f
    14a8:	0000b9a3 	.word	0x0000b9a3
    14ac:	0000b9b6 	.word	0x0000b9b6

000014b0 <calculateFPBComparatorValue>:
    14b0:	4b0e      	ldr	r3, [pc, #56]	; (14ec <calculateFPBComparatorValue+0x3c>)
    14b2:	4003      	ands	r3, r0
    14b4:	b96b      	cbnz	r3, 14d2 <calculateFPBComparatorValue+0x22>
    14b6:	e00f      	b.n	14d8 <calculateFPBComparatorValue+0x28>
    14b8:	f010 0f02 	tst.w	r0, #2
    14bc:	bf0c      	ite	eq
    14be:	f04f 4380 	moveq.w	r3, #1073741824	; 0x40000000
    14c2:	f04f 4300 	movne.w	r3, #2147483648	; 0x80000000
    14c6:	e001      	b.n	14cc <calculateFPBComparatorValue+0x1c>
    14c8:	f04f 4340 	mov.w	r3, #3221225472	; 0xc0000000
    14cc:	ea42 0003 	orr.w	r0, r2, r3
    14d0:	4770      	bx	lr
    14d2:	f04f 30ff 	mov.w	r0, #4294967295	; 0xffffffff
    14d6:	4770      	bx	lr
    14d8:	f020 4260 	bic.w	r2, r0, #3758096384	; 0xe0000000
    14dc:	f022 0203 	bic.w	r2, r2, #3
    14e0:	f042 0201 	orr.w	r2, r2, #1
    14e4:	2900      	cmp	r1, #0
    14e6:	d1ef      	bne.n	14c8 <calculateFPBComparatorValue+0x18>
    14e8:	e7e6      	b.n	14b8 <calculateFPBComparatorValue+0x8>
    14ea:	bf00      	nop
    14ec:	e0000001 	.word	0xe0000001

000014f0 <findFPBBreakpointComparator>:
    14f0:	b538      	push	{r3, r4, r5, lr}
    14f2:	f7ff ffdd 	bl	14b0 <calculateFPBComparatorValue>
    14f6:	4604      	mov	r4, r0
    14f8:	f7ff feae 	bl	1258 <getFPBCodeComparatorCount>
    14fc:	4a08      	ldr	r2, [pc, #32]	; (1520 <findFPBBreakpointComparator+0x30>)
    14fe:	2300      	movs	r3, #0
    1500:	e008      	b.n	1514 <findFPBBreakpointComparator+0x24>
    1502:	f852 5b04 	ldr.w	r5, [r2], #4
    1506:	f025 5500 	bic.w	r5, r5, #536870912	; 0x20000000
    150a:	f025 0502 	bic.w	r5, r5, #2
    150e:	42ac      	cmp	r4, r5
    1510:	d004      	beq.n	151c <findFPBBreakpointComparator+0x2c>
    1512:	3301      	adds	r3, #1
    1514:	4283      	cmp	r3, r0
    1516:	4611      	mov	r1, r2
    1518:	d1f3      	bne.n	1502 <findFPBBreakpointComparator+0x12>
    151a:	2100      	movs	r1, #0
    151c:	4608      	mov	r0, r1
    151e:	bd38      	pop	{r3, r4, r5, pc}
    1520:	e0002008 	.word	0xe0002008

00001524 <__mriPlatform_DisableSingleStep>:
    1524:	4b06      	ldr	r3, [pc, #24]	; (1540 <__mriPlatform_DisableSingleStep+0x1c>)
    1526:	68da      	ldr	r2, [r3, #12]
    1528:	f422 2280 	bic.w	r2, r2, #262144	; 0x40000
    152c:	60da      	str	r2, [r3, #12]
    152e:	4b05      	ldr	r3, [pc, #20]	; (1544 <__mriPlatform_DisableSingleStep+0x20>)
    1530:	f8d3 2200 	ldr.w	r2, [r3, #512]	; 0x200
    1534:	f022 0204 	bic.w	r2, r2, #4
    1538:	f8c3 2200 	str.w	r2, [r3, #512]	; 0x200
    153c:	4770      	bx	lr
    153e:	bf00      	nop
    1540:	e000edf0 	.word	0xe000edf0
    1544:	10000728 	.word	0x10000728

00001548 <__mriCortexMInit>:
    1548:	b510      	push	{r4, lr}
    154a:	f44f 7240 	mov.w	r2, #768	; 0x300
    154e:	4828      	ldr	r0, [pc, #160]	; (15f0 <__mriCortexMInit+0xa8>)
    1550:	2100      	movs	r1, #0
    1552:	f005 f9a8 	bl	68a6 <memset>
    1556:	4b27      	ldr	r3, [pc, #156]	; (15f4 <__mriCortexMInit+0xac>)
    1558:	68da      	ldr	r2, [r3, #12]
    155a:	f042 7280 	orr.w	r2, r2, #16777216	; 0x1000000
    155e:	60da      	str	r2, [r3, #12]
    1560:	4b25      	ldr	r3, [pc, #148]	; (15f8 <__mriCortexMInit+0xb0>)
    1562:	2200      	movs	r2, #0
    1564:	681c      	ldr	r4, [r3, #0]
    1566:	4610      	mov	r0, r2
    1568:	0f24      	lsrs	r4, r4, #28
    156a:	3320      	adds	r3, #32
    156c:	e009      	b.n	1582 <__mriCortexMInit+0x3a>
    156e:	6018      	str	r0, [r3, #0]
    1570:	6058      	str	r0, [r3, #4]
    1572:	6899      	ldr	r1, [r3, #8]
    1574:	3201      	adds	r2, #1
    1576:	f421 71d6 	bic.w	r1, r1, #428	; 0x1ac
    157a:	f021 0103 	bic.w	r1, r1, #3
    157e:	6099      	str	r1, [r3, #8]
    1580:	3310      	adds	r3, #16
    1582:	42a2      	cmp	r2, r4
    1584:	d1f3      	bne.n	156e <__mriCortexMInit+0x26>
    1586:	f7ff fe67 	bl	1258 <getFPBCodeComparatorCount>
    158a:	4a1c      	ldr	r2, [pc, #112]	; (15fc <__mriCortexMInit+0xb4>)
    158c:	491c      	ldr	r1, [pc, #112]	; (1600 <__mriCortexMInit+0xb8>)
    158e:	6813      	ldr	r3, [r2, #0]
    1590:	f3c3 2303 	ubfx	r3, r3, #8, #4
    1594:	18c0      	adds	r0, r0, r3
    1596:	2300      	movs	r3, #0
    1598:	461c      	mov	r4, r3
    159a:	e002      	b.n	15a2 <__mriCortexMInit+0x5a>
    159c:	f841 4b04 	str.w	r4, [r1], #4
    15a0:	3301      	adds	r3, #1
    15a2:	4283      	cmp	r3, r0
    15a4:	d1fa      	bne.n	159c <__mriCortexMInit+0x54>
    15a6:	6813      	ldr	r3, [r2, #0]
    15a8:	f06f 0004 	mvn.w	r0, #4
    15ac:	f043 0303 	orr.w	r3, r3, #3
    15b0:	6013      	str	r3, [r2, #0]
    15b2:	2101      	movs	r1, #1
    15b4:	f7ff fe12 	bl	11dc <NVIC_SetPriority>
    15b8:	4c0e      	ldr	r4, [pc, #56]	; (15f4 <__mriCortexMInit+0xac>)
    15ba:	f06f 0001 	mvn.w	r0, #1
    15be:	2101      	movs	r1, #1
    15c0:	f7ff fe0c 	bl	11dc <NVIC_SetPriority>
    15c4:	f04f 30ff 	mov.w	r0, #4294967295	; 0xffffffff
    15c8:	2101      	movs	r1, #1
    15ca:	f7ff fe07 	bl	11dc <NVIC_SetPriority>
    15ce:	f7ff ffa9 	bl	1524 <__mriPlatform_DisableSingleStep>
    15d2:	68e3      	ldr	r3, [r4, #12]
    15d4:	f06f 0003 	mvn.w	r0, #3
    15d8:	f423 3300 	bic.w	r3, r3, #131072	; 0x20000
    15dc:	60e3      	str	r3, [r4, #12]
    15de:	2100      	movs	r1, #0
    15e0:	f7ff fdfc 	bl	11dc <NVIC_SetPriority>
    15e4:	68e3      	ldr	r3, [r4, #12]
    15e6:	f443 3380 	orr.w	r3, r3, #65536	; 0x10000
    15ea:	60e3      	str	r3, [r4, #12]
    15ec:	bd10      	pop	{r4, pc}
    15ee:	bf00      	nop
    15f0:	10000728 	.word	0x10000728
    15f4:	e000edf0 	.word	0xe000edf0
    15f8:	e0001000 	.word	0xe0001000
    15fc:	e0002000 	.word	0xe0002000
    1600:	e0002008 	.word	0xe0002008

00001604 <__mriPlatform_EnableSingleStep>:
    1604:	b508      	push	{r3, lr}
    1606:	4b17      	ldr	r3, [pc, #92]	; (1664 <__mriPlatform_EnableSingleStep+0x60>)
    1608:	f8d3 2200 	ldr.w	r2, [r3, #512]	; 0x200
    160c:	f042 0204 	orr.w	r2, r2, #4
    1610:	f8c3 2200 	str.w	r2, [r3, #512]	; 0x200
    1614:	f8d3 3248 	ldr.w	r3, [r3, #584]	; 0x248
    1618:	f24f 3280 	movw	r2, #62336	; 0xf380
    161c:	8819      	ldrh	r1, [r3, #0]
    161e:	f021 010f 	bic.w	r1, r1, #15
    1622:	b289      	uxth	r1, r1
    1624:	4291      	cmp	r1, r2
    1626:	d110      	bne.n	164a <__mriPlatform_EnableSingleStep+0x46>
    1628:	885b      	ldrh	r3, [r3, #2]
    162a:	f648 0211 	movw	r2, #34833	; 0x8811
    162e:	4293      	cmp	r3, r2
    1630:	d002      	beq.n	1638 <__mriPlatform_EnableSingleStep+0x34>
    1632:	3201      	adds	r2, #1
    1634:	4293      	cmp	r3, r2
    1636:	d108      	bne.n	164a <__mriPlatform_EnableSingleStep+0x46>
    1638:	2008      	movs	r0, #8
    163a:	f000 feae 	bl	239a <__mriSetBASEPRI>
    163e:	4b0a      	ldr	r3, [pc, #40]	; (1668 <__mriPlatform_EnableSingleStep+0x64>)
    1640:	68da      	ldr	r2, [r3, #12]
    1642:	f442 2280 	orr.w	r2, r2, #262144	; 0x40000
    1646:	60da      	str	r2, [r3, #12]
    1648:	bd08      	pop	{r3, pc}
    164a:	f000 fea9 	bl	23a0 <__mriGetBASEPRI>
    164e:	4b05      	ldr	r3, [pc, #20]	; (1664 <__mriPlatform_EnableSingleStep+0x60>)
    1650:	f8d3 2200 	ldr.w	r2, [r3, #512]	; 0x200
    1654:	f8c3 0268 	str.w	r0, [r3, #616]	; 0x268
    1658:	f042 0208 	orr.w	r2, r2, #8
    165c:	f8c3 2200 	str.w	r2, [r3, #512]	; 0x200
    1660:	e7ea      	b.n	1638 <__mriPlatform_EnableSingleStep+0x34>
    1662:	bf00      	nop
    1664:	10000728 	.word	0x10000728
    1668:	e000edf0 	.word	0xe000edf0

0000166c <__mriPlatform_IsSingleStepping>:
    166c:	4b02      	ldr	r3, [pc, #8]	; (1678 <__mriPlatform_IsSingleStepping+0xc>)
    166e:	f8d3 0200 	ldr.w	r0, [r3, #512]	; 0x200
    1672:	f000 0004 	and.w	r0, r0, #4
    1676:	4770      	bx	lr
    1678:	10000728 	.word	0x10000728

0000167c <__mriPlatform_GetPacketBuffer>:
    167c:	4800      	ldr	r0, [pc, #0]	; (1680 <__mriPlatform_GetPacketBuffer+0x4>)
    167e:	4770      	bx	lr
    1680:	10000998 	.word	0x10000998

00001684 <__mriPlatform_GetPacketBufferSize>:
    1684:	2089      	movs	r0, #137	; 0x89
    1686:	4770      	bx	lr

00001688 <__mriPlatform_DetermineCauseOfException>:
    1688:	b510      	push	{r4, lr}
    168a:	f000 fe83 	bl	2394 <__mriGetIPSR>
    168e:	b2c0      	uxtb	r0, r0
    1690:	3802      	subs	r0, #2
    1692:	2816      	cmp	r0, #22
    1694:	d825      	bhi.n	16e2 <__mriPlatform_DetermineCauseOfException+0x5a>
    1696:	e8df f000 	tbb	[pc, r0]
    169a:	260c      	.short	0x260c
    169c:	24100e26 	.word	0x24100e26
    16a0:	24242424 	.word	0x24242424
    16a4:	24242412 	.word	0x24242412
    16a8:	24242424 	.word	0x24242424
    16ac:	0c0c0c24 	.word	0x0c0c0c24
    16b0:	0c          	.byte	0x0c
    16b1:	00          	.byte	0x00
    16b2:	2002      	movs	r0, #2
    16b4:	bd10      	pop	{r4, pc}
    16b6:	200a      	movs	r0, #10
    16b8:	bd10      	pop	{r4, pc}
    16ba:	2004      	movs	r0, #4
    16bc:	bd10      	pop	{r4, pc}
    16be:	4b0b      	ldr	r3, [pc, #44]	; (16ec <__mriPlatform_DetermineCauseOfException+0x64>)
    16c0:	480b      	ldr	r0, [pc, #44]	; (16f0 <__mriPlatform_DetermineCauseOfException+0x68>)
    16c2:	6b1c      	ldr	r4, [r3, #48]	; 0x30
    16c4:	2300      	movs	r3, #0
    16c6:	f850 2033 	ldr.w	r2, [r0, r3, lsl #3]
    16ca:	00d9      	lsls	r1, r3, #3
    16cc:	4222      	tst	r2, r4
    16ce:	d005      	beq.n	16dc <__mriPlatform_DetermineCauseOfException+0x54>
    16d0:	4b06      	ldr	r3, [pc, #24]	; (16ec <__mriPlatform_DetermineCauseOfException+0x64>)
    16d2:	631a      	str	r2, [r3, #48]	; 0x30
    16d4:	4b06      	ldr	r3, [pc, #24]	; (16f0 <__mriPlatform_DetermineCauseOfException+0x68>)
    16d6:	185b      	adds	r3, r3, r1
    16d8:	7918      	ldrb	r0, [r3, #4]
    16da:	bd10      	pop	{r4, pc}
    16dc:	3301      	adds	r3, #1
    16de:	2b04      	cmp	r3, #4
    16e0:	d1f1      	bne.n	16c6 <__mriPlatform_DetermineCauseOfException+0x3e>
    16e2:	2011      	movs	r0, #17
    16e4:	bd10      	pop	{r4, pc}
    16e6:	200b      	movs	r0, #11
    16e8:	bd10      	pop	{r4, pc}
    16ea:	bf00      	nop
    16ec:	e000ed00 	.word	0xe000ed00
    16f0:	0000ba18 	.word	0x0000ba18

000016f4 <__mriPlatform_DisplayFaultCauseToGdbConsole>:
    16f4:	b510      	push	{r4, lr}
    16f6:	f000 fe4d 	bl	2394 <__mriGetIPSR>
    16fa:	b2c0      	uxtb	r0, r0
    16fc:	3803      	subs	r0, #3
    16fe:	2803      	cmp	r0, #3
    1700:	d82f      	bhi.n	1762 <__mriPlatform_DisplayFaultCauseToGdbConsole+0x6e>
    1702:	e8df f000 	tbb	[pc, r0]
    1706:	2102      	.short	0x2102
    1708:	2724      	.short	0x2724
    170a:	4b16      	ldr	r3, [pc, #88]	; (1764 <__mriPlatform_DisplayFaultCauseToGdbConsole+0x70>)
    170c:	4816      	ldr	r0, [pc, #88]	; (1768 <__mriPlatform_DisplayFaultCauseToGdbConsole+0x74>)
    170e:	6adc      	ldr	r4, [r3, #44]	; 0x2c
    1710:	f001 fd57 	bl	31c2 <__mriGdbConsole_WriteString>
    1714:	4815      	ldr	r0, [pc, #84]	; (176c <__mriPlatform_DisplayFaultCauseToGdbConsole+0x78>)
    1716:	f001 fd54 	bl	31c2 <__mriGdbConsole_WriteString>
    171a:	4620      	mov	r0, r4
    171c:	f001 fd78 	bl	3210 <__mriGdbConsole_WriteHexValue>
    1720:	2c00      	cmp	r4, #0
    1722:	da02      	bge.n	172a <__mriPlatform_DisplayFaultCauseToGdbConsole+0x36>
    1724:	4812      	ldr	r0, [pc, #72]	; (1770 <__mriPlatform_DisplayFaultCauseToGdbConsole+0x7c>)
    1726:	f001 fd4c 	bl	31c2 <__mriGdbConsole_WriteString>
    172a:	07a3      	lsls	r3, r4, #30
    172c:	d502      	bpl.n	1734 <__mriPlatform_DisplayFaultCauseToGdbConsole+0x40>
    172e:	4811      	ldr	r0, [pc, #68]	; (1774 <__mriPlatform_DisplayFaultCauseToGdbConsole+0x80>)
    1730:	f001 fd47 	bl	31c2 <__mriGdbConsole_WriteString>
    1734:	0060      	lsls	r0, r4, #1
    1736:	d50f      	bpl.n	1758 <__mriPlatform_DisplayFaultCauseToGdbConsole+0x64>
    1738:	480f      	ldr	r0, [pc, #60]	; (1778 <__mriPlatform_DisplayFaultCauseToGdbConsole+0x84>)
    173a:	f001 fd42 	bl	31c2 <__mriGdbConsole_WriteString>
    173e:	f7ff fdc9 	bl	12d4 <displayMemFaultCauseToGdbConsole>
    1742:	f7ff fe19 	bl	1378 <displayBusFaultCauseToGdbConsole>
    1746:	e005      	b.n	1754 <__mriPlatform_DisplayFaultCauseToGdbConsole+0x60>
    1748:	f7ff fdc4 	bl	12d4 <displayMemFaultCauseToGdbConsole>
    174c:	e004      	b.n	1758 <__mriPlatform_DisplayFaultCauseToGdbConsole+0x64>
    174e:	f7ff fe13 	bl	1378 <displayBusFaultCauseToGdbConsole>
    1752:	e001      	b.n	1758 <__mriPlatform_DisplayFaultCauseToGdbConsole+0x64>
    1754:	f7ff fe6a 	bl	142c <displayUsageFaultCauseToGdbConsole>
    1758:	4808      	ldr	r0, [pc, #32]	; (177c <__mriPlatform_DisplayFaultCauseToGdbConsole+0x88>)
    175a:	e8bd 4010 	ldmia.w	sp!, {r4, lr}
    175e:	f001 bd30 	b.w	31c2 <__mriGdbConsole_WriteString>
    1762:	bd10      	pop	{r4, pc}
    1764:	e000ed00 	.word	0xe000ed00
    1768:	0000b9d1 	.word	0x0000b9d1
    176c:	0000b827 	.word	0x0000b827
    1770:	0000b9e1 	.word	0x0000b9e1
    1774:	0000b9f2 	.word	0x0000b9f2
    1778:	0000ba09 	.word	0x0000ba09
    177c:	0000ba15 	.word	0x0000ba15

00001780 <__mriPlatform_EnteringDebugger>:
    1780:	b510      	push	{r4, lr}
    1782:	4c3b      	ldr	r4, [pc, #236]	; (1870 <CFSR_STACK_ERROR_BITS+0x58>)
    1784:	f8d4 3200 	ldr.w	r3, [r4, #512]	; 0x200
    1788:	f023 0302 	bic.w	r3, r3, #2
    178c:	f8c4 3200 	str.w	r3, [r4, #512]	; 0x200
    1790:	f8d4 3248 	ldr.w	r3, [r4, #584]	; 0x248
    1794:	f8c4 3250 	str.w	r3, [r4, #592]	; 0x250
    1798:	f8d4 324c 	ldr.w	r3, [r4, #588]	; 0x24c
    179c:	f403 7300 	and.w	r3, r3, #512	; 0x200
    17a0:	f8c4 3254 	str.w	r3, [r4, #596]	; 0x254
    17a4:	f7ff fd64 	bl	1270 <isMPUNotPresent>
    17a8:	4b32      	ldr	r3, [pc, #200]	; (1874 <CFSR_STACK_ERROR_BITS+0x5c>)
    17aa:	b908      	cbnz	r0, 17b0 <__mriPlatform_EnteringDebugger+0x30>
    17ac:	685a      	ldr	r2, [r3, #4]
    17ae:	e001      	b.n	17b4 <__mriPlatform_EnteringDebugger+0x34>
    17b0:	f04f 32ff 	mov.w	r2, #4294967295	; 0xffffffff
    17b4:	f8c4 2258 	str.w	r2, [r4, #600]	; 0x258
    17b8:	689a      	ldr	r2, [r3, #8]
    17ba:	f8c4 225c 	str.w	r2, [r4, #604]	; 0x25c
    17be:	6818      	ldr	r0, [r3, #0]
    17c0:	f3c0 2007 	ubfx	r0, r0, #8, #8
    17c4:	3801      	subs	r0, #1
    17c6:	f7ff fd5f 	bl	1288 <prepareToAccessMPURegion>
    17ca:	f7ff fd51 	bl	1270 <isMPUNotPresent>
    17ce:	b918      	cbnz	r0, 17d8 <__mriPlatform_EnteringDebugger+0x58>
    17d0:	4b28      	ldr	r3, [pc, #160]	; (1874 <CFSR_STACK_ERROR_BITS+0x5c>)
    17d2:	68db      	ldr	r3, [r3, #12]
    17d4:	095b      	lsrs	r3, r3, #5
    17d6:	e000      	b.n	17da <__mriPlatform_EnteringDebugger+0x5a>
    17d8:	2300      	movs	r3, #0
    17da:	4c25      	ldr	r4, [pc, #148]	; (1870 <CFSR_STACK_ERROR_BITS+0x58>)
    17dc:	f8c4 3260 	str.w	r3, [r4, #608]	; 0x260
    17e0:	f7ff fd46 	bl	1270 <isMPUNotPresent>
    17e4:	b910      	cbnz	r0, 17ec <__mriPlatform_EnteringDebugger+0x6c>
    17e6:	4b23      	ldr	r3, [pc, #140]	; (1874 <CFSR_STACK_ERROR_BITS+0x5c>)
    17e8:	691b      	ldr	r3, [r3, #16]
    17ea:	e000      	b.n	17ee <__mriPlatform_EnteringDebugger+0x6e>
    17ec:	2300      	movs	r3, #0
    17ee:	f8c4 3264 	str.w	r3, [r4, #612]	; 0x264
    17f2:	f7ff fd3d 	bl	1270 <isMPUNotPresent>
    17f6:	4c1f      	ldr	r4, [pc, #124]	; (1874 <CFSR_STACK_ERROR_BITS+0x5c>)
    17f8:	b938      	cbnz	r0, 180a <__mriPlatform_EnteringDebugger+0x8a>
    17fa:	6863      	ldr	r3, [r4, #4]
    17fc:	f023 0301 	bic.w	r3, r3, #1
    1800:	6063      	str	r3, [r4, #4]
    1802:	f000 fdd0 	bl	23a6 <__mriDSB>
    1806:	f000 fdd1 	bl	23ac <__mriISB>
    180a:	6820      	ldr	r0, [r4, #0]
    180c:	f3c0 2007 	ubfx	r0, r0, #8, #8
    1810:	3801      	subs	r0, #1
    1812:	f7ff fd39 	bl	1288 <prepareToAccessMPURegion>
    1816:	f7ff fd2b 	bl	1270 <isMPUNotPresent>
    181a:	b908      	cbnz	r0, 1820 <CFSR_STACK_ERROR_BITS+0x8>
    181c:	4b15      	ldr	r3, [pc, #84]	; (1874 <CFSR_STACK_ERROR_BITS+0x5c>)
    181e:	60d8      	str	r0, [r3, #12]
    1820:	f7ff fd26 	bl	1270 <isMPUNotPresent>
    1824:	b910      	cbnz	r0, 182c <CFSR_STACK_ERROR_BITS+0x14>
    1826:	4a14      	ldr	r2, [pc, #80]	; (1878 <CFSR_STACK_ERROR_BITS+0x60>)
    1828:	4b12      	ldr	r3, [pc, #72]	; (1874 <CFSR_STACK_ERROR_BITS+0x5c>)
    182a:	611a      	str	r2, [r3, #16]
    182c:	f7ff fd20 	bl	1270 <isMPUNotPresent>
    1830:	b940      	cbnz	r0, 1844 <CFSR_STACK_ERROR_BITS+0x2c>
    1832:	4b10      	ldr	r3, [pc, #64]	; (1874 <CFSR_STACK_ERROR_BITS+0x5c>)
    1834:	685a      	ldr	r2, [r3, #4]
    1836:	f042 0203 	orr.w	r2, r2, #3
    183a:	605a      	str	r2, [r3, #4]
    183c:	f000 fdb3 	bl	23a6 <__mriDSB>
    1840:	f000 fdb4 	bl	23ac <__mriISB>
    1844:	4c0a      	ldr	r4, [pc, #40]	; (1870 <CFSR_STACK_ERROR_BITS+0x58>)
    1846:	f8d4 3200 	ldr.w	r3, [r4, #512]	; 0x200
    184a:	071a      	lsls	r2, r3, #28
    184c:	d50c      	bpl.n	1868 <CFSR_STACK_ERROR_BITS+0x50>
    184e:	f8d4 3200 	ldr.w	r3, [r4, #512]	; 0x200
    1852:	f8d4 0268 	ldr.w	r0, [r4, #616]	; 0x268
    1856:	f023 0308 	bic.w	r3, r3, #8
    185a:	f8c4 3200 	str.w	r3, [r4, #512]	; 0x200
    185e:	f000 fd9c 	bl	239a <__mriSetBASEPRI>
    1862:	2300      	movs	r3, #0
    1864:	f8c4 3268 	str.w	r3, [r4, #616]	; 0x268
    1868:	e8bd 4010 	ldmia.w	sp!, {r4, lr}
    186c:	f7ff be5a 	b.w	1524 <__mriPlatform_DisableSingleStep>
    1870:	10000728 	.word	0x10000728
    1874:	e000ed90 	.word	0xe000ed90
    1878:	0100003f 	.word	0x0100003f

0000187c <__mriPlatform_LeavingDebugger>:
    187c:	b538      	push	{r3, r4, r5, lr}
    187e:	f7ff fcf7 	bl	1270 <isMPUNotPresent>
    1882:	4c23      	ldr	r4, [pc, #140]	; (1910 <__mriPlatform_LeavingDebugger+0x94>)
    1884:	b938      	cbnz	r0, 1896 <__mriPlatform_LeavingDebugger+0x1a>
    1886:	6863      	ldr	r3, [r4, #4]
    1888:	f023 0301 	bic.w	r3, r3, #1
    188c:	6063      	str	r3, [r4, #4]
    188e:	f000 fd8a 	bl	23a6 <__mriDSB>
    1892:	f000 fd8b 	bl	23ac <__mriISB>
    1896:	6820      	ldr	r0, [r4, #0]
    1898:	4c1e      	ldr	r4, [pc, #120]	; (1914 <__mriPlatform_LeavingDebugger+0x98>)
    189a:	f3c0 2007 	ubfx	r0, r0, #8, #8
    189e:	3801      	subs	r0, #1
    18a0:	f7ff fcf2 	bl	1288 <prepareToAccessMPURegion>
    18a4:	f8d4 5260 	ldr.w	r5, [r4, #608]	; 0x260
    18a8:	f7ff fce2 	bl	1270 <isMPUNotPresent>
    18ac:	b910      	cbnz	r0, 18b4 <__mriPlatform_LeavingDebugger+0x38>
    18ae:	4b18      	ldr	r3, [pc, #96]	; (1910 <__mriPlatform_LeavingDebugger+0x94>)
    18b0:	016d      	lsls	r5, r5, #5
    18b2:	60dd      	str	r5, [r3, #12]
    18b4:	f8d4 4264 	ldr.w	r4, [r4, #612]	; 0x264
    18b8:	f7ff fcda 	bl	1270 <isMPUNotPresent>
    18bc:	b908      	cbnz	r0, 18c2 <__mriPlatform_LeavingDebugger+0x46>
    18be:	4b14      	ldr	r3, [pc, #80]	; (1910 <__mriPlatform_LeavingDebugger+0x94>)
    18c0:	611c      	str	r4, [r3, #16]
    18c2:	4c14      	ldr	r4, [pc, #80]	; (1914 <__mriPlatform_LeavingDebugger+0x98>)
    18c4:	f8d4 025c 	ldr.w	r0, [r4, #604]	; 0x25c
    18c8:	f7ff fcde 	bl	1288 <prepareToAccessMPURegion>
    18cc:	f8d4 4258 	ldr.w	r4, [r4, #600]	; 0x258
    18d0:	f7ff fcce 	bl	1270 <isMPUNotPresent>
    18d4:	b928      	cbnz	r0, 18e2 <__mriPlatform_LeavingDebugger+0x66>
    18d6:	4b0e      	ldr	r3, [pc, #56]	; (1910 <__mriPlatform_LeavingDebugger+0x94>)
    18d8:	605c      	str	r4, [r3, #4]
    18da:	f000 fd64 	bl	23a6 <__mriDSB>
    18de:	f000 fd65 	bl	23ac <__mriISB>
    18e2:	4b0c      	ldr	r3, [pc, #48]	; (1914 <__mriPlatform_LeavingDebugger+0x98>)
    18e4:	480c      	ldr	r0, [pc, #48]	; (1918 <__mriPlatform_LeavingDebugger+0x9c>)
    18e6:	f503 7100 	add.w	r1, r3, #512	; 0x200
    18ea:	e002      	b.n	18f2 <__mriPlatform_LeavingDebugger+0x76>
    18ec:	428b      	cmp	r3, r1
    18ee:	461a      	mov	r2, r3
    18f0:	d204      	bcs.n	18fc <__mriPlatform_LeavingDebugger+0x80>
    18f2:	461a      	mov	r2, r3
    18f4:	6814      	ldr	r4, [r2, #0]
    18f6:	3304      	adds	r3, #4
    18f8:	4284      	cmp	r4, r0
    18fa:	d0f7      	beq.n	18ec <__mriPlatform_LeavingDebugger+0x70>
    18fc:	4b07      	ldr	r3, [pc, #28]	; (191c <__mriPlatform_LeavingDebugger+0xa0>)
    18fe:	6ed9      	ldr	r1, [r3, #108]	; 0x6c
    1900:	1a9a      	subs	r2, r3, r2
    1902:	428a      	cmp	r2, r1
    1904:	f5a3 7300 	sub.w	r3, r3, #512	; 0x200
    1908:	bfc8      	it	gt
    190a:	f8c3 226c 	strgt.w	r2, [r3, #620]	; 0x26c
    190e:	bd38      	pop	{r3, r4, r5, pc}
    1910:	e000ed90 	.word	0xe000ed90
    1914:	10000728 	.word	0x10000728
    1918:	deadbeef 	.word	0xdeadbeef
    191c:	10000928 	.word	0x10000928

00001920 <__mriPlatform_GetProgramCounter>:
    1920:	4b01      	ldr	r3, [pc, #4]	; (1928 <__mriPlatform_GetProgramCounter+0x8>)
    1922:	f8d3 0248 	ldr.w	r0, [r3, #584]	; 0x248
    1926:	4770      	bx	lr
    1928:	10000728 	.word	0x10000728

0000192c <__mriPlatform_SetProgramCounter>:
    192c:	4b01      	ldr	r3, [pc, #4]	; (1934 <__mriPlatform_SetProgramCounter+0x8>)
    192e:	f8c3 0248 	str.w	r0, [r3, #584]	; 0x248
    1932:	4770      	bx	lr
    1934:	10000728 	.word	0x10000728

00001938 <__mriPlatform_AdvanceProgramCounterToNextInstruction>:
    1938:	4b0b      	ldr	r3, [pc, #44]	; (1968 <__mriPlatform_AdvanceProgramCounterToNextInstruction+0x30>)
    193a:	f8d3 2248 	ldr.w	r2, [r3, #584]	; 0x248
    193e:	4618      	mov	r0, r3
    1940:	8811      	ldrh	r1, [r2, #0]
    1942:	f401 4178 	and.w	r1, r1, #63488	; 0xf800
    1946:	f5b1 4f68 	cmp.w	r1, #59392	; 0xe800
    194a:	d005      	beq.n	1958 <__mriPlatform_AdvanceProgramCounterToNextInstruction+0x20>
    194c:	f5b1 4f70 	cmp.w	r1, #61440	; 0xf000
    1950:	d002      	beq.n	1958 <__mriPlatform_AdvanceProgramCounterToNextInstruction+0x20>
    1952:	f5b1 4f78 	cmp.w	r1, #63488	; 0xf800
    1956:	d103      	bne.n	1960 <__mriPlatform_AdvanceProgramCounterToNextInstruction+0x28>
    1958:	3204      	adds	r2, #4
    195a:	f8c0 2248 	str.w	r2, [r0, #584]	; 0x248
    195e:	4770      	bx	lr
    1960:	3202      	adds	r2, #2
    1962:	f8c3 2248 	str.w	r2, [r3, #584]	; 0x248
    1966:	4770      	bx	lr
    1968:	10000728 	.word	0x10000728

0000196c <__mriPlatform_IsCurrentInstructionHardcodedBreakpoint>:
    196c:	4b04      	ldr	r3, [pc, #16]	; (1980 <__mriPlatform_IsCurrentInstructionHardcodedBreakpoint+0x14>)
    196e:	f8d3 3248 	ldr.w	r3, [r3, #584]	; 0x248
    1972:	8818      	ldrh	r0, [r3, #0]
    1974:	f5a0 413e 	sub.w	r1, r0, #48640	; 0xbe00
    1978:	4248      	negs	r0, r1
    197a:	eb40 0001 	adc.w	r0, r0, r1
    197e:	4770      	bx	lr
    1980:	10000728 	.word	0x10000728

00001984 <__mriPlatform_WasProgramCounterModifiedByUser>:
    1984:	4b04      	ldr	r3, [pc, #16]	; (1998 <__mriPlatform_WasProgramCounterModifiedByUser+0x14>)
    1986:	f8d3 0248 	ldr.w	r0, [r3, #584]	; 0x248
    198a:	f8d3 3250 	ldr.w	r3, [r3, #592]	; 0x250
    198e:	1ac0      	subs	r0, r0, r3
    1990:	bf18      	it	ne
    1992:	2001      	movne	r0, #1
    1994:	4770      	bx	lr
    1996:	bf00      	nop
    1998:	10000728 	.word	0x10000728

0000199c <__mriPlatform_TypeOfCurrentInstruction>:
    199c:	4b08      	ldr	r3, [pc, #32]	; (19c0 <__mriPlatform_TypeOfCurrentInstruction+0x24>)
    199e:	f64b 62ab 	movw	r2, #48811	; 0xbeab
    19a2:	f8d3 3248 	ldr.w	r3, [r3, #584]	; 0x248
    19a6:	881b      	ldrh	r3, [r3, #0]
    19a8:	4293      	cmp	r3, r2
    19aa:	d006      	beq.n	19ba <__mriPlatform_TypeOfCurrentInstruction+0x1e>
    19ac:	f64b 60ff 	movw	r0, #48895	; 0xbeff
    19b0:	4283      	cmp	r3, r0
    19b2:	bf0c      	ite	eq
    19b4:	2002      	moveq	r0, #2
    19b6:	2000      	movne	r0, #0
    19b8:	4770      	bx	lr
    19ba:	2001      	movs	r0, #1
    19bc:	4770      	bx	lr
    19be:	bf00      	nop
    19c0:	10000728 	.word	0x10000728

000019c4 <__mriPlatform_GetSemihostCallParameters>:
    19c4:	4b07      	ldr	r3, [pc, #28]	; (19e4 <__mriPlatform_GetSemihostCallParameters+0x20>)
    19c6:	b510      	push	{r4, lr}
    19c8:	f8d3 1214 	ldr.w	r1, [r3, #532]	; 0x214
    19cc:	f8d3 4210 	ldr.w	r4, [r3, #528]	; 0x210
    19d0:	f8d3 2218 	ldr.w	r2, [r3, #536]	; 0x218
    19d4:	f8d3 320c 	ldr.w	r3, [r3, #524]	; 0x20c
    19d8:	6081      	str	r1, [r0, #8]
    19da:	e880 0018 	stmia.w	r0, {r3, r4}
    19de:	60c2      	str	r2, [r0, #12]
    19e0:	bd10      	pop	{r4, pc}
    19e2:	bf00      	nop
    19e4:	10000728 	.word	0x10000728

000019e8 <__mriPlatform_SetSemihostCallReturnValue>:
    19e8:	4b01      	ldr	r3, [pc, #4]	; (19f0 <__mriPlatform_SetSemihostCallReturnValue+0x8>)
    19ea:	f8c3 020c 	str.w	r0, [r3, #524]	; 0x20c
    19ee:	4770      	bx	lr
    19f0:	10000728 	.word	0x10000728

000019f4 <__mriPlatform_WasMemoryFaultEncountered>:
    19f4:	b508      	push	{r3, lr}
    19f6:	f000 fcd6 	bl	23a6 <__mriDSB>
    19fa:	4b06      	ldr	r3, [pc, #24]	; (1a14 <__mriPlatform_WasMemoryFaultEncountered+0x20>)
    19fc:	f8d3 0200 	ldr.w	r0, [r3, #512]	; 0x200
    1a00:	f8d3 2200 	ldr.w	r2, [r3, #512]	; 0x200
    1a04:	f000 0002 	and.w	r0, r0, #2
    1a08:	f022 0202 	bic.w	r2, r2, #2
    1a0c:	f8c3 2200 	str.w	r2, [r3, #512]	; 0x200
    1a10:	bd08      	pop	{r3, pc}
    1a12:	bf00      	nop
    1a14:	10000728 	.word	0x10000728

00001a18 <__mriPlatform_WriteTResponseRegistersToBuffer>:
    1a18:	b538      	push	{r3, r4, r5, lr}
    1a1a:	4c0d      	ldr	r4, [pc, #52]	; (1a50 <__mriPlatform_WriteTResponseRegistersToBuffer+0x38>)
    1a1c:	4605      	mov	r5, r0
    1a1e:	210c      	movs	r1, #12
    1a20:	f8d4 223c 	ldr.w	r2, [r4, #572]	; 0x23c
    1a24:	f7ff fc3e 	bl	12a4 <sendRegisterForTResponse>
    1a28:	4628      	mov	r0, r5
    1a2a:	210d      	movs	r1, #13
    1a2c:	f8d4 2240 	ldr.w	r2, [r4, #576]	; 0x240
    1a30:	f7ff fc38 	bl	12a4 <sendRegisterForTResponse>
    1a34:	4628      	mov	r0, r5
    1a36:	210e      	movs	r1, #14
    1a38:	f8d4 2244 	ldr.w	r2, [r4, #580]	; 0x244
    1a3c:	f7ff fc32 	bl	12a4 <sendRegisterForTResponse>
    1a40:	f8d4 2248 	ldr.w	r2, [r4, #584]	; 0x248
    1a44:	4628      	mov	r0, r5
    1a46:	210f      	movs	r1, #15
    1a48:	e8bd 4038 	ldmia.w	sp!, {r3, r4, r5, lr}
    1a4c:	f7ff bc2a 	b.w	12a4 <sendRegisterForTResponse>
    1a50:	10000728 	.word	0x10000728

00001a54 <__mriPlatform_CopyContextToBuffer>:
    1a54:	b570      	push	{r4, r5, r6, lr}
    1a56:	4d06      	ldr	r5, [pc, #24]	; (1a70 <__mriPlatform_CopyContextToBuffer+0x1c>)
    1a58:	4606      	mov	r6, r0
    1a5a:	f1a5 0444 	sub.w	r4, r5, #68	; 0x44
    1a5e:	f814 1b01 	ldrb.w	r1, [r4], #1
    1a62:	4630      	mov	r0, r6
    1a64:	f000 fdf4 	bl	2650 <__mriBuffer_WriteByteAsHex>
    1a68:	42ac      	cmp	r4, r5
    1a6a:	d1f8      	bne.n	1a5e <__mriPlatform_CopyContextToBuffer+0xa>
    1a6c:	bd70      	pop	{r4, r5, r6, pc}
    1a6e:	bf00      	nop
    1a70:	10000978 	.word	0x10000978

00001a74 <__mriPlatform_CopyContextFromBuffer>:
    1a74:	b570      	push	{r4, r5, r6, lr}
    1a76:	4d0b      	ldr	r5, [pc, #44]	; (1aa4 <__mriPlatform_CopyContextFromBuffer+0x30>)
    1a78:	4606      	mov	r6, r0
    1a7a:	f1a5 0444 	sub.w	r4, r5, #68	; 0x44
    1a7e:	4630      	mov	r0, r6
    1a80:	f000 fe02 	bl	2688 <__mriBuffer_ReadByteAsHex>
    1a84:	f804 0b01 	strb.w	r0, [r4], #1
    1a88:	42ac      	cmp	r4, r5
    1a8a:	d1f8      	bne.n	1a7e <__mriPlatform_CopyContextFromBuffer+0xa>
    1a8c:	4b06      	ldr	r3, [pc, #24]	; (1aa8 <__mriPlatform_CopyContextFromBuffer+0x34>)
    1a8e:	f8d3 224c 	ldr.w	r2, [r3, #588]	; 0x24c
    1a92:	f8d3 1254 	ldr.w	r1, [r3, #596]	; 0x254
    1a96:	f422 7200 	bic.w	r2, r2, #512	; 0x200
    1a9a:	430a      	orrs	r2, r1
    1a9c:	f8c3 224c 	str.w	r2, [r3, #588]	; 0x24c
    1aa0:	bd70      	pop	{r4, r5, r6, pc}
    1aa2:	bf00      	nop
    1aa4:	10000978 	.word	0x10000978
    1aa8:	10000728 	.word	0x10000728

00001aac <__mriPlatform_SetHardwareBreakpoint>:
    1aac:	4b19      	ldr	r3, [pc, #100]	; (1b14 <__mriPlatform_SetHardwareBreakpoint+0x68>)
    1aae:	b570      	push	{r4, r5, r6, lr}
    1ab0:	2400      	movs	r4, #0
    1ab2:	2902      	cmp	r1, #2
    1ab4:	4606      	mov	r6, r0
    1ab6:	601c      	str	r4, [r3, #0]
    1ab8:	d008      	beq.n	1acc <__mriPlatform_SetHardwareBreakpoint+0x20>
    1aba:	d301      	bcc.n	1ac0 <__mriPlatform_SetHardwareBreakpoint+0x14>
    1abc:	2904      	cmp	r1, #4
    1abe:	d904      	bls.n	1aca <__mriPlatform_SetHardwareBreakpoint+0x1e>
    1ac0:	2204      	movs	r2, #4
    1ac2:	601a      	str	r2, [r3, #0]
    1ac4:	f04f 34ff 	mov.w	r4, #4294967295	; 0xffffffff
    1ac8:	e000      	b.n	1acc <__mriPlatform_SetHardwareBreakpoint+0x20>
    1aca:	2401      	movs	r4, #1
    1acc:	681b      	ldr	r3, [r3, #0]
    1ace:	bb03      	cbnz	r3, 1b12 <__mriPlatform_SetHardwareBreakpoint+0x66>
    1ad0:	4630      	mov	r0, r6
    1ad2:	4621      	mov	r1, r4
    1ad4:	f7ff fd0c 	bl	14f0 <findFPBBreakpointComparator>
    1ad8:	4605      	mov	r5, r0
    1ada:	b9d0      	cbnz	r0, 1b12 <__mriPlatform_SetHardwareBreakpoint+0x66>
    1adc:	f7ff fbbc 	bl	1258 <getFPBCodeComparatorCount>
    1ae0:	4a0d      	ldr	r2, [pc, #52]	; (1b18 <__mriPlatform_SetHardwareBreakpoint+0x6c>)
    1ae2:	462b      	mov	r3, r5
    1ae4:	e004      	b.n	1af0 <__mriPlatform_SetHardwareBreakpoint+0x44>
    1ae6:	f852 1b04 	ldr.w	r1, [r2], #4
    1aea:	07c9      	lsls	r1, r1, #31
    1aec:	d504      	bpl.n	1af8 <__mriPlatform_SetHardwareBreakpoint+0x4c>
    1aee:	3301      	adds	r3, #1
    1af0:	4283      	cmp	r3, r0
    1af2:	4615      	mov	r5, r2
    1af4:	d1f7      	bne.n	1ae6 <__mriPlatform_SetHardwareBreakpoint+0x3a>
    1af6:	e006      	b.n	1b06 <__mriPlatform_SetHardwareBreakpoint+0x5a>
    1af8:	b12d      	cbz	r5, 1b06 <__mriPlatform_SetHardwareBreakpoint+0x5a>
    1afa:	4630      	mov	r0, r6
    1afc:	4621      	mov	r1, r4
    1afe:	f7ff fcd7 	bl	14b0 <calculateFPBComparatorValue>
    1b02:	6028      	str	r0, [r5, #0]
    1b04:	bd70      	pop	{r4, r5, r6, pc}
    1b06:	4b03      	ldr	r3, [pc, #12]	; (1b14 <__mriPlatform_SetHardwareBreakpoint+0x68>)
    1b08:	681a      	ldr	r2, [r3, #0]
    1b0a:	2a08      	cmp	r2, #8
    1b0c:	bfb8      	it	lt
    1b0e:	2208      	movlt	r2, #8
    1b10:	601a      	str	r2, [r3, #0]
    1b12:	bd70      	pop	{r4, r5, r6, pc}
    1b14:	10000724 	.word	0x10000724
    1b18:	e0002008 	.word	0xe0002008

00001b1c <__mriPlatform_ClearHardwareBreakpoint>:
    1b1c:	4b0c      	ldr	r3, [pc, #48]	; (1b50 <__mriPlatform_ClearHardwareBreakpoint+0x34>)
    1b1e:	2200      	movs	r2, #0
    1b20:	2902      	cmp	r1, #2
    1b22:	b510      	push	{r4, lr}
    1b24:	601a      	str	r2, [r3, #0]
    1b26:	d003      	beq.n	1b30 <__mriPlatform_ClearHardwareBreakpoint+0x14>
    1b28:	d304      	bcc.n	1b34 <__mriPlatform_ClearHardwareBreakpoint+0x18>
    1b2a:	2904      	cmp	r1, #4
    1b2c:	d802      	bhi.n	1b34 <__mriPlatform_ClearHardwareBreakpoint+0x18>
    1b2e:	e006      	b.n	1b3e <__mriPlatform_ClearHardwareBreakpoint+0x22>
    1b30:	4611      	mov	r1, r2
    1b32:	e005      	b.n	1b40 <__mriPlatform_ClearHardwareBreakpoint+0x24>
    1b34:	2204      	movs	r2, #4
    1b36:	601a      	str	r2, [r3, #0]
    1b38:	f04f 31ff 	mov.w	r1, #4294967295	; 0xffffffff
    1b3c:	e000      	b.n	1b40 <__mriPlatform_ClearHardwareBreakpoint+0x24>
    1b3e:	2101      	movs	r1, #1
    1b40:	681c      	ldr	r4, [r3, #0]
    1b42:	b91c      	cbnz	r4, 1b4c <__mriPlatform_ClearHardwareBreakpoint+0x30>
    1b44:	f7ff fcd4 	bl	14f0 <findFPBBreakpointComparator>
    1b48:	b100      	cbz	r0, 1b4c <__mriPlatform_ClearHardwareBreakpoint+0x30>
    1b4a:	6004      	str	r4, [r0, #0]
    1b4c:	bd10      	pop	{r4, pc}
    1b4e:	bf00      	nop
    1b50:	10000724 	.word	0x10000724

00001b54 <__mriPlatform_SetHardwareWatchpoint>:
    1b54:	2a02      	cmp	r2, #2
    1b56:	bf98      	it	ls
    1b58:	4b1e      	ldrls	r3, [pc, #120]	; (1bd4 <__mriPlatform_SetHardwareWatchpoint+0x80>)
    1b5a:	b570      	push	{r4, r5, r6, lr}
    1b5c:	bf94      	ite	ls
    1b5e:	5c9d      	ldrbls	r5, [r3, r2]
    1b60:	2500      	movhi	r5, #0
    1b62:	1e4b      	subs	r3, r1, #1
    1b64:	420b      	tst	r3, r1
    1b66:	4606      	mov	r6, r0
    1b68:	460c      	mov	r4, r1
    1b6a:	d124      	bne.n	1bb6 <__mriPlatform_SetHardwareWatchpoint+0x62>
    1b6c:	424b      	negs	r3, r1
    1b6e:	4003      	ands	r3, r0
    1b70:	4298      	cmp	r0, r3
    1b72:	d120      	bne.n	1bb6 <__mriPlatform_SetHardwareWatchpoint+0x62>
    1b74:	1f6b      	subs	r3, r5, #5
    1b76:	2b02      	cmp	r3, #2
    1b78:	d81d      	bhi.n	1bb6 <__mriPlatform_SetHardwareWatchpoint+0x62>
    1b7a:	462a      	mov	r2, r5
    1b7c:	f7ff fb44 	bl	1208 <findDWTComparator>
    1b80:	2800      	cmp	r0, #0
    1b82:	d125      	bne.n	1bd0 <__mriPlatform_SetHardwareWatchpoint+0x7c>
    1b84:	4b14      	ldr	r3, [pc, #80]	; (1bd8 <__mriPlatform_SetHardwareWatchpoint+0x84>)
    1b86:	6819      	ldr	r1, [r3, #0]
    1b88:	3320      	adds	r3, #32
    1b8a:	0f09      	lsrs	r1, r1, #28
    1b8c:	e005      	b.n	1b9a <__mriPlatform_SetHardwareWatchpoint+0x46>
    1b8e:	689a      	ldr	r2, [r3, #8]
    1b90:	f012 020f 	ands.w	r2, r2, #15
    1b94:	d006      	beq.n	1ba4 <__mriPlatform_SetHardwareWatchpoint+0x50>
    1b96:	3310      	adds	r3, #16
    1b98:	3001      	adds	r0, #1
    1b9a:	4288      	cmp	r0, r1
    1b9c:	d1f7      	bne.n	1b8e <__mriPlatform_SetHardwareWatchpoint+0x3a>
    1b9e:	e011      	b.n	1bc4 <__mriPlatform_SetHardwareWatchpoint+0x70>
    1ba0:	0864      	lsrs	r4, r4, #1
    1ba2:	3201      	adds	r2, #1
    1ba4:	2c01      	cmp	r4, #1
    1ba6:	d8fb      	bhi.n	1ba0 <__mriPlatform_SetHardwareWatchpoint+0x4c>
    1ba8:	605a      	str	r2, [r3, #4]
    1baa:	6859      	ldr	r1, [r3, #4]
    1bac:	4291      	cmp	r1, r2
    1bae:	d109      	bne.n	1bc4 <__mriPlatform_SetHardwareWatchpoint+0x70>
    1bb0:	601e      	str	r6, [r3, #0]
    1bb2:	609d      	str	r5, [r3, #8]
    1bb4:	bd70      	pop	{r4, r5, r6, pc}
    1bb6:	4b09      	ldr	r3, [pc, #36]	; (1bdc <__mriPlatform_SetHardwareWatchpoint+0x88>)
    1bb8:	681a      	ldr	r2, [r3, #0]
    1bba:	2a04      	cmp	r2, #4
    1bbc:	bfb8      	it	lt
    1bbe:	2204      	movlt	r2, #4
    1bc0:	601a      	str	r2, [r3, #0]
    1bc2:	bd70      	pop	{r4, r5, r6, pc}
    1bc4:	4b05      	ldr	r3, [pc, #20]	; (1bdc <__mriPlatform_SetHardwareWatchpoint+0x88>)
    1bc6:	681a      	ldr	r2, [r3, #0]
    1bc8:	2a08      	cmp	r2, #8
    1bca:	bfb8      	it	lt
    1bcc:	2208      	movlt	r2, #8
    1bce:	601a      	str	r2, [r3, #0]
    1bd0:	bd70      	pop	{r4, r5, r6, pc}
    1bd2:	bf00      	nop
    1bd4:	0000ba38 	.word	0x0000ba38
    1bd8:	e0001000 	.word	0xe0001000
    1bdc:	10000724 	.word	0x10000724

00001be0 <__mriPlatform_ClearHardwareWatchpoint>:
    1be0:	2a02      	cmp	r2, #2
    1be2:	bf98      	it	ls
    1be4:	4b10      	ldrls	r3, [pc, #64]	; (1c28 <__mriPlatform_ClearHardwareWatchpoint+0x48>)
    1be6:	b510      	push	{r4, lr}
    1be8:	bf94      	ite	ls
    1bea:	5c9a      	ldrbls	r2, [r3, r2]
    1bec:	2200      	movhi	r2, #0
    1bee:	1e4c      	subs	r4, r1, #1
    1bf0:	400c      	ands	r4, r1
    1bf2:	d112      	bne.n	1c1a <__mriPlatform_ClearHardwareWatchpoint+0x3a>
    1bf4:	424b      	negs	r3, r1
    1bf6:	4003      	ands	r3, r0
    1bf8:	4298      	cmp	r0, r3
    1bfa:	d10e      	bne.n	1c1a <__mriPlatform_ClearHardwareWatchpoint+0x3a>
    1bfc:	1f53      	subs	r3, r2, #5
    1bfe:	2b02      	cmp	r3, #2
    1c00:	d80b      	bhi.n	1c1a <__mriPlatform_ClearHardwareWatchpoint+0x3a>
    1c02:	f7ff fb01 	bl	1208 <findDWTComparator>
    1c06:	b170      	cbz	r0, 1c26 <__mriPlatform_ClearHardwareWatchpoint+0x46>
    1c08:	6004      	str	r4, [r0, #0]
    1c0a:	6044      	str	r4, [r0, #4]
    1c0c:	6883      	ldr	r3, [r0, #8]
    1c0e:	f423 73d6 	bic.w	r3, r3, #428	; 0x1ac
    1c12:	f023 0303 	bic.w	r3, r3, #3
    1c16:	6083      	str	r3, [r0, #8]
    1c18:	bd10      	pop	{r4, pc}
    1c1a:	4b04      	ldr	r3, [pc, #16]	; (1c2c <__mriPlatform_ClearHardwareWatchpoint+0x4c>)
    1c1c:	681a      	ldr	r2, [r3, #0]
    1c1e:	2a04      	cmp	r2, #4
    1c20:	bfb8      	it	lt
    1c22:	2204      	movlt	r2, #4
    1c24:	601a      	str	r2, [r3, #0]
    1c26:	bd10      	pop	{r4, pc}
    1c28:	0000ba38 	.word	0x0000ba38
    1c2c:	10000724 	.word	0x10000724

00001c30 <__mriPlatform_GetTargetXmlSize>:
    1c30:	f240 20b9 	movw	r0, #697	; 0x2b9
    1c34:	4770      	bx	lr
	...

00001c38 <__mriPlatform_GetTargetXml>:
    1c38:	4800      	ldr	r0, [pc, #0]	; (1c3c <__mriPlatform_GetTargetXml+0x4>)
    1c3a:	4770      	bx	lr
    1c3c:	0000b53b 	.word	0x0000b53b

00001c40 <__mriPlatform_CommUartIndex>:
    1c40:	4b03      	ldr	r3, [pc, #12]	; (1c50 <__mriPlatform_CommUartIndex+0x10>)
    1c42:	6818      	ldr	r0, [r3, #0]
    1c44:	4b03      	ldr	r3, [pc, #12]	; (1c54 <__mriPlatform_CommUartIndex+0x14>)
    1c46:	1ac0      	subs	r0, r0, r3
    1c48:	4b03      	ldr	r3, [pc, #12]	; (1c58 <__mriPlatform_CommUartIndex+0x18>)
    1c4a:	1080      	asrs	r0, r0, #2
    1c4c:	4358      	muls	r0, r3
    1c4e:	4770      	bx	lr
    1c50:	10000a28 	.word	0x10000a28
    1c54:	100000cc 	.word	0x100000cc
    1c58:	38e38e39 	.word	0x38e38e39

00001c5c <__mriPlatform_CommHasReceiveData>:
    1c5c:	4b03      	ldr	r3, [pc, #12]	; (1c6c <__mriPlatform_CommHasReceiveData+0x10>)
    1c5e:	681b      	ldr	r3, [r3, #0]
    1c60:	68db      	ldr	r3, [r3, #12]
    1c62:	7d18      	ldrb	r0, [r3, #20]
    1c64:	f000 0001 	and.w	r0, r0, #1
    1c68:	4770      	bx	lr
    1c6a:	bf00      	nop
    1c6c:	10000a28 	.word	0x10000a28

00001c70 <__mriPlatform_CommReceiveChar>:
    1c70:	b508      	push	{r3, lr}
    1c72:	f7ff fff3 	bl	1c5c <__mriPlatform_CommHasReceiveData>
    1c76:	2800      	cmp	r0, #0
    1c78:	d0fb      	beq.n	1c72 <__mriPlatform_CommReceiveChar+0x2>
    1c7a:	4b02      	ldr	r3, [pc, #8]	; (1c84 <__mriPlatform_CommReceiveChar+0x14>)
    1c7c:	681b      	ldr	r3, [r3, #0]
    1c7e:	68db      	ldr	r3, [r3, #12]
    1c80:	7818      	ldrb	r0, [r3, #0]
    1c82:	bd08      	pop	{r3, pc}
    1c84:	10000a28 	.word	0x10000a28

00001c88 <__mriPlatform_CommSendChar>:
    1c88:	4b04      	ldr	r3, [pc, #16]	; (1c9c <__mriPlatform_CommSendChar+0x14>)
    1c8a:	681b      	ldr	r3, [r3, #0]
    1c8c:	68db      	ldr	r3, [r3, #12]
    1c8e:	7d1a      	ldrb	r2, [r3, #20]
    1c90:	0692      	lsls	r2, r2, #26
    1c92:	d5fc      	bpl.n	1c8e <__mriPlatform_CommSendChar+0x6>
    1c94:	b2c0      	uxtb	r0, r0
    1c96:	7018      	strb	r0, [r3, #0]
    1c98:	4770      	bx	lr
    1c9a:	bf00      	nop
    1c9c:	10000a28 	.word	0x10000a28

00001ca0 <__mriPlatform_CommCausedInterrupt>:
    1ca0:	b510      	push	{r4, lr}
    1ca2:	f000 fb77 	bl	2394 <__mriGetIPSR>
    1ca6:	4604      	mov	r4, r0
    1ca8:	f7ff ffca 	bl	1c40 <__mriPlatform_CommUartIndex>
    1cac:	b2e4      	uxtb	r4, r4
    1cae:	3015      	adds	r0, #21
    1cb0:	1a21      	subs	r1, r4, r0
    1cb2:	4248      	negs	r0, r1
    1cb4:	eb40 0001 	adc.w	r0, r0, r1
    1cb8:	bd10      	pop	{r4, pc}
	...

00001cbc <__mriPlatform_CommClearInterrupt>:
    1cbc:	4b02      	ldr	r3, [pc, #8]	; (1cc8 <__mriPlatform_CommClearInterrupt+0xc>)
    1cbe:	681b      	ldr	r3, [r3, #0]
    1cc0:	68db      	ldr	r3, [r3, #12]
    1cc2:	689b      	ldr	r3, [r3, #8]
    1cc4:	4770      	bx	lr
    1cc6:	bf00      	nop
    1cc8:	10000a28 	.word	0x10000a28

00001ccc <__mriPlatform_CommSharingWithApplication>:
    1ccc:	4b02      	ldr	r3, [pc, #8]	; (1cd8 <__mriPlatform_CommSharingWithApplication+0xc>)
    1cce:	6858      	ldr	r0, [r3, #4]
    1cd0:	f000 0001 	and.w	r0, r0, #1
    1cd4:	4770      	bx	lr
    1cd6:	bf00      	nop
    1cd8:	10000a28 	.word	0x10000a28

00001cdc <__mriPlatform_CommShouldWaitForGdbConnect>:
    1cdc:	4b04      	ldr	r3, [pc, #16]	; (1cf0 <__mriPlatform_CommShouldWaitForGdbConnect+0x14>)
    1cde:	6858      	ldr	r0, [r3, #4]
    1ce0:	0783      	lsls	r3, r0, #30
    1ce2:	bf5a      	itte	pl
    1ce4:	f000 0001 	andpl.w	r0, r0, #1
    1ce8:	f080 0001 	eorpl.w	r0, r0, #1
    1cec:	2000      	movmi	r0, #0
    1cee:	4770      	bx	lr
    1cf0:	10000a28 	.word	0x10000a28

00001cf4 <__mriPlatform_CommIsWaitingForGdbToConnect>:
    1cf4:	b508      	push	{r3, lr}
    1cf6:	f7ff fff1 	bl	1cdc <__mriPlatform_CommShouldWaitForGdbConnect>
    1cfa:	b128      	cbz	r0, 1d08 <__mriPlatform_CommIsWaitingForGdbToConnect+0x14>
    1cfc:	4b03      	ldr	r3, [pc, #12]	; (1d0c <__mriPlatform_CommIsWaitingForGdbToConnect+0x18>)
    1cfe:	681b      	ldr	r3, [r3, #0]
    1d00:	68db      	ldr	r3, [r3, #12]
    1d02:	6a18      	ldr	r0, [r3, #32]
    1d04:	f000 0001 	and.w	r0, r0, #1
    1d08:	bd08      	pop	{r3, pc}
    1d0a:	bf00      	nop
    1d0c:	10000a28 	.word	0x10000a28

00001d10 <__mriPlatform_CommPrepareToWaitForGdbConnection>:
    1d10:	b508      	push	{r3, lr}
    1d12:	f7ff ffe3 	bl	1cdc <__mriPlatform_CommShouldWaitForGdbConnect>
    1d16:	b120      	cbz	r0, 1d22 <__mriPlatform_CommPrepareToWaitForGdbConnection+0x12>
    1d18:	4b02      	ldr	r3, [pc, #8]	; (1d24 <__mriPlatform_CommPrepareToWaitForGdbConnection+0x14>)
    1d1a:	2207      	movs	r2, #7
    1d1c:	681b      	ldr	r3, [r3, #0]
    1d1e:	68db      	ldr	r3, [r3, #12]
    1d20:	621a      	str	r2, [r3, #32]
    1d22:	bd08      	pop	{r3, pc}
    1d24:	10000a28 	.word	0x10000a28

00001d28 <__mriLpc176xUart_Init>:
    1d28:	e92d 4ff0 	stmdb	sp!, {r4, r5, r6, r7, r8, r9, r10, r11, lr}
    1d2c:	b087      	sub	sp, #28
    1d2e:	4604      	mov	r4, r0
    1d30:	2100      	movs	r1, #0
    1d32:	220c      	movs	r2, #12
    1d34:	a803      	add	r0, sp, #12
    1d36:	f004 fdb6 	bl	68a6 <memset>
    1d3a:	4997      	ldr	r1, [pc, #604]	; (1f98 <__mriLpc176xUart_Init+0x270>)
    1d3c:	4620      	mov	r0, r4
    1d3e:	f7ff fa1f 	bl	1180 <__mriToken_MatchingString>
    1d42:	4620      	mov	r0, r4
    1d44:	4995      	ldr	r1, [pc, #596]	; (1f9c <__mriLpc176xUart_Init+0x274>)
    1d46:	f7ff fa1b 	bl	1180 <__mriToken_MatchingString>
    1d4a:	b108      	cbz	r0, 1d50 <__mriLpc176xUart_Init+0x28>
    1d4c:	2303      	movs	r3, #3
    1d4e:	9304      	str	r3, [sp, #16]
    1d50:	4620      	mov	r0, r4
    1d52:	4993      	ldr	r1, [pc, #588]	; (1fa0 <__mriLpc176xUart_Init+0x278>)
    1d54:	f7ff fa14 	bl	1180 <__mriToken_MatchingString>
    1d58:	b108      	cbz	r0, 1d5e <__mriLpc176xUart_Init+0x36>
    1d5a:	2301      	movs	r3, #1
    1d5c:	9304      	str	r3, [sp, #16]
    1d5e:	4620      	mov	r0, r4
    1d60:	4990      	ldr	r1, [pc, #576]	; (1fa4 <__mriLpc176xUart_Init+0x27c>)
    1d62:	f7ff fa0d 	bl	1180 <__mriToken_MatchingString>
    1d66:	b108      	cbz	r0, 1d6c <__mriLpc176xUart_Init+0x44>
    1d68:	2302      	movs	r3, #2
    1d6a:	9304      	str	r3, [sp, #16]
    1d6c:	4620      	mov	r0, r4
    1d6e:	498e      	ldr	r1, [pc, #568]	; (1fa8 <__mriLpc176xUart_Init+0x280>)
    1d70:	f7ff fa06 	bl	1180 <__mriToken_MatchingString>
    1d74:	b108      	cbz	r0, 1d7a <__mriLpc176xUart_Init+0x52>
    1d76:	2300      	movs	r3, #0
    1d78:	9304      	str	r3, [sp, #16]
    1d7a:	4620      	mov	r0, r4
    1d7c:	498b      	ldr	r1, [pc, #556]	; (1fac <__mriLpc176xUart_Init+0x284>)
    1d7e:	f7ff f9ff 	bl	1180 <__mriToken_MatchingString>
    1d82:	b108      	cbz	r0, 1d88 <__mriLpc176xUart_Init+0x60>
    1d84:	2301      	movs	r3, #1
    1d86:	9304      	str	r3, [sp, #16]
    1d88:	4620      	mov	r0, r4
    1d8a:	4989      	ldr	r1, [pc, #548]	; (1fb0 <__mriLpc176xUart_Init+0x288>)
    1d8c:	f7ff f9f8 	bl	1180 <__mriToken_MatchingString>
    1d90:	b108      	cbz	r0, 1d96 <__mriLpc176xUart_Init+0x6e>
    1d92:	2302      	movs	r3, #2
    1d94:	9304      	str	r3, [sp, #16]
    1d96:	4620      	mov	r0, r4
    1d98:	4986      	ldr	r1, [pc, #536]	; (1fb4 <__mriLpc176xUart_Init+0x28c>)
    1d9a:	f7ff f9f1 	bl	1180 <__mriToken_MatchingString>
    1d9e:	b108      	cbz	r0, 1da4 <__mriLpc176xUart_Init+0x7c>
    1da0:	2303      	movs	r3, #3
    1da2:	9304      	str	r3, [sp, #16]
    1da4:	4620      	mov	r0, r4
    1da6:	4984      	ldr	r1, [pc, #528]	; (1fb8 <__mriLpc176xUart_Init+0x290>)
    1da8:	f7ff fa00 	bl	11ac <__mriToken_MatchingStringPrefix>
    1dac:	b310      	cbz	r0, 1df4 <__mriLpc176xUart_Init+0xcc>
    1dae:	4a83      	ldr	r2, [pc, #524]	; (1fbc <__mriLpc176xUart_Init+0x294>)
    1db0:	2300      	movs	r3, #0
    1db2:	469e      	mov	lr, r3
    1db4:	4617      	mov	r7, r2
    1db6:	2609      	movs	r6, #9
    1db8:	250a      	movs	r5, #10
    1dba:	46a0      	mov	r8, r4
    1dbc:	e015      	b.n	1dea <__mriLpc176xUart_Init+0xc2>
    1dbe:	f8c2 e000 	str.w	lr, [r2]
    1dc2:	7b81      	ldrb	r1, [r0, #14]
    1dc4:	3930      	subs	r1, #48	; 0x30
    1dc6:	fa5f fc81 	uxtb.w	r12, r1
    1dca:	f1bc 0f09 	cmp.w	r12, #9
    1dce:	bf88      	it	hi
    1dd0:	6016      	strhi	r6, [r2, #0]
    1dd2:	683c      	ldr	r4, [r7, #0]
    1dd4:	bf88      	it	hi
    1dd6:	2100      	movhi	r1, #0
    1dd8:	3001      	adds	r0, #1
    1dda:	b124      	cbz	r4, 1de6 <__mriLpc176xUart_Init+0xbe>
    1ddc:	4a77      	ldr	r2, [pc, #476]	; (1fbc <__mriLpc176xUart_Init+0x294>)
    1dde:	2100      	movs	r1, #0
    1de0:	4644      	mov	r4, r8
    1de2:	6011      	str	r1, [r2, #0]
    1de4:	e005      	b.n	1df2 <__mriLpc176xUart_Init+0xca>
    1de6:	fb05 1303 	mla	r3, r5, r3, r1
    1dea:	7b81      	ldrb	r1, [r0, #14]
    1dec:	2900      	cmp	r1, #0
    1dee:	d1e6      	bne.n	1dbe <__mriLpc176xUart_Init+0x96>
    1df0:	4644      	mov	r4, r8
    1df2:	9305      	str	r3, [sp, #20]
    1df4:	4620      	mov	r0, r4
    1df6:	4972      	ldr	r1, [pc, #456]	; (1fc0 <__mriLpc176xUart_Init+0x298>)
    1df8:	f7ff f9c2 	bl	1180 <__mriToken_MatchingString>
    1dfc:	b108      	cbz	r0, 1e02 <__mriLpc176xUart_Init+0xda>
    1dfe:	2301      	movs	r3, #1
    1e00:	9303      	str	r3, [sp, #12]
    1e02:	9b04      	ldr	r3, [sp, #16]
    1e04:	2124      	movs	r1, #36	; 0x24
    1e06:	4359      	muls	r1, r3
    1e08:	486e      	ldr	r0, [pc, #440]	; (1fc4 <__mriLpc176xUart_Init+0x29c>)
    1e0a:	4a6f      	ldr	r2, [pc, #444]	; (1fc8 <__mriLpc176xUart_Init+0x2a0>)
    1e0c:	9f03      	ldr	r7, [sp, #12]
    1e0e:	1843      	adds	r3, r0, r1
    1e10:	6013      	str	r3, [r2, #0]
    1e12:	b127      	cbz	r7, 1e1e <__mriLpc176xUart_Init+0xf6>
    1e14:	6853      	ldr	r3, [r2, #4]
    1e16:	f043 0301 	orr.w	r3, r3, #1
    1e1a:	6053      	str	r3, [r2, #4]
    1e1c:	e0b8      	b.n	1f90 <__mriLpc176xUart_Init+0x268>
    1e1e:	4a6b      	ldr	r2, [pc, #428]	; (1fcc <__mriLpc176xUart_Init+0x2a4>)
    1e20:	691c      	ldr	r4, [r3, #16]
    1e22:	f8d2 50c4 	ldr.w	r5, [r2, #196]	; 0xc4
    1e26:	432c      	orrs	r4, r5
    1e28:	f8c2 40c4 	str.w	r4, [r2, #196]	; 0xc4
    1e2c:	5842      	ldr	r2, [r0, r1]
    1e2e:	6958      	ldr	r0, [r3, #20]
    1e30:	6811      	ldr	r1, [r2, #0]
    1e32:	2510      	movs	r5, #16
    1e34:	ea21 0100 	bic.w	r1, r1, r0
    1e38:	6011      	str	r1, [r2, #0]
    1e3a:	6959      	ldr	r1, [r3, #20]
    1e3c:	6810      	ldr	r0, [r2, #0]
    1e3e:	f001 3155 	and.w	r1, r1, #1431655765	; 0x55555555
    1e42:	4301      	orrs	r1, r0
    1e44:	6011      	str	r1, [r2, #0]
    1e46:	68da      	ldr	r2, [r3, #12]
    1e48:	2101      	movs	r1, #1
    1e4a:	f882 5028 	strb.w	r5, [r2, #40]	; 0x28
    1e4e:	68da      	ldr	r2, [r3, #12]
    1e50:	2003      	movs	r0, #3
    1e52:	7211      	strb	r1, [r2, #8]
    1e54:	68da      	ldr	r2, [r3, #12]
    1e56:	7310      	strb	r0, [r2, #12]
    1e58:	9a05      	ldr	r2, [sp, #20]
    1e5a:	2a00      	cmp	r2, #0
    1e5c:	d05b      	beq.n	1f16 <__mriLpc176xUart_Init+0x1ee>
    1e5e:	485c      	ldr	r0, [pc, #368]	; (1fd0 <__mriLpc176xUart_Init+0x2a8>)
    1e60:	6800      	ldr	r0, [r0, #0]
    1e62:	ea4f 1c10 	mov.w	r12, r0, lsr #4
    1e66:	fbbc f4f2 	udiv	r4, r12, r2
    1e6a:	fb02 f004 	mul.w	r0, r2, r4
    1e6e:	4560      	cmp	r0, r12
    1e70:	d03a      	beq.n	1ee8 <__mriLpc176xUart_Init+0x1c0>
    1e72:	0110      	lsls	r0, r2, #4
    1e74:	ea4f 2c0c 	mov.w	r12, r12, lsl #8
    1e78:	9001      	str	r0, [sp, #4]
    1e7a:	460d      	mov	r5, r1
    1e7c:	f04f 3eff 	mov.w	lr, #4294967295	; 0xffffffff
    1e80:	e02b      	b.n	1eda <__mriLpc176xUart_Init+0x1b2>
    1e82:	ea4f 1906 	mov.w	r9, r6, lsl #4
    1e86:	fbb9 f9f8 	udiv	r9, r9, r8
    1e8a:	4491      	add	r9, r2
    1e8c:	fbbc f9f9 	udiv	r9, r12, r9
    1e90:	f109 0980 	add.w	r9, r9, #128	; 0x80
    1e94:	ea4f 2919 	mov.w	r9, r9, lsr #8
    1e98:	ea4f 1a09 	mov.w	r10, r9, lsl #4
    1e9c:	fb00 fb0a 	mul.w	r11, r0, r10
    1ea0:	ea4f 1b0b 	mov.w	r11, r11, lsl #4
    1ea4:	fbbb fbf8 	udiv	r11, r11, r8
    1ea8:	44da      	add	r10, r11
    1eaa:	f8dd b004 	ldr.w	r11, [sp, #4]
    1eae:	fbbc fafa 	udiv	r10, r12, r10
    1eb2:	ebcb 0a0a 	rsb	r10, r11, r10
    1eb6:	f1ba 0f00 	cmp.w	r10, #0
    1eba:	bfb8      	it	lt
    1ebc:	f1ca 0a00 	rsblt	r10, r10, #0
    1ec0:	45f2      	cmp	r10, lr
    1ec2:	d203      	bcs.n	1ecc <__mriLpc176xUart_Init+0x1a4>
    1ec4:	4607      	mov	r7, r0
    1ec6:	460d      	mov	r5, r1
    1ec8:	464c      	mov	r4, r9
    1eca:	46d6      	mov	lr, r10
    1ecc:	3001      	adds	r0, #1
    1ece:	18b6      	adds	r6, r6, r2
    1ed0:	4288      	cmp	r0, r1
    1ed2:	d3d6      	bcc.n	1e82 <__mriLpc176xUart_Init+0x15a>
    1ed4:	3101      	adds	r1, #1
    1ed6:	2910      	cmp	r1, #16
    1ed8:	d004      	beq.n	1ee4 <__mriLpc176xUart_Init+0x1bc>
    1eda:	ea4f 1801 	mov.w	r8, r1, lsl #4
    1ede:	4616      	mov	r6, r2
    1ee0:	2001      	movs	r0, #1
    1ee2:	e7f5      	b.n	1ed0 <__mriLpc176xUart_Init+0x1a8>
    1ee4:	ea47 1505 	orr.w	r5, r7, r5, lsl #4
    1ee8:	68da      	ldr	r2, [r3, #12]
    1eea:	b2ed      	uxtb	r5, r5
    1eec:	7b11      	ldrb	r1, [r2, #12]
    1eee:	f041 0180 	orr.w	r1, r1, #128	; 0x80
    1ef2:	7311      	strb	r1, [r2, #12]
    1ef4:	b2e1      	uxtb	r1, r4
    1ef6:	f3c4 2407 	ubfx	r4, r4, #8, #8
    1efa:	7011      	strb	r1, [r2, #0]
    1efc:	7114      	strb	r4, [r2, #4]
    1efe:	f882 5028 	strb.w	r5, [r2, #40]	; 0x28
    1f02:	68da      	ldr	r2, [r3, #12]
    1f04:	7b11      	ldrb	r1, [r2, #12]
    1f06:	f001 017f 	and.w	r1, r1, #127	; 0x7f
    1f0a:	7311      	strb	r1, [r2, #12]
    1f0c:	4a2e      	ldr	r2, [pc, #184]	; (1fc8 <__mriLpc176xUart_Init+0x2a0>)
    1f0e:	6851      	ldr	r1, [r2, #4]
    1f10:	f041 0102 	orr.w	r1, r1, #2
    1f14:	6051      	str	r1, [r2, #4]
    1f16:	685a      	ldr	r2, [r3, #4]
    1f18:	6999      	ldr	r1, [r3, #24]
    1f1a:	6810      	ldr	r0, [r2, #0]
    1f1c:	6a1c      	ldr	r4, [r3, #32]
    1f1e:	ea20 0001 	bic.w	r0, r0, r1
    1f22:	4021      	ands	r1, r4
    1f24:	4301      	orrs	r1, r0
    1f26:	6011      	str	r1, [r2, #0]
    1f28:	689a      	ldr	r2, [r3, #8]
    1f2a:	69d9      	ldr	r1, [r3, #28]
    1f2c:	6810      	ldr	r0, [r2, #0]
    1f2e:	6a1c      	ldr	r4, [r3, #32]
    1f30:	ea20 0001 	bic.w	r0, r0, r1
    1f34:	4021      	ands	r1, r4
    1f36:	4301      	orrs	r1, r0
    1f38:	6011      	str	r1, [r2, #0]
    1f3a:	68da      	ldr	r2, [r3, #12]
    1f3c:	7b11      	ldrb	r1, [r2, #12]
    1f3e:	7b10      	ldrb	r0, [r2, #12]
    1f40:	f000 007f 	and.w	r0, r0, #127	; 0x7f
    1f44:	7310      	strb	r0, [r2, #12]
    1f46:	68da      	ldr	r2, [r3, #12]
    1f48:	2001      	movs	r0, #1
    1f4a:	6050      	str	r0, [r2, #4]
    1f4c:	68db      	ldr	r3, [r3, #12]
    1f4e:	7319      	strb	r1, [r3, #12]
    1f50:	f7ff fede 	bl	1d10 <__mriPlatform_CommPrepareToWaitForGdbConnection>
    1f54:	f7ff fe74 	bl	1c40 <__mriPlatform_CommUartIndex>
    1f58:	3005      	adds	r0, #5
    1f5a:	b2c0      	uxtb	r0, r0
    1f5c:	b2c2      	uxtb	r2, r0
    1f5e:	b254      	sxtb	r4, r2
    1f60:	2c00      	cmp	r4, #0
    1f62:	f04f 0100 	mov.w	r1, #0
    1f66:	da05      	bge.n	1f74 <__mriLpc176xUart_Init+0x24c>
    1f68:	4b1a      	ldr	r3, [pc, #104]	; (1fd4 <__mriLpc176xUart_Init+0x2ac>)
    1f6a:	f000 040f 	and.w	r4, r0, #15
    1f6e:	18e3      	adds	r3, r4, r3
    1f70:	7619      	strb	r1, [r3, #24]
    1f72:	e003      	b.n	1f7c <__mriLpc176xUart_Init+0x254>
    1f74:	4b18      	ldr	r3, [pc, #96]	; (1fd8 <__mriLpc176xUart_Init+0x2b0>)
    1f76:	18e3      	adds	r3, r4, r3
    1f78:	f883 1300 	strb.w	r1, [r3, #768]	; 0x300
    1f7c:	2301      	movs	r3, #1
    1f7e:	f000 001f 	and.w	r0, r0, #31
    1f82:	fa03 f000 	lsl.w	r0, r3, r0
    1f86:	b252      	sxtb	r2, r2
    1f88:	4b13      	ldr	r3, [pc, #76]	; (1fd8 <__mriLpc176xUart_Init+0x2b0>)
    1f8a:	0952      	lsrs	r2, r2, #5
    1f8c:	f843 0022 	str.w	r0, [r3, r2, lsl #2]
    1f90:	b007      	add	sp, #28
    1f92:	e8bd 8ff0 	ldmia.w	sp!, {r4, r5, r6, r7, r8, r9, r10, r11, pc}
    1f96:	bf00      	nop
    1f98:	0000ba3b 	.word	0x0000ba3b
    1f9c:	0000ba4d 	.word	0x0000ba4d
    1fa0:	0000ba62 	.word	0x0000ba62
    1fa4:	0000ba78 	.word	0x0000ba78
    1fa8:	0000ba8e 	.word	0x0000ba8e
    1fac:	0000ba99 	.word	0x0000ba99
    1fb0:	0000baa4 	.word	0x0000baa4
    1fb4:	0000baaf 	.word	0x0000baaf
    1fb8:	0000bac9 	.word	0x0000bac9
    1fbc:	10000724 	.word	0x10000724
    1fc0:	0000baba 	.word	0x0000baba
    1fc4:	100000cc 	.word	0x100000cc
    1fc8:	10000a28 	.word	0x10000a28
    1fcc:	400fc000 	.word	0x400fc000
    1fd0:	1000015c 	.word	0x1000015c
    1fd4:	e000ecfc 	.word	0xe000ecfc
    1fd8:	e000e100 	.word	0xe000e100

00001fdc <__mriPlatform_CommWaitForReceiveDataToStop>:
    1fdc:	e92d 41f0 	stmdb	sp!, {r4, r5, r6, r7, r8, lr}
    1fe0:	4c14      	ldr	r4, [pc, #80]	; (2034 <__mriPlatform_CommWaitForReceiveDataToStop+0x58>)
    1fe2:	2600      	movs	r6, #0
    1fe4:	4625      	mov	r5, r4
    1fe6:	e001      	b.n	1fec <__mriPlatform_CommWaitForReceiveDataToStop+0x10>
    1fe8:	f7ff fe42 	bl	1c70 <__mriPlatform_CommReceiveChar>
    1fec:	6827      	ldr	r7, [r4, #0]
    1fee:	f8d4 8004 	ldr.w	r8, [r4, #4]
    1ff2:	68e3      	ldr	r3, [r4, #12]
    1ff4:	f023 437f 	bic.w	r3, r3, #4278190080	; 0xff000000
    1ff8:	b13b      	cbz	r3, 200a <__mriPlatform_CommWaitForReceiveDataToStop+0x2e>
    1ffa:	6026      	str	r6, [r4, #0]
    1ffc:	68e3      	ldr	r3, [r4, #12]
    1ffe:	f023 437f 	bic.w	r3, r3, #4278190080	; 0xff000000
    2002:	6063      	str	r3, [r4, #4]
    2004:	2305      	movs	r3, #5
    2006:	60a6      	str	r6, [r4, #8]
    2008:	6023      	str	r3, [r4, #0]
    200a:	f7ff fe27 	bl	1c5c <__mriPlatform_CommHasReceiveData>
    200e:	b930      	cbnz	r0, 201e <__mriPlatform_CommWaitForReceiveDataToStop+0x42>
    2010:	68e3      	ldr	r3, [r4, #12]
    2012:	f023 437f 	bic.w	r3, r3, #4278190080	; 0xff000000
    2016:	b113      	cbz	r3, 201e <__mriPlatform_CommWaitForReceiveDataToStop+0x42>
    2018:	6823      	ldr	r3, [r4, #0]
    201a:	03da      	lsls	r2, r3, #15
    201c:	d5f5      	bpl.n	200a <__mriPlatform_CommWaitForReceiveDataToStop+0x2e>
    201e:	f028 437f 	bic.w	r3, r8, #4278190080	; 0xff000000
    2022:	606b      	str	r3, [r5, #4]
    2024:	602f      	str	r7, [r5, #0]
    2026:	f7ff fe19 	bl	1c5c <__mriPlatform_CommHasReceiveData>
    202a:	2800      	cmp	r0, #0
    202c:	d1dc      	bne.n	1fe8 <__mriPlatform_CommWaitForReceiveDataToStop+0xc>
    202e:	e8bd 81f0 	ldmia.w	sp!, {r4, r5, r6, r7, r8, pc}
    2032:	bf00      	nop
    2034:	e000e010 	.word	0xe000e010

00002038 <__mriLpc176x_Init>:
    2038:	b538      	push	{r3, r4, r5, lr}
    203a:	4d0b      	ldr	r5, [pc, #44]	; (2068 <__mriLpc176x_Init+0x30>)
    203c:	2300      	movs	r3, #0
    203e:	602b      	str	r3, [r5, #0]
    2040:	4604      	mov	r4, r0
    2042:	f7ff fa81 	bl	1548 <__mriCortexMInit>
    2046:	682b      	ldr	r3, [r5, #0]
    2048:	b963      	cbnz	r3, 2064 <__mriLpc176x_Init+0x2c>
    204a:	2108      	movs	r1, #8
    204c:	4a07      	ldr	r2, [pc, #28]	; (206c <__mriLpc176x_Init+0x34>)
    204e:	189a      	adds	r2, r3, r2
    2050:	3301      	adds	r3, #1
    2052:	2b23      	cmp	r3, #35	; 0x23
    2054:	f882 1300 	strb.w	r1, [r2, #768]	; 0x300
    2058:	d1f8      	bne.n	204c <__mriLpc176x_Init+0x14>
    205a:	4620      	mov	r0, r4
    205c:	e8bd 4038 	ldmia.w	sp!, {r3, r4, r5, lr}
    2060:	f7ff be62 	b.w	1d28 <__mriLpc176xUart_Init>
    2064:	bd38      	pop	{r3, r4, r5, pc}
    2066:	bf00      	nop
    2068:	10000724 	.word	0x10000724
    206c:	e000e100 	.word	0xe000e100

00002070 <__mriPlatform_GetDeviceMemoryMapXmlSize>:
    2070:	f240 50c6 	movw	r0, #1478	; 0x5c6
    2074:	4770      	bx	lr
	...

00002078 <__mriPlatform_GetDeviceMemoryMapXml>:
    2078:	4800      	ldr	r0, [pc, #0]	; (207c <__mriPlatform_GetDeviceMemoryMapXml+0x4>)
    207a:	4770      	bx	lr
    207c:	0000bad8 	.word	0x0000bad8

00002080 <__mriPlatform_Init>:
    2080:	e92d 41f0 	stmdb	sp!, {r4, r5, r6, r7, r8, lr}
    2084:	4d1c      	ldr	r5, [pc, #112]	; (20f8 <__mriPlatform_Init+0x78>)
    2086:	2400      	movs	r4, #0
    2088:	4606      	mov	r6, r0
    208a:	f8df 8078 	ldr.w	r8, [pc, #120]	; 2104 <__mriPlatform_Init+0x84>
    208e:	4628      	mov	r0, r5
    2090:	491a      	ldr	r1, [pc, #104]	; (20fc <__mriPlatform_Init+0x7c>)
    2092:	2224      	movs	r2, #36	; 0x24
    2094:	f840 4b04 	str.w	r4, [r0], #4
    2098:	4f19      	ldr	r7, [pc, #100]	; (2100 <__mriPlatform_Init+0x80>)
    209a:	f004 fbfb 	bl	6894 <memcpy>
    209e:	f8c8 4000 	str.w	r4, [r8]
    20a2:	683b      	ldr	r3, [r7, #0]
    20a4:	07d9      	lsls	r1, r3, #31
    20a6:	d51c      	bpl.n	20e2 <__mriPlatform_Init+0x62>
    20a8:	1d28      	adds	r0, r5, #4
    20aa:	f000 fa41 	bl	2530 <__mriGetMbedUid>
    20ae:	f000 fa33 	bl	2518 <__mriDisableMbed>
    20b2:	f8c8 4000 	str.w	r4, [r8]
    20b6:	f241 3389 	movw	r3, #5001	; 0x1389
    20ba:	3b01      	subs	r3, #1
    20bc:	d002      	beq.n	20c4 <__mriPlatform_Init+0x44>
    20be:	683a      	ldr	r2, [r7, #0]
    20c0:	07d2      	lsls	r2, r2, #31
    20c2:	d4fa      	bmi.n	20ba <__mriPlatform_Init+0x3a>
    20c4:	4b0e      	ldr	r3, [pc, #56]	; (2100 <__mriPlatform_Init+0x80>)
    20c6:	681b      	ldr	r3, [r3, #0]
    20c8:	f013 0f01 	tst.w	r3, #1
    20cc:	4b0d      	ldr	r3, [pc, #52]	; (2104 <__mriPlatform_Init+0x84>)
    20ce:	d001      	beq.n	20d4 <__mriPlatform_Init+0x54>
    20d0:	2205      	movs	r2, #5
    20d2:	601a      	str	r2, [r3, #0]
    20d4:	681b      	ldr	r3, [r3, #0]
    20d6:	b923      	cbnz	r3, 20e2 <__mriPlatform_Init+0x62>
    20d8:	4b07      	ldr	r3, [pc, #28]	; (20f8 <__mriPlatform_Init+0x78>)
    20da:	681a      	ldr	r2, [r3, #0]
    20dc:	f042 0201 	orr.w	r2, r2, #1
    20e0:	601a      	str	r2, [r3, #0]
    20e2:	4b08      	ldr	r3, [pc, #32]	; (2104 <__mriPlatform_Init+0x84>)
    20e4:	681b      	ldr	r3, [r3, #0]
    20e6:	b923      	cbnz	r3, 20f2 <__mriPlatform_Init+0x72>
    20e8:	4630      	mov	r0, r6
    20ea:	e8bd 41f0 	ldmia.w	sp!, {r4, r5, r6, r7, r8, lr}
    20ee:	f7ff bfa3 	b.w	2038 <__mriLpc176x_Init>
    20f2:	e8bd 81f0 	ldmia.w	sp!, {r4, r5, r6, r7, r8, pc}
    20f6:	bf00      	nop
    20f8:	100005cc 	.word	0x100005cc
    20fc:	0000c09f 	.word	0x0000c09f
    2100:	e000edf0 	.word	0xe000edf0
    2104:	10000724 	.word	0x10000724

00002108 <__mriMbed1768_GetMbedUid>:
    2108:	4800      	ldr	r0, [pc, #0]	; (210c <__mriMbed1768_GetMbedUid+0x4>)
    210a:	4770      	bx	lr
    210c:	100005d0 	.word	0x100005d0

00002110 <__mriSemihost_IsDebuggeeMakingSemihostCall>:
    2110:	b508      	push	{r3, lr}
    2112:	f7ff fc43 	bl	199c <__mriPlatform_TypeOfCurrentInstruction>
    2116:	3801      	subs	r0, #1
    2118:	b2c0      	uxtb	r0, r0
    211a:	2801      	cmp	r0, #1
    211c:	bf8c      	ite	hi
    211e:	2000      	movhi	r0, #0
    2120:	2001      	movls	r0, #1
    2122:	bd08      	pop	{r3, pc}

00002124 <__mriSemihost_HandleSemihostRequest>:
    2124:	b51f      	push	{r0, r1, r2, r3, r4, lr}
    2126:	f7ff fc39 	bl	199c <__mriPlatform_TypeOfCurrentInstruction>
    212a:	4604      	mov	r4, r0
    212c:	4668      	mov	r0, sp
    212e:	f7ff fc49 	bl	19c4 <__mriPlatform_GetSemihostCallParameters>
    2132:	2c01      	cmp	r4, #1
    2134:	d103      	bne.n	213e <__mriSemihost_HandleSemihostRequest+0x1a>
    2136:	4668      	mov	r0, sp
    2138:	f000 f894 	bl	2264 <__mriSemihost_HandleMbedSemihostRequest>
    213c:	e006      	b.n	214c <__mriSemihost_HandleSemihostRequest+0x28>
    213e:	2c02      	cmp	r4, #2
    2140:	d103      	bne.n	214a <__mriSemihost_HandleSemihostRequest+0x26>
    2142:	4668      	mov	r0, sp
    2144:	f000 f804 	bl	2150 <__mriSemihost_HandleNewlibSemihostRequest>
    2148:	e000      	b.n	214c <__mriSemihost_HandleSemihostRequest+0x28>
    214a:	2000      	movs	r0, #0
    214c:	b004      	add	sp, #16
    214e:	bd10      	pop	{r4, pc}

00002150 <__mriSemihost_HandleNewlibSemihostRequest>:
    2150:	b510      	push	{r4, lr}
    2152:	b08c      	sub	sp, #48	; 0x30
    2154:	4604      	mov	r4, r0
    2156:	f7ff fbe3 	bl	1920 <__mriPlatform_GetProgramCounter>
    215a:	4b33      	ldr	r3, [pc, #204]	; (2228 <__mriSemihost_HandleNewlibSemihostRequest+0xd8>)
    215c:	f040 0001 	orr.w	r0, r0, #1
    2160:	4298      	cmp	r0, r3
    2162:	d109      	bne.n	2178 <__mriSemihost_HandleNewlibSemihostRequest+0x28>
    2164:	6823      	ldr	r3, [r4, #0]
    2166:	a804      	add	r0, sp, #16
    2168:	9304      	str	r3, [sp, #16]
    216a:	6863      	ldr	r3, [r4, #4]
    216c:	9305      	str	r3, [sp, #20]
    216e:	68a3      	ldr	r3, [r4, #8]
    2170:	9306      	str	r3, [sp, #24]
    2172:	f000 fd39 	bl	2be8 <__mriIssueGdbFileWriteRequest>
    2176:	e055      	b.n	2224 <__mriSemihost_HandleNewlibSemihostRequest+0xd4>
    2178:	4b2c      	ldr	r3, [pc, #176]	; (222c <__mriSemihost_HandleNewlibSemihostRequest+0xdc>)
    217a:	4298      	cmp	r0, r3
    217c:	d109      	bne.n	2192 <__mriSemihost_HandleNewlibSemihostRequest+0x42>
    217e:	6823      	ldr	r3, [r4, #0]
    2180:	a804      	add	r0, sp, #16
    2182:	9304      	str	r3, [sp, #16]
    2184:	6863      	ldr	r3, [r4, #4]
    2186:	9305      	str	r3, [sp, #20]
    2188:	68a3      	ldr	r3, [r4, #8]
    218a:	9306      	str	r3, [sp, #24]
    218c:	f000 fd50 	bl	2c30 <__mriIssueGdbFileReadRequest>
    2190:	e048      	b.n	2224 <__mriSemihost_HandleNewlibSemihostRequest+0xd4>
    2192:	4b27      	ldr	r3, [pc, #156]	; (2230 <__mriSemihost_HandleNewlibSemihostRequest+0xe0>)
    2194:	4298      	cmp	r0, r3
    2196:	d10c      	bne.n	21b2 <__mriSemihost_HandleNewlibSemihostRequest+0x62>
    2198:	6820      	ldr	r0, [r4, #0]
    219a:	9000      	str	r0, [sp, #0]
    219c:	f004 fe6b 	bl	6e76 <strlen>
    21a0:	6863      	ldr	r3, [r4, #4]
    21a2:	9001      	str	r0, [sp, #4]
    21a4:	9302      	str	r3, [sp, #8]
    21a6:	68a3      	ldr	r3, [r4, #8]
    21a8:	4668      	mov	r0, sp
    21aa:	9303      	str	r3, [sp, #12]
    21ac:	f000 fcee 	bl	2b8c <__mriIssueGdbFileOpenRequest>
    21b0:	e038      	b.n	2224 <__mriSemihost_HandleNewlibSemihostRequest+0xd4>
    21b2:	4b20      	ldr	r3, [pc, #128]	; (2234 <__mriSemihost_HandleNewlibSemihostRequest+0xe4>)
    21b4:	4298      	cmp	r0, r3
    21b6:	d108      	bne.n	21ca <__mriSemihost_HandleNewlibSemihostRequest+0x7a>
    21b8:	6820      	ldr	r0, [r4, #0]
    21ba:	900a      	str	r0, [sp, #40]	; 0x28
    21bc:	f004 fe5b 	bl	6e76 <strlen>
    21c0:	900b      	str	r0, [sp, #44]	; 0x2c
    21c2:	a80a      	add	r0, sp, #40	; 0x28
    21c4:	f000 fdae 	bl	2d24 <__mriIssueGdbFileUnlinkRequest>
    21c8:	e02c      	b.n	2224 <__mriSemihost_HandleNewlibSemihostRequest+0xd4>
    21ca:	4b1b      	ldr	r3, [pc, #108]	; (2238 <__mriSemihost_HandleNewlibSemihostRequest+0xe8>)
    21cc:	4298      	cmp	r0, r3
    21ce:	d109      	bne.n	21e4 <__mriSemihost_HandleNewlibSemihostRequest+0x94>
    21d0:	6823      	ldr	r3, [r4, #0]
    21d2:	a807      	add	r0, sp, #28
    21d4:	9307      	str	r3, [sp, #28]
    21d6:	6863      	ldr	r3, [r4, #4]
    21d8:	9308      	str	r3, [sp, #32]
    21da:	68a3      	ldr	r3, [r4, #8]
    21dc:	9309      	str	r3, [sp, #36]	; 0x24
    21de:	f000 fd5f 	bl	2ca0 <__mriIssueGdbFileSeekRequest>
    21e2:	e01f      	b.n	2224 <__mriSemihost_HandleNewlibSemihostRequest+0xd4>
    21e4:	4b15      	ldr	r3, [pc, #84]	; (223c <__mriSemihost_HandleNewlibSemihostRequest+0xec>)
    21e6:	4298      	cmp	r0, r3
    21e8:	d103      	bne.n	21f2 <__mriSemihost_HandleNewlibSemihostRequest+0xa2>
    21ea:	6820      	ldr	r0, [r4, #0]
    21ec:	f000 fd44 	bl	2c78 <__mriIssueGdbFileCloseRequest>
    21f0:	e018      	b.n	2224 <__mriSemihost_HandleNewlibSemihostRequest+0xd4>
    21f2:	4b13      	ldr	r3, [pc, #76]	; (2240 <__mriSemihost_HandleNewlibSemihostRequest+0xf0>)
    21f4:	4298      	cmp	r0, r3
    21f6:	d104      	bne.n	2202 <__mriSemihost_HandleNewlibSemihostRequest+0xb2>
    21f8:	e894 0003 	ldmia.w	r4, {r0, r1}
    21fc:	f000 fd74 	bl	2ce8 <__mriIssueGdbFileFStatRequest>
    2200:	e010      	b.n	2224 <__mriSemihost_HandleNewlibSemihostRequest+0xd4>
    2202:	4b10      	ldr	r3, [pc, #64]	; (2244 <__mriSemihost_HandleNewlibSemihostRequest+0xf4>)
    2204:	4298      	cmp	r0, r3
    2206:	d104      	bne.n	2212 <__mriSemihost_HandleNewlibSemihostRequest+0xc2>
    2208:	e894 0003 	ldmia.w	r4, {r0, r1}
    220c:	f000 fda8 	bl	2d60 <__mriIssueGdbFileStatRequest>
    2210:	e008      	b.n	2224 <__mriSemihost_HandleNewlibSemihostRequest+0xd4>
    2212:	4b0d      	ldr	r3, [pc, #52]	; (2248 <__mriSemihost_HandleNewlibSemihostRequest+0xf8>)
    2214:	4298      	cmp	r0, r3
    2216:	d104      	bne.n	2222 <__mriSemihost_HandleNewlibSemihostRequest+0xd2>
    2218:	e894 0003 	ldmia.w	r4, {r0, r1}
    221c:	f000 fdc8 	bl	2db0 <__mriIssueGdbFileRenameRequest>
    2220:	e000      	b.n	2224 <__mriSemihost_HandleNewlibSemihostRequest+0xd4>
    2222:	2000      	movs	r0, #0
    2224:	b00c      	add	sp, #48	; 0x30
    2226:	bd10      	pop	{r4, pc}
    2228:	00002545 	.word	0x00002545
    222c:	00002549 	.word	0x00002549
    2230:	0000254d 	.word	0x0000254d
    2234:	00002555 	.word	0x00002555
    2238:	0000255d 	.word	0x0000255d
    223c:	00002561 	.word	0x00002561
    2240:	00002565 	.word	0x00002565
    2244:	00002559 	.word	0x00002559
    2248:	00002551 	.word	0x00002551

0000224c <convertBytesTransferredToBytesNotTransferred>:
    224c:	b510      	push	{r4, lr}
    224e:	4604      	mov	r4, r0
    2250:	f7fe fdcc 	bl	dec <__mriCore_GetSemihostReturnCode>
    2254:	2800      	cmp	r0, #0
    2256:	bfa8      	it	ge
    2258:	ebc0 0004 	rsbge	r0, r0, r4
    225c:	e8bd 4010 	ldmia.w	sp!, {r4, lr}
    2260:	f7ff bbc2 	b.w	19e8 <__mriPlatform_SetSemihostCallReturnValue>

00002264 <__mriSemihost_HandleMbedSemihostRequest>:
    2264:	b530      	push	{r4, r5, lr}
    2266:	6803      	ldr	r3, [r0, #0]
    2268:	b099      	sub	sp, #100	; 0x64
    226a:	2b09      	cmp	r3, #9
    226c:	f000 8087 	beq.w	237e <__mriSemihost_HandleMbedSemihostRequest+0x11a>
    2270:	d80c      	bhi.n	228c <__mriSemihost_HandleMbedSemihostRequest+0x28>
    2272:	2b02      	cmp	r3, #2
    2274:	d036      	beq.n	22e4 <__mriSemihost_HandleMbedSemihostRequest+0x80>
    2276:	d803      	bhi.n	2280 <__mriSemihost_HandleMbedSemihostRequest+0x1c>
    2278:	2b01      	cmp	r3, #1
    227a:	f040 8087 	bne.w	238c <__mriSemihost_HandleMbedSemihostRequest+0x128>
    227e:	e012      	b.n	22a6 <__mriSemihost_HandleMbedSemihostRequest+0x42>
    2280:	2b05      	cmp	r3, #5
    2282:	d034      	beq.n	22ee <__mriSemihost_HandleMbedSemihostRequest+0x8a>
    2284:	2b06      	cmp	r3, #6
    2286:	f040 8081 	bne.w	238c <__mriSemihost_HandleMbedSemihostRequest+0x128>
    228a:	e035      	b.n	22f8 <__mriSemihost_HandleMbedSemihostRequest+0x94>
    228c:	2b0c      	cmp	r3, #12
    228e:	d049      	beq.n	2324 <__mriSemihost_HandleMbedSemihostRequest+0xc0>
    2290:	d802      	bhi.n	2298 <__mriSemihost_HandleMbedSemihostRequest+0x34>
    2292:	2b0a      	cmp	r3, #10
    2294:	d17a      	bne.n	238c <__mriSemihost_HandleMbedSemihostRequest+0x128>
    2296:	e03a      	b.n	230e <__mriSemihost_HandleMbedSemihostRequest+0xaa>
    2298:	2b0e      	cmp	r3, #14
    229a:	d05e      	beq.n	235a <__mriSemihost_HandleMbedSemihostRequest+0xf6>
    229c:	f240 1201 	movw	r2, #257	; 0x101
    22a0:	4293      	cmp	r3, r2
    22a2:	d173      	bne.n	238c <__mriSemihost_HandleMbedSemihostRequest+0x128>
    22a4:	e05e      	b.n	2364 <__mriSemihost_HandleMbedSemihostRequest+0x100>
    22a6:	6840      	ldr	r0, [r0, #4]
    22a8:	6802      	ldr	r2, [r0, #0]
    22aa:	6841      	ldr	r1, [r0, #4]
    22ac:	9211      	str	r2, [sp, #68]	; 0x44
    22ae:	074a      	lsls	r2, r1, #29
    22b0:	d405      	bmi.n	22be <__mriSemihost_HandleMbedSemihostRequest+0x5a>
    22b2:	f011 0208 	ands.w	r2, r1, #8
    22b6:	d005      	beq.n	22c4 <__mriSemihost_HandleMbedSemihostRequest+0x60>
    22b8:	f44f 7202 	mov.w	r2, #520	; 0x208
    22bc:	e003      	b.n	22c6 <__mriSemihost_HandleMbedSemihostRequest+0x62>
    22be:	f44f 62c0 	mov.w	r2, #1536	; 0x600
    22c2:	e000      	b.n	22c6 <__mriSemihost_HandleMbedSemihostRequest+0x62>
    22c4:	4613      	mov	r3, r2
    22c6:	f011 0f02 	tst.w	r1, #2
    22ca:	bf18      	it	ne
    22cc:	2302      	movne	r3, #2
    22ce:	4313      	orrs	r3, r2
    22d0:	9313      	str	r3, [sp, #76]	; 0x4c
    22d2:	f44f 73db 	mov.w	r3, #438	; 0x1b6
    22d6:	9314      	str	r3, [sp, #80]	; 0x50
    22d8:	6883      	ldr	r3, [r0, #8]
    22da:	a811      	add	r0, sp, #68	; 0x44
    22dc:	9312      	str	r3, [sp, #72]	; 0x48
    22de:	f000 fc55 	bl	2b8c <__mriIssueGdbFileOpenRequest>
    22e2:	e03d      	b.n	2360 <__mriSemihost_HandleMbedSemihostRequest+0xfc>
    22e4:	6843      	ldr	r3, [r0, #4]
    22e6:	6818      	ldr	r0, [r3, #0]
    22e8:	f000 fcc6 	bl	2c78 <__mriIssueGdbFileCloseRequest>
    22ec:	e038      	b.n	2360 <__mriSemihost_HandleMbedSemihostRequest+0xfc>
    22ee:	6845      	ldr	r5, [r0, #4]
    22f0:	4628      	mov	r0, r5
    22f2:	f000 fc79 	bl	2be8 <__mriIssueGdbFileWriteRequest>
    22f6:	e003      	b.n	2300 <__mriSemihost_HandleMbedSemihostRequest+0x9c>
    22f8:	6845      	ldr	r5, [r0, #4]
    22fa:	4628      	mov	r0, r5
    22fc:	f000 fc98 	bl	2c30 <__mriIssueGdbFileReadRequest>
    2300:	4604      	mov	r4, r0
    2302:	2800      	cmp	r0, #0
    2304:	d043      	beq.n	238e <__mriSemihost_HandleMbedSemihostRequest+0x12a>
    2306:	68a8      	ldr	r0, [r5, #8]
    2308:	f7ff ffa0 	bl	224c <convertBytesTransferredToBytesNotTransferred>
    230c:	e03f      	b.n	238e <__mriSemihost_HandleMbedSemihostRequest+0x12a>
    230e:	6843      	ldr	r3, [r0, #4]
    2310:	a815      	add	r0, sp, #84	; 0x54
    2312:	681a      	ldr	r2, [r3, #0]
    2314:	685b      	ldr	r3, [r3, #4]
    2316:	9215      	str	r2, [sp, #84]	; 0x54
    2318:	9316      	str	r3, [sp, #88]	; 0x58
    231a:	2300      	movs	r3, #0
    231c:	9317      	str	r3, [sp, #92]	; 0x5c
    231e:	f000 fcbf 	bl	2ca0 <__mriIssueGdbFileSeekRequest>
    2322:	e01d      	b.n	2360 <__mriSemihost_HandleMbedSemihostRequest+0xfc>
    2324:	6843      	ldr	r3, [r0, #4]
    2326:	a901      	add	r1, sp, #4
    2328:	6818      	ldr	r0, [r3, #0]
    232a:	f000 fcdd 	bl	2ce8 <__mriIssueGdbFileFStatRequest>
    232e:	4604      	mov	r4, r0
    2330:	b368      	cbz	r0, 238e <__mriSemihost_HandleMbedSemihostRequest+0x12a>
    2332:	f7fe fd5b 	bl	dec <__mriCore_GetSemihostReturnCode>
    2336:	bb50      	cbnz	r0, 238e <__mriSemihost_HandleMbedSemihostRequest+0x12a>
    2338:	f89d 0025 	ldrb.w	r0, [sp, #37]	; 0x25
    233c:	f89d 3026 	ldrb.w	r3, [sp, #38]	; 0x26
    2340:	0400      	lsls	r0, r0, #16
    2342:	ea40 2003 	orr.w	r0, r0, r3, lsl #8
    2346:	f89d 3027 	ldrb.w	r3, [sp, #39]	; 0x27
    234a:	4318      	orrs	r0, r3
    234c:	f89d 3024 	ldrb.w	r3, [sp, #36]	; 0x24
    2350:	ea40 6003 	orr.w	r0, r0, r3, lsl #24
    2354:	f7ff fb48 	bl	19e8 <__mriPlatform_SetSemihostCallReturnValue>
    2358:	e019      	b.n	238e <__mriSemihost_HandleMbedSemihostRequest+0x12a>
    235a:	6840      	ldr	r0, [r0, #4]
    235c:	f000 fce2 	bl	2d24 <__mriIssueGdbFileUnlinkRequest>
    2360:	4604      	mov	r4, r0
    2362:	e014      	b.n	238e <__mriSemihost_HandleMbedSemihostRequest+0x12a>
    2364:	6843      	ldr	r3, [r0, #4]
    2366:	e893 0030 	ldmia.w	r3, {r4, r5}
    236a:	f7ff fecd 	bl	2108 <__mriMbed1768_GetMbedUid>
    236e:	2d24      	cmp	r5, #36	; 0x24
    2370:	bf34      	ite	cc
    2372:	462a      	movcc	r2, r5
    2374:	2224      	movcs	r2, #36	; 0x24
    2376:	4601      	mov	r1, r0
    2378:	4620      	mov	r0, r4
    237a:	f004 fa8b 	bl	6894 <memcpy>
    237e:	f7ff fadb 	bl	1938 <__mriPlatform_AdvanceProgramCounterToNextInstruction>
    2382:	2000      	movs	r0, #0
    2384:	f7ff fb30 	bl	19e8 <__mriPlatform_SetSemihostCallReturnValue>
    2388:	2401      	movs	r4, #1
    238a:	e000      	b.n	238e <__mriSemihost_HandleMbedSemihostRequest+0x12a>
    238c:	2400      	movs	r4, #0
    238e:	4620      	mov	r0, r4
    2390:	b019      	add	sp, #100	; 0x64
    2392:	bd30      	pop	{r4, r5, pc}

00002394 <__mriGetIPSR>:
    2394:	f3ef 8005 	mrs	r0, IPSR
    2398:	4770      	bx	lr

0000239a <__mriSetBASEPRI>:
    239a:	f380 8811 	msr	BASEPRI, r0
    239e:	4770      	bx	lr

000023a0 <__mriGetBASEPRI>:
    23a0:	f3ef 8011 	mrs	r0, BASEPRI
    23a4:	4770      	bx	lr

000023a6 <__mriDSB>:
    23a6:	f3bf 8f4f 	dsb	sy
    23aa:	4770      	bx	lr

000023ac <__mriISB>:
    23ac:	f3bf 8f6f 	isb	sy
    23b0:	4770      	bx	lr

000023b2 <mriExceptionHandler>:
    23b2:	484e      	ldr	r0, [pc, #312]	; (24ec <UART3_IRQHandler+0x2>)
    23b4:	e001      	b.n	23ba <mriGetSPAndCallHandler>

000023b6 <mriFaultHandler>:
    23b6:	484e      	ldr	r0, [pc, #312]	; (24f0 <UART3_IRQHandler+0x6>)
    23b8:	e7ff      	b.n	23ba <mriGetSPAndCallHandler>

000023ba <mriGetSPAndCallHandler>:
    23ba:	f01e 0f04 	tst.w	lr, #4
    23be:	bf0c      	ite	eq
    23c0:	f3ef 8108 	mrseq	r1, MSP
    23c4:	f3ef 8109 	mrsne	r1, PSP
    23c8:	4a4a      	ldr	r2, [pc, #296]	; (24f4 <UART3_IRQHandler+0xa>)
    23ca:	6011      	str	r1, [r2, #0]
    23cc:	4687      	mov	pc, r0

000023ce <checkForStackError>:
    23ce:	484a      	ldr	r0, [pc, #296]	; (24f8 <UART3_IRQHandler+0xe>)
    23d0:	4a4a      	ldr	r2, [pc, #296]	; (24fc <UART3_IRQHandler+0x12>)
    23d2:	6800      	ldr	r0, [r0, #0]
    23d4:	4210      	tst	r0, r2
    23d6:	d001      	beq.n	23dc <mriSaveRestoreContext>
    23d8:	4949      	ldr	r1, [pc, #292]	; (2500 <UART3_IRQHandler+0x16>)
    23da:	e7ff      	b.n	23dc <mriSaveRestoreContext>

000023dc <mriSaveRestoreContext>:
    23dc:	4849      	ldr	r0, [pc, #292]	; (2504 <UART3_IRQHandler+0x1a>)
    23de:	6802      	ldr	r2, [r0, #0]
    23e0:	f012 0f01 	tst.w	r2, #1
    23e4:	bf1e      	ittt	ne
    23e6:	f042 0202 	orrne.w	r2, r2, #2
    23ea:	6002      	strne	r2, [r0, #0]
    23ec:	e056      	bne.n	249c <mriAdvancePCAndReturn>
    23ee:	f042 0201 	orr.w	r2, r2, #1
    23f2:	6002      	str	r2, [r0, #0]
    23f4:	2040      	movs	r0, #64	; 0x40
    23f6:	f8df c10c 	ldr.w	r12, [pc, #268]	; 2504 <UART3_IRQHandler+0x1a>
    23fa:	4a43      	ldr	r2, [pc, #268]	; (2508 <UART3_IRQHandler+0x1e>)
    23fc:	4613      	mov	r3, r2
    23fe:	e96c 2302 	strd	r2, r3, [r12, #-8]!
    2402:	3801      	subs	r0, #1
    2404:	d1fb      	bne.n	23fe <mriSaveRestoreContext+0x22>
    2406:	f3ef 8208 	mrs	r2, MSP
    240a:	4840      	ldr	r0, [pc, #256]	; (250c <UART3_IRQHandler+0x22>)
    240c:	6002      	str	r2, [r0, #0]
    240e:	483d      	ldr	r0, [pc, #244]	; (2504 <UART3_IRQHandler+0x1a>)
    2410:	f380 8808 	msr	MSP, r0
    2414:	483e      	ldr	r0, [pc, #248]	; (2510 <UART3_IRQHandler+0x26>)
    2416:	e92d 5000 	stmdb	sp!, {r12, lr}
    241a:	e8b1 500c 	ldmia.w	r1!, {r2, r3, r12, lr}
    241e:	e8a0 500c 	stmia.w	r0!, {r2, r3, r12, lr}
    2422:	e8a0 0ff0 	stmia.w	r0!, {r4, r5, r6, r7, r8, r9, r10, r11}
    2426:	c93c      	ldmia	r1!, {r2, r3, r4, r5}
    2428:	f840 2b08 	str.w	r2, [r0], #8
    242c:	c038      	stmia	r0!, {r3, r4, r5}
    242e:	f415 7f00 	tst.w	r5, #512	; 0x200
    2432:	bf18      	it	ne
    2434:	3104      	addne	r1, #4
    2436:	f840 1c10 	str.w	r1, [r0, #-16]
    243a:	f7fe fd37 	bl	eac <__mriDebugException>
    243e:	4835      	ldr	r0, [pc, #212]	; (2514 <UART3_IRQHandler+0x2a>)
    2440:	f850 1c0c 	ldr.w	r1, [r0, #-12]
    2444:	6802      	ldr	r2, [r0, #0]
    2446:	f412 7f00 	tst.w	r2, #512	; 0x200
    244a:	bf18      	it	ne
    244c:	3904      	subne	r1, #4
    244e:	f841 2d04 	str.w	r2, [r1, #-4]!
    2452:	e930 000c 	ldmdb	r0!, {r2, r3}
    2456:	e921 000c 	stmdb	r1!, {r2, r3}
    245a:	f850 cd08 	ldr.w	r12, [r0, #-8]!
    245e:	f841 cd04 	str.w	r12, [r1, #-4]!
    2462:	e930 0ff0 	ldmdb	r0!, {r4, r5, r6, r7, r8, r9, r10, r11}
    2466:	e930 500c 	ldmdb	r0!, {r2, r3, r12, lr}
    246a:	e921 500c 	stmdb	r1!, {r2, r3, r12, lr}
    246e:	e8bd 5000 	ldmia.w	sp!, {r12, lr}
    2472:	4826      	ldr	r0, [pc, #152]	; (250c <UART3_IRQHandler+0x22>)
    2474:	6802      	ldr	r2, [r0, #0]
    2476:	f382 8808 	msr	MSP, r2
    247a:	f01e 0f04 	tst.w	lr, #4
    247e:	bf0c      	ite	eq
    2480:	f381 8808 	msreq	MSP, r1
    2484:	f381 8809 	msrne	PSP, r1
    2488:	481e      	ldr	r0, [pc, #120]	; (2504 <UART3_IRQHandler+0x1a>)
    248a:	6801      	ldr	r1, [r0, #0]
    248c:	f021 0101 	bic.w	r1, r1, #1
    2490:	6001      	str	r1, [r0, #0]
    2492:	f3bf 8f4f 	dsb	sy
    2496:	f3bf 8f6f 	isb	sy
    249a:	e018      	b.n	24ce <mriClearFaultStatusBitsAndReturn>

0000249c <mriAdvancePCAndReturn>:
    249c:	4816      	ldr	r0, [pc, #88]	; (24f8 <UART3_IRQHandler+0xe>)
    249e:	6800      	ldr	r0, [r0, #0]
    24a0:	f410 6f80 	tst.w	r0, #1024	; 0x400
    24a4:	d113      	bne.n	24ce <mriClearFaultStatusBitsAndReturn>
    24a6:	6988      	ldr	r0, [r1, #24]
    24a8:	8802      	ldrh	r2, [r0, #0]
    24aa:	f402 4278 	and.w	r2, r2, #63488	; 0xf800
    24ae:	f5b2 4f68 	cmp.w	r2, #59392	; 0xe800
    24b2:	d008      	beq.n	24c6 <mriAdvancePCAndReturn+0x2a>
    24b4:	f5b2 4f70 	cmp.w	r2, #61440	; 0xf000
    24b8:	d005      	beq.n	24c6 <mriAdvancePCAndReturn+0x2a>
    24ba:	f5b2 4f78 	cmp.w	r2, #63488	; 0xf800
    24be:	d002      	beq.n	24c6 <mriAdvancePCAndReturn+0x2a>
    24c0:	f100 0002 	add.w	r0, r0, #2
    24c4:	e001      	b.n	24ca <mriAdvancePCAndReturn+0x2e>
    24c6:	f100 0004 	add.w	r0, r0, #4
    24ca:	6188      	str	r0, [r1, #24]
    24cc:	e7ff      	b.n	24ce <mriClearFaultStatusBitsAndReturn>

000024ce <mriClearFaultStatusBitsAndReturn>:
    24ce:	480a      	ldr	r0, [pc, #40]	; (24f8 <UART3_IRQHandler+0xe>)
    24d0:	6801      	ldr	r1, [r0, #0]
    24d2:	6001      	str	r1, [r0, #0]
    24d4:	6841      	ldr	r1, [r0, #4]
    24d6:	6041      	str	r1, [r0, #4]
    24d8:	4770      	bx	lr

000024da <HardFault_Handler>:
    24da:	e76c      	b.n	23b6 <mriFaultHandler>

000024dc <MemManage_Handler>:
    24dc:	e76b      	b.n	23b6 <mriFaultHandler>

000024de <BusFault_Handler>:
    24de:	e76a      	b.n	23b6 <mriFaultHandler>

000024e0 <UsageFault_Handler>:
    24e0:	e767      	b.n	23b2 <mriExceptionHandler>

000024e2 <DebugMon_Handler>:
    24e2:	e766      	b.n	23b2 <mriExceptionHandler>

000024e4 <UART0_IRQHandler>:
    24e4:	e765      	b.n	23b2 <mriExceptionHandler>

000024e6 <UART1_IRQHandler>:
    24e6:	e764      	b.n	23b2 <mriExceptionHandler>

000024e8 <UART2_IRQHandler>:
    24e8:	e763      	b.n	23b2 <mriExceptionHandler>

000024ea <UART3_IRQHandler>:
    24ea:	e762      	b.n	23b2 <mriExceptionHandler>
    24ec:	000023dd 	.word	0x000023dd
    24f0:	000023cf 	.word	0x000023cf
    24f4:	10000930 	.word	0x10000930
    24f8:	e000ed28 	.word	0xe000ed28
    24fc:	00001818 	.word	0x00001818
    2500:	0000b7f8 	.word	0x0000b7f8
    2504:	10000928 	.word	0x10000928
    2508:	deadbeef 	.word	0xdeadbeef
    250c:	1000092c 	.word	0x1000092c
    2510:	10000934 	.word	0x10000934
    2514:	10000974 	.word	0x10000974

00002518 <__mriDisableMbed>:
    2518:	b082      	sub	sp, #8
    251a:	a901      	add	r1, sp, #4
    251c:	f240 1005 	movw	r0, #261	; 0x105
    2520:	beab      	bkpt	0x00ab
    2522:	2800      	cmp	r0, #0
    2524:	bf0c      	ite	eq
    2526:	9801      	ldreq	r0, [sp, #4]
    2528:	f04f 30ff 	movne.w	r0, #4294967295	; 0xffffffff
    252c:	b002      	add	sp, #8
    252e:	4770      	bx	lr

00002530 <__mriGetMbedUid>:
    2530:	b082      	sub	sp, #8
    2532:	9000      	str	r0, [sp, #0]
    2534:	2021      	movs	r0, #33	; 0x21
    2536:	9001      	str	r0, [sp, #4]
    2538:	4669      	mov	r1, sp
    253a:	f240 1001 	movw	r0, #257	; 0x101
    253e:	beab      	bkpt	0x00ab
    2540:	b002      	add	sp, #8
    2542:	4770      	bx	lr

00002544 <__mriNewlib_SemihostWrite>:
    2544:	beff      	bkpt	0x00ff
    2546:	4770      	bx	lr

00002548 <__mriNewlib_SemihostRead>:
    2548:	beff      	bkpt	0x00ff
    254a:	4770      	bx	lr

0000254c <__mriNewLib_SemihostOpen>:
    254c:	beff      	bkpt	0x00ff
    254e:	4770      	bx	lr

00002550 <__mriNewLib_SemihostRename>:
    2550:	beff      	bkpt	0x00ff
    2552:	4770      	bx	lr

00002554 <__mriNewLib_SemihostUnlink>:
    2554:	beff      	bkpt	0x00ff
    2556:	4770      	bx	lr

00002558 <__mriNewLib_SemihostStat>:
    2558:	beff      	bkpt	0x00ff
    255a:	4770      	bx	lr

0000255c <__mriNewlib_SemihostLSeek>:
    255c:	beff      	bkpt	0x00ff
    255e:	4770      	bx	lr

00002560 <__mriNewlib_SemihostClose>:
    2560:	beff      	bkpt	0x00ff
    2562:	4770      	bx	lr

00002564 <__mriNewlib_SemihostFStat>:
    2564:	beff      	bkpt	0x00ff
    2566:	4770      	bx	lr

00002568 <HexCharToNibble>:
    2568:	f1a0 0361 	sub.w	r3, r0, #97	; 0x61
    256c:	b2db      	uxtb	r3, r3
    256e:	2b05      	cmp	r3, #5
    2570:	d801      	bhi.n	2576 <HexCharToNibble+0xe>
    2572:	3857      	subs	r0, #87	; 0x57
    2574:	4770      	bx	lr
    2576:	f1a0 0341 	sub.w	r3, r0, #65	; 0x41
    257a:	b2db      	uxtb	r3, r3
    257c:	2b05      	cmp	r3, #5
    257e:	d801      	bhi.n	2584 <HexCharToNibble+0x1c>
    2580:	3837      	subs	r0, #55	; 0x37
    2582:	4770      	bx	lr
    2584:	3830      	subs	r0, #48	; 0x30
    2586:	b2c3      	uxtb	r3, r0
    2588:	2b09      	cmp	r3, #9
    258a:	d907      	bls.n	259c <HexCharToNibble+0x34>
    258c:	4b04      	ldr	r3, [pc, #16]	; (25a0 <HexCharToNibble+0x38>)
    258e:	f04f 30ff 	mov.w	r0, #4294967295	; 0xffffffff
    2592:	681a      	ldr	r2, [r3, #0]
    2594:	2a02      	cmp	r2, #2
    2596:	bfb8      	it	lt
    2598:	2202      	movlt	r2, #2
    259a:	601a      	str	r2, [r3, #0]
    259c:	4770      	bx	lr
    259e:	bf00      	nop
    25a0:	10000724 	.word	0x10000724

000025a4 <__mriBuffer_Init>:
    25a4:	188a      	adds	r2, r1, r2
    25a6:	6001      	str	r1, [r0, #0]
    25a8:	6042      	str	r2, [r0, #4]
    25aa:	6081      	str	r1, [r0, #8]
    25ac:	4770      	bx	lr

000025ae <__mriBuffer_Reset>:
    25ae:	6803      	ldr	r3, [r0, #0]
    25b0:	6083      	str	r3, [r0, #8]
    25b2:	4770      	bx	lr

000025b4 <__mriBuffer_SetEndOfBuffer>:
    25b4:	6883      	ldr	r3, [r0, #8]
    25b6:	6043      	str	r3, [r0, #4]
    25b8:	4770      	bx	lr

000025ba <__mriBuffer_BytesLeft>:
    25ba:	6883      	ldr	r3, [r0, #8]
    25bc:	6840      	ldr	r0, [r0, #4]
    25be:	4283      	cmp	r3, r0
    25c0:	bf94      	ite	ls
    25c2:	ebc3 0000 	rsbls	r0, r3, r0
    25c6:	2000      	movhi	r0, #0
    25c8:	4770      	bx	lr
	...

000025cc <throwExceptionAndFlagBufferOverrunIfBufferLeftIsSmallerThan>:
    25cc:	b538      	push	{r3, r4, r5, lr}
    25ce:	460d      	mov	r5, r1
    25d0:	4604      	mov	r4, r0
    25d2:	f7ff fff2 	bl	25ba <__mriBuffer_BytesLeft>
    25d6:	42a8      	cmp	r0, r5
    25d8:	d208      	bcs.n	25ec <throwExceptionAndFlagBufferOverrunIfBufferLeftIsSmallerThan+0x20>
    25da:	6863      	ldr	r3, [r4, #4]
    25dc:	3301      	adds	r3, #1
    25de:	60a3      	str	r3, [r4, #8]
    25e0:	4b03      	ldr	r3, [pc, #12]	; (25f0 <throwExceptionAndFlagBufferOverrunIfBufferLeftIsSmallerThan+0x24>)
    25e2:	681a      	ldr	r2, [r3, #0]
    25e4:	2a01      	cmp	r2, #1
    25e6:	bfb8      	it	lt
    25e8:	2201      	movlt	r2, #1
    25ea:	601a      	str	r2, [r3, #0]
    25ec:	bd38      	pop	{r3, r4, r5, pc}
    25ee:	bf00      	nop
    25f0:	10000724 	.word	0x10000724

000025f4 <__mriBuffer_OverrunDetected>:
    25f4:	6882      	ldr	r2, [r0, #8]
    25f6:	6843      	ldr	r3, [r0, #4]
    25f8:	429a      	cmp	r2, r3
    25fa:	bf94      	ite	ls
    25fc:	2000      	movls	r0, #0
    25fe:	2001      	movhi	r0, #1
    2600:	4770      	bx	lr
	...

00002604 <__mriBuffer_WriteChar>:
    2604:	b570      	push	{r4, r5, r6, lr}
    2606:	4d07      	ldr	r5, [pc, #28]	; (2624 <__mriBuffer_WriteChar+0x20>)
    2608:	2300      	movs	r3, #0
    260a:	460e      	mov	r6, r1
    260c:	2101      	movs	r1, #1
    260e:	602b      	str	r3, [r5, #0]
    2610:	4604      	mov	r4, r0
    2612:	f7ff ffdb 	bl	25cc <throwExceptionAndFlagBufferOverrunIfBufferLeftIsSmallerThan>
    2616:	682b      	ldr	r3, [r5, #0]
    2618:	b91b      	cbnz	r3, 2622 <__mriBuffer_WriteChar+0x1e>
    261a:	68a3      	ldr	r3, [r4, #8]
    261c:	f803 6b01 	strb.w	r6, [r3], #1
    2620:	60a3      	str	r3, [r4, #8]
    2622:	bd70      	pop	{r4, r5, r6, pc}
    2624:	10000724 	.word	0x10000724

00002628 <__mriBuffer_ReadChar>:
    2628:	b570      	push	{r4, r5, r6, lr}
    262a:	4e08      	ldr	r6, [pc, #32]	; (264c <__mriBuffer_ReadChar+0x24>)
    262c:	2500      	movs	r5, #0
    262e:	2101      	movs	r1, #1
    2630:	4604      	mov	r4, r0
    2632:	6035      	str	r5, [r6, #0]
    2634:	f7ff ffca 	bl	25cc <throwExceptionAndFlagBufferOverrunIfBufferLeftIsSmallerThan>
    2638:	6833      	ldr	r3, [r6, #0]
    263a:	b923      	cbnz	r3, 2646 <__mriBuffer_ReadChar+0x1e>
    263c:	68a3      	ldr	r3, [r4, #8]
    263e:	f813 0b01 	ldrb.w	r0, [r3], #1
    2642:	60a3      	str	r3, [r4, #8]
    2644:	bd70      	pop	{r4, r5, r6, pc}
    2646:	4628      	mov	r0, r5
    2648:	bd70      	pop	{r4, r5, r6, pc}
    264a:	bf00      	nop
    264c:	10000724 	.word	0x10000724

00002650 <__mriBuffer_WriteByteAsHex>:
    2650:	b570      	push	{r4, r5, r6, lr}
    2652:	4e0b      	ldr	r6, [pc, #44]	; (2680 <__mriBuffer_WriteByteAsHex+0x30>)
    2654:	2300      	movs	r3, #0
    2656:	460d      	mov	r5, r1
    2658:	2102      	movs	r1, #2
    265a:	6033      	str	r3, [r6, #0]
    265c:	4604      	mov	r4, r0
    265e:	f7ff ffb5 	bl	25cc <throwExceptionAndFlagBufferOverrunIfBufferLeftIsSmallerThan>
    2662:	6833      	ldr	r3, [r6, #0]
    2664:	b953      	cbnz	r3, 267c <__mriBuffer_WriteByteAsHex+0x2c>
    2666:	4a07      	ldr	r2, [pc, #28]	; (2684 <__mriBuffer_WriteByteAsHex+0x34>)
    2668:	0929      	lsrs	r1, r5, #4
    266a:	f005 050f 	and.w	r5, r5, #15
    266e:	68a3      	ldr	r3, [r4, #8]
    2670:	5c51      	ldrb	r1, [r2, r1]
    2672:	5d52      	ldrb	r2, [r2, r5]
    2674:	7019      	strb	r1, [r3, #0]
    2676:	705a      	strb	r2, [r3, #1]
    2678:	3302      	adds	r3, #2
    267a:	60a3      	str	r3, [r4, #8]
    267c:	bd70      	pop	{r4, r5, r6, pc}
    267e:	bf00      	nop
    2680:	10000724 	.word	0x10000724
    2684:	0000c0c3 	.word	0x0000c0c3

00002688 <__mriBuffer_ReadByteAsHex>:
    2688:	b570      	push	{r4, r5, r6, lr}
    268a:	4d10      	ldr	r5, [pc, #64]	; (26cc <__mriBuffer_ReadByteAsHex+0x44>)
    268c:	2600      	movs	r6, #0
    268e:	2102      	movs	r1, #2
    2690:	4604      	mov	r4, r0
    2692:	602e      	str	r6, [r5, #0]
    2694:	f7ff ff9a 	bl	25cc <throwExceptionAndFlagBufferOverrunIfBufferLeftIsSmallerThan>
    2698:	682b      	ldr	r3, [r5, #0]
    269a:	b9ab      	cbnz	r3, 26c8 <__mriBuffer_ReadByteAsHex+0x40>
    269c:	68a3      	ldr	r3, [r4, #8]
    269e:	7818      	ldrb	r0, [r3, #0]
    26a0:	f7ff ff62 	bl	2568 <HexCharToNibble>
    26a4:	682b      	ldr	r3, [r5, #0]
    26a6:	0106      	lsls	r6, r0, #4
    26a8:	b2f6      	uxtb	r6, r6
    26aa:	b92b      	cbnz	r3, 26b8 <__mriBuffer_ReadByteAsHex+0x30>
    26ac:	68a3      	ldr	r3, [r4, #8]
    26ae:	7858      	ldrb	r0, [r3, #1]
    26b0:	f7ff ff5a 	bl	2568 <HexCharToNibble>
    26b4:	4306      	orrs	r6, r0
    26b6:	b2f6      	uxtb	r6, r6
    26b8:	4b04      	ldr	r3, [pc, #16]	; (26cc <__mriBuffer_ReadByteAsHex+0x44>)
    26ba:	681b      	ldr	r3, [r3, #0]
    26bc:	b91b      	cbnz	r3, 26c6 <__mriBuffer_ReadByteAsHex+0x3e>
    26be:	68a3      	ldr	r3, [r4, #8]
    26c0:	3302      	adds	r3, #2
    26c2:	60a3      	str	r3, [r4, #8]
    26c4:	e000      	b.n	26c8 <__mriBuffer_ReadByteAsHex+0x40>
    26c6:	2600      	movs	r6, #0
    26c8:	4630      	mov	r0, r6
    26ca:	bd70      	pop	{r4, r5, r6, pc}
    26cc:	10000724 	.word	0x10000724

000026d0 <__mriBuffer_WriteSizedString>:
    26d0:	b5f8      	push	{r3, r4, r5, r6, r7, lr}
    26d2:	4f0a      	ldr	r7, [pc, #40]	; (26fc <__mriBuffer_WriteSizedString+0x2c>)
    26d4:	2300      	movs	r3, #0
    26d6:	603b      	str	r3, [r7, #0]
    26d8:	460d      	mov	r5, r1
    26da:	4611      	mov	r1, r2
    26dc:	4604      	mov	r4, r0
    26de:	4616      	mov	r6, r2
    26e0:	f7ff ff74 	bl	25cc <throwExceptionAndFlagBufferOverrunIfBufferLeftIsSmallerThan>
    26e4:	683b      	ldr	r3, [r7, #0]
    26e6:	b133      	cbz	r3, 26f6 <__mriBuffer_WriteSizedString+0x26>
    26e8:	e007      	b.n	26fa <__mriBuffer_WriteSizedString+0x2a>
    26ea:	5ce9      	ldrb	r1, [r5, r3]
    26ec:	68a2      	ldr	r2, [r4, #8]
    26ee:	3301      	adds	r3, #1
    26f0:	f802 1b01 	strb.w	r1, [r2], #1
    26f4:	60a2      	str	r2, [r4, #8]
    26f6:	42b3      	cmp	r3, r6
    26f8:	d1f7      	bne.n	26ea <__mriBuffer_WriteSizedString+0x1a>
    26fa:	bdf8      	pop	{r3, r4, r5, r6, r7, pc}
    26fc:	10000724 	.word	0x10000724

00002700 <__mriBuffer_WriteString>:
    2700:	b538      	push	{r3, r4, r5, lr}
    2702:	4604      	mov	r4, r0
    2704:	4608      	mov	r0, r1
    2706:	460d      	mov	r5, r1
    2708:	f004 fbb5 	bl	6e76 <strlen>
    270c:	4629      	mov	r1, r5
    270e:	4602      	mov	r2, r0
    2710:	4620      	mov	r0, r4
    2712:	e8bd 4038 	ldmia.w	sp!, {r3, r4, r5, lr}
    2716:	f7ff bfdb 	b.w	26d0 <__mriBuffer_WriteSizedString>
	...

0000271c <__mriBuffer_ReadUIntegerAsHex>:
    271c:	e92d 41f0 	stmdb	sp!, {r4, r5, r6, r7, r8, lr}
    2720:	2500      	movs	r5, #0
    2722:	4f16      	ldr	r7, [pc, #88]	; (277c <__mriBuffer_ReadUIntegerAsHex+0x60>)
    2724:	4604      	mov	r4, r0
    2726:	462e      	mov	r6, r5
    2728:	46a8      	mov	r8, r5
    272a:	f8c7 8000 	str.w	r8, [r7]
    272e:	4620      	mov	r0, r4
    2730:	f7ff ff7a 	bl	2628 <__mriBuffer_ReadChar>
    2734:	683b      	ldr	r3, [r7, #0]
    2736:	b963      	cbnz	r3, 2752 <__mriBuffer_ReadUIntegerAsHex+0x36>
    2738:	f7ff ff16 	bl	2568 <HexCharToNibble>
    273c:	683b      	ldr	r3, [r7, #0]
    273e:	b133      	cbz	r3, 274e <__mriBuffer_ReadUIntegerAsHex+0x32>
    2740:	68a3      	ldr	r3, [r4, #8]
    2742:	6822      	ldr	r2, [r4, #0]
    2744:	4293      	cmp	r3, r2
    2746:	d904      	bls.n	2752 <__mriBuffer_ReadUIntegerAsHex+0x36>
    2748:	3b01      	subs	r3, #1
    274a:	60a3      	str	r3, [r4, #8]
    274c:	e001      	b.n	2752 <__mriBuffer_ReadUIntegerAsHex+0x36>
    274e:	eb00 1505 	add.w	r5, r0, r5, lsl #4
    2752:	683b      	ldr	r3, [r7, #0]
    2754:	b90b      	cbnz	r3, 275a <__mriBuffer_ReadUIntegerAsHex+0x3e>
    2756:	3601      	adds	r6, #1
    2758:	e7e7      	b.n	272a <__mriBuffer_ReadUIntegerAsHex+0xe>
    275a:	4b08      	ldr	r3, [pc, #32]	; (277c <__mriBuffer_ReadUIntegerAsHex+0x60>)
    275c:	2200      	movs	r2, #0
    275e:	601a      	str	r2, [r3, #0]
    2760:	6863      	ldr	r3, [r4, #4]
    2762:	68a2      	ldr	r2, [r4, #8]
    2764:	429a      	cmp	r2, r3
    2766:	bf88      	it	hi
    2768:	60a3      	strhi	r3, [r4, #8]
    276a:	b91e      	cbnz	r6, 2774 <__mriBuffer_ReadUIntegerAsHex+0x58>
    276c:	4b03      	ldr	r3, [pc, #12]	; (277c <__mriBuffer_ReadUIntegerAsHex+0x60>)
    276e:	2203      	movs	r2, #3
    2770:	601a      	str	r2, [r3, #0]
    2772:	4635      	mov	r5, r6
    2774:	4628      	mov	r0, r5
    2776:	e8bd 81f0 	ldmia.w	sp!, {r4, r5, r6, r7, r8, pc}
    277a:	bf00      	nop
    277c:	10000724 	.word	0x10000724

00002780 <__mriBuffer_WriteUIntegerAsHex>:
    2780:	e92d 43f8 	stmdb	sp!, {r3, r4, r5, r6, r7, r8, r9, lr}
    2784:	4680      	mov	r8, r0
    2786:	460d      	mov	r5, r1
    2788:	b941      	cbnz	r1, 279c <__mriBuffer_WriteUIntegerAsHex+0x1c>
    278a:	e8bd 43f8 	ldmia.w	sp!, {r3, r4, r5, r6, r7, r8, r9, lr}
    278e:	f7ff bf5f 	b.w	2650 <__mriBuffer_WriteByteAsHex>
    2792:	3401      	adds	r4, #1
    2794:	0a1b      	lsrs	r3, r3, #8
    2796:	2c04      	cmp	r4, #4
    2798:	d103      	bne.n	27a2 <__mriBuffer_WriteUIntegerAsHex+0x22>
    279a:	e004      	b.n	27a6 <__mriBuffer_WriteUIntegerAsHex+0x26>
    279c:	f04f 437f 	mov.w	r3, #4278190080	; 0xff000000
    27a0:	2400      	movs	r4, #0
    27a2:	422b      	tst	r3, r5
    27a4:	d0f5      	beq.n	2792 <__mriBuffer_WriteUIntegerAsHex+0x12>
    27a6:	f1c4 0403 	rsb	r4, r4, #3
    27aa:	00e6      	lsls	r6, r4, #3
    27ac:	4f09      	ldr	r7, [pc, #36]	; (27d4 <__mriBuffer_WriteUIntegerAsHex+0x54>)
    27ae:	f04f 0900 	mov.w	r9, #0
    27b2:	e00b      	b.n	27cc <__mriBuffer_WriteUIntegerAsHex+0x4c>
    27b4:	fa25 f106 	lsr.w	r1, r5, r6
    27b8:	f8c7 9000 	str.w	r9, [r7]
    27bc:	b2c9      	uxtb	r1, r1
    27be:	4640      	mov	r0, r8
    27c0:	f7ff ff46 	bl	2650 <__mriBuffer_WriteByteAsHex>
    27c4:	683b      	ldr	r3, [r7, #0]
    27c6:	3c01      	subs	r4, #1
    27c8:	3e08      	subs	r6, #8
    27ca:	b90b      	cbnz	r3, 27d0 <__mriBuffer_WriteUIntegerAsHex+0x50>
    27cc:	1c63      	adds	r3, r4, #1
    27ce:	d1f1      	bne.n	27b4 <__mriBuffer_WriteUIntegerAsHex+0x34>
    27d0:	e8bd 83f8 	ldmia.w	sp!, {r3, r4, r5, r6, r7, r8, r9, pc}
    27d4:	10000724 	.word	0x10000724

000027d8 <__mriBuffer_WriteIntegerAsHex>:
    27d8:	b570      	push	{r4, r5, r6, lr}
    27da:	2300      	movs	r3, #0
    27dc:	4e09      	ldr	r6, [pc, #36]	; (2804 <__mriBuffer_WriteIntegerAsHex+0x2c>)
    27de:	4299      	cmp	r1, r3
    27e0:	4605      	mov	r5, r0
    27e2:	460c      	mov	r4, r1
    27e4:	6033      	str	r3, [r6, #0]
    27e6:	da03      	bge.n	27f0 <__mriBuffer_WriteIntegerAsHex+0x18>
    27e8:	424c      	negs	r4, r1
    27ea:	212d      	movs	r1, #45	; 0x2d
    27ec:	f7ff ff0a 	bl	2604 <__mriBuffer_WriteChar>
    27f0:	6833      	ldr	r3, [r6, #0]
    27f2:	b92b      	cbnz	r3, 2800 <__mriBuffer_WriteIntegerAsHex+0x28>
    27f4:	4628      	mov	r0, r5
    27f6:	4621      	mov	r1, r4
    27f8:	e8bd 4070 	ldmia.w	sp!, {r4, r5, r6, lr}
    27fc:	f7ff bfc0 	b.w	2780 <__mriBuffer_WriteUIntegerAsHex>
    2800:	bd70      	pop	{r4, r5, r6, pc}
    2802:	bf00      	nop
    2804:	10000724 	.word	0x10000724

00002808 <__mriBuffer_IsNextCharEqualTo>:
    2808:	b570      	push	{r4, r5, r6, lr}
    280a:	4d0b      	ldr	r5, [pc, #44]	; (2838 <__mriBuffer_IsNextCharEqualTo+0x30>)
    280c:	2300      	movs	r3, #0
    280e:	4604      	mov	r4, r0
    2810:	460e      	mov	r6, r1
    2812:	602b      	str	r3, [r5, #0]
    2814:	f7ff fed1 	bl	25ba <__mriBuffer_BytesLeft>
    2818:	b908      	cbnz	r0, 281e <__mriBuffer_IsNextCharEqualTo+0x16>
    281a:	2301      	movs	r3, #1
    281c:	602b      	str	r3, [r5, #0]
    281e:	6828      	ldr	r0, [r5, #0]
    2820:	b938      	cbnz	r0, 2832 <__mriBuffer_IsNextCharEqualTo+0x2a>
    2822:	68a3      	ldr	r3, [r4, #8]
    2824:	781a      	ldrb	r2, [r3, #0]
    2826:	42b2      	cmp	r2, r6
    2828:	d104      	bne.n	2834 <__mriBuffer_IsNextCharEqualTo+0x2c>
    282a:	3301      	adds	r3, #1
    282c:	60a3      	str	r3, [r4, #8]
    282e:	2001      	movs	r0, #1
    2830:	bd70      	pop	{r4, r5, r6, pc}
    2832:	2000      	movs	r0, #0
    2834:	bd70      	pop	{r4, r5, r6, pc}
    2836:	bf00      	nop
    2838:	10000724 	.word	0x10000724

0000283c <__mriBuffer_ReadIntegerAsHex>:
    283c:	b5f8      	push	{r3, r4, r5, r6, r7, lr}
    283e:	4c13      	ldr	r4, [pc, #76]	; (288c <__mriBuffer_ReadIntegerAsHex+0x50>)
    2840:	2500      	movs	r5, #0
    2842:	212d      	movs	r1, #45	; 0x2d
    2844:	4606      	mov	r6, r0
    2846:	6025      	str	r5, [r4, #0]
    2848:	f7ff ffde 	bl	2808 <__mriBuffer_IsNextCharEqualTo>
    284c:	6823      	ldr	r3, [r4, #0]
    284e:	4607      	mov	r7, r0
    2850:	b91b      	cbnz	r3, 285a <__mriBuffer_ReadIntegerAsHex+0x1e>
    2852:	4630      	mov	r0, r6
    2854:	f7ff ff62 	bl	271c <__mriBuffer_ReadUIntegerAsHex>
    2858:	e000      	b.n	285c <__mriBuffer_ReadIntegerAsHex+0x20>
    285a:	4628      	mov	r0, r5
    285c:	6822      	ldr	r2, [r4, #0]
    285e:	4b0b      	ldr	r3, [pc, #44]	; (288c <__mriBuffer_ReadIntegerAsHex+0x50>)
    2860:	b98a      	cbnz	r2, 2886 <__mriBuffer_ReadIntegerAsHex+0x4a>
    2862:	b937      	cbnz	r7, 2872 <__mriBuffer_ReadIntegerAsHex+0x36>
    2864:	2800      	cmp	r0, #0
    2866:	da0f      	bge.n	2888 <__mriBuffer_ReadIntegerAsHex+0x4c>
    2868:	2203      	movs	r2, #3
    286a:	601a      	str	r2, [r3, #0]
    286c:	f06f 4000 	mvn.w	r0, #2147483648	; 0x80000000
    2870:	bdf8      	pop	{r3, r4, r5, r6, r7, pc}
    2872:	f1b0 4f00 	cmp.w	r0, #2147483648	; 0x80000000
    2876:	d904      	bls.n	2882 <__mriBuffer_ReadIntegerAsHex+0x46>
    2878:	2203      	movs	r2, #3
    287a:	601a      	str	r2, [r3, #0]
    287c:	f04f 4000 	mov.w	r0, #2147483648	; 0x80000000
    2880:	bdf8      	pop	{r3, r4, r5, r6, r7, pc}
    2882:	4240      	negs	r0, r0
    2884:	bdf8      	pop	{r3, r4, r5, r6, r7, pc}
    2886:	2000      	movs	r0, #0
    2888:	bdf8      	pop	{r3, r4, r5, r6, r7, pc}
    288a:	bf00      	nop
    288c:	10000724 	.word	0x10000724

00002890 <__mriBuffer_MatchesString>:
    2890:	e92d 41f0 	stmdb	sp!, {r4, r5, r6, r7, r8, lr}
    2894:	4e15      	ldr	r6, [pc, #84]	; (28ec <__mriBuffer_MatchesString+0x5c>)
    2896:	2300      	movs	r3, #0
    2898:	6033      	str	r3, [r6, #0]
    289a:	4614      	mov	r4, r2
    289c:	4605      	mov	r5, r0
    289e:	4688      	mov	r8, r1
    28a0:	f7ff fe8b 	bl	25ba <__mriBuffer_BytesLeft>
    28a4:	42a0      	cmp	r0, r4
    28a6:	d201      	bcs.n	28ac <__mriBuffer_MatchesString+0x1c>
    28a8:	2301      	movs	r3, #1
    28aa:	6033      	str	r3, [r6, #0]
    28ac:	6837      	ldr	r7, [r6, #0]
    28ae:	b9a7      	cbnz	r7, 28da <__mriBuffer_MatchesString+0x4a>
    28b0:	68ae      	ldr	r6, [r5, #8]
    28b2:	4641      	mov	r1, r8
    28b4:	4630      	mov	r0, r6
    28b6:	4622      	mov	r2, r4
    28b8:	f004 fae5 	bl	6e86 <strncmp>
    28bc:	4680      	mov	r8, r0
    28be:	b978      	cbnz	r0, 28e0 <__mriBuffer_MatchesString+0x50>
    28c0:	4628      	mov	r0, r5
    28c2:	f7ff fe7a 	bl	25ba <__mriBuffer_BytesLeft>
    28c6:	42a0      	cmp	r0, r4
    28c8:	d002      	beq.n	28d0 <__mriBuffer_MatchesString+0x40>
    28ca:	5d33      	ldrb	r3, [r6, r4]
    28cc:	2b3a      	cmp	r3, #58	; 0x3a
    28ce:	d10a      	bne.n	28e6 <__mriBuffer_MatchesString+0x56>
    28d0:	1934      	adds	r4, r6, r4
    28d2:	60ac      	str	r4, [r5, #8]
    28d4:	2001      	movs	r0, #1
    28d6:	e8bd 81f0 	ldmia.w	sp!, {r4, r5, r6, r7, r8, pc}
    28da:	2000      	movs	r0, #0
    28dc:	e8bd 81f0 	ldmia.w	sp!, {r4, r5, r6, r7, r8, pc}
    28e0:	4638      	mov	r0, r7
    28e2:	e8bd 81f0 	ldmia.w	sp!, {r4, r5, r6, r7, r8, pc}
    28e6:	4640      	mov	r0, r8
    28e8:	e8bd 81f0 	ldmia.w	sp!, {r4, r5, r6, r7, r8, pc}
    28ec:	10000724 	.word	0x10000724

000028f0 <handleBreakpointWatchpointException>:
    28f0:	4b06      	ldr	r3, [pc, #24]	; (290c <handleBreakpointWatchpointException+0x1c>)
    28f2:	681b      	ldr	r3, [r3, #0]
    28f4:	2b04      	cmp	r3, #4
    28f6:	d002      	beq.n	28fe <handleBreakpointWatchpointException+0xe>
    28f8:	2b08      	cmp	r3, #8
    28fa:	d105      	bne.n	2908 <handleBreakpointWatchpointException+0x18>
    28fc:	e001      	b.n	2902 <handleBreakpointWatchpointException+0x12>
    28fe:	4804      	ldr	r0, [pc, #16]	; (2910 <handleBreakpointWatchpointException+0x20>)
    2900:	e000      	b.n	2904 <handleBreakpointWatchpointException+0x14>
    2902:	4804      	ldr	r0, [pc, #16]	; (2914 <handleBreakpointWatchpointException+0x24>)
    2904:	f7fe ba0e 	b.w	d24 <__mriCore_PrepareStringResponse>
    2908:	4770      	bx	lr
    290a:	bf00      	nop
    290c:	10000724 	.word	0x10000724
    2910:	0000c0d3 	.word	0x0000c0d3
    2914:	0000c0d7 	.word	0x0000c0d7

00002918 <parseBreakpointWatchpointCommandArguments>:
    2918:	b570      	push	{r4, r5, r6, lr}
    291a:	4606      	mov	r6, r0
    291c:	f7fe fa6c 	bl	df8 <__mriCore_GetBuffer>
    2920:	4d0f      	ldr	r5, [pc, #60]	; (2960 <parseBreakpointWatchpointCommandArguments+0x48>)
    2922:	2300      	movs	r3, #0
    2924:	602b      	str	r3, [r5, #0]
    2926:	4604      	mov	r4, r0
    2928:	f7ff fe7e 	bl	2628 <__mriBuffer_ReadChar>
    292c:	682b      	ldr	r3, [r5, #0]
    292e:	7230      	strb	r0, [r6, #8]
    2930:	b9ab      	cbnz	r3, 295e <parseBreakpointWatchpointCommandArguments+0x46>
    2932:	4620      	mov	r0, r4
    2934:	212c      	movs	r1, #44	; 0x2c
    2936:	f000 f8bf 	bl	2ab8 <__mriCmd_ThrowIfNextCharIsNotEqualTo>
    293a:	682b      	ldr	r3, [r5, #0]
    293c:	b97b      	cbnz	r3, 295e <parseBreakpointWatchpointCommandArguments+0x46>
    293e:	4620      	mov	r0, r4
    2940:	f000 f8ac 	bl	2a9c <__mriCmd_ReadUIntegerArgument>
    2944:	682b      	ldr	r3, [r5, #0]
    2946:	6030      	str	r0, [r6, #0]
    2948:	b94b      	cbnz	r3, 295e <parseBreakpointWatchpointCommandArguments+0x46>
    294a:	4620      	mov	r0, r4
    294c:	212c      	movs	r1, #44	; 0x2c
    294e:	f000 f8b3 	bl	2ab8 <__mriCmd_ThrowIfNextCharIsNotEqualTo>
    2952:	682b      	ldr	r3, [r5, #0]
    2954:	b91b      	cbnz	r3, 295e <parseBreakpointWatchpointCommandArguments+0x46>
    2956:	4620      	mov	r0, r4
    2958:	f000 f8a0 	bl	2a9c <__mriCmd_ReadUIntegerArgument>
    295c:	6070      	str	r0, [r6, #4]
    295e:	bd70      	pop	{r4, r5, r6, pc}
    2960:	10000724 	.word	0x10000724

00002964 <handleWatchpointRemoveCommand>:
    2964:	b510      	push	{r4, lr}
    2966:	4c09      	ldr	r4, [pc, #36]	; (298c <handleWatchpointRemoveCommand+0x28>)
    2968:	2300      	movs	r3, #0
    296a:	4602      	mov	r2, r0
    296c:	c903      	ldmia	r1, {r0, r1}
    296e:	6023      	str	r3, [r4, #0]
    2970:	f7ff f936 	bl	1be0 <__mriPlatform_ClearHardwareWatchpoint>
    2974:	6823      	ldr	r3, [r4, #0]
    2976:	b11b      	cbz	r3, 2980 <handleWatchpointRemoveCommand+0x1c>
    2978:	e8bd 4010 	ldmia.w	sp!, {r4, lr}
    297c:	f7ff bfb8 	b.w	28f0 <handleBreakpointWatchpointException>
    2980:	4803      	ldr	r0, [pc, #12]	; (2990 <handleWatchpointRemoveCommand+0x2c>)
    2982:	e8bd 4010 	ldmia.w	sp!, {r4, lr}
    2986:	f7fe b9cd 	b.w	d24 <__mriCore_PrepareStringResponse>
    298a:	bf00      	nop
    298c:	10000724 	.word	0x10000724
    2990:	0000c0db 	.word	0x0000c0db

00002994 <handleWatchpointSetCommand>:
    2994:	b510      	push	{r4, lr}
    2996:	4c09      	ldr	r4, [pc, #36]	; (29bc <handleWatchpointSetCommand+0x28>)
    2998:	2300      	movs	r3, #0
    299a:	4602      	mov	r2, r0
    299c:	c903      	ldmia	r1, {r0, r1}
    299e:	6023      	str	r3, [r4, #0]
    29a0:	f7ff f8d8 	bl	1b54 <__mriPlatform_SetHardwareWatchpoint>
    29a4:	6823      	ldr	r3, [r4, #0]
    29a6:	b11b      	cbz	r3, 29b0 <handleWatchpointSetCommand+0x1c>
    29a8:	e8bd 4010 	ldmia.w	sp!, {r4, lr}
    29ac:	f7ff bfa0 	b.w	28f0 <handleBreakpointWatchpointException>
    29b0:	4803      	ldr	r0, [pc, #12]	; (29c0 <handleWatchpointSetCommand+0x2c>)
    29b2:	e8bd 4010 	ldmia.w	sp!, {r4, lr}
    29b6:	f7fe b9b5 	b.w	d24 <__mriCore_PrepareStringResponse>
    29ba:	bf00      	nop
    29bc:	10000724 	.word	0x10000724
    29c0:	0000c0db 	.word	0x0000c0db

000029c4 <__mriCmd_HandleBreakpointWatchpointSetCommand>:
    29c4:	b51f      	push	{r0, r1, r2, r3, r4, lr}
    29c6:	4c16      	ldr	r4, [pc, #88]	; (2a20 <__mriCmd_HandleBreakpointWatchpointSetCommand+0x5c>)
    29c8:	2300      	movs	r3, #0
    29ca:	a801      	add	r0, sp, #4
    29cc:	6023      	str	r3, [r4, #0]
    29ce:	f7ff ffa3 	bl	2918 <parseBreakpointWatchpointCommandArguments>
    29d2:	6823      	ldr	r3, [r4, #0]
    29d4:	b10b      	cbz	r3, 29da <__mriCmd_HandleBreakpointWatchpointSetCommand+0x16>
    29d6:	4813      	ldr	r0, [pc, #76]	; (2a24 <__mriCmd_HandleBreakpointWatchpointSetCommand+0x60>)
    29d8:	e01d      	b.n	2a16 <__mriCmd_HandleBreakpointWatchpointSetCommand+0x52>
    29da:	f89d 300c 	ldrb.w	r3, [sp, #12]
    29de:	3b31      	subs	r3, #49	; 0x31
    29e0:	2b03      	cmp	r3, #3
    29e2:	d817      	bhi.n	2a14 <__mriCmd_HandleBreakpointWatchpointSetCommand+0x50>
    29e4:	e8df f003 	tbb	[pc, r3]
    29e8:	140f0d02 	.word	0x140f0d02
    29ec:	9801      	ldr	r0, [sp, #4]
    29ee:	9902      	ldr	r1, [sp, #8]
    29f0:	f7ff f85c 	bl	1aac <__mriPlatform_SetHardwareBreakpoint>
    29f4:	6823      	ldr	r3, [r4, #0]
    29f6:	b113      	cbz	r3, 29fe <__mriCmd_HandleBreakpointWatchpointSetCommand+0x3a>
    29f8:	f7ff ff7a 	bl	28f0 <handleBreakpointWatchpointException>
    29fc:	e00d      	b.n	2a1a <__mriCmd_HandleBreakpointWatchpointSetCommand+0x56>
    29fe:	480a      	ldr	r0, [pc, #40]	; (2a28 <__mriCmd_HandleBreakpointWatchpointSetCommand+0x64>)
    2a00:	e009      	b.n	2a16 <__mriCmd_HandleBreakpointWatchpointSetCommand+0x52>
    2a02:	2000      	movs	r0, #0
    2a04:	e000      	b.n	2a08 <__mriCmd_HandleBreakpointWatchpointSetCommand+0x44>
    2a06:	2001      	movs	r0, #1
    2a08:	a901      	add	r1, sp, #4
    2a0a:	f7ff ffc3 	bl	2994 <handleWatchpointSetCommand>
    2a0e:	e004      	b.n	2a1a <__mriCmd_HandleBreakpointWatchpointSetCommand+0x56>
    2a10:	2002      	movs	r0, #2
    2a12:	e7f9      	b.n	2a08 <__mriCmd_HandleBreakpointWatchpointSetCommand+0x44>
    2a14:	4805      	ldr	r0, [pc, #20]	; (2a2c <__mriCmd_HandleBreakpointWatchpointSetCommand+0x68>)
    2a16:	f7fe f985 	bl	d24 <__mriCore_PrepareStringResponse>
    2a1a:	2000      	movs	r0, #0
    2a1c:	b004      	add	sp, #16
    2a1e:	bd10      	pop	{r4, pc}
    2a20:	10000724 	.word	0x10000724
    2a24:	0000c0d3 	.word	0x0000c0d3
    2a28:	0000c0db 	.word	0x0000c0db
    2a2c:	0000b53a 	.word	0x0000b53a

00002a30 <__mriCmd_HandleBreakpointWatchpointRemoveCommand>:
    2a30:	b51f      	push	{r0, r1, r2, r3, r4, lr}
    2a32:	4c16      	ldr	r4, [pc, #88]	; (2a8c <__mriCmd_HandleBreakpointWatchpointRemoveCommand+0x5c>)
    2a34:	2300      	movs	r3, #0
    2a36:	a801      	add	r0, sp, #4
    2a38:	6023      	str	r3, [r4, #0]
    2a3a:	f7ff ff6d 	bl	2918 <parseBreakpointWatchpointCommandArguments>
    2a3e:	6823      	ldr	r3, [r4, #0]
    2a40:	b10b      	cbz	r3, 2a46 <__mriCmd_HandleBreakpointWatchpointRemoveCommand+0x16>
    2a42:	4813      	ldr	r0, [pc, #76]	; (2a90 <__mriCmd_HandleBreakpointWatchpointRemoveCommand+0x60>)
    2a44:	e01d      	b.n	2a82 <__mriCmd_HandleBreakpointWatchpointRemoveCommand+0x52>
    2a46:	f89d 300c 	ldrb.w	r3, [sp, #12]
    2a4a:	3b31      	subs	r3, #49	; 0x31
    2a4c:	2b03      	cmp	r3, #3
    2a4e:	d817      	bhi.n	2a80 <__mriCmd_HandleBreakpointWatchpointRemoveCommand+0x50>
    2a50:	e8df f003 	tbb	[pc, r3]
    2a54:	140f0d02 	.word	0x140f0d02
    2a58:	9801      	ldr	r0, [sp, #4]
    2a5a:	9902      	ldr	r1, [sp, #8]
    2a5c:	f7ff f85e 	bl	1b1c <__mriPlatform_ClearHardwareBreakpoint>
    2a60:	6823      	ldr	r3, [r4, #0]
    2a62:	b113      	cbz	r3, 2a6a <__mriCmd_HandleBreakpointWatchpointRemoveCommand+0x3a>
    2a64:	f7ff ff44 	bl	28f0 <handleBreakpointWatchpointException>
    2a68:	e00d      	b.n	2a86 <__mriCmd_HandleBreakpointWatchpointRemoveCommand+0x56>
    2a6a:	480a      	ldr	r0, [pc, #40]	; (2a94 <__mriCmd_HandleBreakpointWatchpointRemoveCommand+0x64>)
    2a6c:	e009      	b.n	2a82 <__mriCmd_HandleBreakpointWatchpointRemoveCommand+0x52>
    2a6e:	2000      	movs	r0, #0
    2a70:	e000      	b.n	2a74 <__mriCmd_HandleBreakpointWatchpointRemoveCommand+0x44>
    2a72:	2001      	movs	r0, #1
    2a74:	a901      	add	r1, sp, #4
    2a76:	f7ff ff75 	bl	2964 <handleWatchpointRemoveCommand>
    2a7a:	e004      	b.n	2a86 <__mriCmd_HandleBreakpointWatchpointRemoveCommand+0x56>
    2a7c:	2002      	movs	r0, #2
    2a7e:	e7f9      	b.n	2a74 <__mriCmd_HandleBreakpointWatchpointRemoveCommand+0x44>
    2a80:	4805      	ldr	r0, [pc, #20]	; (2a98 <__mriCmd_HandleBreakpointWatchpointRemoveCommand+0x68>)
    2a82:	f7fe f94f 	bl	d24 <__mriCore_PrepareStringResponse>
    2a86:	2000      	movs	r0, #0
    2a88:	b004      	add	sp, #16
    2a8a:	bd10      	pop	{r4, pc}
    2a8c:	10000724 	.word	0x10000724
    2a90:	0000c0d3 	.word	0x0000c0d3
    2a94:	0000c0db 	.word	0x0000c0db
    2a98:	0000b53a 	.word	0x0000b53a

00002a9c <__mriCmd_ReadUIntegerArgument>:
    2a9c:	b510      	push	{r4, lr}
    2a9e:	4c05      	ldr	r4, [pc, #20]	; (2ab4 <__mriCmd_ReadUIntegerArgument+0x18>)
    2aa0:	2300      	movs	r3, #0
    2aa2:	6023      	str	r3, [r4, #0]
    2aa4:	f7ff fe3a 	bl	271c <__mriBuffer_ReadUIntegerAsHex>
    2aa8:	6823      	ldr	r3, [r4, #0]
    2aaa:	2b00      	cmp	r3, #0
    2aac:	bf18      	it	ne
    2aae:	2000      	movne	r0, #0
    2ab0:	bd10      	pop	{r4, pc}
    2ab2:	bf00      	nop
    2ab4:	10000724 	.word	0x10000724

00002ab8 <__mriCmd_ThrowIfNextCharIsNotEqualTo>:
    2ab8:	b508      	push	{r3, lr}
    2aba:	f7ff fea5 	bl	2808 <__mriBuffer_IsNextCharEqualTo>
    2abe:	b928      	cbnz	r0, 2acc <__mriCmd_ThrowIfNextCharIsNotEqualTo+0x14>
    2ac0:	4b03      	ldr	r3, [pc, #12]	; (2ad0 <__mriCmd_ThrowIfNextCharIsNotEqualTo+0x18>)
    2ac2:	681a      	ldr	r2, [r3, #0]
    2ac4:	2a04      	cmp	r2, #4
    2ac6:	bfb8      	it	lt
    2ac8:	2204      	movlt	r2, #4
    2aca:	601a      	str	r2, [r3, #0]
    2acc:	bd08      	pop	{r3, pc}
    2ace:	bf00      	nop
    2ad0:	10000724 	.word	0x10000724

00002ad4 <__mriCmd_ReadAddressAndLengthArguments>:
    2ad4:	b570      	push	{r4, r5, r6, lr}
    2ad6:	4d0a      	ldr	r5, [pc, #40]	; (2b00 <__mriCmd_ReadAddressAndLengthArguments+0x2c>)
    2ad8:	2300      	movs	r3, #0
    2ada:	460e      	mov	r6, r1
    2adc:	602b      	str	r3, [r5, #0]
    2ade:	4604      	mov	r4, r0
    2ae0:	f7ff ffdc 	bl	2a9c <__mriCmd_ReadUIntegerArgument>
    2ae4:	682b      	ldr	r3, [r5, #0]
    2ae6:	6030      	str	r0, [r6, #0]
    2ae8:	b94b      	cbnz	r3, 2afe <__mriCmd_ReadAddressAndLengthArguments+0x2a>
    2aea:	4620      	mov	r0, r4
    2aec:	212c      	movs	r1, #44	; 0x2c
    2aee:	f7ff ffe3 	bl	2ab8 <__mriCmd_ThrowIfNextCharIsNotEqualTo>
    2af2:	682b      	ldr	r3, [r5, #0]
    2af4:	b91b      	cbnz	r3, 2afe <__mriCmd_ReadAddressAndLengthArguments+0x2a>
    2af6:	4620      	mov	r0, r4
    2af8:	f7ff ffd0 	bl	2a9c <__mriCmd_ReadUIntegerArgument>
    2afc:	6070      	str	r0, [r6, #4]
    2afe:	bd70      	pop	{r4, r5, r6, pc}
    2b00:	10000724 	.word	0x10000724

00002b04 <__mriCmd_ReadAddressAndLengthArgumentsWithColon>:
    2b04:	b538      	push	{r3, r4, r5, lr}
    2b06:	4d07      	ldr	r5, [pc, #28]	; (2b24 <__mriCmd_ReadAddressAndLengthArgumentsWithColon+0x20>)
    2b08:	2300      	movs	r3, #0
    2b0a:	602b      	str	r3, [r5, #0]
    2b0c:	4604      	mov	r4, r0
    2b0e:	f7ff ffe1 	bl	2ad4 <__mriCmd_ReadAddressAndLengthArguments>
    2b12:	682b      	ldr	r3, [r5, #0]
    2b14:	b92b      	cbnz	r3, 2b22 <__mriCmd_ReadAddressAndLengthArgumentsWithColon+0x1e>
    2b16:	4620      	mov	r0, r4
    2b18:	213a      	movs	r1, #58	; 0x3a
    2b1a:	e8bd 4038 	ldmia.w	sp!, {r3, r4, r5, lr}
    2b1e:	f7ff bfcb 	b.w	2ab8 <__mriCmd_ThrowIfNextCharIsNotEqualTo>
    2b22:	bd38      	pop	{r3, r4, r5, pc}
    2b24:	10000724 	.word	0x10000724

00002b28 <__mriCmd_HandleContinueCommand>:
    2b28:	b570      	push	{r4, r5, r6, lr}
    2b2a:	f7fe f965 	bl	df8 <__mriCore_GetBuffer>
    2b2e:	4606      	mov	r6, r0
    2b30:	f7fe ff28 	bl	1984 <__mriPlatform_WasProgramCounterModifiedByUser>
    2b34:	b990      	cbnz	r0, 2b5c <__mriCmd_HandleContinueCommand+0x34>
    2b36:	f7fe ff19 	bl	196c <__mriPlatform_IsCurrentInstructionHardcodedBreakpoint>
    2b3a:	b178      	cbz	r0, 2b5c <__mriCmd_HandleContinueCommand+0x34>
    2b3c:	f7fe fefc 	bl	1938 <__mriPlatform_AdvanceProgramCounterToNextInstruction>
    2b40:	2404      	movs	r4, #4
    2b42:	4d07      	ldr	r5, [pc, #28]	; (2b60 <__mriCmd_HandleContinueCommand+0x38>)
    2b44:	2300      	movs	r3, #0
    2b46:	4630      	mov	r0, r6
    2b48:	602b      	str	r3, [r5, #0]
    2b4a:	f7ff ffa7 	bl	2a9c <__mriCmd_ReadUIntegerArgument>
    2b4e:	682b      	ldr	r3, [r5, #0]
    2b50:	b90b      	cbnz	r3, 2b56 <__mriCmd_HandleContinueCommand+0x2e>
    2b52:	f7fe feeb 	bl	192c <__mriPlatform_SetProgramCounter>
    2b56:	f044 0003 	orr.w	r0, r4, #3
    2b5a:	bd70      	pop	{r4, r5, r6, pc}
    2b5c:	2400      	movs	r4, #0
    2b5e:	e7f0      	b.n	2b42 <__mriCmd_HandleContinueCommand+0x1a>
    2b60:	10000724 	.word	0x10000724

00002b64 <processGdbFileResponseCommands>:
    2b64:	b508      	push	{r3, lr}
    2b66:	f7fe f96f 	bl	e48 <__mriCore_GdbCommandHandlingLoop>
    2b6a:	f7fe f8e7 	bl	d3c <__mriCore_WasControlCFlagSentFromGdb>
    2b6e:	b148      	cbz	r0, 2b84 <processGdbFileResponseCommands+0x20>
    2b70:	f7fe f906 	bl	d80 <__mriCore_WasSemihostCallCancelledByGdb>
    2b74:	b908      	cbnz	r0, 2b7a <processGdbFileResponseCommands+0x16>
    2b76:	f7fe f90d 	bl	d94 <__mriCore_FlagSemihostCallAsHandled>
    2b7a:	2002      	movs	r0, #2
    2b7c:	f7fe f924 	bl	dc8 <__mriCore_SetSignalValue>
    2b80:	2000      	movs	r0, #0
    2b82:	bd08      	pop	{r3, pc}
    2b84:	f7fe f906 	bl	d94 <__mriCore_FlagSemihostCallAsHandled>
    2b88:	2001      	movs	r0, #1
    2b8a:	bd08      	pop	{r3, pc}

00002b8c <__mriIssueGdbFileOpenRequest>:
    2b8c:	b538      	push	{r3, r4, r5, lr}
    2b8e:	4605      	mov	r5, r0
    2b90:	f7fe f936 	bl	e00 <__mriCore_GetInitializedBuffer>
    2b94:	4913      	ldr	r1, [pc, #76]	; (2be4 <__mriIssueGdbFileOpenRequest+0x58>)
    2b96:	4604      	mov	r4, r0
    2b98:	f7ff fdb2 	bl	2700 <__mriBuffer_WriteString>
    2b9c:	4620      	mov	r0, r4
    2b9e:	6829      	ldr	r1, [r5, #0]
    2ba0:	f7ff fdee 	bl	2780 <__mriBuffer_WriteUIntegerAsHex>
    2ba4:	4620      	mov	r0, r4
    2ba6:	212f      	movs	r1, #47	; 0x2f
    2ba8:	f7ff fd2c 	bl	2604 <__mriBuffer_WriteChar>
    2bac:	6869      	ldr	r1, [r5, #4]
    2bae:	4620      	mov	r0, r4
    2bb0:	3101      	adds	r1, #1
    2bb2:	f7ff fde5 	bl	2780 <__mriBuffer_WriteUIntegerAsHex>
    2bb6:	4620      	mov	r0, r4
    2bb8:	212c      	movs	r1, #44	; 0x2c
    2bba:	f7ff fd23 	bl	2604 <__mriBuffer_WriteChar>
    2bbe:	4620      	mov	r0, r4
    2bc0:	68a9      	ldr	r1, [r5, #8]
    2bc2:	f7ff fddd 	bl	2780 <__mriBuffer_WriteUIntegerAsHex>
    2bc6:	4620      	mov	r0, r4
    2bc8:	212c      	movs	r1, #44	; 0x2c
    2bca:	f7ff fd1b 	bl	2604 <__mriBuffer_WriteChar>
    2bce:	4620      	mov	r0, r4
    2bd0:	68e9      	ldr	r1, [r5, #12]
    2bd2:	f7ff fdd5 	bl	2780 <__mriBuffer_WriteUIntegerAsHex>
    2bd6:	f7fe f91b 	bl	e10 <__mriCore_SendPacketToGdb>
    2bda:	e8bd 4038 	ldmia.w	sp!, {r3, r4, r5, lr}
    2bde:	f7ff bfc1 	b.w	2b64 <processGdbFileResponseCommands>
    2be2:	bf00      	nop
    2be4:	0000c0f8 	.word	0x0000c0f8

00002be8 <__mriIssueGdbFileWriteRequest>:
    2be8:	b538      	push	{r3, r4, r5, lr}
    2bea:	4605      	mov	r5, r0
    2bec:	f7fe f908 	bl	e00 <__mriCore_GetInitializedBuffer>
    2bf0:	490e      	ldr	r1, [pc, #56]	; (2c2c <__mriIssueGdbFileWriteRequest+0x44>)
    2bf2:	4604      	mov	r4, r0
    2bf4:	f7ff fd84 	bl	2700 <__mriBuffer_WriteString>
    2bf8:	4620      	mov	r0, r4
    2bfa:	6829      	ldr	r1, [r5, #0]
    2bfc:	f7ff fdc0 	bl	2780 <__mriBuffer_WriteUIntegerAsHex>
    2c00:	4620      	mov	r0, r4
    2c02:	212c      	movs	r1, #44	; 0x2c
    2c04:	f7ff fcfe 	bl	2604 <__mriBuffer_WriteChar>
    2c08:	4620      	mov	r0, r4
    2c0a:	6869      	ldr	r1, [r5, #4]
    2c0c:	f7ff fdb8 	bl	2780 <__mriBuffer_WriteUIntegerAsHex>
    2c10:	4620      	mov	r0, r4
    2c12:	212c      	movs	r1, #44	; 0x2c
    2c14:	f7ff fcf6 	bl	2604 <__mriBuffer_WriteChar>
    2c18:	4620      	mov	r0, r4
    2c1a:	68a9      	ldr	r1, [r5, #8]
    2c1c:	f7ff fdb0 	bl	2780 <__mriBuffer_WriteUIntegerAsHex>
    2c20:	f7fe f8f6 	bl	e10 <__mriCore_SendPacketToGdb>
    2c24:	e8bd 4038 	ldmia.w	sp!, {r3, r4, r5, lr}
    2c28:	f7ff bf9c 	b.w	2b64 <processGdbFileResponseCommands>
    2c2c:	0000c0f0 	.word	0x0000c0f0

00002c30 <__mriIssueGdbFileReadRequest>:
    2c30:	b538      	push	{r3, r4, r5, lr}
    2c32:	4605      	mov	r5, r0
    2c34:	f7fe f8e4 	bl	e00 <__mriCore_GetInitializedBuffer>
    2c38:	490e      	ldr	r1, [pc, #56]	; (2c74 <__mriIssueGdbFileReadRequest+0x44>)
    2c3a:	4604      	mov	r4, r0
    2c3c:	f7ff fd60 	bl	2700 <__mriBuffer_WriteString>
    2c40:	4620      	mov	r0, r4
    2c42:	6829      	ldr	r1, [r5, #0]
    2c44:	f7ff fd9c 	bl	2780 <__mriBuffer_WriteUIntegerAsHex>
    2c48:	4620      	mov	r0, r4
    2c4a:	212c      	movs	r1, #44	; 0x2c
    2c4c:	f7ff fcda 	bl	2604 <__mriBuffer_WriteChar>
    2c50:	4620      	mov	r0, r4
    2c52:	6869      	ldr	r1, [r5, #4]
    2c54:	f7ff fd94 	bl	2780 <__mriBuffer_WriteUIntegerAsHex>
    2c58:	4620      	mov	r0, r4
    2c5a:	212c      	movs	r1, #44	; 0x2c
    2c5c:	f7ff fcd2 	bl	2604 <__mriBuffer_WriteChar>
    2c60:	4620      	mov	r0, r4
    2c62:	68a9      	ldr	r1, [r5, #8]
    2c64:	f7ff fd8c 	bl	2780 <__mriBuffer_WriteUIntegerAsHex>
    2c68:	f7fe f8d2 	bl	e10 <__mriCore_SendPacketToGdb>
    2c6c:	e8bd 4038 	ldmia.w	sp!, {r3, r4, r5, lr}
    2c70:	f7ff bf78 	b.w	2b64 <processGdbFileResponseCommands>
    2c74:	0000c107 	.word	0x0000c107

00002c78 <__mriIssueGdbFileCloseRequest>:
    2c78:	b538      	push	{r3, r4, r5, lr}
    2c7a:	4605      	mov	r5, r0
    2c7c:	f7fe f8c0 	bl	e00 <__mriCore_GetInitializedBuffer>
    2c80:	4906      	ldr	r1, [pc, #24]	; (2c9c <__mriIssueGdbFileCloseRequest+0x24>)
    2c82:	4604      	mov	r4, r0
    2c84:	f7ff fd3c 	bl	2700 <__mriBuffer_WriteString>
    2c88:	4620      	mov	r0, r4
    2c8a:	4629      	mov	r1, r5
    2c8c:	f7ff fd78 	bl	2780 <__mriBuffer_WriteUIntegerAsHex>
    2c90:	f7fe f8be 	bl	e10 <__mriCore_SendPacketToGdb>
    2c94:	e8bd 4038 	ldmia.w	sp!, {r3, r4, r5, lr}
    2c98:	f7ff bf64 	b.w	2b64 <processGdbFileResponseCommands>
    2c9c:	0000c11d 	.word	0x0000c11d

00002ca0 <__mriIssueGdbFileSeekRequest>:
    2ca0:	b538      	push	{r3, r4, r5, lr}
    2ca2:	4605      	mov	r5, r0
    2ca4:	f7fe f8ac 	bl	e00 <__mriCore_GetInitializedBuffer>
    2ca8:	490e      	ldr	r1, [pc, #56]	; (2ce4 <__mriIssueGdbFileSeekRequest+0x44>)
    2caa:	4604      	mov	r4, r0
    2cac:	f7ff fd28 	bl	2700 <__mriBuffer_WriteString>
    2cb0:	4620      	mov	r0, r4
    2cb2:	6829      	ldr	r1, [r5, #0]
    2cb4:	f7ff fd64 	bl	2780 <__mriBuffer_WriteUIntegerAsHex>
    2cb8:	4620      	mov	r0, r4
    2cba:	212c      	movs	r1, #44	; 0x2c
    2cbc:	f7ff fca2 	bl	2604 <__mriBuffer_WriteChar>
    2cc0:	4620      	mov	r0, r4
    2cc2:	6869      	ldr	r1, [r5, #4]
    2cc4:	f7ff fd88 	bl	27d8 <__mriBuffer_WriteIntegerAsHex>
    2cc8:	4620      	mov	r0, r4
    2cca:	212c      	movs	r1, #44	; 0x2c
    2ccc:	f7ff fc9a 	bl	2604 <__mriBuffer_WriteChar>
    2cd0:	4620      	mov	r0, r4
    2cd2:	68a9      	ldr	r1, [r5, #8]
    2cd4:	f7ff fd80 	bl	27d8 <__mriBuffer_WriteIntegerAsHex>
    2cd8:	f7fe f89a 	bl	e10 <__mriCore_SendPacketToGdb>
    2cdc:	e8bd 4038 	ldmia.w	sp!, {r3, r4, r5, lr}
    2ce0:	f7ff bf40 	b.w	2b64 <processGdbFileResponseCommands>
    2ce4:	0000c10e 	.word	0x0000c10e

00002ce8 <__mriIssueGdbFileFStatRequest>:
    2ce8:	b570      	push	{r4, r5, r6, lr}
    2cea:	460d      	mov	r5, r1
    2cec:	4606      	mov	r6, r0
    2cee:	f7fe f887 	bl	e00 <__mriCore_GetInitializedBuffer>
    2cf2:	490b      	ldr	r1, [pc, #44]	; (2d20 <__mriIssueGdbFileFStatRequest+0x38>)
    2cf4:	4604      	mov	r4, r0
    2cf6:	f7ff fd03 	bl	2700 <__mriBuffer_WriteString>
    2cfa:	4620      	mov	r0, r4
    2cfc:	4631      	mov	r1, r6
    2cfe:	f7ff fd3f 	bl	2780 <__mriBuffer_WriteUIntegerAsHex>
    2d02:	4620      	mov	r0, r4
    2d04:	212c      	movs	r1, #44	; 0x2c
    2d06:	f7ff fc7d 	bl	2604 <__mriBuffer_WriteChar>
    2d0a:	4620      	mov	r0, r4
    2d0c:	4629      	mov	r1, r5
    2d0e:	f7ff fd37 	bl	2780 <__mriBuffer_WriteUIntegerAsHex>
    2d12:	f7fe f87d 	bl	e10 <__mriCore_SendPacketToGdb>
    2d16:	e8bd 4070 	ldmia.w	sp!, {r4, r5, r6, lr}
    2d1a:	f7ff bf23 	b.w	2b64 <processGdbFileResponseCommands>
    2d1e:	bf00      	nop
    2d20:	0000c0ff 	.word	0x0000c0ff

00002d24 <__mriIssueGdbFileUnlinkRequest>:
    2d24:	b538      	push	{r3, r4, r5, lr}
    2d26:	4605      	mov	r5, r0
    2d28:	f7fe f86a 	bl	e00 <__mriCore_GetInitializedBuffer>
    2d2c:	490b      	ldr	r1, [pc, #44]	; (2d5c <__mriIssueGdbFileUnlinkRequest+0x38>)
    2d2e:	4604      	mov	r4, r0
    2d30:	f7ff fce6 	bl	2700 <__mriBuffer_WriteString>
    2d34:	4620      	mov	r0, r4
    2d36:	6829      	ldr	r1, [r5, #0]
    2d38:	f7ff fd22 	bl	2780 <__mriBuffer_WriteUIntegerAsHex>
    2d3c:	4620      	mov	r0, r4
    2d3e:	212f      	movs	r1, #47	; 0x2f
    2d40:	f7ff fc60 	bl	2604 <__mriBuffer_WriteChar>
    2d44:	6869      	ldr	r1, [r5, #4]
    2d46:	4620      	mov	r0, r4
    2d48:	3101      	adds	r1, #1
    2d4a:	f7ff fd19 	bl	2780 <__mriBuffer_WriteUIntegerAsHex>
    2d4e:	f7fe f85f 	bl	e10 <__mriCore_SendPacketToGdb>
    2d52:	e8bd 4038 	ldmia.w	sp!, {r3, r4, r5, lr}
    2d56:	f7ff bf05 	b.w	2b64 <processGdbFileResponseCommands>
    2d5a:	bf00      	nop
    2d5c:	0000c0e7 	.word	0x0000c0e7

00002d60 <__mriIssueGdbFileStatRequest>:
    2d60:	b570      	push	{r4, r5, r6, lr}
    2d62:	4605      	mov	r5, r0
    2d64:	460e      	mov	r6, r1
    2d66:	f7fe f84b 	bl	e00 <__mriCore_GetInitializedBuffer>
    2d6a:	4910      	ldr	r1, [pc, #64]	; (2dac <__mriIssueGdbFileStatRequest+0x4c>)
    2d6c:	4604      	mov	r4, r0
    2d6e:	f7ff fcc7 	bl	2700 <__mriBuffer_WriteString>
    2d72:	4620      	mov	r0, r4
    2d74:	4629      	mov	r1, r5
    2d76:	f7ff fd03 	bl	2780 <__mriBuffer_WriteUIntegerAsHex>
    2d7a:	212f      	movs	r1, #47	; 0x2f
    2d7c:	4620      	mov	r0, r4
    2d7e:	f7ff fc41 	bl	2604 <__mriBuffer_WriteChar>
    2d82:	4628      	mov	r0, r5
    2d84:	f004 f877 	bl	6e76 <strlen>
    2d88:	1c41      	adds	r1, r0, #1
    2d8a:	4620      	mov	r0, r4
    2d8c:	f7ff fcf8 	bl	2780 <__mriBuffer_WriteUIntegerAsHex>
    2d90:	4620      	mov	r0, r4
    2d92:	212c      	movs	r1, #44	; 0x2c
    2d94:	f7ff fc36 	bl	2604 <__mriBuffer_WriteChar>
    2d98:	4620      	mov	r0, r4
    2d9a:	4631      	mov	r1, r6
    2d9c:	f7ff fcf0 	bl	2780 <__mriBuffer_WriteUIntegerAsHex>
    2da0:	f7fe f836 	bl	e10 <__mriCore_SendPacketToGdb>
    2da4:	e8bd 4070 	ldmia.w	sp!, {r4, r5, r6, lr}
    2da8:	f7ff bedc 	b.w	2b64 <processGdbFileResponseCommands>
    2dac:	0000c116 	.word	0x0000c116

00002db0 <__mriIssueGdbFileRenameRequest>:
    2db0:	b570      	push	{r4, r5, r6, lr}
    2db2:	460d      	mov	r5, r1
    2db4:	4606      	mov	r6, r0
    2db6:	f7fe f823 	bl	e00 <__mriCore_GetInitializedBuffer>
    2dba:	4916      	ldr	r1, [pc, #88]	; (2e14 <__mriIssueGdbFileRenameRequest+0x64>)
    2dbc:	4604      	mov	r4, r0
    2dbe:	f7ff fc9f 	bl	2700 <__mriBuffer_WriteString>
    2dc2:	4620      	mov	r0, r4
    2dc4:	4631      	mov	r1, r6
    2dc6:	f7ff fcdb 	bl	2780 <__mriBuffer_WriteUIntegerAsHex>
    2dca:	212f      	movs	r1, #47	; 0x2f
    2dcc:	4620      	mov	r0, r4
    2dce:	f7ff fc19 	bl	2604 <__mriBuffer_WriteChar>
    2dd2:	4630      	mov	r0, r6
    2dd4:	f004 f84f 	bl	6e76 <strlen>
    2dd8:	1c41      	adds	r1, r0, #1
    2dda:	4620      	mov	r0, r4
    2ddc:	f7ff fcd0 	bl	2780 <__mriBuffer_WriteUIntegerAsHex>
    2de0:	4620      	mov	r0, r4
    2de2:	212c      	movs	r1, #44	; 0x2c
    2de4:	f7ff fc0e 	bl	2604 <__mriBuffer_WriteChar>
    2de8:	4620      	mov	r0, r4
    2dea:	4629      	mov	r1, r5
    2dec:	f7ff fcc8 	bl	2780 <__mriBuffer_WriteUIntegerAsHex>
    2df0:	212f      	movs	r1, #47	; 0x2f
    2df2:	4620      	mov	r0, r4
    2df4:	f7ff fc06 	bl	2604 <__mriBuffer_WriteChar>
    2df8:	4628      	mov	r0, r5
    2dfa:	f004 f83c 	bl	6e76 <strlen>
    2dfe:	1c41      	adds	r1, r0, #1
    2e00:	4620      	mov	r0, r4
    2e02:	f7ff fcbd 	bl	2780 <__mriBuffer_WriteUIntegerAsHex>
    2e06:	f7fe f803 	bl	e10 <__mriCore_SendPacketToGdb>
    2e0a:	e8bd 4070 	ldmia.w	sp!, {r4, r5, r6, lr}
    2e0e:	f7ff bea9 	b.w	2b64 <processGdbFileResponseCommands>
    2e12:	bf00      	nop
    2e14:	0000c0de 	.word	0x0000c0de

00002e18 <__mriHandleFileIOCommand>:
    2e18:	b570      	push	{r4, r5, r6, lr}
    2e1a:	f7fd ffed 	bl	df8 <__mriCore_GetBuffer>
    2e1e:	4606      	mov	r6, r0
    2e20:	f7ff fd0c 	bl	283c <__mriBuffer_ReadIntegerAsHex>
    2e24:	212c      	movs	r1, #44	; 0x2c
    2e26:	4605      	mov	r5, r0
    2e28:	4630      	mov	r0, r6
    2e2a:	f7ff fced 	bl	2808 <__mriBuffer_IsNextCharEqualTo>
    2e2e:	b150      	cbz	r0, 2e46 <__mriHandleFileIOCommand+0x2e>
    2e30:	4630      	mov	r0, r6
    2e32:	f7ff fd03 	bl	283c <__mriBuffer_ReadIntegerAsHex>
    2e36:	4909      	ldr	r1, [pc, #36]	; (2e5c <__mriHandleFileIOCommand+0x44>)
    2e38:	4604      	mov	r4, r0
    2e3a:	2202      	movs	r2, #2
    2e3c:	4630      	mov	r0, r6
    2e3e:	f7ff fd27 	bl	2890 <__mriBuffer_MatchesString>
    2e42:	4606      	mov	r6, r0
    2e44:	e001      	b.n	2e4a <__mriHandleFileIOCommand+0x32>
    2e46:	4606      	mov	r6, r0
    2e48:	4604      	mov	r4, r0
    2e4a:	4628      	mov	r0, r5
    2e4c:	4621      	mov	r1, r4
    2e4e:	f7fd ffc7 	bl	de0 <__mriCore_SetSemihostReturnValues>
    2e52:	4630      	mov	r0, r6
    2e54:	f7fd ff88 	bl	d68 <__mriCore_RecordControlCFlagSentFromGdb>
    2e58:	2003      	movs	r0, #3
    2e5a:	bd70      	pop	{r4, r5, r6, pc}
    2e5c:	0000c125 	.word	0x0000c125

00002e60 <__mriCmd_HandleMemoryReadCommand>:
    2e60:	b537      	push	{r0, r1, r2, r4, r5, lr}
    2e62:	f7fd ffc9 	bl	df8 <__mriCore_GetBuffer>
    2e66:	4d0b      	ldr	r5, [pc, #44]	; (2e94 <__mriCmd_HandleMemoryReadCommand+0x34>)
    2e68:	2300      	movs	r3, #0
    2e6a:	4669      	mov	r1, sp
    2e6c:	602b      	str	r3, [r5, #0]
    2e6e:	4604      	mov	r4, r0
    2e70:	f7ff fe30 	bl	2ad4 <__mriCmd_ReadAddressAndLengthArguments>
    2e74:	682b      	ldr	r3, [r5, #0]
    2e76:	b11b      	cbz	r3, 2e80 <__mriCmd_HandleMemoryReadCommand+0x20>
    2e78:	4807      	ldr	r0, [pc, #28]	; (2e98 <__mriCmd_HandleMemoryReadCommand+0x38>)
    2e7a:	f7fd ff53 	bl	d24 <__mriCore_PrepareStringResponse>
    2e7e:	e006      	b.n	2e8e <__mriCmd_HandleMemoryReadCommand+0x2e>
    2e80:	f7fd ff40 	bl	d04 <__mriCore_InitBuffer>
    2e84:	e89d 0006 	ldmia.w	sp, {r1, r2}
    2e88:	4620      	mov	r0, r4
    2e8a:	f000 fa48 	bl	331e <__mriMem_ReadMemoryIntoHexBuffer>
    2e8e:	2000      	movs	r0, #0
    2e90:	bd3e      	pop	{r1, r2, r3, r4, r5, pc}
    2e92:	bf00      	nop
    2e94:	10000724 	.word	0x10000724
    2e98:	0000c0d3 	.word	0x0000c0d3

00002e9c <__mriCmd_HandleMemoryWriteCommand>:
    2e9c:	b537      	push	{r0, r1, r2, r4, r5, lr}
    2e9e:	f7fd ffab 	bl	df8 <__mriCore_GetBuffer>
    2ea2:	4d0c      	ldr	r5, [pc, #48]	; (2ed4 <__mriCmd_HandleMemoryWriteCommand+0x38>)
    2ea4:	2300      	movs	r3, #0
    2ea6:	4669      	mov	r1, sp
    2ea8:	602b      	str	r3, [r5, #0]
    2eaa:	4604      	mov	r4, r0
    2eac:	f7ff fe2a 	bl	2b04 <__mriCmd_ReadAddressAndLengthArgumentsWithColon>
    2eb0:	682b      	ldr	r3, [r5, #0]
    2eb2:	b10b      	cbz	r3, 2eb8 <__mriCmd_HandleMemoryWriteCommand+0x1c>
    2eb4:	4808      	ldr	r0, [pc, #32]	; (2ed8 <__mriCmd_HandleMemoryWriteCommand+0x3c>)
    2eb6:	e008      	b.n	2eca <__mriCmd_HandleMemoryWriteCommand+0x2e>
    2eb8:	4620      	mov	r0, r4
    2eba:	e89d 0006 	ldmia.w	sp, {r1, r2}
    2ebe:	f000 fa51 	bl	3364 <__mriMem_WriteHexBufferToMemory>
    2ec2:	b108      	cbz	r0, 2ec8 <__mriCmd_HandleMemoryWriteCommand+0x2c>
    2ec4:	4805      	ldr	r0, [pc, #20]	; (2edc <__mriCmd_HandleMemoryWriteCommand+0x40>)
    2ec6:	e000      	b.n	2eca <__mriCmd_HandleMemoryWriteCommand+0x2e>
    2ec8:	4805      	ldr	r0, [pc, #20]	; (2ee0 <__mriCmd_HandleMemoryWriteCommand+0x44>)
    2eca:	f7fd ff2b 	bl	d24 <__mriCore_PrepareStringResponse>
    2ece:	2000      	movs	r0, #0
    2ed0:	bd3e      	pop	{r1, r2, r3, r4, r5, pc}
    2ed2:	bf00      	nop
    2ed4:	10000724 	.word	0x10000724
    2ed8:	0000c0d3 	.word	0x0000c0d3
    2edc:	0000c0db 	.word	0x0000c0db
    2ee0:	0000c128 	.word	0x0000c128

00002ee4 <__mriCmd_HandleBinaryMemoryWriteCommand>:
    2ee4:	b537      	push	{r0, r1, r2, r4, r5, lr}
    2ee6:	f7fd ff87 	bl	df8 <__mriCore_GetBuffer>
    2eea:	4d12      	ldr	r5, [pc, #72]	; (2f34 <__mriCmd_HandleBinaryMemoryWriteCommand+0x50>)
    2eec:	2300      	movs	r3, #0
    2eee:	4669      	mov	r1, sp
    2ef0:	602b      	str	r3, [r5, #0]
    2ef2:	4604      	mov	r4, r0
    2ef4:	f7ff fdee 	bl	2ad4 <__mriCmd_ReadAddressAndLengthArguments>
    2ef8:	682b      	ldr	r3, [r5, #0]
    2efa:	b91b      	cbnz	r3, 2f04 <__mriCmd_HandleBinaryMemoryWriteCommand+0x20>
    2efc:	4620      	mov	r0, r4
    2efe:	213a      	movs	r1, #58	; 0x3a
    2f00:	f7ff fdda 	bl	2ab8 <__mriCmd_ThrowIfNextCharIsNotEqualTo>
    2f04:	682b      	ldr	r3, [r5, #0]
    2f06:	b10b      	cbz	r3, 2f0c <__mriCmd_HandleBinaryMemoryWriteCommand+0x28>
    2f08:	480b      	ldr	r0, [pc, #44]	; (2f38 <__mriCmd_HandleBinaryMemoryWriteCommand+0x54>)
    2f0a:	e00e      	b.n	2f2a <__mriCmd_HandleBinaryMemoryWriteCommand+0x46>
    2f0c:	4620      	mov	r0, r4
    2f0e:	e89d 0006 	ldmia.w	sp, {r1, r2}
    2f12:	f000 fa47 	bl	33a4 <__mriMem_WriteBinaryBufferToMemory>
    2f16:	b108      	cbz	r0, 2f1c <__mriCmd_HandleBinaryMemoryWriteCommand+0x38>
    2f18:	4808      	ldr	r0, [pc, #32]	; (2f3c <__mriCmd_HandleBinaryMemoryWriteCommand+0x58>)
    2f1a:	e006      	b.n	2f2a <__mriCmd_HandleBinaryMemoryWriteCommand+0x46>
    2f1c:	4620      	mov	r0, r4
    2f1e:	f7ff fb69 	bl	25f4 <__mriBuffer_OverrunDetected>
    2f22:	b108      	cbz	r0, 2f28 <__mriCmd_HandleBinaryMemoryWriteCommand+0x44>
    2f24:	4806      	ldr	r0, [pc, #24]	; (2f40 <__mriCmd_HandleBinaryMemoryWriteCommand+0x5c>)
    2f26:	e000      	b.n	2f2a <__mriCmd_HandleBinaryMemoryWriteCommand+0x46>
    2f28:	4806      	ldr	r0, [pc, #24]	; (2f44 <__mriCmd_HandleBinaryMemoryWriteCommand+0x60>)
    2f2a:	f7fd fefb 	bl	d24 <__mriCore_PrepareStringResponse>
    2f2e:	2000      	movs	r0, #0
    2f30:	bd3e      	pop	{r1, r2, r3, r4, r5, pc}
    2f32:	bf00      	nop
    2f34:	10000724 	.word	0x10000724
    2f38:	0000c0d3 	.word	0x0000c0d3
    2f3c:	0000c0db 	.word	0x0000c0db
    2f40:	0000b524 	.word	0x0000b524
    2f44:	0000c128 	.word	0x0000c128

00002f48 <handleQueryTransferReadCommand>:
    2f48:	e92d 43f8 	stmdb	sp!, {r3, r4, r5, r6, r7, r8, r9, lr}
    2f4c:	4604      	mov	r4, r0
    2f4e:	f7fd ff53 	bl	df8 <__mriCore_GetBuffer>
    2f52:	68a7      	ldr	r7, [r4, #8]
    2f54:	6863      	ldr	r3, [r4, #4]
    2f56:	4606      	mov	r6, r0
    2f58:	429f      	cmp	r7, r3
    2f5a:	68e5      	ldr	r5, [r4, #12]
    2f5c:	d204      	bcs.n	2f68 <handleQueryTransferReadCommand+0x20>
    2f5e:	ebc7 0803 	rsb	r8, r7, r3
    2f62:	f04f 096d 	mov.w	r9, #109	; 0x6d
    2f66:	e004      	b.n	2f72 <handleQueryTransferReadCommand+0x2a>
    2f68:	f04f 0800 	mov.w	r8, #0
    2f6c:	4645      	mov	r5, r8
    2f6e:	f04f 096c 	mov.w	r9, #108	; 0x6c
    2f72:	f7fd fec7 	bl	d04 <__mriCore_InitBuffer>
    2f76:	4630      	mov	r0, r6
    2f78:	f7ff fb1f 	bl	25ba <__mriBuffer_BytesLeft>
    2f7c:	42a8      	cmp	r0, r5
    2f7e:	bf38      	it	cc
    2f80:	4605      	movcc	r5, r0
    2f82:	4545      	cmp	r5, r8
    2f84:	bf88      	it	hi
    2f86:	f04f 096c 	movhi.w	r9, #108	; 0x6c
    2f8a:	4630      	mov	r0, r6
    2f8c:	4649      	mov	r1, r9
    2f8e:	bf88      	it	hi
    2f90:	4645      	movhi	r5, r8
    2f92:	f7ff fb37 	bl	2604 <__mriBuffer_WriteChar>
    2f96:	6821      	ldr	r1, [r4, #0]
    2f98:	4630      	mov	r0, r6
    2f9a:	19c9      	adds	r1, r1, r7
    2f9c:	462a      	mov	r2, r5
    2f9e:	e8bd 43f8 	ldmia.w	sp!, {r3, r4, r5, r6, r7, r8, r9, lr}
    2fa2:	f7ff bb95 	b.w	26d0 <__mriBuffer_WriteSizedString>
	...

00002fa8 <readQueryTransferReadArguments>:
    2fa8:	b5f7      	push	{r0, r1, r2, r4, r5, r6, r7, lr}
    2faa:	4604      	mov	r4, r0
    2fac:	460e      	mov	r6, r1
    2fae:	4608      	mov	r0, r1
    2fb0:	2210      	movs	r2, #16
    2fb2:	2100      	movs	r1, #0
    2fb4:	f003 fc77 	bl	68a6 <memset>
    2fb8:	4620      	mov	r0, r4
    2fba:	213a      	movs	r1, #58	; 0x3a
    2fbc:	f7ff fc24 	bl	2808 <__mriBuffer_IsNextCharEqualTo>
    2fc0:	b150      	cbz	r0, 2fd8 <readQueryTransferReadArguments+0x30>
    2fc2:	4620      	mov	r0, r4
    2fc4:	491c      	ldr	r1, [pc, #112]	; (3038 <readQueryTransferReadArguments+0x90>)
    2fc6:	2204      	movs	r2, #4
    2fc8:	f7ff fc62 	bl	2890 <__mriBuffer_MatchesString>
    2fcc:	b120      	cbz	r0, 2fd8 <readQueryTransferReadArguments+0x30>
    2fce:	4620      	mov	r0, r4
    2fd0:	213a      	movs	r1, #58	; 0x3a
    2fd2:	f7ff fc19 	bl	2808 <__mriBuffer_IsNextCharEqualTo>
    2fd6:	b930      	cbnz	r0, 2fe6 <readQueryTransferReadArguments+0x3e>
    2fd8:	4b18      	ldr	r3, [pc, #96]	; (303c <readQueryTransferReadArguments+0x94>)
    2fda:	681a      	ldr	r2, [r3, #0]
    2fdc:	2a04      	cmp	r2, #4
    2fde:	bfb8      	it	lt
    2fe0:	2204      	movlt	r2, #4
    2fe2:	601a      	str	r2, [r3, #0]
    2fe4:	e027      	b.n	3036 <readQueryTransferReadArguments+0x8e>
    2fe6:	4d15      	ldr	r5, [pc, #84]	; (303c <readQueryTransferReadArguments+0x94>)
    2fe8:	2300      	movs	r3, #0
    2fea:	4915      	ldr	r1, [pc, #84]	; (3040 <readQueryTransferReadArguments+0x98>)
    2fec:	4620      	mov	r0, r4
    2fee:	220a      	movs	r2, #10
    2ff0:	602b      	str	r3, [r5, #0]
    2ff2:	f7ff fc4d 	bl	2890 <__mriBuffer_MatchesString>
    2ff6:	4607      	mov	r7, r0
    2ff8:	213a      	movs	r1, #58	; 0x3a
    2ffa:	4620      	mov	r0, r4
    2ffc:	b97f      	cbnz	r7, 301e <readQueryTransferReadArguments+0x76>
    2ffe:	f7ff fc03 	bl	2808 <__mriBuffer_IsNextCharEqualTo>
    3002:	b188      	cbz	r0, 3028 <readQueryTransferReadArguments+0x80>
    3004:	4b0d      	ldr	r3, [pc, #52]	; (303c <readQueryTransferReadArguments+0x94>)
    3006:	6037      	str	r7, [r6, #0]
    3008:	681b      	ldr	r3, [r3, #0]
    300a:	b9a3      	cbnz	r3, 3036 <readQueryTransferReadArguments+0x8e>
    300c:	4620      	mov	r0, r4
    300e:	4669      	mov	r1, sp
    3010:	f7ff fd60 	bl	2ad4 <__mriCmd_ReadAddressAndLengthArguments>
    3014:	9b00      	ldr	r3, [sp, #0]
    3016:	60b3      	str	r3, [r6, #8]
    3018:	9b01      	ldr	r3, [sp, #4]
    301a:	60f3      	str	r3, [r6, #12]
    301c:	e00b      	b.n	3036 <readQueryTransferReadArguments+0x8e>
    301e:	f7ff fbf3 	bl	2808 <__mriBuffer_IsNextCharEqualTo>
    3022:	b108      	cbz	r0, 3028 <readQueryTransferReadArguments+0x80>
    3024:	4f06      	ldr	r7, [pc, #24]	; (3040 <readQueryTransferReadArguments+0x98>)
    3026:	e7ed      	b.n	3004 <readQueryTransferReadArguments+0x5c>
    3028:	682b      	ldr	r3, [r5, #0]
    302a:	4607      	mov	r7, r0
    302c:	2b04      	cmp	r3, #4
    302e:	bfb8      	it	lt
    3030:	2304      	movlt	r3, #4
    3032:	602b      	str	r3, [r5, #0]
    3034:	e7e6      	b.n	3004 <readQueryTransferReadArguments+0x5c>
    3036:	bdfe      	pop	{r1, r2, r3, r4, r5, r6, r7, pc}
    3038:	0000c198 	.word	0x0000c198
    303c:	10000724 	.word	0x10000724
    3040:	0000c16e 	.word	0x0000c16e

00003044 <__mriCmd_HandleQueryCommand>:
    3044:	b57f      	push	{r0, r1, r2, r3, r4, r5, r6, lr}
    3046:	f7fd fed7 	bl	df8 <__mriCore_GetBuffer>
    304a:	4935      	ldr	r1, [pc, #212]	; (3120 <__mriCmd_HandleQueryCommand+0xdc>)
    304c:	2209      	movs	r2, #9
    304e:	4604      	mov	r4, r0
    3050:	f7ff fc1e 	bl	2890 <__mriBuffer_MatchesString>
    3054:	4606      	mov	r6, r0
    3056:	b168      	cbz	r0, 3074 <__mriCmd_HandleQueryCommand+0x30>
    3058:	f7fe fb14 	bl	1684 <__mriPlatform_GetPacketBufferSize>
    305c:	4605      	mov	r5, r0
    305e:	f7fd fecf 	bl	e00 <__mriCore_GetInitializedBuffer>
    3062:	4930      	ldr	r1, [pc, #192]	; (3124 <__mriCmd_HandleQueryCommand+0xe0>)
    3064:	4604      	mov	r4, r0
    3066:	f7ff fb4b 	bl	2700 <__mriBuffer_WriteString>
    306a:	4620      	mov	r0, r4
    306c:	4629      	mov	r1, r5
    306e:	f7ff fb87 	bl	2780 <__mriBuffer_WriteUIntegerAsHex>
    3072:	e051      	b.n	3118 <__mriCmd_HandleQueryCommand+0xd4>
    3074:	4620      	mov	r0, r4
    3076:	492c      	ldr	r1, [pc, #176]	; (3128 <__mriCmd_HandleQueryCommand+0xe4>)
    3078:	2204      	movs	r2, #4
    307a:	f7ff fc09 	bl	2890 <__mriBuffer_MatchesString>
    307e:	2800      	cmp	r0, #0
    3080:	d047      	beq.n	3112 <__mriCmd_HandleQueryCommand+0xce>
    3082:	f7fd feb9 	bl	df8 <__mriCore_GetBuffer>
    3086:	213a      	movs	r1, #58	; 0x3a
    3088:	4604      	mov	r4, r0
    308a:	f7ff fbbd 	bl	2808 <__mriBuffer_IsNextCharEqualTo>
    308e:	2800      	cmp	r0, #0
    3090:	d033      	beq.n	30fa <__mriCmd_HandleQueryCommand+0xb6>
    3092:	4620      	mov	r0, r4
    3094:	4925      	ldr	r1, [pc, #148]	; (312c <__mriCmd_HandleQueryCommand+0xe8>)
    3096:	220a      	movs	r2, #10
    3098:	f7ff fbfa 	bl	2890 <__mriBuffer_MatchesString>
    309c:	4605      	mov	r5, r0
    309e:	b1a0      	cbz	r0, 30ca <__mriCmd_HandleQueryCommand+0x86>
    30a0:	4c23      	ldr	r4, [pc, #140]	; (3130 <__mriCmd_HandleQueryCommand+0xec>)
    30a2:	f7fd fea9 	bl	df8 <__mriCore_GetBuffer>
    30a6:	6026      	str	r6, [r4, #0]
    30a8:	4669      	mov	r1, sp
    30aa:	f7ff ff7d 	bl	2fa8 <readQueryTransferReadArguments>
    30ae:	6823      	ldr	r3, [r4, #0]
    30b0:	b91b      	cbnz	r3, 30ba <__mriCmd_HandleQueryCommand+0x76>
    30b2:	9b00      	ldr	r3, [sp, #0]
    30b4:	b10b      	cbz	r3, 30ba <__mriCmd_HandleQueryCommand+0x76>
    30b6:	2304      	movs	r3, #4
    30b8:	6023      	str	r3, [r4, #0]
    30ba:	6823      	ldr	r3, [r4, #0]
    30bc:	b9eb      	cbnz	r3, 30fa <__mriCmd_HandleQueryCommand+0xb6>
    30be:	f7fe ffdb 	bl	2078 <__mriPlatform_GetDeviceMemoryMapXml>
    30c2:	9000      	str	r0, [sp, #0]
    30c4:	f7fe ffd4 	bl	2070 <__mriPlatform_GetDeviceMemoryMapXmlSize>
    30c8:	e01e      	b.n	3108 <__mriCmd_HandleQueryCommand+0xc4>
    30ca:	4620      	mov	r0, r4
    30cc:	4919      	ldr	r1, [pc, #100]	; (3134 <__mriCmd_HandleQueryCommand+0xf0>)
    30ce:	2208      	movs	r2, #8
    30d0:	f7ff fbde 	bl	2890 <__mriBuffer_MatchesString>
    30d4:	b1e8      	cbz	r0, 3112 <__mriCmd_HandleQueryCommand+0xce>
    30d6:	4c16      	ldr	r4, [pc, #88]	; (3130 <__mriCmd_HandleQueryCommand+0xec>)
    30d8:	f7fd fe8e 	bl	df8 <__mriCore_GetBuffer>
    30dc:	6025      	str	r5, [r4, #0]
    30de:	4669      	mov	r1, sp
    30e0:	f7ff ff62 	bl	2fa8 <readQueryTransferReadArguments>
    30e4:	6823      	ldr	r3, [r4, #0]
    30e6:	b933      	cbnz	r3, 30f6 <__mriCmd_HandleQueryCommand+0xb2>
    30e8:	9800      	ldr	r0, [sp, #0]
    30ea:	4913      	ldr	r1, [pc, #76]	; (3138 <__mriCmd_HandleQueryCommand+0xf4>)
    30ec:	f003 feb9 	bl	6e62 <strcmp>
    30f0:	b108      	cbz	r0, 30f6 <__mriCmd_HandleQueryCommand+0xb2>
    30f2:	2304      	movs	r3, #4
    30f4:	6023      	str	r3, [r4, #0]
    30f6:	6823      	ldr	r3, [r4, #0]
    30f8:	b10b      	cbz	r3, 30fe <__mriCmd_HandleQueryCommand+0xba>
    30fa:	4810      	ldr	r0, [pc, #64]	; (313c <__mriCmd_HandleQueryCommand+0xf8>)
    30fc:	e00a      	b.n	3114 <__mriCmd_HandleQueryCommand+0xd0>
    30fe:	f7fe fd9b 	bl	1c38 <__mriPlatform_GetTargetXml>
    3102:	9000      	str	r0, [sp, #0]
    3104:	f7fe fd94 	bl	1c30 <__mriPlatform_GetTargetXmlSize>
    3108:	9001      	str	r0, [sp, #4]
    310a:	4668      	mov	r0, sp
    310c:	f7ff ff1c 	bl	2f48 <handleQueryTransferReadCommand>
    3110:	e002      	b.n	3118 <__mriCmd_HandleQueryCommand+0xd4>
    3112:	480b      	ldr	r0, [pc, #44]	; (3140 <__mriCmd_HandleQueryCommand+0xfc>)
    3114:	f7fd fe06 	bl	d24 <__mriCore_PrepareStringResponse>
    3118:	2000      	movs	r0, #0
    311a:	b004      	add	sp, #16
    311c:	bd70      	pop	{r4, r5, r6, pc}
    311e:	bf00      	nop
    3120:	0000c164 	.word	0x0000c164
    3124:	0000c12c 	.word	0x0000c12c
    3128:	0000c19d 	.word	0x0000c19d
    312c:	0000c182 	.word	0x0000c182
    3130:	10000724 	.word	0x10000724
    3134:	0000c179 	.word	0x0000c179
    3138:	0000c18d 	.word	0x0000c18d
    313c:	0000c0d3 	.word	0x0000c0d3
    3140:	0000b53a 	.word	0x0000b53a

00003144 <__mriCmd_Send_T_StopResponse>:
    3144:	b510      	push	{r4, lr}
    3146:	f7fd fe5b 	bl	e00 <__mriCore_GetInitializedBuffer>
    314a:	2154      	movs	r1, #84	; 0x54
    314c:	4604      	mov	r4, r0
    314e:	f7ff fa59 	bl	2604 <__mriBuffer_WriteChar>
    3152:	f7fd fe3f 	bl	dd4 <__mriCore_GetSignalValue>
    3156:	4601      	mov	r1, r0
    3158:	4620      	mov	r0, r4
    315a:	f7ff fa79 	bl	2650 <__mriBuffer_WriteByteAsHex>
    315e:	4620      	mov	r0, r4
    3160:	f7fe fc5a 	bl	1a18 <__mriPlatform_WriteTResponseRegistersToBuffer>
    3164:	f7fd fe54 	bl	e10 <__mriCore_SendPacketToGdb>
    3168:	2002      	movs	r0, #2
    316a:	bd10      	pop	{r4, pc}

0000316c <__mriCmd_HandleRegisterReadCommand>:
    316c:	b508      	push	{r3, lr}
    316e:	f7fd fe47 	bl	e00 <__mriCore_GetInitializedBuffer>
    3172:	f7fe fc6f 	bl	1a54 <__mriPlatform_CopyContextToBuffer>
    3176:	2000      	movs	r0, #0
    3178:	bd08      	pop	{r3, pc}
	...

0000317c <__mriCmd_HandleRegisterWriteCommand>:
    317c:	b510      	push	{r4, lr}
    317e:	f7fd fe3b 	bl	df8 <__mriCore_GetBuffer>
    3182:	4604      	mov	r4, r0
    3184:	f7fe fc76 	bl	1a74 <__mriPlatform_CopyContextFromBuffer>
    3188:	4620      	mov	r0, r4
    318a:	f7ff fa33 	bl	25f4 <__mriBuffer_OverrunDetected>
    318e:	b108      	cbz	r0, 3194 <__mriCmd_HandleRegisterWriteCommand+0x18>
    3190:	4803      	ldr	r0, [pc, #12]	; (31a0 <__mriCmd_HandleRegisterWriteCommand+0x24>)
    3192:	e000      	b.n	3196 <__mriCmd_HandleRegisterWriteCommand+0x1a>
    3194:	4803      	ldr	r0, [pc, #12]	; (31a4 <__mriCmd_HandleRegisterWriteCommand+0x28>)
    3196:	f7fd fdc5 	bl	d24 <__mriCore_PrepareStringResponse>
    319a:	2000      	movs	r0, #0
    319c:	bd10      	pop	{r4, pc}
    319e:	bf00      	nop
    31a0:	0000b524 	.word	0x0000b524
    31a4:	0000c0db 	.word	0x0000c0db

000031a8 <__mriCmd_HandleSingleStepCommand>:
    31a8:	b508      	push	{r3, lr}
    31aa:	f7ff fcbd 	bl	2b28 <__mriCmd_HandleContinueCommand>
    31ae:	0743      	lsls	r3, r0, #29
    31b0:	d503      	bpl.n	31ba <__mriCmd_HandleSingleStepCommand+0x12>
    31b2:	e8bd 4008 	ldmia.w	sp!, {r3, lr}
    31b6:	f7ff bfc5 	b.w	3144 <__mriCmd_Send_T_StopResponse>
    31ba:	f7fe fa23 	bl	1604 <__mriPlatform_EnableSingleStep>
    31be:	2003      	movs	r0, #3
    31c0:	bd08      	pop	{r3, pc}

000031c2 <__mriGdbConsole_WriteString>:
    31c2:	b538      	push	{r3, r4, r5, lr}
    31c4:	4605      	mov	r5, r0
    31c6:	f7fe fd81 	bl	1ccc <__mriPlatform_CommSharingWithApplication>
    31ca:	b150      	cbz	r0, 31e2 <__mriGdbConsole_WriteString+0x20>
    31cc:	f7fd fdf4 	bl	db8 <__mriCore_IsFirstException>
    31d0:	b138      	cbz	r0, 31e2 <__mriGdbConsole_WriteString+0x20>
    31d2:	e001      	b.n	31d8 <__mriGdbConsole_WriteString+0x16>
    31d4:	f7fe fd58 	bl	1c88 <__mriPlatform_CommSendChar>
    31d8:	f815 0b01 	ldrb.w	r0, [r5], #1
    31dc:	2800      	cmp	r0, #0
    31de:	d1f9      	bne.n	31d4 <__mriGdbConsole_WriteString+0x12>
    31e0:	bd38      	pop	{r3, r4, r5, pc}
    31e2:	f7fd fe0d 	bl	e00 <__mriCore_GetInitializedBuffer>
    31e6:	214f      	movs	r1, #79	; 0x4f
    31e8:	4604      	mov	r4, r0
    31ea:	f7ff fa0b 	bl	2604 <__mriBuffer_WriteChar>
    31ee:	4628      	mov	r0, r5
    31f0:	f003 fe41 	bl	6e76 <strlen>
    31f4:	4629      	mov	r1, r5
    31f6:	4602      	mov	r2, r0
    31f8:	4620      	mov	r0, r4
    31fa:	f000 f890 	bl	331e <__mriMem_ReadMemoryIntoHexBuffer>
    31fe:	4620      	mov	r0, r4
    3200:	f7ff f9f8 	bl	25f4 <__mriBuffer_OverrunDetected>
    3204:	b918      	cbnz	r0, 320e <__mriGdbConsole_WriteString+0x4c>
    3206:	e8bd 4038 	ldmia.w	sp!, {r3, r4, r5, lr}
    320a:	f7fd be01 	b.w	e10 <__mriCore_SendPacketToGdb>
    320e:	bd38      	pop	{r3, r4, r5, pc}

00003210 <__mriGdbConsole_WriteHexValue>:
    3210:	b510      	push	{r4, lr}
    3212:	b086      	sub	sp, #24
    3214:	220b      	movs	r2, #11
    3216:	4604      	mov	r4, r0
    3218:	a903      	add	r1, sp, #12
    321a:	4668      	mov	r0, sp
    321c:	f7ff f9c2 	bl	25a4 <__mriBuffer_Init>
    3220:	4668      	mov	r0, sp
    3222:	4908      	ldr	r1, [pc, #32]	; (3244 <__mriGdbConsole_WriteHexValue+0x34>)
    3224:	f7ff fa6c 	bl	2700 <__mriBuffer_WriteString>
    3228:	4668      	mov	r0, sp
    322a:	4621      	mov	r1, r4
    322c:	f7ff faa8 	bl	2780 <__mriBuffer_WriteUIntegerAsHex>
    3230:	4668      	mov	r0, sp
    3232:	2100      	movs	r1, #0
    3234:	f7ff f9e6 	bl	2604 <__mriBuffer_WriteChar>
    3238:	a803      	add	r0, sp, #12
    323a:	f7ff ffc2 	bl	31c2 <__mriGdbConsole_WriteString>
    323e:	b006      	add	sp, #24
    3240:	bd10      	pop	{r4, pc}
    3242:	bf00      	nop
    3244:	0000c1a2 	.word	0x0000c1a2

00003248 <writeBinaryBufferToByteMemory>:
    3248:	e92d 43f8 	stmdb	sp!, {r3, r4, r5, r6, r7, r8, r9, lr}
    324c:	4604      	mov	r4, r0
    324e:	4616      	mov	r6, r2
    3250:	4688      	mov	r8, r1
    3252:	4d15      	ldr	r5, [pc, #84]	; (32a8 <writeBinaryBufferToByteMemory+0x60>)
    3254:	f04f 0900 	mov.w	r9, #0
    3258:	e01a      	b.n	3290 <writeBinaryBufferToByteMemory+0x48>
    325a:	4620      	mov	r0, r4
    325c:	f8c5 9000 	str.w	r9, [r5]
    3260:	f7ff f9e2 	bl	2628 <__mriBuffer_ReadChar>
    3264:	682f      	ldr	r7, [r5, #0]
    3266:	b95f      	cbnz	r7, 3280 <writeBinaryBufferToByteMemory+0x38>
    3268:	287d      	cmp	r0, #125	; 0x7d
    326a:	d109      	bne.n	3280 <writeBinaryBufferToByteMemory+0x38>
    326c:	4620      	mov	r0, r4
    326e:	f7ff f9db 	bl	2628 <__mriBuffer_ReadChar>
    3272:	682b      	ldr	r3, [r5, #0]
    3274:	b91b      	cbnz	r3, 327e <writeBinaryBufferToByteMemory+0x36>
    3276:	f080 0020 	eor.w	r0, r0, #32
    327a:	b2c0      	uxtb	r0, r0
    327c:	e000      	b.n	3280 <writeBinaryBufferToByteMemory+0x38>
    327e:	4638      	mov	r0, r7
    3280:	682f      	ldr	r7, [r5, #0]
    3282:	b957      	cbnz	r7, 329a <writeBinaryBufferToByteMemory+0x52>
    3284:	f808 0b01 	strb.w	r0, [r8], #1
    3288:	f7fe fbb4 	bl	19f4 <__mriPlatform_WasMemoryFaultEncountered>
    328c:	3e01      	subs	r6, #1
    328e:	b938      	cbnz	r0, 32a0 <writeBinaryBufferToByteMemory+0x58>
    3290:	2e00      	cmp	r6, #0
    3292:	d1e2      	bne.n	325a <writeBinaryBufferToByteMemory+0x12>
    3294:	2001      	movs	r0, #1
    3296:	e8bd 83f8 	ldmia.w	sp!, {r3, r4, r5, r6, r7, r8, r9, pc}
    329a:	2000      	movs	r0, #0
    329c:	e8bd 83f8 	ldmia.w	sp!, {r3, r4, r5, r6, r7, r8, r9, pc}
    32a0:	4638      	mov	r0, r7
    32a2:	e8bd 83f8 	ldmia.w	sp!, {r3, r4, r5, r6, r7, r8, r9, pc}
    32a6:	bf00      	nop
    32a8:	10000724 	.word	0x10000724

000032ac <writeHexBufferToByteMemory>:
    32ac:	e92d 43f8 	stmdb	sp!, {r3, r4, r5, r6, r7, r8, r9, lr}
    32b0:	4604      	mov	r4, r0
    32b2:	4615      	mov	r5, r2
    32b4:	4688      	mov	r8, r1
    32b6:	4f0e      	ldr	r7, [pc, #56]	; (32f0 <writeHexBufferToByteMemory+0x44>)
    32b8:	f04f 0900 	mov.w	r9, #0
    32bc:	e00c      	b.n	32d8 <writeHexBufferToByteMemory+0x2c>
    32be:	f8c7 9000 	str.w	r9, [r7]
    32c2:	4620      	mov	r0, r4
    32c4:	f7ff f9e0 	bl	2688 <__mriBuffer_ReadByteAsHex>
    32c8:	683e      	ldr	r6, [r7, #0]
    32ca:	b956      	cbnz	r6, 32e2 <writeHexBufferToByteMemory+0x36>
    32cc:	f808 0b01 	strb.w	r0, [r8], #1
    32d0:	f7fe fb90 	bl	19f4 <__mriPlatform_WasMemoryFaultEncountered>
    32d4:	3d01      	subs	r5, #1
    32d6:	b938      	cbnz	r0, 32e8 <writeHexBufferToByteMemory+0x3c>
    32d8:	2d00      	cmp	r5, #0
    32da:	d1f0      	bne.n	32be <writeHexBufferToByteMemory+0x12>
    32dc:	2001      	movs	r0, #1
    32de:	e8bd 83f8 	ldmia.w	sp!, {r3, r4, r5, r6, r7, r8, r9, pc}
    32e2:	2000      	movs	r0, #0
    32e4:	e8bd 83f8 	ldmia.w	sp!, {r3, r4, r5, r6, r7, r8, r9, pc}
    32e8:	4630      	mov	r0, r6
    32ea:	e8bd 83f8 	ldmia.w	sp!, {r3, r4, r5, r6, r7, r8, r9, pc}
    32ee:	bf00      	nop
    32f0:	10000724 	.word	0x10000724

000032f4 <readMemoryBytesIntoHexBuffer>:
    32f4:	b5f8      	push	{r3, r4, r5, r6, r7, lr}
    32f6:	4604      	mov	r4, r0
    32f8:	4616      	mov	r6, r2
    32fa:	460d      	mov	r5, r1
    32fc:	e009      	b.n	3312 <readMemoryBytesIntoHexBuffer+0x1e>
    32fe:	782f      	ldrb	r7, [r5, #0]
    3300:	f7fe fb78 	bl	19f4 <__mriPlatform_WasMemoryFaultEncountered>
    3304:	3e01      	subs	r6, #1
    3306:	b940      	cbnz	r0, 331a <readMemoryBytesIntoHexBuffer+0x26>
    3308:	4620      	mov	r0, r4
    330a:	4639      	mov	r1, r7
    330c:	3501      	adds	r5, #1
    330e:	f7ff f99f 	bl	2650 <__mriBuffer_WriteByteAsHex>
    3312:	2e00      	cmp	r6, #0
    3314:	d1f3      	bne.n	32fe <readMemoryBytesIntoHexBuffer+0xa>
    3316:	2001      	movs	r0, #1
    3318:	bdf8      	pop	{r3, r4, r5, r6, r7, pc}
    331a:	2000      	movs	r0, #0
    331c:	bdf8      	pop	{r3, r4, r5, r6, r7, pc}

0000331e <__mriMem_ReadMemoryIntoHexBuffer>:
    331e:	2a02      	cmp	r2, #2
    3320:	b537      	push	{r0, r1, r2, r4, r5, lr}
    3322:	4604      	mov	r4, r0
    3324:	4615      	mov	r5, r2
    3326:	d002      	beq.n	332e <__mriMem_ReadMemoryIntoHexBuffer+0x10>
    3328:	2a04      	cmp	r2, #4
    332a:	d116      	bne.n	335a <__mriMem_ReadMemoryIntoHexBuffer+0x3c>
    332c:	e009      	b.n	3342 <__mriMem_ReadMemoryIntoHexBuffer+0x24>
    332e:	880b      	ldrh	r3, [r1, #0]
    3330:	f8ad 3006 	strh.w	r3, [sp, #6]
    3334:	f7fe fb5e 	bl	19f4 <__mriPlatform_WasMemoryFaultEncountered>
    3338:	b990      	cbnz	r0, 3360 <__mriMem_ReadMemoryIntoHexBuffer+0x42>
    333a:	4620      	mov	r0, r4
    333c:	f10d 0106 	add.w	r1, sp, #6
    3340:	e006      	b.n	3350 <__mriMem_ReadMemoryIntoHexBuffer+0x32>
    3342:	680b      	ldr	r3, [r1, #0]
    3344:	9300      	str	r3, [sp, #0]
    3346:	f7fe fb55 	bl	19f4 <__mriPlatform_WasMemoryFaultEncountered>
    334a:	b948      	cbnz	r0, 3360 <__mriMem_ReadMemoryIntoHexBuffer+0x42>
    334c:	4620      	mov	r0, r4
    334e:	4669      	mov	r1, sp
    3350:	462a      	mov	r2, r5
    3352:	f7ff ffcf 	bl	32f4 <readMemoryBytesIntoHexBuffer>
    3356:	2001      	movs	r0, #1
    3358:	e003      	b.n	3362 <__mriMem_ReadMemoryIntoHexBuffer+0x44>
    335a:	f7ff ffcb 	bl	32f4 <readMemoryBytesIntoHexBuffer>
    335e:	e000      	b.n	3362 <__mriMem_ReadMemoryIntoHexBuffer+0x44>
    3360:	2000      	movs	r0, #0
    3362:	bd3e      	pop	{r1, r2, r3, r4, r5, pc}

00003364 <__mriMem_WriteHexBufferToMemory>:
    3364:	2a02      	cmp	r2, #2
    3366:	b513      	push	{r0, r1, r4, lr}
    3368:	460c      	mov	r4, r1
    336a:	d002      	beq.n	3372 <__mriMem_WriteHexBufferToMemory+0xe>
    336c:	2a04      	cmp	r2, #4
    336e:	d116      	bne.n	339e <__mriMem_WriteHexBufferToMemory+0x3a>
    3370:	e008      	b.n	3384 <__mriMem_WriteHexBufferToMemory+0x20>
    3372:	f10d 0106 	add.w	r1, sp, #6
    3376:	f7ff ff99 	bl	32ac <writeHexBufferToByteMemory>
    337a:	b190      	cbz	r0, 33a2 <__mriMem_WriteHexBufferToMemory+0x3e>
    337c:	f8bd 3006 	ldrh.w	r3, [sp, #6]
    3380:	8023      	strh	r3, [r4, #0]
    3382:	e005      	b.n	3390 <__mriMem_WriteHexBufferToMemory+0x2c>
    3384:	4669      	mov	r1, sp
    3386:	f7ff ff91 	bl	32ac <writeHexBufferToByteMemory>
    338a:	b150      	cbz	r0, 33a2 <__mriMem_WriteHexBufferToMemory+0x3e>
    338c:	9b00      	ldr	r3, [sp, #0]
    338e:	6023      	str	r3, [r4, #0]
    3390:	f7fe fb30 	bl	19f4 <__mriPlatform_WasMemoryFaultEncountered>
    3394:	f1d0 0001 	rsbs	r0, r0, #1
    3398:	bf38      	it	cc
    339a:	2000      	movcc	r0, #0
    339c:	e001      	b.n	33a2 <__mriMem_WriteHexBufferToMemory+0x3e>
    339e:	f7ff ff85 	bl	32ac <writeHexBufferToByteMemory>
    33a2:	bd1c      	pop	{r2, r3, r4, pc}

000033a4 <__mriMem_WriteBinaryBufferToMemory>:
    33a4:	2a02      	cmp	r2, #2
    33a6:	b513      	push	{r0, r1, r4, lr}
    33a8:	460c      	mov	r4, r1
    33aa:	d002      	beq.n	33b2 <__mriMem_WriteBinaryBufferToMemory+0xe>
    33ac:	2a04      	cmp	r2, #4
    33ae:	d116      	bne.n	33de <__mriMem_WriteBinaryBufferToMemory+0x3a>
    33b0:	e008      	b.n	33c4 <__mriMem_WriteBinaryBufferToMemory+0x20>
    33b2:	f10d 0106 	add.w	r1, sp, #6
    33b6:	f7ff ff47 	bl	3248 <writeBinaryBufferToByteMemory>
    33ba:	b190      	cbz	r0, 33e2 <__mriMem_WriteBinaryBufferToMemory+0x3e>
    33bc:	f8bd 3006 	ldrh.w	r3, [sp, #6]
    33c0:	8023      	strh	r3, [r4, #0]
    33c2:	e005      	b.n	33d0 <__mriMem_WriteBinaryBufferToMemory+0x2c>
    33c4:	4669      	mov	r1, sp
    33c6:	f7ff ff3f 	bl	3248 <writeBinaryBufferToByteMemory>
    33ca:	b150      	cbz	r0, 33e2 <__mriMem_WriteBinaryBufferToMemory+0x3e>
    33cc:	9b00      	ldr	r3, [sp, #0]
    33ce:	6023      	str	r3, [r4, #0]
    33d0:	f7fe fb10 	bl	19f4 <__mriPlatform_WasMemoryFaultEncountered>
    33d4:	f1d0 0001 	rsbs	r0, r0, #1
    33d8:	bf38      	it	cc
    33da:	2000      	movcc	r0, #0
    33dc:	e001      	b.n	33e2 <__mriMem_WriteBinaryBufferToMemory+0x3e>
    33de:	f7ff ff33 	bl	3248 <writeBinaryBufferToByteMemory>
    33e2:	bd1c      	pop	{r2, r3, r4, pc}

000033e4 <Reset_Handler>:
    33e4:	4907      	ldr	r1, [pc, #28]	; (3404 <.flash_to_ram_loop+0x1a>)
    33e6:	4a08      	ldr	r2, [pc, #32]	; (3408 <.flash_to_ram_loop+0x1e>)
    33e8:	4b08      	ldr	r3, [pc, #32]	; (340c <.flash_to_ram_loop+0x22>)

000033ea <.flash_to_ram_loop>:
    33ea:	429a      	cmp	r2, r3
    33ec:	bfbe      	ittt	lt
    33ee:	f851 0b04 	ldrlt.w	r0, [r1], #4
    33f2:	f842 0b04 	strlt.w	r0, [r2], #4
    33f6:	f7ff bff8 	blt.w	33ea <.flash_to_ram_loop>
    33fa:	4805      	ldr	r0, [pc, #20]	; (3410 <.flash_to_ram_loop+0x26>)
    33fc:	4780      	blx	r0
    33fe:	4805      	ldr	r0, [pc, #20]	; (3414 <.flash_to_ram_loop+0x2a>)
    3400:	4700      	bx	r0
    3402:	0000      	.short	0x0000
    3404:	0000ca8c 	.word	0x0000ca8c
    3408:	100000c8 	.word	0x100000c8
    340c:	1000020c 	.word	0x1000020c
    3410:	000034cd 	.word	0x000034cd
    3414:	00000bbd 	.word	0x00000bbd

00003418 <NMI_Handler>:
    3418:	e7fe      	b.n	3418 <NMI_Handler>
    341a:	e7fe      	b.n	341a <NMI_Handler+0x2>
    341c:	e7fe      	b.n	341c <NMI_Handler+0x4>
    341e:	e7fe      	b.n	341e <NMI_Handler+0x6>
    3420:	e7fe      	b.n	3420 <NMI_Handler+0x8>

00003422 <SVC_Handler>:
    3422:	e7fe      	b.n	3422 <SVC_Handler>
    3424:	e7fe      	b.n	3424 <SVC_Handler+0x2>

00003426 <PendSV_Handler>:
    3426:	e7fe      	b.n	3426 <PendSV_Handler>

00003428 <SysTick_Handler>:
    3428:	e7fe      	b.n	3428 <SysTick_Handler>

0000342a <DEF_IRQHandler>:
    342a:	e7fe      	b.n	342a <DEF_IRQHandler>

0000342c <WDT_IRQHandler>:
    342c:	e7fe      	b.n	342c <WDT_IRQHandler>

0000342e <TIMER0_IRQHandler>:
    342e:	e7fe      	b.n	342e <TIMER0_IRQHandler>

00003430 <TIMER1_IRQHandler>:
    3430:	e7fe      	b.n	3430 <TIMER1_IRQHandler>

00003432 <TIMER2_IRQHandler>:
    3432:	e7fe      	b.n	3432 <TIMER2_IRQHandler>

00003434 <TIMER3_IRQHandler>:
    3434:	e7fe      	b.n	3434 <TIMER3_IRQHandler>
    3436:	e7fe      	b.n	3436 <TIMER3_IRQHandler+0x2>
    3438:	e7fe      	b.n	3438 <TIMER3_IRQHandler+0x4>
    343a:	e7fe      	b.n	343a <TIMER3_IRQHandler+0x6>
    343c:	e7fe      	b.n	343c <TIMER3_IRQHandler+0x8>

0000343e <PWM1_IRQHandler>:
    343e:	e7fe      	b.n	343e <PWM1_IRQHandler>

00003440 <I2C0_IRQHandler>:
    3440:	e7fe      	b.n	3440 <I2C0_IRQHandler>

00003442 <I2C1_IRQHandler>:
    3442:	e7fe      	b.n	3442 <I2C1_IRQHandler>

00003444 <I2C2_IRQHandler>:
    3444:	e7fe      	b.n	3444 <I2C2_IRQHandler>

00003446 <SPI_IRQHandler>:
    3446:	e7fe      	b.n	3446 <SPI_IRQHandler>

00003448 <SSP0_IRQHandler>:
    3448:	e7fe      	b.n	3448 <SSP0_IRQHandler>

0000344a <SSP1_IRQHandler>:
    344a:	e7fe      	b.n	344a <SSP1_IRQHandler>

0000344c <PLL0_IRQHandler>:
    344c:	e7fe      	b.n	344c <PLL0_IRQHandler>

0000344e <RTC_IRQHandler>:
    344e:	e7fe      	b.n	344e <RTC_IRQHandler>

00003450 <EINT0_IRQHandler>:
    3450:	e7fe      	b.n	3450 <EINT0_IRQHandler>

00003452 <EINT1_IRQHandler>:
    3452:	e7fe      	b.n	3452 <EINT1_IRQHandler>

00003454 <EINT2_IRQHandler>:
    3454:	e7fe      	b.n	3454 <EINT2_IRQHandler>

00003456 <EINT3_IRQHandler>:
    3456:	e7fe      	b.n	3456 <EINT3_IRQHandler>

00003458 <ADC_IRQHandler>:
    3458:	e7fe      	b.n	3458 <ADC_IRQHandler>

0000345a <BOD_IRQHandler>:
    345a:	e7fe      	b.n	345a <BOD_IRQHandler>

0000345c <USB_IRQHandler>:
    345c:	e7fe      	b.n	345c <USB_IRQHandler>

0000345e <CAN_IRQHandler>:
    345e:	e7fe      	b.n	345e <CAN_IRQHandler>

00003460 <DMA_IRQHandler>:
    3460:	e7fe      	b.n	3460 <DMA_IRQHandler>

00003462 <I2S_IRQHandler>:
    3462:	e7fe      	b.n	3462 <I2S_IRQHandler>

00003464 <ENET_IRQHandler>:
    3464:	e7fe      	b.n	3464 <ENET_IRQHandler>

00003466 <RIT_IRQHandler>:
    3466:	e7fe      	b.n	3466 <RIT_IRQHandler>

00003468 <MCPWM_IRQHandler>:
    3468:	e7fe      	b.n	3468 <MCPWM_IRQHandler>

0000346a <QEI_IRQHandler>:
