
LPC1768/EegTire.elf:     file format elf32-littlearm
architecture: arm, flags 0x00000112:
EXEC_P, HAS_SYMS, D_PAGED
start address 0x00004e99


Disassembly of section .text:

00000000 <__isr_vector>:
       0:	10008000 	.word	0x10008000
       4:	00004e99 	.word	0x00004e99
       8:	00004ec9 	.word	0x00004ec9
       c:	0000260b 	.word	0x0000260b
      10:	0000260f 	.word	0x0000260f
      14:	00002613 	.word	0x00002613
      18:	00002617 	.word	0x00002617
	...
      2c:	00004ed3 	.word	0x00004ed3
      30:	0000261b 	.word	0x0000261b
      34:	00000000 	.word	0x00000000
      38:	00004ed7 	.word	0x00004ed7
      3c:	00004ed9 	.word	0x00004ed9
      40:	00004edb 	.word	0x00004edb
      44:	00004edb 	.word	0x00004edb
      48:	00004edb 	.word	0x00004edb
      4c:	00004edb 	.word	0x00004edb
      50:	00004edb 	.word	0x00004edb
      54:	0000261f 	.word	0x0000261f
      58:	00002623 	.word	0x00002623
      5c:	00002627 	.word	0x00002627
      60:	0000262b 	.word	0x0000262b
      64:	00004edb 	.word	0x00004edb
      68:	00004edb 	.word	0x00004edb
      6c:	00004edb 	.word	0x00004edb
      70:	00004edb 	.word	0x00004edb
      74:	00004edb 	.word	0x00004edb
      78:	00004edb 	.word	0x00004edb
      7c:	00004edb 	.word	0x00004edb
      80:	00004edb 	.word	0x00004edb
      84:	00004edb 	.word	0x00004edb
      88:	00004edb 	.word	0x00004edb
      8c:	00004edb 	.word	0x00004edb
      90:	00004edb 	.word	0x00004edb
      94:	00004edb 	.word	0x00004edb
      98:	00004edb 	.word	0x00004edb
      9c:	00004edb 	.word	0x00004edb
      a0:	00004edb 	.word	0x00004edb
      a4:	00004edb 	.word	0x00004edb
      a8:	00004edb 	.word	0x00004edb
      ac:	00004edb 	.word	0x00004edb
      b0:	00004edb 	.word	0x00004edb
      b4:	00004edb 	.word	0x00004edb
      b8:	00004edb 	.word	0x00004edb
      bc:	00004edb 	.word	0x00004edb
      c0:	00004edb 	.word	0x00004edb
      c4:	00004edb 	.word	0x00004edb
      c8:	00004edb 	.word	0x00004edb

000000cc <__do_global_dtors_aux>:
      cc:	b510      	push	{r4, lr}
      ce:	4c05      	ldr	r4, [pc, #20]	; (e4 <__do_global_dtors_aux+0x18>)
      d0:	7823      	ldrb	r3, [r4, #0]
      d2:	b933      	cbnz	r3, e2 <__do_global_dtors_aux+0x16>
      d4:	4b04      	ldr	r3, [pc, #16]	; (e8 <__do_global_dtors_aux+0x1c>)
      d6:	b113      	cbz	r3, de <__do_global_dtors_aux+0x12>
      d8:	4804      	ldr	r0, [pc, #16]	; (ec <__do_global_dtors_aux+0x20>)
      da:	f3af 8000 	nop.w
      de:	2301      	movs	r3, #1
      e0:	7023      	strb	r3, [r4, #0]
      e2:	bd10      	pop	{r4, pc}
      e4:	10000188 	.word	0x10000188
      e8:	00000000 	.word	0x00000000
      ec:	0000e19c 	.word	0x0000e19c

000000f0 <frame_dummy>:
      f0:	b508      	push	{r3, lr}
      f2:	4b06      	ldr	r3, [pc, #24]	; (10c <frame_dummy+0x1c>)
      f4:	b11b      	cbz	r3, fe <frame_dummy+0xe>
      f6:	4806      	ldr	r0, [pc, #24]	; (110 <frame_dummy+0x20>)
      f8:	4906      	ldr	r1, [pc, #24]	; (114 <frame_dummy+0x24>)
      fa:	f3af 8000 	nop.w
      fe:	4806      	ldr	r0, [pc, #24]	; (118 <frame_dummy+0x28>)
     100:	6803      	ldr	r3, [r0, #0]
     102:	b113      	cbz	r3, 10a <frame_dummy+0x1a>
     104:	4b05      	ldr	r3, [pc, #20]	; (11c <frame_dummy+0x2c>)
     106:	b103      	cbz	r3, 10a <frame_dummy+0x1a>
     108:	4798      	blx	r3
     10a:	bd08      	pop	{r3, pc}
     10c:	00000000 	.word	0x00000000
     110:	0000e19c 	.word	0x0000e19c
     114:	1000018c 	.word	0x1000018c
     118:	10000188 	.word	0x10000188
     11c:	00000000 	.word	0x00000000

00000120 <NVIC_EnableIRQ>:
     120:	b082      	sub	sp, #8
     122:	4603      	mov	r3, r0
     124:	f88d 3007 	strb.w	r3, [sp, #7]
     128:	4b07      	ldr	r3, [pc, #28]	; (148 <NVIC_EnableIRQ+0x28>)
     12a:	f99d 2007 	ldrsb.w	r2, [sp, #7]
     12e:	0952      	lsrs	r2, r2, #5
     130:	f89d 1007 	ldrb.w	r1, [sp, #7]
     134:	f001 011f 	and.w	r1, r1, #31
     138:	2001      	movs	r0, #1
     13a:	fa00 f101 	lsl.w	r1, r0, r1
     13e:	f843 1022 	str.w	r1, [r3, r2, lsl #2]
     142:	b002      	add	sp, #8
     144:	4770      	bx	lr
     146:	bf00      	nop
     148:	e000e100 	.word	0xe000e100

0000014c <NVIC_DisableIRQ>:
     14c:	b082      	sub	sp, #8
     14e:	4603      	mov	r3, r0
     150:	f88d 3007 	strb.w	r3, [sp, #7]
     154:	4b07      	ldr	r3, [pc, #28]	; (174 <NVIC_DisableIRQ+0x28>)
     156:	f99d 2007 	ldrsb.w	r2, [sp, #7]
     15a:	0952      	lsrs	r2, r2, #5
     15c:	f89d 1007 	ldrb.w	r1, [sp, #7]
     160:	f001 011f 	and.w	r1, r1, #31
     164:	2001      	movs	r0, #1
     166:	fa00 f101 	lsl.w	r1, r0, r1
     16a:	3220      	adds	r2, #32
     16c:	f843 1022 	str.w	r1, [r3, r2, lsl #2]
     170:	b002      	add	sp, #8
     172:	4770      	bx	lr
     174:	e000e100 	.word	0xe000e100

00000178 <gpio_write>:
     178:	b082      	sub	sp, #8
     17a:	9001      	str	r0, [sp, #4]
     17c:	9100      	str	r1, [sp, #0]
     17e:	9b00      	ldr	r3, [sp, #0]
     180:	2b00      	cmp	r3, #0
     182:	d005      	beq.n	190 <gpio_write+0x18>
     184:	9b01      	ldr	r3, [sp, #4]
     186:	68db      	ldr	r3, [r3, #12]
     188:	9a01      	ldr	r2, [sp, #4]
     18a:	6852      	ldr	r2, [r2, #4]
     18c:	601a      	str	r2, [r3, #0]
     18e:	e004      	b.n	19a <gpio_write+0x22>
     190:	9b01      	ldr	r3, [sp, #4]
     192:	691b      	ldr	r3, [r3, #16]
     194:	9a01      	ldr	r2, [sp, #4]
     196:	6852      	ldr	r2, [r2, #4]
     198:	601a      	str	r2, [r3, #0]
     19a:	b002      	add	sp, #8
     19c:	4770      	bx	lr
     19e:	bf00      	nop

000001a0 <gpio_read>:
     1a0:	b082      	sub	sp, #8
     1a2:	9001      	str	r0, [sp, #4]
     1a4:	9b01      	ldr	r3, [sp, #4]
     1a6:	695b      	ldr	r3, [r3, #20]
     1a8:	681a      	ldr	r2, [r3, #0]
     1aa:	9b01      	ldr	r3, [sp, #4]
     1ac:	685b      	ldr	r3, [r3, #4]
     1ae:	4013      	ands	r3, r2
     1b0:	2b00      	cmp	r3, #0
     1b2:	d001      	beq.n	1b8 <gpio_read+0x18>
     1b4:	2301      	movs	r3, #1
     1b6:	e000      	b.n	1ba <gpio_read+0x1a>
     1b8:	2300      	movs	r3, #0
     1ba:	4618      	mov	r0, r3
     1bc:	b002      	add	sp, #8
     1be:	4770      	bx	lr

000001c0 <mbed::DigitalOut::DigitalOut(PinName)>:
     1c0:	b500      	push	{lr}
     1c2:	b083      	sub	sp, #12
     1c4:	9001      	str	r0, [sp, #4]
     1c6:	9100      	str	r1, [sp, #0]
     1c8:	9b01      	ldr	r3, [sp, #4]
     1ca:	2200      	movs	r2, #0
     1cc:	601a      	str	r2, [r3, #0]
     1ce:	9b01      	ldr	r3, [sp, #4]
     1d0:	2200      	movs	r2, #0
     1d2:	605a      	str	r2, [r3, #4]
     1d4:	9b01      	ldr	r3, [sp, #4]
     1d6:	2200      	movs	r2, #0
     1d8:	609a      	str	r2, [r3, #8]
     1da:	9b01      	ldr	r3, [sp, #4]
     1dc:	2200      	movs	r2, #0
     1de:	60da      	str	r2, [r3, #12]
     1e0:	9b01      	ldr	r3, [sp, #4]
     1e2:	2200      	movs	r2, #0
     1e4:	611a      	str	r2, [r3, #16]
     1e6:	9b01      	ldr	r3, [sp, #4]
     1e8:	2200      	movs	r2, #0
     1ea:	615a      	str	r2, [r3, #20]
     1ec:	9b01      	ldr	r3, [sp, #4]
     1ee:	4618      	mov	r0, r3
     1f0:	9900      	ldr	r1, [sp, #0]
     1f2:	f003 fed7 	bl	3fa4 <gpio_init_out>
     1f6:	9b01      	ldr	r3, [sp, #4]
     1f8:	4618      	mov	r0, r3
     1fa:	b003      	add	sp, #12
     1fc:	f85d fb04 	ldr.w	pc, [sp], #4

00000200 <mbed::DigitalOut::write(int)>:
     200:	b500      	push	{lr}
     202:	b083      	sub	sp, #12
     204:	9001      	str	r0, [sp, #4]
     206:	9100      	str	r1, [sp, #0]
     208:	9b01      	ldr	r3, [sp, #4]
     20a:	4618      	mov	r0, r3
     20c:	9900      	ldr	r1, [sp, #0]
     20e:	f7ff ffb3 	bl	178 <gpio_write>
     212:	b003      	add	sp, #12
     214:	f85d fb04 	ldr.w	pc, [sp], #4

00000218 <mbed::DigitalOut::read()>:
     218:	b500      	push	{lr}
     21a:	b083      	sub	sp, #12
     21c:	9001      	str	r0, [sp, #4]
     21e:	9b01      	ldr	r3, [sp, #4]
     220:	4618      	mov	r0, r3
     222:	f7ff ffbd 	bl	1a0 <gpio_read>
     226:	4603      	mov	r3, r0
     228:	4618      	mov	r0, r3
     22a:	b003      	add	sp, #12
     22c:	f85d fb04 	ldr.w	pc, [sp], #4

00000230 <mbed::DigitalOut::operator=(int)>:
     230:	b500      	push	{lr}
     232:	b083      	sub	sp, #12
     234:	9001      	str	r0, [sp, #4]
     236:	9100      	str	r1, [sp, #0]
     238:	9801      	ldr	r0, [sp, #4]
     23a:	9900      	ldr	r1, [sp, #0]
     23c:	f7ff ffe0 	bl	200 <mbed::DigitalOut::write(int)>
     240:	9b01      	ldr	r3, [sp, #4]
     242:	4618      	mov	r0, r3
     244:	b003      	add	sp, #12
     246:	f85d fb04 	ldr.w	pc, [sp], #4
     24a:	bf00      	nop

0000024c <mbed::DigitalOut::operator int()>:
     24c:	b500      	push	{lr}
     24e:	b083      	sub	sp, #12
     250:	9001      	str	r0, [sp, #4]
     252:	9801      	ldr	r0, [sp, #4]
     254:	f7ff ffe0 	bl	218 <mbed::DigitalOut::read()>
     258:	4603      	mov	r3, r0
     25a:	4618      	mov	r0, r3
     25c:	b003      	add	sp, #12
     25e:	f85d fb04 	ldr.w	pc, [sp], #4
     262:	bf00      	nop

00000264 <mbed::AnalogIn::AnalogIn(PinName)>:
     264:	b500      	push	{lr}
     266:	b083      	sub	sp, #12
     268:	9001      	str	r0, [sp, #4]
     26a:	9100      	str	r1, [sp, #0]
     26c:	9b01      	ldr	r3, [sp, #4]
     26e:	4618      	mov	r0, r3
     270:	9900      	ldr	r1, [sp, #0]
     272:	f003 fc33 	bl	3adc <analogin_init>
     276:	9b01      	ldr	r3, [sp, #4]
     278:	4618      	mov	r0, r3
     27a:	b003      	add	sp, #12
     27c:	f85d fb04 	ldr.w	pc, [sp], #4

00000280 <mbed::AnalogIn::read()>:
     280:	b500      	push	{lr}
     282:	b083      	sub	sp, #12
     284:	9001      	str	r0, [sp, #4]
     286:	9b01      	ldr	r3, [sp, #4]
     288:	4618      	mov	r0, r3
     28a:	f003 fce9 	bl	3c60 <analogin_read>
     28e:	4603      	mov	r3, r0
     290:	4618      	mov	r0, r3
     292:	b003      	add	sp, #12
     294:	f85d fb04 	ldr.w	pc, [sp], #4

00000298 <mbed::AnalogIn::operator float()>:
     298:	b500      	push	{lr}
     29a:	b083      	sub	sp, #12
     29c:	9001      	str	r0, [sp, #4]
     29e:	9801      	ldr	r0, [sp, #4]
     2a0:	f7ff ffee 	bl	280 <mbed::AnalogIn::read()>
     2a4:	4603      	mov	r3, r0
     2a6:	4618      	mov	r0, r3
     2a8:	b003      	add	sp, #12
     2aa:	f85d fb04 	ldr.w	pc, [sp], #4
     2ae:	bf00      	nop

000002b0 <mbed::AnalogOut::AnalogOut(PinName)>:
     2b0:	b500      	push	{lr}
     2b2:	b083      	sub	sp, #12
     2b4:	9001      	str	r0, [sp, #4]
     2b6:	9100      	str	r1, [sp, #0]
     2b8:	9b01      	ldr	r3, [sp, #4]
     2ba:	4618      	mov	r0, r3
     2bc:	9900      	ldr	r1, [sp, #0]
     2be:	f003 fce5 	bl	3c8c <analogout_init>
     2c2:	9b01      	ldr	r3, [sp, #4]
     2c4:	4618      	mov	r0, r3
     2c6:	b003      	add	sp, #12
     2c8:	f85d fb04 	ldr.w	pc, [sp], #4

000002cc <mbed::AnalogOut::write(float)>:
     2cc:	b500      	push	{lr}
     2ce:	b083      	sub	sp, #12
     2d0:	9001      	str	r0, [sp, #4]
     2d2:	9100      	str	r1, [sp, #0]
     2d4:	9b01      	ldr	r3, [sp, #4]
     2d6:	4618      	mov	r0, r3
     2d8:	9900      	ldr	r1, [sp, #0]
     2da:	f003 fd11 	bl	3d00 <analogout_write>
     2de:	b003      	add	sp, #12
     2e0:	f85d fb04 	ldr.w	pc, [sp], #4

000002e4 <mbed::AnalogOut::operator=(float)>:
     2e4:	b500      	push	{lr}
     2e6:	b083      	sub	sp, #12
     2e8:	9001      	str	r0, [sp, #4]
     2ea:	9100      	str	r1, [sp, #0]
     2ec:	9801      	ldr	r0, [sp, #4]
     2ee:	9900      	ldr	r1, [sp, #0]
     2f0:	f7ff ffec 	bl	2cc <mbed::AnalogOut::write(float)>
     2f4:	9b01      	ldr	r3, [sp, #4]
     2f6:	4618      	mov	r0, r3
     2f8:	b003      	add	sp, #12
     2fa:	f85d fb04 	ldr.w	pc, [sp], #4
     2fe:	bf00      	nop

00000300 <mbed::SerialBase::~SerialBase()>:
     300:	b500      	push	{lr}
     302:	b083      	sub	sp, #12
     304:	9001      	str	r0, [sp, #4]
     306:	9b01      	ldr	r3, [sp, #4]
     308:	4a06      	ldr	r2, [pc, #24]	; (324 <mbed::SerialBase::~SerialBase()+0x24>)
     30a:	601a      	str	r2, [r3, #0]
     30c:	2300      	movs	r3, #0
     30e:	2b00      	cmp	r3, #0
     310:	d002      	beq.n	318 <mbed::SerialBase::~SerialBase()+0x18>
     312:	9801      	ldr	r0, [sp, #4]
     314:	f006 fab2 	bl	687c <operator delete(void*)>
     318:	9b01      	ldr	r3, [sp, #4]
     31a:	4618      	mov	r0, r3
     31c:	b003      	add	sp, #12
     31e:	f85d fb04 	ldr.w	pc, [sp], #4
     322:	bf00      	nop
     324:	0000cc40 	.word	0x0000cc40

00000328 <mbed::SerialBase::~SerialBase()>:
     328:	b500      	push	{lr}
     32a:	b083      	sub	sp, #12
     32c:	9001      	str	r0, [sp, #4]
     32e:	9801      	ldr	r0, [sp, #4]
     330:	f7ff ffe6 	bl	300 <mbed::SerialBase::~SerialBase()>
     334:	9801      	ldr	r0, [sp, #4]
     336:	f006 faa1 	bl	687c <operator delete(void*)>
     33a:	9b01      	ldr	r3, [sp, #4]
     33c:	4618      	mov	r0, r3
     33e:	b003      	add	sp, #12
     340:	f85d fb04 	ldr.w	pc, [sp], #4

00000344 <mbed::Ticker::attach(void (*)(), float)>:
     344:	b500      	push	{lr}
     346:	b085      	sub	sp, #20
     348:	9003      	str	r0, [sp, #12]
     34a:	9102      	str	r1, [sp, #8]
     34c:	9201      	str	r2, [sp, #4]
     34e:	9801      	ldr	r0, [sp, #4]
     350:	4907      	ldr	r1, [pc, #28]	; (370 <mbed::Ticker::attach(void (*)(), float)+0x2c>)
     352:	f006 ffed 	bl	7330 <__aeabi_fmul>
     356:	4603      	mov	r3, r0
     358:	4618      	mov	r0, r3
     35a:	f007 f9d5 	bl	7708 <__aeabi_f2uiz>
     35e:	4603      	mov	r3, r0
     360:	9803      	ldr	r0, [sp, #12]
     362:	9902      	ldr	r1, [sp, #8]
     364:	461a      	mov	r2, r3
     366:	f000 f805 	bl	374 <mbed::Ticker::attach_us(void (*)(), unsigned int)>
     36a:	b005      	add	sp, #20
     36c:	f85d fb04 	ldr.w	pc, [sp], #4
     370:	49742400 	.word	0x49742400

00000374 <mbed::Ticker::attach_us(void (*)(), unsigned int)>:
     374:	b500      	push	{lr}
     376:	b085      	sub	sp, #20
     378:	9003      	str	r0, [sp, #12]
     37a:	9102      	str	r1, [sp, #8]
     37c:	9201      	str	r2, [sp, #4]
     37e:	9b03      	ldr	r3, [sp, #12]
     380:	3314      	adds	r3, #20
     382:	4618      	mov	r0, r3
     384:	9902      	ldr	r1, [sp, #8]
     386:	f003 ff1b 	bl	41c0 <mbed::FunctionPointer::attach(void (*)())>
     38a:	9803      	ldr	r0, [sp, #12]
     38c:	9901      	ldr	r1, [sp, #4]
     38e:	f004 fc73 	bl	4c78 <mbed::Ticker::setup(unsigned int)>
     392:	b005      	add	sp, #20
     394:	f85d fb04 	ldr.w	pc, [sp], #4

00000398 <init_relay_brake()>:
     398:	b508      	push	{r3, lr}
     39a:	4804      	ldr	r0, [pc, #16]	; (3ac <init_relay_brake()+0x14>)
     39c:	2100      	movs	r1, #0
     39e:	f7ff ff47 	bl	230 <mbed::DigitalOut::operator=(int)>
     3a2:	4803      	ldr	r0, [pc, #12]	; (3b0 <init_relay_brake()+0x18>)
     3a4:	2100      	movs	r1, #0
     3a6:	f7ff ff43 	bl	230 <mbed::DigitalOut::operator=(int)>
     3aa:	bd08      	pop	{r3, pc}
     3ac:	1000037c 	.word	0x1000037c
     3b0:	100003c4 	.word	0x100003c4

000003b4 <throttle_set(float)>:
     3b4:	b500      	push	{lr}
     3b6:	b083      	sub	sp, #12
     3b8:	9001      	str	r0, [sp, #4]
     3ba:	4b18      	ldr	r3, [pc, #96]	; (41c <CFSR_BUS_IMPRECISE_BIT+0x1c>)
     3bc:	9a01      	ldr	r2, [sp, #4]
     3be:	601a      	str	r2, [r3, #0]
     3c0:	4817      	ldr	r0, [pc, #92]	; (420 <CFSR_BUS_IMPRECISE_BIT+0x20>)
     3c2:	f7ff ff43 	bl	24c <mbed::DigitalOut::operator int()>
     3c6:	4603      	mov	r3, r0
     3c8:	2b00      	cmp	r3, #0
     3ca:	d107      	bne.n	3dc <throttle_set(float)+0x28>
     3cc:	4815      	ldr	r0, [pc, #84]	; (424 <CFSR_BUS_IMPRECISE_BIT+0x24>)
     3ce:	f004 fcc3 	bl	4d58 <mbed::Timer::read_ms()>
     3d2:	4603      	mov	r3, r0
     3d4:	2b00      	cmp	r3, #0
     3d6:	d101      	bne.n	3dc <throttle_set(float)+0x28>
     3d8:	2301      	movs	r3, #1
     3da:	e000      	b.n	3de <throttle_set(float)+0x2a>
     3dc:	2300      	movs	r3, #0
     3de:	2b00      	cmp	r3, #0
     3e0:	d007      	beq.n	3f2 <throttle_set(float)+0x3e>
     3e2:	480f      	ldr	r0, [pc, #60]	; (420 <CFSR_BUS_IMPRECISE_BIT+0x20>)
     3e4:	2101      	movs	r1, #1
     3e6:	f7ff ff23 	bl	230 <mbed::DigitalOut::operator=(int)>
     3ea:	480e      	ldr	r0, [pc, #56]	; (424 <CFSR_BUS_IMPRECISE_BIT+0x24>)
     3ec:	f004 fc86 	bl	4cfc <mbed::Timer::start()>
     3f0:	e010      	b.n	414 <CFSR_BUS_IMPRECISE_BIT+0x14>
     3f2:	480d      	ldr	r0, [pc, #52]	; (428 <CFSR_BUS_IMPRECISE_BIT+0x28>)
     3f4:	f004 fcb0 	bl	4d58 <mbed::Timer::read_ms()>
     3f8:	4603      	mov	r3, r0
     3fa:	2b00      	cmp	r3, #0
     3fc:	bf14      	ite	ne
     3fe:	2300      	movne	r3, #0
     400:	2301      	moveq	r3, #1
     402:	b2db      	uxtb	r3, r3
     404:	2b00      	cmp	r3, #0
     406:	d005      	beq.n	414 <CFSR_BUS_IMPRECISE_BIT+0x14>
     408:	4b04      	ldr	r3, [pc, #16]	; (41c <CFSR_BUS_IMPRECISE_BIT+0x1c>)
     40a:	681b      	ldr	r3, [r3, #0]
     40c:	4807      	ldr	r0, [pc, #28]	; (42c <CFSR_BUS_IMPRECISE_BIT+0x2c>)
     40e:	4619      	mov	r1, r3
     410:	f7ff ff68 	bl	2e4 <mbed::AnalogOut::operator=(float)>
     414:	b003      	add	sp, #12
     416:	f85d fb04 	ldr.w	pc, [sp], #4
     41a:	bf00      	nop
     41c:	100003e8 	.word	0x100003e8
     420:	1000037c 	.word	0x1000037c
     424:	100003dc 	.word	0x100003dc
     428:	100003ec 	.word	0x100003ec
     42c:	10000210 	.word	0x10000210

00000430 <throttle_clear()>:
     430:	b508      	push	{r3, lr}
     432:	480f      	ldr	r0, [pc, #60]	; (470 <throttle_clear()+0x40>)
     434:	f04f 0100 	mov.w	r1, #0
     438:	f7ff ff54 	bl	2e4 <mbed::AnalogOut::operator=(float)>
     43c:	480d      	ldr	r0, [pc, #52]	; (474 <throttle_clear()+0x44>)
     43e:	2100      	movs	r1, #0
     440:	f7ff fef6 	bl	230 <mbed::DigitalOut::operator=(int)>
     444:	480c      	ldr	r0, [pc, #48]	; (478 <throttle_clear()+0x48>)
     446:	f7ff ff01 	bl	24c <mbed::DigitalOut::operator int()>
     44a:	4603      	mov	r3, r0
     44c:	2b01      	cmp	r3, #1
     44e:	d107      	bne.n	460 <throttle_clear()+0x30>
     450:	480a      	ldr	r0, [pc, #40]	; (47c <throttle_clear()+0x4c>)
     452:	f004 fc81 	bl	4d58 <mbed::Timer::read_ms()>
     456:	4603      	mov	r3, r0
     458:	2b00      	cmp	r3, #0
     45a:	d101      	bne.n	460 <throttle_clear()+0x30>
     45c:	2301      	movs	r3, #1
     45e:	e000      	b.n	462 <throttle_clear()+0x32>
     460:	2300      	movs	r3, #0
     462:	2b00      	cmp	r3, #0
     464:	d002      	beq.n	46c <throttle_clear()+0x3c>
     466:	4805      	ldr	r0, [pc, #20]	; (47c <throttle_clear()+0x4c>)
     468:	f004 fc48 	bl	4cfc <mbed::Timer::start()>
     46c:	bd08      	pop	{r3, pc}
     46e:	bf00      	nop
     470:	10000210 	.word	0x10000210
     474:	100003c4 	.word	0x100003c4
     478:	1000037c 	.word	0x1000037c
     47c:	100003ec 	.word	0x100003ec

00000480 <relay_break_process()>:
     480:	b508      	push	{r3, lr}
     482:	481e      	ldr	r0, [pc, #120]	; (4fc <relay_break_process()+0x7c>)
     484:	f004 fc68 	bl	4d58 <mbed::Timer::read_ms()>
     488:	4602      	mov	r2, r0
     48a:	4b1d      	ldr	r3, [pc, #116]	; (500 <relay_break_process()+0x80>)
     48c:	681b      	ldr	r3, [r3, #0]
     48e:	f44f 717a 	mov.w	r1, #1000	; 0x3e8
     492:	fb01 f303 	mul.w	r3, r1, r3
     496:	429a      	cmp	r2, r3
     498:	bfb4      	ite	lt
     49a:	2300      	movlt	r3, #0
     49c:	2301      	movge	r3, #1
     49e:	b2db      	uxtb	r3, r3
     4a0:	2b00      	cmp	r3, #0
     4a2:	d00f      	beq.n	4c4 <relay_break_process()+0x44>
     4a4:	4b17      	ldr	r3, [pc, #92]	; (504 <relay_break_process()+0x84>)
     4a6:	681b      	ldr	r3, [r3, #0]
     4a8:	4817      	ldr	r0, [pc, #92]	; (508 <relay_break_process()+0x88>)
     4aa:	4619      	mov	r1, r3
     4ac:	f7ff ff1a 	bl	2e4 <mbed::AnalogOut::operator=(float)>
     4b0:	4816      	ldr	r0, [pc, #88]	; (50c <relay_break_process()+0x8c>)
     4b2:	2101      	movs	r1, #1
     4b4:	f7ff febc 	bl	230 <mbed::DigitalOut::operator=(int)>
     4b8:	4810      	ldr	r0, [pc, #64]	; (4fc <relay_break_process()+0x7c>)
     4ba:	f004 fc2d 	bl	4d18 <mbed::Timer::stop()>
     4be:	480f      	ldr	r0, [pc, #60]	; (4fc <relay_break_process()+0x7c>)
     4c0:	f004 fc72 	bl	4da8 <mbed::Timer::reset()>
     4c4:	4812      	ldr	r0, [pc, #72]	; (510 <relay_break_process()+0x90>)
     4c6:	f004 fc47 	bl	4d58 <mbed::Timer::read_ms()>
     4ca:	4602      	mov	r2, r0
     4cc:	4b11      	ldr	r3, [pc, #68]	; (514 <relay_break_process()+0x94>)
     4ce:	681b      	ldr	r3, [r3, #0]
     4d0:	f44f 717a 	mov.w	r1, #1000	; 0x3e8
     4d4:	fb01 f303 	mul.w	r3, r1, r3
     4d8:	429a      	cmp	r2, r3
     4da:	bfb4      	ite	lt
     4dc:	2300      	movlt	r3, #0
     4de:	2301      	movge	r3, #1
     4e0:	b2db      	uxtb	r3, r3
     4e2:	2b00      	cmp	r3, #0
     4e4:	d009      	beq.n	4fa <relay_break_process()+0x7a>
     4e6:	480c      	ldr	r0, [pc, #48]	; (518 <relay_break_process()+0x98>)
     4e8:	2100      	movs	r1, #0
     4ea:	f7ff fea1 	bl	230 <mbed::DigitalOut::operator=(int)>
     4ee:	4808      	ldr	r0, [pc, #32]	; (510 <relay_break_process()+0x90>)
     4f0:	f004 fc12 	bl	4d18 <mbed::Timer::stop()>
     4f4:	4806      	ldr	r0, [pc, #24]	; (510 <relay_break_process()+0x90>)
     4f6:	f004 fc57 	bl	4da8 <mbed::Timer::reset()>
     4fa:	bd08      	pop	{r3, pc}
     4fc:	100003dc 	.word	0x100003dc
     500:	100000cc 	.word	0x100000cc
     504:	100003e8 	.word	0x100003e8
     508:	10000210 	.word	0x10000210
     50c:	100003c4 	.word	0x100003c4
     510:	100003ec 	.word	0x100003ec
     514:	100000d0 	.word	0x100000d0
     518:	1000037c 	.word	0x1000037c

0000051c <push(float)>:
     51c:	b500      	push	{lr}
     51e:	b083      	sub	sp, #12
     520:	9001      	str	r0, [sp, #4]
     522:	4808      	ldr	r0, [pc, #32]	; (544 <push(float)+0x28>)
     524:	2100      	movs	r1, #0
     526:	f7ff fe83 	bl	230 <mbed::DigitalOut::operator=(int)>
     52a:	4807      	ldr	r0, [pc, #28]	; (548 <push(float)+0x2c>)
     52c:	2100      	movs	r1, #0
     52e:	f7ff fe7f 	bl	230 <mbed::DigitalOut::operator=(int)>
     532:	4806      	ldr	r0, [pc, #24]	; (54c <push(float)+0x30>)
     534:	f003 fdfa 	bl	412c <wait>
     538:	9801      	ldr	r0, [sp, #4]
     53a:	f7ff ff3b 	bl	3b4 <throttle_set(float)>
     53e:	b003      	add	sp, #12
     540:	f85d fb04 	ldr.w	pc, [sp], #4
     544:	10000214 	.word	0x10000214
     548:	1000022c 	.word	0x1000022c
     54c:	3ca3d70a 	.word	0x3ca3d70a

00000550 <_stop()>:
     550:	b508      	push	{r3, lr}
     552:	4807      	ldr	r0, [pc, #28]	; (570 <_stop()+0x20>)
     554:	2100      	movs	r1, #0
     556:	f7ff fe6b 	bl	230 <mbed::DigitalOut::operator=(int)>
     55a:	4806      	ldr	r0, [pc, #24]	; (574 <_stop()+0x24>)
     55c:	f003 fde6 	bl	412c <wait>
     560:	4805      	ldr	r0, [pc, #20]	; (578 <_stop()+0x28>)
     562:	2100      	movs	r1, #0
     564:	f7ff fe64 	bl	230 <mbed::DigitalOut::operator=(int)>
     568:	f7ff ff62 	bl	430 <throttle_clear()>
     56c:	bd08      	pop	{r3, pc}
     56e:	bf00      	nop
     570:	10000214 	.word	0x10000214
     574:	3d23d70a 	.word	0x3d23d70a
     578:	1000022c 	.word	0x1000022c

0000057c <_break()>:
     57c:	b508      	push	{r3, lr}
     57e:	4807      	ldr	r0, [pc, #28]	; (59c <_break()+0x20>)
     580:	2100      	movs	r1, #0
     582:	f7ff fe55 	bl	230 <mbed::DigitalOut::operator=(int)>
     586:	4806      	ldr	r0, [pc, #24]	; (5a0 <_break()+0x24>)
     588:	2101      	movs	r1, #1
     58a:	f7ff fe51 	bl	230 <mbed::DigitalOut::operator=(int)>
     58e:	f7ff ff4f 	bl	430 <throttle_clear()>
     592:	4804      	ldr	r0, [pc, #16]	; (5a4 <_break()+0x28>)
     594:	f003 fdca 	bl	412c <wait>
     598:	bd08      	pop	{r3, pc}
     59a:	bf00      	nop
     59c:	1000022c 	.word	0x1000022c
     5a0:	10000214 	.word	0x10000214
     5a4:	3ca3d70a 	.word	0x3ca3d70a

000005a8 <relay_on()>:
     5a8:	b508      	push	{r3, lr}
     5aa:	4807      	ldr	r0, [pc, #28]	; (5c8 <relay_on()+0x20>)
     5ac:	2100      	movs	r1, #0
     5ae:	f7ff fe3f 	bl	230 <mbed::DigitalOut::operator=(int)>
     5b2:	4806      	ldr	r0, [pc, #24]	; (5cc <relay_on()+0x24>)
     5b4:	f04f 0100 	mov.w	r1, #0
     5b8:	f7ff fe94 	bl	2e4 <mbed::AnalogOut::operator=(float)>
     5bc:	4804      	ldr	r0, [pc, #16]	; (5d0 <relay_on()+0x28>)
     5be:	2101      	movs	r1, #1
     5c0:	f7ff fe36 	bl	230 <mbed::DigitalOut::operator=(int)>
     5c4:	bd08      	pop	{r3, pc}
     5c6:	bf00      	nop
     5c8:	1000022c 	.word	0x1000022c
     5cc:	10000210 	.word	0x10000210
     5d0:	1000037c 	.word	0x1000037c

000005d4 <pull(float)>:
     5d4:	b500      	push	{lr}
     5d6:	b083      	sub	sp, #12
     5d8:	9001      	str	r0, [sp, #4]
     5da:	4808      	ldr	r0, [pc, #32]	; (5fc <pull(float)+0x28>)
     5dc:	2100      	movs	r1, #0
     5de:	f7ff fe27 	bl	230 <mbed::DigitalOut::operator=(int)>
     5e2:	4807      	ldr	r0, [pc, #28]	; (600 <pull(float)+0x2c>)
     5e4:	2101      	movs	r1, #1
     5e6:	f7ff fe23 	bl	230 <mbed::DigitalOut::operator=(int)>
     5ea:	4806      	ldr	r0, [pc, #24]	; (604 <pull(float)+0x30>)
     5ec:	f003 fd9e 	bl	412c <wait>
     5f0:	9801      	ldr	r0, [sp, #4]
     5f2:	f7ff fedf 	bl	3b4 <throttle_set(float)>
     5f6:	b003      	add	sp, #12
     5f8:	f85d fb04 	ldr.w	pc, [sp], #4
     5fc:	10000214 	.word	0x10000214
     600:	1000022c 	.word	0x1000022c
     604:	3d23d70a 	.word	0x3d23d70a

00000608 <send_line()>:
     608:	b500      	push	{lr}
     60a:	b083      	sub	sp, #12
     60c:	2300      	movs	r3, #0
     60e:	9301      	str	r3, [sp, #4]
     610:	2006      	movs	r0, #6
     612:	f7ff fd9b 	bl	14c <NVIC_DisableIRQ>
     616:	4b4b      	ldr	r3, [pc, #300]	; (744 <send_line()+0x13c>)
     618:	681a      	ldr	r2, [r3, #0]
     61a:	4b4b      	ldr	r3, [pc, #300]	; (748 <send_line()+0x140>)
     61c:	681b      	ldr	r3, [r3, #0]
     61e:	429a      	cmp	r2, r3
     620:	bf14      	ite	ne
     622:	2300      	movne	r3, #0
     624:	2301      	moveq	r3, #1
     626:	f88d 3003 	strb.w	r3, [sp, #3]
     62a:	e04f      	b.n	6cc <send_line()+0xc4>
     62c:	4b45      	ldr	r3, [pc, #276]	; (744 <send_line()+0x13c>)
     62e:	681b      	ldr	r3, [r3, #0]
     630:	1c59      	adds	r1, r3, #1
     632:	4b46      	ldr	r3, [pc, #280]	; (74c <send_line()+0x144>)
     634:	fb81 2303 	smull	r2, r3, r1, r3
     638:	440b      	add	r3, r1
     63a:	11da      	asrs	r2, r3, #7
     63c:	17cb      	asrs	r3, r1, #31
     63e:	1ad2      	subs	r2, r2, r3
     640:	4613      	mov	r3, r2
     642:	021b      	lsls	r3, r3, #8
     644:	1a9b      	subs	r3, r3, r2
     646:	1aca      	subs	r2, r1, r3
     648:	4b3f      	ldr	r3, [pc, #252]	; (748 <send_line()+0x140>)
     64a:	681b      	ldr	r3, [r3, #0]
     64c:	429a      	cmp	r2, r3
     64e:	bf14      	ite	ne
     650:	2300      	movne	r3, #0
     652:	2301      	moveq	r3, #1
     654:	b2db      	uxtb	r3, r3
     656:	2b00      	cmp	r3, #0
     658:	d01d      	beq.n	696 <send_line()+0x8e>
     65a:	2006      	movs	r0, #6
     65c:	f7ff fd60 	bl	120 <NVIC_EnableIRQ>
     660:	bf00      	nop
     662:	4b38      	ldr	r3, [pc, #224]	; (744 <send_line()+0x13c>)
     664:	681b      	ldr	r3, [r3, #0]
     666:	1c59      	adds	r1, r3, #1
     668:	4b38      	ldr	r3, [pc, #224]	; (74c <send_line()+0x144>)
     66a:	fb81 2303 	smull	r2, r3, r1, r3
     66e:	440b      	add	r3, r1
     670:	11da      	asrs	r2, r3, #7
     672:	17cb      	asrs	r3, r1, #31
     674:	1ad2      	subs	r2, r2, r3
     676:	4613      	mov	r3, r2
     678:	021b      	lsls	r3, r3, #8
     67a:	1a9b      	subs	r3, r3, r2
     67c:	1aca      	subs	r2, r1, r3
     67e:	4b32      	ldr	r3, [pc, #200]	; (748 <send_line()+0x140>)
     680:	681b      	ldr	r3, [r3, #0]
     682:	429a      	cmp	r2, r3
     684:	bf14      	ite	ne
     686:	2300      	movne	r3, #0
     688:	2301      	moveq	r3, #1
     68a:	b2db      	uxtb	r3, r3
     68c:	2b00      	cmp	r3, #0
     68e:	d1e8      	bne.n	662 <send_line()+0x5a>
     690:	2006      	movs	r0, #6
     692:	f7ff fd5b 	bl	14c <NVIC_DisableIRQ>
     696:	4b2b      	ldr	r3, [pc, #172]	; (744 <send_line()+0x13c>)
     698:	681b      	ldr	r3, [r3, #0]
     69a:	492d      	ldr	r1, [pc, #180]	; (750 <send_line()+0x148>)
     69c:	9a01      	ldr	r2, [sp, #4]
     69e:	440a      	add	r2, r1
     6a0:	7811      	ldrb	r1, [r2, #0]
     6a2:	4a2c      	ldr	r2, [pc, #176]	; (754 <send_line()+0x14c>)
     6a4:	54d1      	strb	r1, [r2, r3]
     6a6:	9b01      	ldr	r3, [sp, #4]
     6a8:	3301      	adds	r3, #1
     6aa:	9301      	str	r3, [sp, #4]
     6ac:	4b25      	ldr	r3, [pc, #148]	; (744 <send_line()+0x13c>)
     6ae:	681b      	ldr	r3, [r3, #0]
     6b0:	1c59      	adds	r1, r3, #1
     6b2:	4b26      	ldr	r3, [pc, #152]	; (74c <send_line()+0x144>)
     6b4:	fb81 2303 	smull	r2, r3, r1, r3
     6b8:	440b      	add	r3, r1
     6ba:	11da      	asrs	r2, r3, #7
     6bc:	17cb      	asrs	r3, r1, #31
     6be:	1ad2      	subs	r2, r2, r3
     6c0:	4613      	mov	r3, r2
     6c2:	021b      	lsls	r3, r3, #8
     6c4:	1a9b      	subs	r3, r3, r2
     6c6:	1aca      	subs	r2, r1, r3
     6c8:	4b1e      	ldr	r3, [pc, #120]	; (744 <send_line()+0x13c>)
     6ca:	601a      	str	r2, [r3, #0]
     6cc:	9b01      	ldr	r3, [sp, #4]
     6ce:	2b00      	cmp	r3, #0
     6d0:	d0ac      	beq.n	62c <send_line()+0x24>
     6d2:	9b01      	ldr	r3, [sp, #4]
     6d4:	3b01      	subs	r3, #1
     6d6:	4a1e      	ldr	r2, [pc, #120]	; (750 <send_line()+0x148>)
     6d8:	5cd3      	ldrb	r3, [r2, r3]
     6da:	2b0a      	cmp	r3, #10
     6dc:	d1a6      	bne.n	62c <send_line()+0x24>
     6de:	481e      	ldr	r0, [pc, #120]	; (758 <send_line()+0x150>)
     6e0:	f004 f950 	bl	4984 <mbed::SerialBase::writeable()>
     6e4:	4603      	mov	r3, r0
     6e6:	2b00      	cmp	r3, #0
     6e8:	d005      	beq.n	6f6 <send_line()+0xee>
     6ea:	f89d 3003 	ldrb.w	r3, [sp, #3]
     6ee:	2b00      	cmp	r3, #0
     6f0:	d001      	beq.n	6f6 <send_line()+0xee>
     6f2:	2301      	movs	r3, #1
     6f4:	e000      	b.n	6f8 <send_line()+0xf0>
     6f6:	2300      	movs	r3, #0
     6f8:	2b00      	cmp	r3, #0
     6fa:	d01b      	beq.n	734 <send_line()+0x12c>
     6fc:	4b12      	ldr	r3, [pc, #72]	; (748 <send_line()+0x140>)
     6fe:	681b      	ldr	r3, [r3, #0]
     700:	4a14      	ldr	r2, [pc, #80]	; (754 <send_line()+0x14c>)
     702:	5cd3      	ldrb	r3, [r2, r3]
     704:	f88d 3002 	strb.w	r3, [sp, #2]
     708:	4b0f      	ldr	r3, [pc, #60]	; (748 <send_line()+0x140>)
     70a:	681b      	ldr	r3, [r3, #0]
     70c:	1c59      	adds	r1, r3, #1
     70e:	4b0f      	ldr	r3, [pc, #60]	; (74c <send_line()+0x144>)
     710:	fb81 2303 	smull	r2, r3, r1, r3
     714:	440b      	add	r3, r1
     716:	11da      	asrs	r2, r3, #7
     718:	17cb      	asrs	r3, r1, #31
     71a:	1ad2      	subs	r2, r2, r3
     71c:	4613      	mov	r3, r2
     71e:	021b      	lsls	r3, r3, #8
     720:	1a9b      	subs	r3, r3, r2
     722:	1aca      	subs	r2, r1, r3
     724:	4b08      	ldr	r3, [pc, #32]	; (748 <send_line()+0x140>)
     726:	601a      	str	r2, [r3, #0]
     728:	f89d 3002 	ldrb.w	r3, [sp, #2]
     72c:	480b      	ldr	r0, [pc, #44]	; (75c <send_line()+0x154>)
     72e:	4619      	mov	r1, r3
     730:	f004 fa06 	bl	4b40 <mbed::Stream::putc(int)>
     734:	2006      	movs	r0, #6
     736:	f7ff fcf3 	bl	120 <NVIC_EnableIRQ>
     73a:	bf00      	nop
     73c:	b003      	add	sp, #12
     73e:	f85d fb04 	ldr.w	pc, [sp], #4
     742:	bf00      	nop
     744:	100005f8 	.word	0x100005f8
     748:	100005fc 	.word	0x100005fc
     74c:	80808081 	.word	0x80808081
     750:	10000608 	.word	0x10000608
     754:	100003f8 	.word	0x100003f8
     758:	100001a4 	.word	0x100001a4
     75c:	100001ec 	.word	0x100001ec

00000760 <read_line()>:
     760:	b500      	push	{lr}
     762:	b083      	sub	sp, #12
     764:	2300      	movs	r3, #0
     766:	9301      	str	r3, [sp, #4]
     768:	2006      	movs	r0, #6
     76a:	f7ff fcef 	bl	14c <NVIC_DisableIRQ>
     76e:	e037      	b.n	7e0 <read_line()+0x80>
     770:	4b26      	ldr	r3, [pc, #152]	; (80c <Heap_Size+0xc>)
     772:	681a      	ldr	r2, [r3, #0]
     774:	4b26      	ldr	r3, [pc, #152]	; (810 <Heap_Size+0x10>)
     776:	681b      	ldr	r3, [r3, #0]
     778:	429a      	cmp	r2, r3
     77a:	bf14      	ite	ne
     77c:	2300      	movne	r3, #0
     77e:	2301      	moveq	r3, #1
     780:	b2db      	uxtb	r3, r3
     782:	2b00      	cmp	r3, #0
     784:	d011      	beq.n	7aa <read_line()+0x4a>
     786:	2006      	movs	r0, #6
     788:	f7ff fcca 	bl	120 <NVIC_EnableIRQ>
     78c:	bf00      	nop
     78e:	4b1f      	ldr	r3, [pc, #124]	; (80c <Heap_Size+0xc>)
     790:	681a      	ldr	r2, [r3, #0]
     792:	4b1f      	ldr	r3, [pc, #124]	; (810 <Heap_Size+0x10>)
     794:	681b      	ldr	r3, [r3, #0]
     796:	429a      	cmp	r2, r3
     798:	bf14      	ite	ne
     79a:	2300      	movne	r3, #0
     79c:	2301      	moveq	r3, #1
     79e:	b2db      	uxtb	r3, r3
     7a0:	2b00      	cmp	r3, #0
     7a2:	d1f4      	bne.n	78e <read_line()+0x2e>
     7a4:	2006      	movs	r0, #6
     7a6:	f7ff fcd1 	bl	14c <NVIC_DisableIRQ>
     7aa:	4b19      	ldr	r3, [pc, #100]	; (810 <Heap_Size+0x10>)
     7ac:	681b      	ldr	r3, [r3, #0]
     7ae:	4a19      	ldr	r2, [pc, #100]	; (814 <Heap_Size+0x14>)
     7b0:	5cd2      	ldrb	r2, [r2, r3]
     7b2:	4919      	ldr	r1, [pc, #100]	; (818 <Heap_Size+0x18>)
     7b4:	9b01      	ldr	r3, [sp, #4]
     7b6:	440b      	add	r3, r1
     7b8:	701a      	strb	r2, [r3, #0]
     7ba:	9b01      	ldr	r3, [sp, #4]
     7bc:	3301      	adds	r3, #1
     7be:	9301      	str	r3, [sp, #4]
     7c0:	4b13      	ldr	r3, [pc, #76]	; (810 <Heap_Size+0x10>)
     7c2:	681b      	ldr	r3, [r3, #0]
     7c4:	1c59      	adds	r1, r3, #1
     7c6:	4b15      	ldr	r3, [pc, #84]	; (81c <Heap_Size+0x1c>)
     7c8:	fb81 2303 	smull	r2, r3, r1, r3
     7cc:	440b      	add	r3, r1
     7ce:	11da      	asrs	r2, r3, #7
     7d0:	17cb      	asrs	r3, r1, #31
     7d2:	1ad2      	subs	r2, r2, r3
     7d4:	4613      	mov	r3, r2
     7d6:	021b      	lsls	r3, r3, #8
     7d8:	1a9b      	subs	r3, r3, r2
     7da:	1aca      	subs	r2, r1, r3
     7dc:	4b0c      	ldr	r3, [pc, #48]	; (810 <Heap_Size+0x10>)
     7de:	601a      	str	r2, [r3, #0]
     7e0:	9b01      	ldr	r3, [sp, #4]
     7e2:	2b00      	cmp	r3, #0
     7e4:	d0c4      	beq.n	770 <read_line()+0x10>
     7e6:	9b01      	ldr	r3, [sp, #4]
     7e8:	3b01      	subs	r3, #1
     7ea:	4a0b      	ldr	r2, [pc, #44]	; (818 <Heap_Size+0x18>)
     7ec:	5cd3      	ldrb	r3, [r2, r3]
     7ee:	2b0d      	cmp	r3, #13
     7f0:	d1be      	bne.n	770 <read_line()+0x10>
     7f2:	2006      	movs	r0, #6
     7f4:	f7ff fc94 	bl	120 <NVIC_EnableIRQ>
     7f8:	9b01      	ldr	r3, [sp, #4]
     7fa:	3b01      	subs	r3, #1
     7fc:	4a06      	ldr	r2, [pc, #24]	; (818 <Heap_Size+0x18>)
     7fe:	2100      	movs	r1, #0
     800:	54d1      	strb	r1, [r2, r3]
     802:	bf00      	nop
     804:	b003      	add	sp, #12
     806:	f85d fb04 	ldr.w	pc, [sp], #4
     80a:	bf00      	nop
     80c:	10000600 	.word	0x10000600
     810:	10000604 	.word	0x10000604
     814:	100004f8 	.word	0x100004f8
     818:	10000658 	.word	0x10000658
     81c:	80808081 	.word	0x80808081

00000820 <Rx_interrupt()>:
     820:	b510      	push	{r4, lr}
     822:	4820      	ldr	r0, [pc, #128]	; (8a4 <Rx_interrupt()+0x84>)
     824:	2101      	movs	r1, #1
     826:	f7ff fd03 	bl	230 <mbed::DigitalOut::operator=(int)>
     82a:	e018      	b.n	85e <Rx_interrupt()+0x3e>
     82c:	4b1e      	ldr	r3, [pc, #120]	; (8a8 <Rx_interrupt()+0x88>)
     82e:	681c      	ldr	r4, [r3, #0]
     830:	481e      	ldr	r0, [pc, #120]	; (8ac <Rx_interrupt()+0x8c>)
     832:	f004 f999 	bl	4b68 <mbed::Stream::getc()>
     836:	4603      	mov	r3, r0
     838:	b2da      	uxtb	r2, r3
     83a:	4b1d      	ldr	r3, [pc, #116]	; (8b0 <Rx_interrupt()+0x90>)
     83c:	551a      	strb	r2, [r3, r4]
     83e:	4b1a      	ldr	r3, [pc, #104]	; (8a8 <Rx_interrupt()+0x88>)
     840:	681b      	ldr	r3, [r3, #0]
     842:	1c59      	adds	r1, r3, #1
     844:	4b1b      	ldr	r3, [pc, #108]	; (8b4 <Rx_interrupt()+0x94>)
     846:	fb81 2303 	smull	r2, r3, r1, r3
     84a:	440b      	add	r3, r1
     84c:	11da      	asrs	r2, r3, #7
     84e:	17cb      	asrs	r3, r1, #31
     850:	1ad2      	subs	r2, r2, r3
     852:	4613      	mov	r3, r2
     854:	021b      	lsls	r3, r3, #8
     856:	1a9b      	subs	r3, r3, r2
     858:	1aca      	subs	r2, r1, r3
     85a:	4b13      	ldr	r3, [pc, #76]	; (8a8 <Rx_interrupt()+0x88>)
     85c:	601a      	str	r2, [r3, #0]
     85e:	4816      	ldr	r0, [pc, #88]	; (8b8 <Rx_interrupt()+0x98>)
     860:	f004 f882 	bl	4968 <mbed::SerialBase::readable()>
     864:	4603      	mov	r3, r0
     866:	2b00      	cmp	r3, #0
     868:	d013      	beq.n	892 <Rx_interrupt()+0x72>
     86a:	4b0f      	ldr	r3, [pc, #60]	; (8a8 <Rx_interrupt()+0x88>)
     86c:	681b      	ldr	r3, [r3, #0]
     86e:	1c59      	adds	r1, r3, #1
     870:	4b10      	ldr	r3, [pc, #64]	; (8b4 <Rx_interrupt()+0x94>)
     872:	fb81 2303 	smull	r2, r3, r1, r3
     876:	440b      	add	r3, r1
     878:	11da      	asrs	r2, r3, #7
     87a:	17cb      	asrs	r3, r1, #31
     87c:	1ad2      	subs	r2, r2, r3
     87e:	4613      	mov	r3, r2
     880:	021b      	lsls	r3, r3, #8
     882:	1a9b      	subs	r3, r3, r2
     884:	1aca      	subs	r2, r1, r3
     886:	4b0d      	ldr	r3, [pc, #52]	; (8bc <Rx_interrupt()+0x9c>)
     888:	681b      	ldr	r3, [r3, #0]
     88a:	429a      	cmp	r2, r3
     88c:	d001      	beq.n	892 <Rx_interrupt()+0x72>
     88e:	2301      	movs	r3, #1
     890:	e000      	b.n	894 <Rx_interrupt()+0x74>
     892:	2300      	movs	r3, #0
     894:	2b00      	cmp	r3, #0
     896:	d1c9      	bne.n	82c <Rx_interrupt()+0xc>
     898:	4802      	ldr	r0, [pc, #8]	; (8a4 <Rx_interrupt()+0x84>)
     89a:	2100      	movs	r1, #0
     89c:	f7ff fcc8 	bl	230 <mbed::DigitalOut::operator=(int)>
     8a0:	bf00      	nop
     8a2:	bd10      	pop	{r4, pc}
     8a4:	10000394 	.word	0x10000394
     8a8:	10000600 	.word	0x10000600
     8ac:	100001ec 	.word	0x100001ec
     8b0:	100004f8 	.word	0x100004f8
     8b4:	80808081 	.word	0x80808081
     8b8:	100001a4 	.word	0x100001a4
     8bc:	10000604 	.word	0x10000604

000008c0 <Tx_interrupt()>:
     8c0:	b508      	push	{r3, lr}
     8c2:	481a      	ldr	r0, [pc, #104]	; (92c <Tx_interrupt()+0x6c>)
     8c4:	2101      	movs	r1, #1
     8c6:	f7ff fcb3 	bl	230 <mbed::DigitalOut::operator=(int)>
     8ca:	e017      	b.n	8fc <Tx_interrupt()+0x3c>
     8cc:	4b18      	ldr	r3, [pc, #96]	; (930 <Tx_interrupt()+0x70>)
     8ce:	681b      	ldr	r3, [r3, #0]
     8d0:	4a18      	ldr	r2, [pc, #96]	; (934 <Tx_interrupt()+0x74>)
     8d2:	5cd3      	ldrb	r3, [r2, r3]
     8d4:	4818      	ldr	r0, [pc, #96]	; (938 <Tx_interrupt()+0x78>)
     8d6:	4619      	mov	r1, r3
     8d8:	f004 f932 	bl	4b40 <mbed::Stream::putc(int)>
     8dc:	4b14      	ldr	r3, [pc, #80]	; (930 <Tx_interrupt()+0x70>)
     8de:	681b      	ldr	r3, [r3, #0]
     8e0:	1c59      	adds	r1, r3, #1
     8e2:	4b16      	ldr	r3, [pc, #88]	; (93c <Tx_interrupt()+0x7c>)
     8e4:	fb81 2303 	smull	r2, r3, r1, r3
     8e8:	440b      	add	r3, r1
     8ea:	11da      	asrs	r2, r3, #7
     8ec:	17cb      	asrs	r3, r1, #31
     8ee:	1ad2      	subs	r2, r2, r3
     8f0:	4613      	mov	r3, r2
     8f2:	021b      	lsls	r3, r3, #8
     8f4:	1a9b      	subs	r3, r3, r2
     8f6:	1aca      	subs	r2, r1, r3
     8f8:	4b0d      	ldr	r3, [pc, #52]	; (930 <Tx_interrupt()+0x70>)
     8fa:	601a      	str	r2, [r3, #0]
     8fc:	4810      	ldr	r0, [pc, #64]	; (940 <Tx_interrupt()+0x80>)
     8fe:	f004 f841 	bl	4984 <mbed::SerialBase::writeable()>
     902:	4603      	mov	r3, r0
     904:	2b00      	cmp	r3, #0
     906:	d007      	beq.n	918 <Tx_interrupt()+0x58>
     908:	4b0e      	ldr	r3, [pc, #56]	; (944 <Tx_interrupt()+0x84>)
     90a:	681a      	ldr	r2, [r3, #0]
     90c:	4b08      	ldr	r3, [pc, #32]	; (930 <Tx_interrupt()+0x70>)
     90e:	681b      	ldr	r3, [r3, #0]
     910:	429a      	cmp	r2, r3
     912:	d001      	beq.n	918 <Tx_interrupt()+0x58>
     914:	2301      	movs	r3, #1
     916:	e000      	b.n	91a <Tx_interrupt()+0x5a>
     918:	2300      	movs	r3, #0
     91a:	2b00      	cmp	r3, #0
     91c:	d1d6      	bne.n	8cc <Tx_interrupt()+0xc>
     91e:	4803      	ldr	r0, [pc, #12]	; (92c <Tx_interrupt()+0x6c>)
     920:	2100      	movs	r1, #0
     922:	f7ff fc85 	bl	230 <mbed::DigitalOut::operator=(int)>
     926:	bf00      	nop
     928:	bd08      	pop	{r3, pc}
     92a:	bf00      	nop
     92c:	100003ac 	.word	0x100003ac
     930:	100005fc 	.word	0x100005fc
     934:	100003f8 	.word	0x100003f8
     938:	100001ec 	.word	0x100001ec
     93c:	80808081 	.word	0x80808081
     940:	100001a4 	.word	0x100001a4
     944:	100005f8 	.word	0x100005f8

00000948 <init_serial_interrupt()>:
     948:	b508      	push	{r3, lr}
     94a:	4808      	ldr	r0, [pc, #32]	; (96c <init_serial_interrupt()+0x24>)
     94c:	f44f 5116 	mov.w	r1, #9600	; 0x2580
     950:	f003 fffa 	bl	4948 <mbed::SerialBase::baud(int)>
     954:	4805      	ldr	r0, [pc, #20]	; (96c <init_serial_interrupt()+0x24>)
     956:	4906      	ldr	r1, [pc, #24]	; (970 <init_serial_interrupt()+0x28>)
     958:	2200      	movs	r2, #0
     95a:	f004 f821 	bl	49a0 <mbed::SerialBase::attach(void (*)(), mbed::SerialBase::IrqType)>
     95e:	4803      	ldr	r0, [pc, #12]	; (96c <init_serial_interrupt()+0x24>)
     960:	4904      	ldr	r1, [pc, #16]	; (974 <init_serial_interrupt()+0x2c>)
     962:	2201      	movs	r2, #1
     964:	f004 f81c 	bl	49a0 <mbed::SerialBase::attach(void (*)(), mbed::SerialBase::IrqType)>
     968:	bd08      	pop	{r3, pc}
     96a:	bf00      	nop
     96c:	100001a4 	.word	0x100001a4
     970:	00000821 	.word	0x00000821
     974:	000008c1 	.word	0x000008c1

00000978 <parse_command(char*)>:
     978:	b082      	sub	sp, #8
     97a:	9001      	str	r0, [sp, #4]
     97c:	9b01      	ldr	r3, [sp, #4]
     97e:	781b      	ldrb	r3, [r3, #0]
     980:	2b77      	cmp	r3, #119	; 0x77
     982:	d101      	bne.n	988 <parse_command(char*)+0x10>
     984:	2300      	movs	r3, #0
     986:	e023      	b.n	9d0 <parse_command(char*)+0x58>
     988:	9b01      	ldr	r3, [sp, #4]
     98a:	781b      	ldrb	r3, [r3, #0]
     98c:	2b78      	cmp	r3, #120	; 0x78
     98e:	d101      	bne.n	994 <parse_command(char*)+0x1c>
     990:	2301      	movs	r3, #1
     992:	e01d      	b.n	9d0 <parse_command(char*)+0x58>
     994:	9b01      	ldr	r3, [sp, #4]
     996:	781b      	ldrb	r3, [r3, #0]
     998:	2b64      	cmp	r3, #100	; 0x64
     99a:	d101      	bne.n	9a0 <parse_command(char*)+0x28>
     99c:	2302      	movs	r3, #2
     99e:	e017      	b.n	9d0 <parse_command(char*)+0x58>
     9a0:	9b01      	ldr	r3, [sp, #4]
     9a2:	781b      	ldrb	r3, [r3, #0]
     9a4:	2b61      	cmp	r3, #97	; 0x61
     9a6:	d101      	bne.n	9ac <parse_command(char*)+0x34>
     9a8:	2303      	movs	r3, #3
     9aa:	e011      	b.n	9d0 <parse_command(char*)+0x58>
     9ac:	9b01      	ldr	r3, [sp, #4]
     9ae:	781b      	ldrb	r3, [r3, #0]
     9b0:	2b73      	cmp	r3, #115	; 0x73
     9b2:	d101      	bne.n	9b8 <parse_command(char*)+0x40>
     9b4:	2304      	movs	r3, #4
     9b6:	e00b      	b.n	9d0 <parse_command(char*)+0x58>
     9b8:	9b01      	ldr	r3, [sp, #4]
     9ba:	781b      	ldrb	r3, [r3, #0]
     9bc:	2b62      	cmp	r3, #98	; 0x62
     9be:	d101      	bne.n	9c4 <parse_command(char*)+0x4c>
     9c0:	2305      	movs	r3, #5
     9c2:	e005      	b.n	9d0 <parse_command(char*)+0x58>
     9c4:	9b01      	ldr	r3, [sp, #4]
     9c6:	781b      	ldrb	r3, [r3, #0]
     9c8:	2b72      	cmp	r3, #114	; 0x72
     9ca:	d101      	bne.n	9d0 <parse_command(char*)+0x58>
     9cc:	2306      	movs	r3, #6
     9ce:	e7ff      	b.n	9d0 <parse_command(char*)+0x58>
     9d0:	4618      	mov	r0, r3
     9d2:	b002      	add	sp, #8
     9d4:	4770      	bx	lr
     9d6:	bf00      	nop

000009d8 <parse_args(char*)>:
     9d8:	b086      	sub	sp, #24
     9da:	9001      	str	r0, [sp, #4]
     9dc:	9b01      	ldr	r3, [sp, #4]
     9de:	3302      	adds	r3, #2
     9e0:	9305      	str	r3, [sp, #20]
     9e2:	2300      	movs	r3, #0
     9e4:	9304      	str	r3, [sp, #16]
     9e6:	9b05      	ldr	r3, [sp, #20]
     9e8:	781b      	ldrb	r3, [r3, #0]
     9ea:	f88d 300f 	strb.w	r3, [sp, #15]
     9ee:	f89d 300f 	ldrb.w	r3, [sp, #15]
     9f2:	2b39      	cmp	r3, #57	; 0x39
     9f4:	d803      	bhi.n	9fe <parse_args(char*)+0x26>
     9f6:	f89d 300f 	ldrb.w	r3, [sp, #15]
     9fa:	3b30      	subs	r3, #48	; 0x30
     9fc:	9304      	str	r3, [sp, #16]
     9fe:	9b05      	ldr	r3, [sp, #20]
     a00:	3301      	adds	r3, #1
     a02:	9305      	str	r3, [sp, #20]
     a04:	e00c      	b.n	a20 <parse_args(char*)+0x48>
     a06:	9a04      	ldr	r2, [sp, #16]
     a08:	4613      	mov	r3, r2
     a0a:	009b      	lsls	r3, r3, #2
     a0c:	4413      	add	r3, r2
     a0e:	005b      	lsls	r3, r3, #1
     a10:	461a      	mov	r2, r3
     a12:	9b05      	ldr	r3, [sp, #20]
     a14:	1c59      	adds	r1, r3, #1
     a16:	9105      	str	r1, [sp, #20]
     a18:	781b      	ldrb	r3, [r3, #0]
     a1a:	3b30      	subs	r3, #48	; 0x30
     a1c:	4413      	add	r3, r2
     a1e:	9304      	str	r3, [sp, #16]
     a20:	9b05      	ldr	r3, [sp, #20]
     a22:	781b      	ldrb	r3, [r3, #0]
     a24:	2b2f      	cmp	r3, #47	; 0x2f
     a26:	d903      	bls.n	a30 <parse_args(char*)+0x58>
     a28:	9b05      	ldr	r3, [sp, #20]
     a2a:	781b      	ldrb	r3, [r3, #0]
     a2c:	2b39      	cmp	r3, #57	; 0x39
     a2e:	d9ea      	bls.n	a06 <parse_args(char*)+0x2e>
     a30:	9b04      	ldr	r3, [sp, #16]
     a32:	4618      	mov	r0, r3
     a34:	b006      	add	sp, #24
     a36:	4770      	bx	lr

00000a38 <execute(COMMAND_t, int)>:
     a38:	b500      	push	{lr}
     a3a:	b085      	sub	sp, #20
     a3c:	4603      	mov	r3, r0
     a3e:	9100      	str	r1, [sp, #0]
     a40:	f88d 3007 	strb.w	r3, [sp, #7]
     a44:	9800      	ldr	r0, [sp, #0]
     a46:	f006 fc1f 	bl	7288 <__aeabi_i2f>
     a4a:	4603      	mov	r3, r0
     a4c:	4618      	mov	r0, r3
     a4e:	f006 f883 	bl	6b58 <__aeabi_f2d>
     a52:	4602      	mov	r2, r0
     a54:	460b      	mov	r3, r1
     a56:	4610      	mov	r0, r2
     a58:	4619      	mov	r1, r3
     a5a:	a31d      	add	r3, pc, #116	; (adr r3, ad0 <execute(COMMAND_t, int)+0x98>)
     a5c:	e9d3 2300 	ldrd	r2, r3, [r3]
     a60:	f006 f8ce 	bl	6c00 <__aeabi_dmul>
     a64:	4602      	mov	r2, r0
     a66:	460b      	mov	r3, r1
     a68:	4610      	mov	r0, r2
     a6a:	4619      	mov	r1, r3
     a6c:	f006 fb02 	bl	7074 <__aeabi_d2f>
     a70:	4603      	mov	r3, r0
     a72:	9303      	str	r3, [sp, #12]
     a74:	f89d 3007 	ldrb.w	r3, [sp, #7]
     a78:	2b04      	cmp	r3, #4
     a7a:	d101      	bne.n	a80 <execute(COMMAND_t, int)+0x48>
     a7c:	f7ff fd68 	bl	550 <_stop()>
     a80:	f89d 3007 	ldrb.w	r3, [sp, #7]
     a84:	2b00      	cmp	r3, #0
     a86:	d102      	bne.n	a8e <execute(COMMAND_t, int)+0x56>
     a88:	9803      	ldr	r0, [sp, #12]
     a8a:	f7ff fd47 	bl	51c <push(float)>
     a8e:	f89d 3007 	ldrb.w	r3, [sp, #7]
     a92:	2b01      	cmp	r3, #1
     a94:	d102      	bne.n	a9c <execute(COMMAND_t, int)+0x64>
     a96:	9803      	ldr	r0, [sp, #12]
     a98:	f7ff fd9c 	bl	5d4 <pull(float)>
     a9c:	f89d 3007 	ldrb.w	r3, [sp, #7]
     aa0:	2b02      	cmp	r3, #2
     aa2:	d003      	beq.n	aac <execute(COMMAND_t, int)+0x74>
     aa4:	f89d 3007 	ldrb.w	r3, [sp, #7]
     aa8:	2b03      	cmp	r3, #3
     aaa:	d102      	bne.n	ab2 <execute(COMMAND_t, int)+0x7a>
     aac:	9803      	ldr	r0, [sp, #12]
     aae:	f7ff fd35 	bl	51c <push(float)>
     ab2:	f89d 3007 	ldrb.w	r3, [sp, #7]
     ab6:	2b05      	cmp	r3, #5
     ab8:	d101      	bne.n	abe <execute(COMMAND_t, int)+0x86>
     aba:	f7ff fd5f 	bl	57c <_break()>
     abe:	f89d 3007 	ldrb.w	r3, [sp, #7]
     ac2:	2b06      	cmp	r3, #6
     ac4:	d101      	bne.n	aca <execute(COMMAND_t, int)+0x92>
     ac6:	f7ff fd6f 	bl	5a8 <relay_on()>
     aca:	b005      	add	sp, #20
     acc:	f85d fb04 	ldr.w	pc, [sp], #4
     ad0:	47ae147b 	.word	0x47ae147b
     ad4:	3f847ae1 	.word	0x3f847ae1

00000ad8 <read_voltage24()>:
     ad8:	b500      	push	{lr}
     ada:	b083      	sub	sp, #12
     adc:	4816      	ldr	r0, [pc, #88]	; (b38 <read_voltage24()+0x60>)
     ade:	f7ff fbdb 	bl	298 <mbed::AnalogIn::operator float()>
     ae2:	9001      	str	r0, [sp, #4]
     ae4:	4814      	ldr	r0, [pc, #80]	; (b38 <read_voltage24()+0x60>)
     ae6:	f7ff fbd7 	bl	298 <mbed::AnalogIn::operator float()>
     aea:	9001      	str	r0, [sp, #4]
     aec:	4812      	ldr	r0, [pc, #72]	; (b38 <read_voltage24()+0x60>)
     aee:	f7ff fbd3 	bl	298 <mbed::AnalogIn::operator float()>
     af2:	9001      	str	r0, [sp, #4]
     af4:	4810      	ldr	r0, [pc, #64]	; (b38 <read_voltage24()+0x60>)
     af6:	f7ff fbcf 	bl	298 <mbed::AnalogIn::operator float()>
     afa:	4603      	mov	r3, r0
     afc:	4618      	mov	r0, r3
     afe:	f006 f82b 	bl	6b58 <__aeabi_f2d>
     b02:	4602      	mov	r2, r0
     b04:	460b      	mov	r3, r1
     b06:	4610      	mov	r0, r2
     b08:	4619      	mov	r1, r3
     b0a:	a309      	add	r3, pc, #36	; (adr r3, b30 <read_voltage24()+0x58>)
     b0c:	e9d3 2300 	ldrd	r2, r3, [r3]
     b10:	f006 f876 	bl	6c00 <__aeabi_dmul>
     b14:	4602      	mov	r2, r0
     b16:	460b      	mov	r3, r1
     b18:	4610      	mov	r0, r2
     b1a:	4619      	mov	r1, r3
     b1c:	f006 fa82 	bl	7024 <__aeabi_d2iz>
     b20:	4603      	mov	r3, r0
     b22:	4618      	mov	r0, r3
     b24:	b003      	add	sp, #12
     b26:	f85d fb04 	ldr.w	pc, [sp], #4
     b2a:	bf00      	nop
     b2c:	f3af 8000 	nop.w
     b30:	00000000 	.word	0x00000000
     b34:	4074a000 	.word	0x4074a000
     b38:	10000208 	.word	0x10000208
     b3c:	f3af 8000 	nop.w

00000b40 <read_voltage48()>:
     b40:	b500      	push	{lr}
     b42:	b083      	sub	sp, #12
     b44:	4813      	ldr	r0, [pc, #76]	; (b94 <read_voltage48()+0x54>)
     b46:	f7ff fba7 	bl	298 <mbed::AnalogIn::operator float()>
     b4a:	9001      	str	r0, [sp, #4]
     b4c:	4811      	ldr	r0, [pc, #68]	; (b94 <read_voltage48()+0x54>)
     b4e:	f7ff fba3 	bl	298 <mbed::AnalogIn::operator float()>
     b52:	9001      	str	r0, [sp, #4]
     b54:	480f      	ldr	r0, [pc, #60]	; (b94 <read_voltage48()+0x54>)
     b56:	f7ff fb9f 	bl	298 <mbed::AnalogIn::operator float()>
     b5a:	9001      	str	r0, [sp, #4]
     b5c:	480d      	ldr	r0, [pc, #52]	; (b94 <read_voltage48()+0x54>)
     b5e:	f7ff fb9b 	bl	298 <mbed::AnalogIn::operator float()>
     b62:	4603      	mov	r3, r0
     b64:	4618      	mov	r0, r3
     b66:	f005 fff7 	bl	6b58 <__aeabi_f2d>
     b6a:	4602      	mov	r2, r0
     b6c:	460b      	mov	r3, r1
     b6e:	4610      	mov	r0, r2
     b70:	4619      	mov	r1, r3
     b72:	f04f 0200 	mov.w	r2, #0
     b76:	4b08      	ldr	r3, [pc, #32]	; (b98 <read_voltage48()+0x58>)
     b78:	f006 f842 	bl	6c00 <__aeabi_dmul>
     b7c:	4602      	mov	r2, r0
     b7e:	460b      	mov	r3, r1
     b80:	4610      	mov	r0, r2
     b82:	4619      	mov	r1, r3
     b84:	f006 fa4e 	bl	7024 <__aeabi_d2iz>
     b88:	4603      	mov	r3, r0
     b8a:	4618      	mov	r0, r3
     b8c:	b003      	add	sp, #12
     b8e:	f85d fb04 	ldr.w	pc, [sp], #4
     b92:	bf00      	nop
     b94:	1000020c 	.word	0x1000020c
     b98:	40829000 	.word	0x40829000
     b9c:	00000000 	.word	0x00000000

00000ba0 <read_pot()>:
     ba0:	b500      	push	{lr}
     ba2:	b083      	sub	sp, #12
     ba4:	4816      	ldr	r0, [pc, #88]	; (c00 <Stack_Size>)
     ba6:	f7ff fb77 	bl	298 <mbed::AnalogIn::operator float()>
     baa:	9001      	str	r0, [sp, #4]
     bac:	4814      	ldr	r0, [pc, #80]	; (c00 <Stack_Size>)
     bae:	f7ff fb73 	bl	298 <mbed::AnalogIn::operator float()>
     bb2:	9001      	str	r0, [sp, #4]
     bb4:	4812      	ldr	r0, [pc, #72]	; (c00 <Stack_Size>)
     bb6:	f7ff fb6f 	bl	298 <mbed::AnalogIn::operator float()>
     bba:	9001      	str	r0, [sp, #4]
     bbc:	4810      	ldr	r0, [pc, #64]	; (c00 <Stack_Size>)
     bbe:	f7ff fb6b 	bl	298 <mbed::AnalogIn::operator float()>
     bc2:	4603      	mov	r3, r0
     bc4:	4618      	mov	r0, r3
     bc6:	f005 ffc7 	bl	6b58 <__aeabi_f2d>
     bca:	4602      	mov	r2, r0
     bcc:	460b      	mov	r3, r1
     bce:	4610      	mov	r0, r2
     bd0:	4619      	mov	r1, r3
     bd2:	a309      	add	r3, pc, #36	; (adr r3, bf8 <read_pot()+0x58>)
     bd4:	e9d3 2300 	ldrd	r2, r3, [r3]
     bd8:	f006 f812 	bl	6c00 <__aeabi_dmul>
     bdc:	4602      	mov	r2, r0
     bde:	460b      	mov	r3, r1
     be0:	4610      	mov	r0, r2
     be2:	4619      	mov	r1, r3
     be4:	f006 fa1e 	bl	7024 <__aeabi_d2iz>
     be8:	4603      	mov	r3, r0
     bea:	4618      	mov	r0, r3
     bec:	b003      	add	sp, #12
     bee:	f85d fb04 	ldr.w	pc, [sp], #4
     bf2:	bf00      	nop
     bf4:	f3af 8000 	nop.w
     bf8:	00000000 	.word	0x00000000
     bfc:	4074a000 	.word	0x4074a000
     c00:	10000204 	.word	0x10000204
     c04:	f3af 8000 	nop.w

00000c08 <throttle_in_rise()>:
     c08:	b508      	push	{r3, lr}
     c0a:	4802      	ldr	r0, [pc, #8]	; (c14 <throttle_in_rise()+0xc>)
     c0c:	f004 f8cc 	bl	4da8 <mbed::Timer::reset()>
     c10:	bd08      	pop	{r3, pc}
     c12:	bf00      	nop
     c14:	100006a8 	.word	0x100006a8

00000c18 <throttle_in_fall()>:
     c18:	b508      	push	{r3, lr}
     c1a:	4805      	ldr	r0, [pc, #20]	; (c30 <throttle_in_fall()+0x18>)
     c1c:	f004 f88e 	bl	4d3c <mbed::Timer::read_us()>
     c20:	4602      	mov	r2, r0
     c22:	4b04      	ldr	r3, [pc, #16]	; (c34 <throttle_in_fall()+0x1c>)
     c24:	601a      	str	r2, [r3, #0]
     c26:	4802      	ldr	r0, [pc, #8]	; (c30 <throttle_in_fall()+0x18>)
     c28:	f004 f8be 	bl	4da8 <mbed::Timer::reset()>
     c2c:	bd08      	pop	{r3, pc}
     c2e:	bf00      	nop
     c30:	100006a8 	.word	0x100006a8
     c34:	100006b4 	.word	0x100006b4

00000c38 <rudo_in_rise()>:
     c38:	b508      	push	{r3, lr}
     c3a:	4802      	ldr	r0, [pc, #8]	; (c44 <rudo_in_rise()+0xc>)
     c3c:	f004 f8b4 	bl	4da8 <mbed::Timer::reset()>
     c40:	bd08      	pop	{r3, pc}
     c42:	bf00      	nop
     c44:	100006b8 	.word	0x100006b8

00000c48 <rudo_in_fall()>:
     c48:	b508      	push	{r3, lr}
     c4a:	4805      	ldr	r0, [pc, #20]	; (c60 <rudo_in_fall()+0x18>)
     c4c:	f004 f876 	bl	4d3c <mbed::Timer::read_us()>
     c50:	4602      	mov	r2, r0
     c52:	4b04      	ldr	r3, [pc, #16]	; (c64 <rudo_in_fall()+0x1c>)
     c54:	601a      	str	r2, [r3, #0]
     c56:	4802      	ldr	r0, [pc, #8]	; (c60 <rudo_in_fall()+0x18>)
     c58:	f004 f8a6 	bl	4da8 <mbed::Timer::reset()>
     c5c:	bd08      	pop	{r3, pc}
     c5e:	bf00      	nop
     c60:	100006b8 	.word	0x100006b8
     c64:	100006c4 	.word	0x100006c4

00000c68 <elev_in_rise()>:
     c68:	b508      	push	{r3, lr}
     c6a:	4802      	ldr	r0, [pc, #8]	; (c74 <elev_in_rise()+0xc>)
     c6c:	f004 f89c 	bl	4da8 <mbed::Timer::reset()>
     c70:	bd08      	pop	{r3, pc}
     c72:	bf00      	nop
     c74:	100006c8 	.word	0x100006c8

00000c78 <elev_in_fall()>:
     c78:	b508      	push	{r3, lr}
     c7a:	4805      	ldr	r0, [pc, #20]	; (c90 <elev_in_fall()+0x18>)
     c7c:	f004 f85e 	bl	4d3c <mbed::Timer::read_us()>
     c80:	4602      	mov	r2, r0
     c82:	4b04      	ldr	r3, [pc, #16]	; (c94 <elev_in_fall()+0x1c>)
     c84:	601a      	str	r2, [r3, #0]
     c86:	4802      	ldr	r0, [pc, #8]	; (c90 <elev_in_fall()+0x18>)
     c88:	f004 f88e 	bl	4da8 <mbed::Timer::reset()>
     c8c:	bd08      	pop	{r3, pc}
     c8e:	bf00      	nop
     c90:	100006c8 	.word	0x100006c8
     c94:	100006d4 	.word	0x100006d4

00000c98 <init_rc()>:
     c98:	b508      	push	{r3, lr}
     c9a:	4811      	ldr	r0, [pc, #68]	; (ce0 <init_rc()+0x48>)
     c9c:	f004 f82e 	bl	4cfc <mbed::Timer::start()>
     ca0:	4810      	ldr	r0, [pc, #64]	; (ce4 <init_rc()+0x4c>)
     ca2:	4911      	ldr	r1, [pc, #68]	; (ce8 <init_rc()+0x50>)
     ca4:	f003 fb20 	bl	42e8 <mbed::InterruptIn::rise(void (*)())>
     ca8:	480e      	ldr	r0, [pc, #56]	; (ce4 <init_rc()+0x4c>)
     caa:	4910      	ldr	r1, [pc, #64]	; (cec <init_rc()+0x54>)
     cac:	f003 fb3c 	bl	4328 <mbed::InterruptIn::fall(void (*)())>
     cb0:	480f      	ldr	r0, [pc, #60]	; (cf0 <init_rc()+0x58>)
     cb2:	f004 f823 	bl	4cfc <mbed::Timer::start()>
     cb6:	480f      	ldr	r0, [pc, #60]	; (cf4 <init_rc()+0x5c>)
     cb8:	490f      	ldr	r1, [pc, #60]	; (cf8 <init_rc()+0x60>)
     cba:	f003 fb15 	bl	42e8 <mbed::InterruptIn::rise(void (*)())>
     cbe:	480d      	ldr	r0, [pc, #52]	; (cf4 <init_rc()+0x5c>)
     cc0:	490e      	ldr	r1, [pc, #56]	; (cfc <init_rc()+0x64>)
     cc2:	f003 fb31 	bl	4328 <mbed::InterruptIn::fall(void (*)())>
     cc6:	480e      	ldr	r0, [pc, #56]	; (d00 <init_rc()+0x68>)
     cc8:	f004 f818 	bl	4cfc <mbed::Timer::start()>
     ccc:	480d      	ldr	r0, [pc, #52]	; (d04 <init_rc()+0x6c>)
     cce:	490e      	ldr	r1, [pc, #56]	; (d08 <init_rc()+0x70>)
     cd0:	f003 fb0a 	bl	42e8 <mbed::InterruptIn::rise(void (*)())>
     cd4:	480b      	ldr	r0, [pc, #44]	; (d04 <init_rc()+0x6c>)
     cd6:	490d      	ldr	r1, [pc, #52]	; (d0c <init_rc()+0x74>)
     cd8:	f003 fb26 	bl	4328 <mbed::InterruptIn::fall(void (*)())>
     cdc:	bd08      	pop	{r3, pc}
     cde:	bf00      	nop
     ce0:	100006a8 	.word	0x100006a8
     ce4:	1000025c 	.word	0x1000025c
     ce8:	00000c09 	.word	0x00000c09
     cec:	00000c19 	.word	0x00000c19
     cf0:	100006b8 	.word	0x100006b8
     cf4:	1000031c 	.word	0x1000031c
     cf8:	00000c39 	.word	0x00000c39
     cfc:	00000c49 	.word	0x00000c49
     d00:	100006c8 	.word	0x100006c8
     d04:	100002bc 	.word	0x100002bc
     d08:	00000c69 	.word	0x00000c69
     d0c:	00000c79 	.word	0x00000c79

00000d10 <mbed::Ticker::Ticker()>:
     d10:	b500      	push	{lr}
     d12:	b083      	sub	sp, #12
     d14:	9001      	str	r0, [sp, #4]
     d16:	9b01      	ldr	r3, [sp, #4]
     d18:	4618      	mov	r0, r3
     d1a:	f004 f853 	bl	4dc4 <mbed::TimerEvent::TimerEvent()>
     d1e:	9b01      	ldr	r3, [sp, #4]
     d20:	4a06      	ldr	r2, [pc, #24]	; (d3c <mbed::Ticker::Ticker()+0x2c>)
     d22:	601a      	str	r2, [r3, #0]
     d24:	9b01      	ldr	r3, [sp, #4]
     d26:	3314      	adds	r3, #20
     d28:	4618      	mov	r0, r3
     d2a:	2100      	movs	r1, #0
     d2c:	f003 fa32 	bl	4194 <mbed::FunctionPointer::FunctionPointer(void (*)())>
     d30:	9b01      	ldr	r3, [sp, #4]
     d32:	4618      	mov	r0, r3
     d34:	b003      	add	sp, #12
     d36:	f85d fb04 	ldr.w	pc, [sp], #4
     d3a:	bf00      	nop
     d3c:	0000dbf0 	.word	0x0000dbf0

00000d40 <tx_emitter_task()>:
     d40:	b530      	push	{r4, r5, lr}
     d42:	b085      	sub	sp, #20
     d44:	f7ff ff2c 	bl	ba0 <read_pot()>
     d48:	4605      	mov	r5, r0
     d4a:	f7ff fec5 	bl	ad8 <read_voltage24()>
     d4e:	4604      	mov	r4, r0
     d50:	f7ff fef6 	bl	b40 <read_voltage48()>
     d54:	4b09      	ldr	r3, [pc, #36]	; (d7c <tx_emitter_task()+0x3c>)
     d56:	6819      	ldr	r1, [r3, #0]
     d58:	4b09      	ldr	r3, [pc, #36]	; (d80 <tx_emitter_task()+0x40>)
     d5a:	681a      	ldr	r2, [r3, #0]
     d5c:	4b09      	ldr	r3, [pc, #36]	; (d84 <tx_emitter_task()+0x44>)
     d5e:	681b      	ldr	r3, [r3, #0]
     d60:	9000      	str	r0, [sp, #0]
     d62:	9101      	str	r1, [sp, #4]
     d64:	9202      	str	r2, [sp, #8]
     d66:	9303      	str	r3, [sp, #12]
     d68:	4807      	ldr	r0, [pc, #28]	; (d88 <tx_emitter_task()+0x48>)
     d6a:	4908      	ldr	r1, [pc, #32]	; (d8c <tx_emitter_task()+0x4c>)
     d6c:	462a      	mov	r2, r5
     d6e:	4623      	mov	r3, r4
     d70:	f007 fb34 	bl	83dc <siprintf>
     d74:	f7ff fc48 	bl	608 <send_line()>
     d78:	b005      	add	sp, #20
     d7a:	bd30      	pop	{r4, r5, pc}
     d7c:	100006b4 	.word	0x100006b4
     d80:	100006c4 	.word	0x100006c4
     d84:	100006d4 	.word	0x100006d4
     d88:	10000608 	.word	0x10000608
     d8c:	0000cc20 	.word	0x0000cc20

00000d90 <init_tx_emitter()>:
     d90:	b508      	push	{r3, lr}
     d92:	4803      	ldr	r0, [pc, #12]	; (da0 <init_tx_emitter()+0x10>)
     d94:	4903      	ldr	r1, [pc, #12]	; (da4 <init_tx_emitter()+0x14>)
     d96:	4a04      	ldr	r2, [pc, #16]	; (da8 <init_tx_emitter()+0x18>)
     d98:	f7ff fad4 	bl	344 <mbed::Ticker::attach(void (*)(), float)>
     d9c:	bd08      	pop	{r3, pc}
     d9e:	bf00      	nop
     da0:	100006d8 	.word	0x100006d8
     da4:	00000d41 	.word	0x00000d41
     da8:	3e99999a 	.word	0x3e99999a

00000dac <delayed_break_task()>:
     dac:	b508      	push	{r3, lr}
     dae:	f7ff fb67 	bl	480 <relay_break_process()>
     db2:	bd08      	pop	{r3, pc}

00000db4 <init_relay_brake_ticker()>:
     db4:	b508      	push	{r3, lr}
     db6:	4803      	ldr	r0, [pc, #12]	; (dc4 <init_relay_brake_ticker()+0x10>)
     db8:	4903      	ldr	r1, [pc, #12]	; (dc8 <init_relay_brake_ticker()+0x14>)
     dba:	4a04      	ldr	r2, [pc, #16]	; (dcc <init_relay_brake_ticker()+0x18>)
     dbc:	f7ff fac2 	bl	344 <mbed::Ticker::attach(void (*)(), float)>
     dc0:	bd08      	pop	{r3, pc}
     dc2:	bf00      	nop
     dc4:	10000708 	.word	0x10000708
     dc8:	00000dad 	.word	0x00000dad
     dcc:	3dcccccd 	.word	0x3dcccccd

00000dd0 <main>:
     dd0:	b500      	push	{lr}
     dd2:	b085      	sub	sp, #20
     dd4:	2300      	movs	r3, #0
     dd6:	9303      	str	r3, [sp, #12]
     dd8:	2300      	movs	r3, #0
     dda:	9302      	str	r3, [sp, #8]
     ddc:	f7ff ff5c 	bl	c98 <init_rc()>
     de0:	f7ff fdb2 	bl	948 <init_serial_interrupt()>
     de4:	f7ff ffd4 	bl	d90 <init_tx_emitter()>
     de8:	f7ff fad6 	bl	398 <init_relay_brake()>
     dec:	f7ff ffe2 	bl	db4 <init_relay_brake_ticker()>
     df0:	f7ff fcb6 	bl	760 <read_line()>
     df4:	4808      	ldr	r0, [pc, #32]	; (e18 <main+0x48>)
     df6:	f7ff fdbf 	bl	978 <parse_command(char*)>
     dfa:	4603      	mov	r3, r0
     dfc:	f88d 3007 	strb.w	r3, [sp, #7]
     e00:	4805      	ldr	r0, [pc, #20]	; (e18 <main+0x48>)
     e02:	f7ff fde9 	bl	9d8 <parse_args(char*)>
     e06:	9000      	str	r0, [sp, #0]
     e08:	f89d 3007 	ldrb.w	r3, [sp, #7]
     e0c:	4618      	mov	r0, r3
     e0e:	9900      	ldr	r1, [sp, #0]
     e10:	f7ff fe12 	bl	a38 <execute(COMMAND_t, int)>
     e14:	e7ec      	b.n	df0 <main+0x20>
     e16:	bf00      	nop
     e18:	10000658 	.word	0x10000658

00000e1c <mbed::Serial::~Serial()>:
     e1c:	b500      	push	{lr}
     e1e:	b083      	sub	sp, #12
     e20:	9001      	str	r0, [sp, #4]
     e22:	9b01      	ldr	r3, [sp, #4]
     e24:	4a0d      	ldr	r2, [pc, #52]	; (e5c <mbed::Serial::~Serial()+0x40>)
     e26:	601a      	str	r2, [r3, #0]
     e28:	9b01      	ldr	r3, [sp, #4]
     e2a:	4a0d      	ldr	r2, [pc, #52]	; (e60 <mbed::Serial::~Serial()+0x44>)
     e2c:	649a      	str	r2, [r3, #72]	; 0x48
     e2e:	9b01      	ldr	r3, [sp, #4]
     e30:	4a0c      	ldr	r2, [pc, #48]	; (e64 <mbed::Serial::~Serial()+0x48>)
     e32:	64da      	str	r2, [r3, #76]	; 0x4c
     e34:	9b01      	ldr	r3, [sp, #4]
     e36:	3348      	adds	r3, #72	; 0x48
     e38:	4618      	mov	r0, r3
     e3a:	f003 fe49 	bl	4ad0 <mbed::Stream::~Stream()>
     e3e:	9b01      	ldr	r3, [sp, #4]
     e40:	4618      	mov	r0, r3
     e42:	f7ff fa5d 	bl	300 <mbed::SerialBase::~SerialBase()>
     e46:	2300      	movs	r3, #0
     e48:	2b00      	cmp	r3, #0
     e4a:	d002      	beq.n	e52 <mbed::Serial::~Serial()+0x36>
     e4c:	9801      	ldr	r0, [sp, #4]
     e4e:	f005 fd15 	bl	687c <operator delete(void*)>
     e52:	9b01      	ldr	r3, [sp, #4]
     e54:	4618      	mov	r0, r3
     e56:	b003      	add	sp, #12
     e58:	f85d fb04 	ldr.w	pc, [sp], #4
     e5c:	0000db40 	.word	0x0000db40
     e60:	0000db58 	.word	0x0000db58
     e64:	0000db8c 	.word	0x0000db8c

00000e68 <non-virtual thunk to mbed::Serial::~Serial()>:
     e68:	f1a0 004c 	sub.w	r0, r0, #76	; 0x4c
     e6c:	f7ff bfd6 	b.w	e1c <mbed::Serial::~Serial()>

00000e70 <non-virtual thunk to mbed::Serial::~Serial()>:
     e70:	f1a0 0048 	sub.w	r0, r0, #72	; 0x48
     e74:	f7ff bfd2 	b.w	e1c <mbed::Serial::~Serial()>

00000e78 <mbed::Serial::~Serial()>:
     e78:	b500      	push	{lr}
     e7a:	b083      	sub	sp, #12
     e7c:	9001      	str	r0, [sp, #4]
     e7e:	9801      	ldr	r0, [sp, #4]
     e80:	f7ff ffcc 	bl	e1c <mbed::Serial::~Serial()>
     e84:	9801      	ldr	r0, [sp, #4]
     e86:	f005 fcf9 	bl	687c <operator delete(void*)>
     e8a:	9b01      	ldr	r3, [sp, #4]
     e8c:	4618      	mov	r0, r3
     e8e:	b003      	add	sp, #12
     e90:	f85d fb04 	ldr.w	pc, [sp], #4

00000e94 <non-virtual thunk to mbed::Serial::~Serial()>:
     e94:	f1a0 004c 	sub.w	r0, r0, #76	; 0x4c
     e98:	e7ee      	b.n	e78 <mbed::Serial::~Serial()>
     e9a:	bf00      	nop

00000e9c <non-virtual thunk to mbed::Serial::~Serial()>:
     e9c:	f1a0 0048 	sub.w	r0, r0, #72	; 0x48
     ea0:	e7ea      	b.n	e78 <mbed::Serial::~Serial()>
     ea2:	bf00      	nop

00000ea4 <mbed::Ticker::~Ticker()>:
     ea4:	b500      	push	{lr}
     ea6:	b083      	sub	sp, #12
     ea8:	9001      	str	r0, [sp, #4]
     eaa:	9b01      	ldr	r3, [sp, #4]
     eac:	4a08      	ldr	r2, [pc, #32]	; (ed0 <mbed::Ticker::~Ticker()+0x2c>)
     eae:	601a      	str	r2, [r3, #0]
     eb0:	9b01      	ldr	r3, [sp, #4]
     eb2:	4618      	mov	r0, r3
     eb4:	f003 ffb0 	bl	4e18 <mbed::TimerEvent::~TimerEvent()>
     eb8:	2300      	movs	r3, #0
     eba:	2b00      	cmp	r3, #0
     ebc:	d002      	beq.n	ec4 <mbed::Ticker::~Ticker()+0x20>
     ebe:	9801      	ldr	r0, [sp, #4]
     ec0:	f005 fcdc 	bl	687c <operator delete(void*)>
     ec4:	9b01      	ldr	r3, [sp, #4]
     ec6:	4618      	mov	r0, r3
     ec8:	b003      	add	sp, #12
     eca:	f85d fb04 	ldr.w	pc, [sp], #4
     ece:	bf00      	nop
     ed0:	0000dbf0 	.word	0x0000dbf0

00000ed4 <mbed::Ticker::~Ticker()>:
     ed4:	b500      	push	{lr}
     ed6:	b083      	sub	sp, #12
     ed8:	9001      	str	r0, [sp, #4]
     eda:	9801      	ldr	r0, [sp, #4]
     edc:	f7ff ffe2 	bl	ea4 <mbed::Ticker::~Ticker()>
     ee0:	9801      	ldr	r0, [sp, #4]
     ee2:	f005 fccb 	bl	687c <operator delete(void*)>
     ee6:	9b01      	ldr	r3, [sp, #4]
     ee8:	4618      	mov	r0, r3
     eea:	b003      	add	sp, #12
     eec:	f85d fb04 	ldr.w	pc, [sp], #4

00000ef0 <__static_initialization_and_destruction_0(int, int)>:
     ef0:	b500      	push	{lr}
     ef2:	b083      	sub	sp, #12
     ef4:	9001      	str	r0, [sp, #4]
     ef6:	9100      	str	r1, [sp, #0]
     ef8:	9b01      	ldr	r3, [sp, #4]
     efa:	2b01      	cmp	r3, #1
     efc:	d175      	bne.n	fea <__static_initialization_and_destruction_0(int, int)+0xfa>
     efe:	9a00      	ldr	r2, [sp, #0]
     f00:	f64f 73ff 	movw	r3, #65535	; 0xffff
     f04:	429a      	cmp	r2, r3
     f06:	d170      	bne.n	fea <__static_initialization_and_destruction_0(int, int)+0xfa>
     f08:	4839      	ldr	r0, [pc, #228]	; (ff0 <__static_initialization_and_destruction_0(int, int)+0x100>)
     f0a:	493a      	ldr	r1, [pc, #232]	; (ff4 <__static_initialization_and_destruction_0(int, int)+0x104>)
     f0c:	4a3a      	ldr	r2, [pc, #232]	; (ff8 <__static_initialization_and_destruction_0(int, int)+0x108>)
     f0e:	2300      	movs	r3, #0
     f10:	f003 fc9a 	bl	4848 <mbed::Serial::Serial(PinName, PinName, char const*)>
     f14:	4836      	ldr	r0, [pc, #216]	; (ff0 <__static_initialization_and_destruction_0(int, int)+0x100>)
     f16:	4939      	ldr	r1, [pc, #228]	; (ffc <__static_initialization_and_destruction_0(int, int)+0x10c>)
     f18:	4a39      	ldr	r2, [pc, #228]	; (1000 <__static_initialization_and_destruction_0(int, int)+0x110>)
     f1a:	f005 fcb3 	bl	6884 <__aeabi_atexit>
     f1e:	4839      	ldr	r0, [pc, #228]	; (1004 <__static_initialization_and_destruction_0(int, int)+0x114>)
     f20:	4939      	ldr	r1, [pc, #228]	; (1008 <__static_initialization_and_destruction_0(int, int)+0x118>)
     f22:	f7ff f99f 	bl	264 <mbed::AnalogIn::AnalogIn(PinName)>
     f26:	4839      	ldr	r0, [pc, #228]	; (100c <__static_initialization_and_destruction_0(int, int)+0x11c>)
     f28:	4939      	ldr	r1, [pc, #228]	; (1010 <__static_initialization_and_destruction_0(int, int)+0x120>)
     f2a:	f7ff f99b 	bl	264 <mbed::AnalogIn::AnalogIn(PinName)>
     f2e:	4839      	ldr	r0, [pc, #228]	; (1014 <__static_initialization_and_destruction_0(int, int)+0x124>)
     f30:	4939      	ldr	r1, [pc, #228]	; (1018 <__static_initialization_and_destruction_0(int, int)+0x128>)
     f32:	f7ff f997 	bl	264 <mbed::AnalogIn::AnalogIn(PinName)>
     f36:	4839      	ldr	r0, [pc, #228]	; (101c <__static_initialization_and_destruction_0(int, int)+0x12c>)
     f38:	4939      	ldr	r1, [pc, #228]	; (1020 <__static_initialization_and_destruction_0(int, int)+0x130>)
     f3a:	f7ff f9b9 	bl	2b0 <mbed::AnalogOut::AnalogOut(PinName)>
     f3e:	4839      	ldr	r0, [pc, #228]	; (1024 <__static_initialization_and_destruction_0(int, int)+0x134>)
     f40:	4939      	ldr	r1, [pc, #228]	; (1028 <__static_initialization_and_destruction_0(int, int)+0x138>)
     f42:	f7ff f93d 	bl	1c0 <mbed::DigitalOut::DigitalOut(PinName)>
     f46:	4839      	ldr	r0, [pc, #228]	; (102c <__static_initialization_and_destruction_0(int, int)+0x13c>)
     f48:	4939      	ldr	r1, [pc, #228]	; (1030 <__static_initialization_and_destruction_0(int, int)+0x140>)
     f4a:	f7ff f939 	bl	1c0 <mbed::DigitalOut::DigitalOut(PinName)>
     f4e:	4839      	ldr	r0, [pc, #228]	; (1034 <__static_initialization_and_destruction_0(int, int)+0x144>)
     f50:	4939      	ldr	r1, [pc, #228]	; (1038 <__static_initialization_and_destruction_0(int, int)+0x148>)
     f52:	f7ff f935 	bl	1c0 <mbed::DigitalOut::DigitalOut(PinName)>
     f56:	4839      	ldr	r0, [pc, #228]	; (103c <__static_initialization_and_destruction_0(int, int)+0x14c>)
     f58:	4939      	ldr	r1, [pc, #228]	; (1040 <__static_initialization_and_destruction_0(int, int)+0x150>)
     f5a:	f003 f959 	bl	4210 <mbed::InterruptIn::InterruptIn(PinName)>
     f5e:	4837      	ldr	r0, [pc, #220]	; (103c <__static_initialization_and_destruction_0(int, int)+0x14c>)
     f60:	4938      	ldr	r1, [pc, #224]	; (1044 <__static_initialization_and_destruction_0(int, int)+0x154>)
     f62:	4a27      	ldr	r2, [pc, #156]	; (1000 <__static_initialization_and_destruction_0(int, int)+0x110>)
     f64:	f005 fc8e 	bl	6884 <__aeabi_atexit>
     f68:	4837      	ldr	r0, [pc, #220]	; (1048 <__static_initialization_and_destruction_0(int, int)+0x158>)
     f6a:	4938      	ldr	r1, [pc, #224]	; (104c <__static_initialization_and_destruction_0(int, int)+0x15c>)
     f6c:	f003 f950 	bl	4210 <mbed::InterruptIn::InterruptIn(PinName)>
     f70:	4835      	ldr	r0, [pc, #212]	; (1048 <__static_initialization_and_destruction_0(int, int)+0x158>)
     f72:	4934      	ldr	r1, [pc, #208]	; (1044 <__static_initialization_and_destruction_0(int, int)+0x154>)
     f74:	4a22      	ldr	r2, [pc, #136]	; (1000 <__static_initialization_and_destruction_0(int, int)+0x110>)
     f76:	f005 fc85 	bl	6884 <__aeabi_atexit>
     f7a:	4835      	ldr	r0, [pc, #212]	; (1050 <__static_initialization_and_destruction_0(int, int)+0x160>)
     f7c:	4935      	ldr	r1, [pc, #212]	; (1054 <__static_initialization_and_destruction_0(int, int)+0x164>)
     f7e:	f003 f947 	bl	4210 <mbed::InterruptIn::InterruptIn(PinName)>
     f82:	4833      	ldr	r0, [pc, #204]	; (1050 <__static_initialization_and_destruction_0(int, int)+0x160>)
     f84:	492f      	ldr	r1, [pc, #188]	; (1044 <__static_initialization_and_destruction_0(int, int)+0x154>)
     f86:	4a1e      	ldr	r2, [pc, #120]	; (1000 <__static_initialization_and_destruction_0(int, int)+0x110>)
     f88:	f005 fc7c 	bl	6884 <__aeabi_atexit>
     f8c:	4832      	ldr	r0, [pc, #200]	; (1058 <__static_initialization_and_destruction_0(int, int)+0x168>)
     f8e:	4933      	ldr	r1, [pc, #204]	; (105c <__static_initialization_and_destruction_0(int, int)+0x16c>)
     f90:	f7ff f916 	bl	1c0 <mbed::DigitalOut::DigitalOut(PinName)>
     f94:	4832      	ldr	r0, [pc, #200]	; (1060 <__static_initialization_and_destruction_0(int, int)+0x170>)
     f96:	4933      	ldr	r1, [pc, #204]	; (1064 <__static_initialization_and_destruction_0(int, int)+0x174>)
     f98:	f7ff f912 	bl	1c0 <mbed::DigitalOut::DigitalOut(PinName)>
     f9c:	4832      	ldr	r0, [pc, #200]	; (1068 <__static_initialization_and_destruction_0(int, int)+0x178>)
     f9e:	4933      	ldr	r1, [pc, #204]	; (106c <__static_initialization_and_destruction_0(int, int)+0x17c>)
     fa0:	f7ff f90e 	bl	1c0 <mbed::DigitalOut::DigitalOut(PinName)>
     fa4:	4832      	ldr	r0, [pc, #200]	; (1070 <__static_initialization_and_destruction_0(int, int)+0x180>)
     fa6:	4933      	ldr	r1, [pc, #204]	; (1074 <__static_initialization_and_destruction_0(int, int)+0x184>)
     fa8:	f7ff f90a 	bl	1c0 <mbed::DigitalOut::DigitalOut(PinName)>
     fac:	4832      	ldr	r0, [pc, #200]	; (1078 <__static_initialization_and_destruction_0(int, int)+0x188>)
     fae:	f003 fe91 	bl	4cd4 <mbed::Timer::Timer()>
     fb2:	4832      	ldr	r0, [pc, #200]	; (107c <__static_initialization_and_destruction_0(int, int)+0x18c>)
     fb4:	f003 fe8e 	bl	4cd4 <mbed::Timer::Timer()>
     fb8:	4831      	ldr	r0, [pc, #196]	; (1080 <__static_initialization_and_destruction_0(int, int)+0x190>)
     fba:	f003 fe8b 	bl	4cd4 <mbed::Timer::Timer()>
     fbe:	4831      	ldr	r0, [pc, #196]	; (1084 <__static_initialization_and_destruction_0(int, int)+0x194>)
     fc0:	f003 fe88 	bl	4cd4 <mbed::Timer::Timer()>
     fc4:	4830      	ldr	r0, [pc, #192]	; (1088 <__static_initialization_and_destruction_0(int, int)+0x198>)
     fc6:	f003 fe85 	bl	4cd4 <mbed::Timer::Timer()>
     fca:	4830      	ldr	r0, [pc, #192]	; (108c <__static_initialization_and_destruction_0(int, int)+0x19c>)
     fcc:	f7ff fea0 	bl	d10 <mbed::Ticker::Ticker()>
     fd0:	482e      	ldr	r0, [pc, #184]	; (108c <__static_initialization_and_destruction_0(int, int)+0x19c>)
     fd2:	492f      	ldr	r1, [pc, #188]	; (1090 <__static_initialization_and_destruction_0(int, int)+0x1a0>)
     fd4:	4a0a      	ldr	r2, [pc, #40]	; (1000 <__static_initialization_and_destruction_0(int, int)+0x110>)
     fd6:	f005 fc55 	bl	6884 <__aeabi_atexit>
     fda:	482e      	ldr	r0, [pc, #184]	; (1094 <__static_initialization_and_destruction_0(int, int)+0x1a4>)
     fdc:	f7ff fe98 	bl	d10 <mbed::Ticker::Ticker()>
     fe0:	482c      	ldr	r0, [pc, #176]	; (1094 <__static_initialization_and_destruction_0(int, int)+0x1a4>)
     fe2:	492b      	ldr	r1, [pc, #172]	; (1090 <__static_initialization_and_destruction_0(int, int)+0x1a0>)
     fe4:	4a06      	ldr	r2, [pc, #24]	; (1000 <__static_initialization_and_destruction_0(int, int)+0x110>)
     fe6:	f005 fc4d 	bl	6884 <__aeabi_atexit>
     fea:	b003      	add	sp, #12
     fec:	f85d fb04 	ldr.w	pc, [sp], #4
     ff0:	100001a4 	.word	0x100001a4
     ff4:	2009c002 	.word	0x2009c002
     ff8:	2009c003 	.word	0x2009c003
     ffc:	00000e1d 	.word	0x00000e1d
    1000:	100000c8 	.word	0x100000c8
    1004:	10000204 	.word	0x10000204
    1008:	2009c017 	.word	0x2009c017
    100c:	10000208 	.word	0x10000208
    1010:	2009c018 	.word	0x2009c018
    1014:	1000020c 	.word	0x1000020c
    1018:	2009c019 	.word	0x2009c019
    101c:	10000210 	.word	0x10000210
    1020:	2009c01a 	.word	0x2009c01a
    1024:	10000214 	.word	0x10000214
    1028:	2009c012 	.word	0x2009c012
    102c:	1000022c 	.word	0x1000022c
    1030:	2009c011 	.word	0x2009c011
    1034:	10000244 	.word	0x10000244
    1038:	2009c00f 	.word	0x2009c00f
    103c:	1000025c 	.word	0x1000025c
    1040:	2009c045 	.word	0x2009c045
    1044:	0000429d 	.word	0x0000429d
    1048:	100002bc 	.word	0x100002bc
    104c:	2009c043 	.word	0x2009c043
    1050:	1000031c 	.word	0x1000031c
    1054:	2009c042 	.word	0x2009c042
    1058:	1000037c 	.word	0x1000037c
    105c:	2009c004 	.word	0x2009c004
    1060:	10000394 	.word	0x10000394
    1064:	2009c032 	.word	0x2009c032
    1068:	100003ac 	.word	0x100003ac
    106c:	2009c034 	.word	0x2009c034
    1070:	100003c4 	.word	0x100003c4
    1074:	2009c037 	.word	0x2009c037
    1078:	100003dc 	.word	0x100003dc
    107c:	100003ec 	.word	0x100003ec
    1080:	100006a8 	.word	0x100006a8
    1084:	100006b8 	.word	0x100006b8
    1088:	100006c8 	.word	0x100006c8
    108c:	100006d8 	.word	0x100006d8
    1090:	00000ea5 	.word	0x00000ea5
    1094:	10000708 	.word	0x10000708

00001098 <_GLOBAL__sub_I_pc>:
    1098:	b508      	push	{r3, lr}
    109a:	2001      	movs	r0, #1
    109c:	f64f 71ff 	movw	r1, #65535	; 0xffff
    10a0:	f7ff ff26 	bl	ef0 <__static_initialization_and_destruction_0(int, int)>
    10a4:	bd08      	pop	{r3, pc}
    10a6:	bf00      	nop

000010a8 <_start>:
    10a8:	b500      	push	{lr}
    10aa:	b083      	sub	sp, #12
    10ac:	4a0b      	ldr	r2, [pc, #44]	; (10dc <_start+0x34>)
    10ae:	4b0c      	ldr	r3, [pc, #48]	; (10e0 <_start+0x38>)
    10b0:	1ad3      	subs	r3, r2, r3
    10b2:	9301      	str	r3, [sp, #4]
    10b4:	9b01      	ldr	r3, [sp, #4]
    10b6:	480a      	ldr	r0, [pc, #40]	; (10e0 <_start+0x38>)
    10b8:	2100      	movs	r1, #0
    10ba:	461a      	mov	r2, r3
    10bc:	f006 ff43 	bl	7f46 <memset>
    10c0:	4808      	ldr	r0, [pc, #32]	; (10e4 <_start+0x3c>)
    10c2:	f000 f887 	bl	11d4 <__mriInit>
    10c6:	be00      	bkpt	0x0000
    10c8:	f3af 8000 	nop.w
    10cc:	f006 fea2 	bl	7e14 <__libc_init_array>
    10d0:	f7ff fe7e 	bl	dd0 <main>
    10d4:	9000      	str	r0, [sp, #0]
    10d6:	9800      	ldr	r0, [sp, #0]
    10d8:	f002 fed6 	bl	3e88 <exit>
    10dc:	10000c94 	.word	0x10000c94
    10e0:	10000188 	.word	0x10000188
    10e4:	0000cc48 	.word	0x0000cc48

000010e8 <__wrap__read>:
    10e8:	b500      	push	{lr}
    10ea:	b085      	sub	sp, #20
    10ec:	9003      	str	r0, [sp, #12]
    10ee:	9102      	str	r1, [sp, #8]
    10f0:	9201      	str	r2, [sp, #4]
    10f2:	9b03      	ldr	r3, [sp, #12]
    10f4:	2b02      	cmp	r3, #2
    10f6:	dc06      	bgt.n	1106 <__wrap__read+0x1e>
    10f8:	9803      	ldr	r0, [sp, #12]
    10fa:	9902      	ldr	r1, [sp, #8]
    10fc:	9a01      	ldr	r2, [sp, #4]
    10fe:	f000 fbb1 	bl	1864 <__mriNewlib_SemihostRead>
    1102:	4603      	mov	r3, r0
    1104:	e005      	b.n	1112 <__wrap__read+0x2a>
    1106:	9803      	ldr	r0, [sp, #12]
    1108:	9902      	ldr	r1, [sp, #8]
    110a:	9a01      	ldr	r2, [sp, #4]
    110c:	f003 fad8 	bl	46c0 <_read>
    1110:	4603      	mov	r3, r0
    1112:	4618      	mov	r0, r3
    1114:	b005      	add	sp, #20
    1116:	f85d fb04 	ldr.w	pc, [sp], #4
    111a:	bf00      	nop

0000111c <__wrap__write>:
    111c:	b500      	push	{lr}
    111e:	b085      	sub	sp, #20
    1120:	9003      	str	r0, [sp, #12]
    1122:	9102      	str	r1, [sp, #8]
    1124:	9201      	str	r2, [sp, #4]
    1126:	9b03      	ldr	r3, [sp, #12]
    1128:	2b02      	cmp	r3, #2
    112a:	dc06      	bgt.n	113a <__wrap__write+0x1e>
    112c:	9803      	ldr	r0, [sp, #12]
    112e:	9902      	ldr	r1, [sp, #8]
    1130:	9a01      	ldr	r2, [sp, #4]
    1132:	f000 fb95 	bl	1860 <__mriNewlib_SemihostWrite>
    1136:	4603      	mov	r3, r0
    1138:	e005      	b.n	1146 <__wrap__write+0x2a>
    113a:	9803      	ldr	r0, [sp, #12]
    113c:	9902      	ldr	r1, [sp, #8]
    113e:	9a01      	ldr	r2, [sp, #4]
    1140:	f003 fa7a 	bl	4638 <_write>
    1144:	4603      	mov	r3, r0
    1146:	4618      	mov	r0, r3
    1148:	b005      	add	sp, #20
    114a:	f85d fb04 	ldr.w	pc, [sp], #4
    114e:	bf00      	nop

00001150 <__wrap__isatty>:
    1150:	b500      	push	{lr}
    1152:	b083      	sub	sp, #12
    1154:	9001      	str	r0, [sp, #4]
    1156:	9b01      	ldr	r3, [sp, #4]
    1158:	2b02      	cmp	r3, #2
    115a:	dc01      	bgt.n	1160 <__wrap__isatty+0x10>
    115c:	2301      	movs	r3, #1
    115e:	e003      	b.n	1168 <__wrap__isatty+0x18>
    1160:	9801      	ldr	r0, [sp, #4]
    1162:	f003 fadf 	bl	4724 <_isatty>
    1166:	4603      	mov	r3, r0
    1168:	4618      	mov	r0, r3
    116a:	b003      	add	sp, #12
    116c:	f85d fb04 	ldr.w	pc, [sp], #4

00001170 <breakOnHeapOpFromInterruptHandler>:
    1170:	b082      	sub	sp, #8
    1172:	f3ef 8305 	mrs	r3, IPSR
    1176:	9301      	str	r3, [sp, #4]
    1178:	9b01      	ldr	r3, [sp, #4]
    117a:	2b00      	cmp	r3, #0
    117c:	d000      	beq.n	1180 <breakOnHeapOpFromInterruptHandler+0x10>
    117e:	be00      	bkpt	0x0000
    1180:	b002      	add	sp, #8
    1182:	4770      	bx	lr

00001184 <__wrap_malloc>:
    1184:	b500      	push	{lr}
    1186:	b083      	sub	sp, #12
    1188:	9001      	str	r0, [sp, #4]
    118a:	f7ff fff1 	bl	1170 <breakOnHeapOpFromInterruptHandler>
    118e:	9801      	ldr	r0, [sp, #4]
    1190:	f006 feb2 	bl	7ef8 <malloc>
    1194:	4603      	mov	r3, r0
    1196:	4618      	mov	r0, r3
    1198:	b003      	add	sp, #12
    119a:	f85d fb04 	ldr.w	pc, [sp], #4
    119e:	bf00      	nop

000011a0 <__wrap_free>:
    11a0:	b500      	push	{lr}
    11a2:	b083      	sub	sp, #12
    11a4:	9001      	str	r0, [sp, #4]
    11a6:	f7ff ffe3 	bl	1170 <breakOnHeapOpFromInterruptHandler>
    11aa:	9801      	ldr	r0, [sp, #4]
    11ac:	f006 feac 	bl	7f08 <free>
    11b0:	b003      	add	sp, #12
    11b2:	f85d fb04 	ldr.w	pc, [sp], #4
    11b6:	bf00      	nop

000011b8 <__wrap_semihost_connected>:
    11b8:	f04f 33ff 	mov.w	r3, #4294967295
    11bc:	4618      	mov	r0, r3
    11be:	4770      	bx	lr

000011c0 <abort>:
    11c0:	b508      	push	{r3, lr}
    11c2:	be00      	bkpt	0x0000
    11c4:	2001      	movs	r0, #1
    11c6:	f002 fe5f 	bl	3e88 <exit>
    11ca:	bf00      	nop

000011cc <__cxa_pure_virtual>:
    11cc:	b508      	push	{r3, lr}
    11ce:	f7ff fff7 	bl	11c0 <abort>
    11d2:	bf00      	nop

000011d4 <__mriInit>:
    11d4:	b570      	push	{r4, r5, r6, lr}
    11d6:	2100      	movs	r1, #0
    11d8:	b09e      	sub	sp, #120	; 0x78
    11da:	2224      	movs	r2, #36	; 0x24
    11dc:	4c0e      	ldr	r4, [pc, #56]	; (1218 <__mriInit+0x44>)
    11de:	4606      	mov	r6, r0
    11e0:	480e      	ldr	r0, [pc, #56]	; (121c <__mriInit+0x48>)
    11e2:	f006 feb0 	bl	7f46 <memset>
    11e6:	2500      	movs	r5, #0
    11e8:	a801      	add	r0, sp, #4
    11ea:	6025      	str	r5, [r4, #0]
    11ec:	f000 f9ec 	bl	15c8 <__mriToken_Init>
    11f0:	a801      	add	r0, sp, #4
    11f2:	4631      	mov	r1, r6
    11f4:	6025      	str	r5, [r4, #0]
    11f6:	f000 f9f7 	bl	15e8 <__mriToken_SplitString>
    11fa:	6823      	ldr	r3, [r4, #0]
    11fc:	b913      	cbnz	r3, 1204 <__mriInit+0x30>
    11fe:	a801      	add	r0, sp, #4
    1200:	f001 fc2e 	bl	2a60 <__mriPlatform_Init>
    1204:	6823      	ldr	r3, [r4, #0]
    1206:	b923      	cbnz	r3, 1212 <__mriInit+0x3e>
    1208:	4b04      	ldr	r3, [pc, #16]	; (121c <__mriInit+0x48>)
    120a:	695a      	ldr	r2, [r3, #20]
    120c:	f042 0203 	orr.w	r2, r2, #3
    1210:	615a      	str	r2, [r3, #20]
    1212:	b01e      	add	sp, #120	; 0x78
    1214:	bd70      	pop	{r4, r5, r6, pc}
    1216:	bf00      	nop
    1218:	10000a48 	.word	0x10000a48
    121c:	10000738 	.word	0x10000738

00001220 <__mriCore_InitBuffer>:
    1220:	b510      	push	{r4, lr}
    1222:	f000 fde5 	bl	1df0 <__mriPlatform_GetPacketBuffer>
    1226:	4604      	mov	r4, r0
    1228:	f000 fde6 	bl	1df8 <__mriPlatform_GetPacketBufferSize>
    122c:	4621      	mov	r1, r4
    122e:	4602      	mov	r2, r0
    1230:	e8bd 4010 	ldmia.w	sp!, {r4, lr}
    1234:	4801      	ldr	r0, [pc, #4]	; (123c <__mriCore_InitBuffer+0x1c>)
    1236:	f001 bc91 	b.w	2b5c <__mriBuffer_Init>
    123a:	bf00      	nop
    123c:	10000740 	.word	0x10000740

00001240 <__mriCore_PrepareStringResponse>:
    1240:	b510      	push	{r4, lr}
    1242:	4604      	mov	r4, r0
    1244:	f7ff ffec 	bl	1220 <__mriCore_InitBuffer>
    1248:	4621      	mov	r1, r4
    124a:	4802      	ldr	r0, [pc, #8]	; (1254 <__mriCore_PrepareStringResponse+0x14>)
    124c:	e8bd 4010 	ldmia.w	sp!, {r4, lr}
    1250:	f001 bd38 	b.w	2cc4 <__mriBuffer_WriteString>
    1254:	10000740 	.word	0x10000740

00001258 <__mriCore_WasControlCFlagSentFromGdb>:
    1258:	4b02      	ldr	r3, [pc, #8]	; (1264 <__mriCore_WasControlCFlagSentFromGdb+0xc>)
    125a:	6958      	ldr	r0, [r3, #20]
    125c:	f000 0004 	and.w	r0, r0, #4
    1260:	4770      	bx	lr
    1262:	bf00      	nop
    1264:	10000738 	.word	0x10000738

00001268 <__mriCore_IsWaitingForGdbToConnect>:
    1268:	b508      	push	{r3, lr}
    126a:	4b05      	ldr	r3, [pc, #20]	; (1280 <__mriCore_IsWaitingForGdbToConnect+0x18>)
    126c:	6958      	ldr	r0, [r3, #20]
    126e:	f010 0002 	ands.w	r0, r0, #2
    1272:	d004      	beq.n	127e <__mriCore_IsWaitingForGdbToConnect+0x16>
    1274:	f001 fa4c 	bl	2710 <__mriPlatform_CommShouldWaitForGdbConnect>
    1278:	3000      	adds	r0, #0
    127a:	bf18      	it	ne
    127c:	2001      	movne	r0, #1
    127e:	bd08      	pop	{r3, pc}
    1280:	10000738 	.word	0x10000738

00001284 <__mriCore_RecordControlCFlagSentFromGdb>:
    1284:	4b04      	ldr	r3, [pc, #16]	; (1298 <__mriCore_RecordControlCFlagSentFromGdb+0x14>)
    1286:	695a      	ldr	r2, [r3, #20]
    1288:	b110      	cbz	r0, 1290 <__mriCore_RecordControlCFlagSentFromGdb+0xc>
    128a:	f042 0204 	orr.w	r2, r2, #4
    128e:	e001      	b.n	1294 <__mriCore_RecordControlCFlagSentFromGdb+0x10>
    1290:	f022 0204 	bic.w	r2, r2, #4
    1294:	615a      	str	r2, [r3, #20]
    1296:	4770      	bx	lr
    1298:	10000738 	.word	0x10000738

0000129c <__mriCore_WasSemihostCallCancelledByGdb>:
    129c:	4b02      	ldr	r3, [pc, #8]	; (12a8 <__mriCore_WasSemihostCallCancelledByGdb+0xc>)
    129e:	69d8      	ldr	r0, [r3, #28]
    12a0:	1f03      	subs	r3, r0, #4
    12a2:	4258      	negs	r0, r3
    12a4:	4158      	adcs	r0, r3
    12a6:	4770      	bx	lr
    12a8:	10000738 	.word	0x10000738

000012ac <__mriCore_FlagSemihostCallAsHandled>:
    12ac:	b508      	push	{r3, lr}
    12ae:	f000 fed5 	bl	205c <__mriPlatform_AdvanceProgramCounterToNextInstruction>
    12b2:	4b03      	ldr	r3, [pc, #12]	; (12c0 <__mriCore_FlagSemihostCallAsHandled+0x14>)
    12b4:	6998      	ldr	r0, [r3, #24]
    12b6:	69d9      	ldr	r1, [r3, #28]
    12b8:	e8bd 4008 	ldmia.w	sp!, {r3, lr}
    12bc:	f000 be96 	b.w	1fec <__mriPlatform_SetSemihostCallReturnAndErrnoValues>
    12c0:	10000738 	.word	0x10000738

000012c4 <__mriCore_IsFirstException>:
    12c4:	4b02      	ldr	r3, [pc, #8]	; (12d0 <__mriCore_IsFirstException+0xc>)
    12c6:	6958      	ldr	r0, [r3, #20]
    12c8:	f000 0002 	and.w	r0, r0, #2
    12cc:	4770      	bx	lr
    12ce:	bf00      	nop
    12d0:	10000738 	.word	0x10000738

000012d4 <__mriCore_SetSignalValue>:
    12d4:	4b01      	ldr	r3, [pc, #4]	; (12dc <__mriCore_SetSignalValue+0x8>)
    12d6:	f883 0020 	strb.w	r0, [r3, #32]
    12da:	4770      	bx	lr
    12dc:	10000738 	.word	0x10000738

000012e0 <__mriCore_GetSignalValue>:
    12e0:	4b01      	ldr	r3, [pc, #4]	; (12e8 <__mriCore_GetSignalValue+0x8>)
    12e2:	f893 0020 	ldrb.w	r0, [r3, #32]
    12e6:	4770      	bx	lr
    12e8:	10000738 	.word	0x10000738

000012ec <__mriCore_SetSemihostReturnValues>:
    12ec:	4b01      	ldr	r3, [pc, #4]	; (12f4 <__mriCore_SetSemihostReturnValues+0x8>)
    12ee:	6198      	str	r0, [r3, #24]
    12f0:	61d9      	str	r1, [r3, #28]
    12f2:	4770      	bx	lr
    12f4:	10000738 	.word	0x10000738

000012f8 <__mriCore_GetSemihostReturnCode>:
    12f8:	4b01      	ldr	r3, [pc, #4]	; (1300 <__mriCore_GetSemihostReturnCode+0x8>)
    12fa:	6998      	ldr	r0, [r3, #24]
    12fc:	4770      	bx	lr
    12fe:	bf00      	nop
    1300:	10000738 	.word	0x10000738

00001304 <__mriCore_GetBuffer>:
    1304:	4800      	ldr	r0, [pc, #0]	; (1308 <__mriCore_GetBuffer+0x4>)
    1306:	4770      	bx	lr
    1308:	10000740 	.word	0x10000740

0000130c <__mriCore_GetInitializedBuffer>:
    130c:	b508      	push	{r3, lr}
    130e:	f7ff ff87 	bl	1220 <__mriCore_InitBuffer>
    1312:	4801      	ldr	r0, [pc, #4]	; (1318 <__mriCore_GetInitializedBuffer+0xc>)
    1314:	bd08      	pop	{r3, pc}
    1316:	bf00      	nop
    1318:	10000740 	.word	0x10000740

0000131c <__mriCore_SendPacketToGdb>:
    131c:	b508      	push	{r3, lr}
    131e:	480a      	ldr	r0, [pc, #40]	; (1348 <__mriCore_SendPacketToGdb+0x2c>)
    1320:	f001 fc46 	bl	2bb0 <__mriBuffer_OverrunDetected>
    1324:	b128      	cbz	r0, 1332 <__mriCore_SendPacketToGdb+0x16>
    1326:	f7ff ff7b 	bl	1220 <__mriCore_InitBuffer>
    132a:	4807      	ldr	r0, [pc, #28]	; (1348 <__mriCore_SendPacketToGdb+0x2c>)
    132c:	4907      	ldr	r1, [pc, #28]	; (134c <__mriCore_SendPacketToGdb+0x30>)
    132e:	f001 fcc9 	bl	2cc4 <__mriBuffer_WriteString>
    1332:	4805      	ldr	r0, [pc, #20]	; (1348 <__mriCore_SendPacketToGdb+0x2c>)
    1334:	f001 fc1a 	bl	2b6c <__mriBuffer_SetEndOfBuffer>
    1338:	e8bd 4008 	ldmia.w	sp!, {r3, lr}
    133c:	4804      	ldr	r0, [pc, #16]	; (1350 <__mriCore_SendPacketToGdb+0x34>)
    133e:	f100 0108 	add.w	r1, r0, #8
    1342:	f000 b907 	b.w	1554 <__mriPacket_SendToGDB>
    1346:	bf00      	nop
    1348:	10000740 	.word	0x10000740
    134c:	0000ccbc 	.word	0x0000ccbc
    1350:	10000738 	.word	0x10000738

00001354 <__mriCore_GdbCommandHandlingLoop>:
    1354:	b510      	push	{r4, lr}
    1356:	f7ff ff63 	bl	1220 <__mriCore_InitBuffer>
    135a:	4812      	ldr	r0, [pc, #72]	; (13a4 <__mriCore_GdbCommandHandlingLoop+0x50>)
    135c:	f100 0108 	add.w	r1, r0, #8
    1360:	f000 f894 	bl	148c <__mriPacket_GetFromGDB>
    1364:	4810      	ldr	r0, [pc, #64]	; (13a8 <__mriCore_GdbCommandHandlingLoop+0x54>)
    1366:	f001 fc3d 	bl	2be4 <__mriBuffer_ReadChar>
    136a:	2300      	movs	r3, #0
    136c:	4a0f      	ldr	r2, [pc, #60]	; (13ac <__mriCore_GdbCommandHandlingLoop+0x58>)
    136e:	eb02 01c3 	add.w	r1, r2, r3, lsl #3
    1372:	7909      	ldrb	r1, [r1, #4]
    1374:	4281      	cmp	r1, r0
    1376:	d106      	bne.n	1386 <__mriCore_GdbCommandHandlingLoop+0x32>
    1378:	f852 3033 	ldr.w	r3, [r2, r3, lsl #3]
    137c:	4798      	blx	r3
    137e:	0783      	lsls	r3, r0, #30
    1380:	4604      	mov	r4, r0
    1382:	d507      	bpl.n	1394 <__mriCore_GdbCommandHandlingLoop+0x40>
    1384:	e008      	b.n	1398 <__mriCore_GdbCommandHandlingLoop+0x44>
    1386:	3301      	adds	r3, #1
    1388:	2b0c      	cmp	r3, #12
    138a:	d1ef      	bne.n	136c <__mriCore_GdbCommandHandlingLoop+0x18>
    138c:	4808      	ldr	r0, [pc, #32]	; (13b0 <__mriCore_GdbCommandHandlingLoop+0x5c>)
    138e:	f7ff ff57 	bl	1240 <__mriCore_PrepareStringResponse>
    1392:	2400      	movs	r4, #0
    1394:	f7ff ffc2 	bl	131c <__mriCore_SendPacketToGdb>
    1398:	f004 0401 	and.w	r4, r4, #1
    139c:	2c00      	cmp	r4, #0
    139e:	d0da      	beq.n	1356 <__mriCore_GdbCommandHandlingLoop+0x2>
    13a0:	bd10      	pop	{r4, pc}
    13a2:	bf00      	nop
    13a4:	10000738 	.word	0x10000738
    13a8:	10000740 	.word	0x10000740
    13ac:	0000cc5c 	.word	0x0000cc5c
    13b0:	0000ccd2 	.word	0x0000ccd2

000013b4 <__mriDebugException>:
    13b4:	b5f8      	push	{r3, r4, r5, r6, r7, lr}
    13b6:	f7ff ff57 	bl	1268 <__mriCore_IsWaitingForGdbToConnect>
    13ba:	4606      	mov	r6, r0
    13bc:	f000 fd10 	bl	1de0 <__mriPlatform_IsSingleStepping>
    13c0:	4607      	mov	r7, r0
    13c2:	f001 f989 	bl	26d8 <__mriPlatform_CommCausedInterrupt>
    13c6:	b130      	cbz	r0, 13d6 <__mriDebugException+0x22>
    13c8:	f001 f964 	bl	2694 <__mriPlatform_CommHasReceiveData>
    13cc:	b918      	cbnz	r0, 13d6 <__mriDebugException+0x22>
    13ce:	e8bd 40f8 	ldmia.w	sp!, {r3, r4, r5, r6, r7, lr}
    13d2:	f001 b98d 	b.w	26f0 <__mriPlatform_CommClearInterrupt>
    13d6:	f3af 8000 	nop.w
    13da:	f7ff ff45 	bl	1268 <__mriCore_IsWaitingForGdbToConnect>
    13de:	b160      	cbz	r0, 13fa <__mriDebugException+0x46>
    13e0:	f001 f9a2 	bl	2728 <__mriPlatform_CommIsWaitingForGdbToConnect>
    13e4:	2800      	cmp	r0, #0
    13e6:	d1fb      	bne.n	13e0 <__mriDebugException+0x2c>
    13e8:	f001 f95e 	bl	26a8 <__mriPlatform_CommReceiveChar>
    13ec:	282b      	cmp	r0, #43	; 0x2b
    13ee:	d004      	beq.n	13fa <__mriDebugException+0x46>
    13f0:	f001 fb0c 	bl	2a0c <__mriPlatform_CommWaitForReceiveDataToStop>
    13f4:	f001 f9a6 	bl	2744 <__mriPlatform_CommPrepareToWaitForGdbConnection>
    13f8:	e7f2      	b.n	13e0 <__mriDebugException+0x2c>
    13fa:	f000 ff6f 	bl	22dc <__mriPlatform_EnteringDebugger>
    13fe:	f000 fcfd 	bl	1dfc <__mriPlatform_DetermineCauseOfException>
    1402:	4c13      	ldr	r4, [pc, #76]	; (1450 <__mriDebugException+0x9c>)
    1404:	2805      	cmp	r0, #5
    1406:	f884 0020 	strb.w	r0, [r4, #32]
    140a:	4625      	mov	r5, r4
    140c:	d10f      	bne.n	142e <__mriDebugException+0x7a>
    140e:	f000 f976 	bl	16fe <__mriSemihost_IsDebuggeeMakingSemihostCall>
    1412:	b160      	cbz	r0, 142e <__mriDebugException+0x7a>
    1414:	f000 f97d 	bl	1712 <__mriSemihost_HandleSemihostRequest>
    1418:	b148      	cbz	r0, 142e <__mriDebugException+0x7a>
    141a:	b947      	cbnz	r7, 142e <__mriDebugException+0x7a>
    141c:	f000 fd72 	bl	1f04 <__mriPlatform_LeavingDebugger>
    1420:	f3af 8000 	nop.w
    1424:	6963      	ldr	r3, [r4, #20]
    1426:	f023 0302 	bic.w	r3, r3, #2
    142a:	6163      	str	r3, [r4, #20]
    142c:	bdf8      	pop	{r3, r4, r5, r6, r7, pc}
    142e:	b91e      	cbnz	r6, 1438 <__mriDebugException+0x84>
    1430:	f000 fd22 	bl	1e78 <__mriPlatform_DisplayFaultCauseToGdbConsole>
    1434:	f002 f95e 	bl	36f4 <__mriCmd_Send_T_StopResponse>
    1438:	f7ff ff8c 	bl	1354 <__mriCore_GdbCommandHandlingLoop>
    143c:	f000 fd62 	bl	1f04 <__mriPlatform_LeavingDebugger>
    1440:	f3af 8000 	nop.w
    1444:	696b      	ldr	r3, [r5, #20]
    1446:	f023 0302 	bic.w	r3, r3, #2
    144a:	616b      	str	r3, [r5, #20]
    144c:	bdf8      	pop	{r3, r4, r5, r6, r7, pc}
    144e:	bf00      	nop
    1450:	10000738 	.word	0x10000738

00001454 <HexCharToNibble>:
    1454:	f1a0 0361 	sub.w	r3, r0, #97	; 0x61
    1458:	2b05      	cmp	r3, #5
    145a:	d801      	bhi.n	1460 <HexCharToNibble+0xc>
    145c:	3857      	subs	r0, #87	; 0x57
    145e:	4770      	bx	lr
    1460:	f1a0 0341 	sub.w	r3, r0, #65	; 0x41
    1464:	2b05      	cmp	r3, #5
    1466:	d801      	bhi.n	146c <HexCharToNibble+0x18>
    1468:	3837      	subs	r0, #55	; 0x37
    146a:	4770      	bx	lr
    146c:	3830      	subs	r0, #48	; 0x30
    146e:	b2c3      	uxtb	r3, r0
    1470:	2b09      	cmp	r3, #9
    1472:	d907      	bls.n	1484 <HexCharToNibble+0x30>
    1474:	4b04      	ldr	r3, [pc, #16]	; (1488 <HexCharToNibble+0x34>)
    1476:	f04f 30ff 	mov.w	r0, #4294967295
    147a:	681a      	ldr	r2, [r3, #0]
    147c:	2a02      	cmp	r2, #2
    147e:	bfb8      	it	lt
    1480:	2202      	movlt	r2, #2
    1482:	601a      	str	r2, [r3, #0]
    1484:	4770      	bx	lr
    1486:	bf00      	nop
    1488:	10000a48 	.word	0x10000a48

0000148c <__mriPacket_GetFromGDB>:
    148c:	b5f8      	push	{r3, r4, r5, r6, r7, lr}
    148e:	2208      	movs	r2, #8
    1490:	4604      	mov	r4, r0
    1492:	460d      	mov	r5, r1
    1494:	2100      	movs	r1, #0
    1496:	f006 fd56 	bl	7f46 <memset>
    149a:	6025      	str	r5, [r4, #0]
    149c:	7920      	ldrb	r0, [r4, #4]
    149e:	2824      	cmp	r0, #36	; 0x24
    14a0:	d004      	beq.n	14ac <__mriPacket_GetFromGDB+0x20>
    14a2:	f001 f901 	bl	26a8 <__mriPlatform_CommReceiveChar>
    14a6:	b2c0      	uxtb	r0, r0
    14a8:	7120      	strb	r0, [r4, #4]
    14aa:	e7f8      	b.n	149e <__mriPacket_GetFromGDB+0x12>
    14ac:	6820      	ldr	r0, [r4, #0]
    14ae:	f001 fb5a 	bl	2b66 <__mriBuffer_Reset>
    14b2:	2300      	movs	r3, #0
    14b4:	7163      	strb	r3, [r4, #5]
    14b6:	f001 f8f7 	bl	26a8 <__mriPlatform_CommReceiveChar>
    14ba:	b2c5      	uxtb	r5, r0
    14bc:	7125      	strb	r5, [r4, #4]
    14be:	6820      	ldr	r0, [r4, #0]
    14c0:	f001 fb5a 	bl	2b78 <__mriBuffer_BytesLeft>
    14c4:	b158      	cbz	r0, 14de <__mriPacket_GetFromGDB+0x52>
    14c6:	2d24      	cmp	r5, #36	; 0x24
    14c8:	d0e8      	beq.n	149c <__mriPacket_GetFromGDB+0x10>
    14ca:	2d23      	cmp	r5, #35	; 0x23
    14cc:	d009      	beq.n	14e2 <__mriPacket_GetFromGDB+0x56>
    14ce:	7963      	ldrb	r3, [r4, #5]
    14d0:	6820      	ldr	r0, [r4, #0]
    14d2:	442b      	add	r3, r5
    14d4:	7163      	strb	r3, [r4, #5]
    14d6:	4629      	mov	r1, r5
    14d8:	f001 fb72 	bl	2bc0 <__mriBuffer_WriteChar>
    14dc:	e7eb      	b.n	14b6 <__mriPacket_GetFromGDB+0x2a>
    14de:	2d23      	cmp	r5, #35	; 0x23
    14e0:	d1dc      	bne.n	149c <__mriPacket_GetFromGDB+0x10>
    14e2:	4d1b      	ldr	r5, [pc, #108]	; (1550 <__mriPacket_GetFromGDB+0xc4>)
    14e4:	2300      	movs	r3, #0
    14e6:	602b      	str	r3, [r5, #0]
    14e8:	f001 f8de 	bl	26a8 <__mriPlatform_CommReceiveChar>
    14ec:	b2c7      	uxtb	r7, r0
    14ee:	7127      	strb	r7, [r4, #4]
    14f0:	f001 f8da 	bl	26a8 <__mriPlatform_CommReceiveChar>
    14f4:	b2c6      	uxtb	r6, r0
    14f6:	7126      	strb	r6, [r4, #4]
    14f8:	4638      	mov	r0, r7
    14fa:	f7ff ffab 	bl	1454 <HexCharToNibble>
    14fe:	682b      	ldr	r3, [r5, #0]
    1500:	4607      	mov	r7, r0
    1502:	b943      	cbnz	r3, 1516 <__mriPacket_GetFromGDB+0x8a>
    1504:	4630      	mov	r0, r6
    1506:	f7ff ffa5 	bl	1454 <HexCharToNibble>
    150a:	682b      	ldr	r3, [r5, #0]
    150c:	b91b      	cbnz	r3, 1516 <__mriPacket_GetFromGDB+0x8a>
    150e:	b2ff      	uxtb	r7, r7
    1510:	ea40 1707 	orr.w	r7, r0, r7, lsl #4
    1514:	71a7      	strb	r7, [r4, #6]
    1516:	682b      	ldr	r3, [r5, #0]
    1518:	b113      	cbz	r3, 1520 <__mriPacket_GetFromGDB+0x94>
    151a:	7963      	ldrb	r3, [r4, #5]
    151c:	43db      	mvns	r3, r3
    151e:	71a3      	strb	r3, [r4, #6]
    1520:	f001 f8b8 	bl	2694 <__mriPlatform_CommHasReceiveData>
    1524:	2800      	cmp	r0, #0
    1526:	d1b9      	bne.n	149c <__mriPacket_GetFromGDB+0x10>
    1528:	79a2      	ldrb	r2, [r4, #6]
    152a:	7963      	ldrb	r3, [r4, #5]
    152c:	429a      	cmp	r2, r3
    152e:	bf14      	ite	ne
    1530:	202d      	movne	r0, #45	; 0x2d
    1532:	202b      	moveq	r0, #43	; 0x2b
    1534:	f001 f8c4 	bl	26c0 <__mriPlatform_CommSendChar>
    1538:	79a2      	ldrb	r2, [r4, #6]
    153a:	7963      	ldrb	r3, [r4, #5]
    153c:	429a      	cmp	r2, r3
    153e:	d1ad      	bne.n	149c <__mriPacket_GetFromGDB+0x10>
    1540:	6820      	ldr	r0, [r4, #0]
    1542:	f001 fb13 	bl	2b6c <__mriBuffer_SetEndOfBuffer>
    1546:	6820      	ldr	r0, [r4, #0]
    1548:	e8bd 40f8 	ldmia.w	sp!, {r3, r4, r5, r6, r7, lr}
    154c:	f001 bb0b 	b.w	2b66 <__mriBuffer_Reset>
    1550:	10000a48 	.word	0x10000a48

00001554 <__mriPacket_SendToGDB>:
    1554:	b570      	push	{r4, r5, r6, lr}
    1556:	2208      	movs	r2, #8
    1558:	4604      	mov	r4, r0
    155a:	460d      	mov	r5, r1
    155c:	2100      	movs	r1, #0
    155e:	f006 fcf2 	bl	7f46 <memset>
    1562:	6025      	str	r5, [r4, #0]
    1564:	6820      	ldr	r0, [r4, #0]
    1566:	f001 fafe 	bl	2b66 <__mriBuffer_Reset>
    156a:	2300      	movs	r3, #0
    156c:	7163      	strb	r3, [r4, #5]
    156e:	2024      	movs	r0, #36	; 0x24
    1570:	f001 f8a6 	bl	26c0 <__mriPlatform_CommSendChar>
    1574:	6820      	ldr	r0, [r4, #0]
    1576:	f001 faff 	bl	2b78 <__mriBuffer_BytesLeft>
    157a:	b148      	cbz	r0, 1590 <__mriPacket_SendToGDB+0x3c>
    157c:	6820      	ldr	r0, [r4, #0]
    157e:	f001 fb31 	bl	2be4 <__mriBuffer_ReadChar>
    1582:	4605      	mov	r5, r0
    1584:	f001 f89c 	bl	26c0 <__mriPlatform_CommSendChar>
    1588:	7963      	ldrb	r3, [r4, #5]
    158a:	441d      	add	r5, r3
    158c:	7165      	strb	r5, [r4, #5]
    158e:	e7f1      	b.n	1574 <__mriPacket_SendToGDB+0x20>
    1590:	2023      	movs	r0, #35	; 0x23
    1592:	f001 f895 	bl	26c0 <__mriPlatform_CommSendChar>
    1596:	7966      	ldrb	r6, [r4, #5]
    1598:	4d0a      	ldr	r5, [pc, #40]	; (15c4 <__mriPacket_SendToGDB+0x70>)
    159a:	0933      	lsrs	r3, r6, #4
    159c:	5ce8      	ldrb	r0, [r5, r3]
    159e:	f006 060f 	and.w	r6, r6, #15
    15a2:	f001 f88d 	bl	26c0 <__mriPlatform_CommSendChar>
    15a6:	5da8      	ldrb	r0, [r5, r6]
    15a8:	f001 f88a 	bl	26c0 <__mriPlatform_CommSendChar>
    15ac:	f001 f87c 	bl	26a8 <__mriPlatform_CommReceiveChar>
    15b0:	7120      	strb	r0, [r4, #4]
    15b2:	b2c0      	uxtb	r0, r0
    15b4:	2803      	cmp	r0, #3
    15b6:	d0f9      	beq.n	15ac <__mriPacket_SendToGDB+0x58>
    15b8:	b2c0      	uxtb	r0, r0
    15ba:	282b      	cmp	r0, #43	; 0x2b
    15bc:	d001      	beq.n	15c2 <__mriPacket_SendToGDB+0x6e>
    15be:	2824      	cmp	r0, #36	; 0x24
    15c0:	d1d0      	bne.n	1564 <__mriPacket_SendToGDB+0x10>
    15c2:	bd70      	pop	{r4, r5, r6, pc}
    15c4:	0000ccc0 	.word	0x0000ccc0

000015c8 <__mriToken_Init>:
    15c8:	b510      	push	{r4, lr}
    15ca:	2100      	movs	r1, #0
    15cc:	2228      	movs	r2, #40	; 0x28
    15ce:	4604      	mov	r4, r0
    15d0:	f006 fcb9 	bl	7f46 <memset>
    15d4:	2300      	movs	r3, #0
    15d6:	62e3      	str	r3, [r4, #44]	; 0x2c
    15d8:	f884 3030 	strb.w	r3, [r4, #48]	; 0x30
    15dc:	4b01      	ldr	r3, [pc, #4]	; (15e4 <__mriToken_Init+0x1c>)
    15de:	62a3      	str	r3, [r4, #40]	; 0x28
    15e0:	bd10      	pop	{r4, pc}
    15e2:	bf00      	nop
    15e4:	0000ccd0 	.word	0x0000ccd0

000015e8 <__mriToken_SplitString>:
    15e8:	b5f8      	push	{r3, r4, r5, r6, r7, lr}
    15ea:	2500      	movs	r5, #0
    15ec:	4e2d      	ldr	r6, [pc, #180]	; (16a4 <__mriToken_SplitString+0xbc>)
    15ee:	4604      	mov	r4, r0
    15f0:	460f      	mov	r7, r1
    15f2:	2228      	movs	r2, #40	; 0x28
    15f4:	4629      	mov	r1, r5
    15f6:	6035      	str	r5, [r6, #0]
    15f8:	f006 fca5 	bl	7f46 <memset>
    15fc:	4623      	mov	r3, r4
    15fe:	62e5      	str	r5, [r4, #44]	; 0x2c
    1600:	f803 5f30 	strb.w	r5, [r3, #48]!
    1604:	4639      	mov	r1, r7
    1606:	4618      	mov	r0, r3
    1608:	f104 0770 	add.w	r7, r4, #112	; 0x70
    160c:	4632      	mov	r2, r6
    160e:	460d      	mov	r5, r1
    1610:	f811 6b01 	ldrb.w	r6, [r1], #1
    1614:	b126      	cbz	r6, 1620 <__mriToken_SplitString+0x38>
    1616:	f800 6b01 	strb.w	r6, [r0], #1
    161a:	42b8      	cmp	r0, r7
    161c:	460d      	mov	r5, r1
    161e:	d1f6      	bne.n	160e <__mriToken_SplitString+0x26>
    1620:	2100      	movs	r1, #0
    1622:	7001      	strb	r1, [r0, #0]
    1624:	7829      	ldrb	r1, [r5, #0]
    1626:	b121      	cbz	r1, 1632 <__mriToken_SplitString+0x4a>
    1628:	6811      	ldr	r1, [r2, #0]
    162a:	2901      	cmp	r1, #1
    162c:	bfb8      	it	lt
    162e:	2101      	movlt	r1, #1
    1630:	6011      	str	r1, [r2, #0]
    1632:	6811      	ldr	r1, [r2, #0]
    1634:	2900      	cmp	r1, #0
    1636:	d133      	bne.n	16a0 <__mriToken_SplitString+0xb8>
    1638:	7819      	ldrb	r1, [r3, #0]
    163a:	2900      	cmp	r1, #0
    163c:	d02f      	beq.n	169e <__mriToken_SplitString+0xb6>
    163e:	4619      	mov	r1, r3
    1640:	f813 6b01 	ldrb.w	r6, [r3], #1
    1644:	b926      	cbnz	r6, 1650 <__mriToken_SplitString+0x68>
    1646:	2300      	movs	r3, #0
    1648:	6013      	str	r3, [r2, #0]
    164a:	780b      	ldrb	r3, [r1, #0]
    164c:	b94b      	cbnz	r3, 1662 <__mriToken_SplitString+0x7a>
    164e:	e013      	b.n	1678 <__mriToken_SplitString+0x90>
    1650:	6aa5      	ldr	r5, [r4, #40]	; 0x28
    1652:	3d01      	subs	r5, #1
    1654:	f815 0f01 	ldrb.w	r0, [r5, #1]!
    1658:	2800      	cmp	r0, #0
    165a:	d0f4      	beq.n	1646 <__mriToken_SplitString+0x5e>
    165c:	4286      	cmp	r6, r0
    165e:	d1f9      	bne.n	1654 <__mriToken_SplitString+0x6c>
    1660:	e7ed      	b.n	163e <__mriToken_SplitString+0x56>
    1662:	6ae3      	ldr	r3, [r4, #44]	; 0x2c
    1664:	2b09      	cmp	r3, #9
    1666:	d903      	bls.n	1670 <__mriToken_SplitString+0x88>
    1668:	4b0e      	ldr	r3, [pc, #56]	; (16a4 <__mriToken_SplitString+0xbc>)
    166a:	2001      	movs	r0, #1
    166c:	6018      	str	r0, [r3, #0]
    166e:	e003      	b.n	1678 <__mriToken_SplitString+0x90>
    1670:	1c58      	adds	r0, r3, #1
    1672:	62e0      	str	r0, [r4, #44]	; 0x2c
    1674:	f844 1023 	str.w	r1, [r4, r3, lsl #2]
    1678:	6813      	ldr	r3, [r2, #0]
    167a:	b98b      	cbnz	r3, 16a0 <__mriToken_SplitString+0xb8>
    167c:	460b      	mov	r3, r1
    167e:	f811 6b01 	ldrb.w	r6, [r1], #1
    1682:	2e00      	cmp	r6, #0
    1684:	d0d8      	beq.n	1638 <__mriToken_SplitString+0x50>
    1686:	6aa5      	ldr	r5, [r4, #40]	; 0x28
    1688:	3d01      	subs	r5, #1
    168a:	f815 0f01 	ldrb.w	r0, [r5, #1]!
    168e:	2800      	cmp	r0, #0
    1690:	d0f4      	beq.n	167c <__mriToken_SplitString+0x94>
    1692:	4286      	cmp	r6, r0
    1694:	d1f9      	bne.n	168a <__mriToken_SplitString+0xa2>
    1696:	2100      	movs	r1, #0
    1698:	7019      	strb	r1, [r3, #0]
    169a:	3301      	adds	r3, #1
    169c:	e7cc      	b.n	1638 <__mriToken_SplitString+0x50>
    169e:	bdf8      	pop	{r3, r4, r5, r6, r7, pc}
    16a0:	bdf8      	pop	{r3, r4, r5, r6, r7, pc}
    16a2:	bf00      	nop
    16a4:	10000a48 	.word	0x10000a48

000016a8 <__mriToken_MatchingString>:
    16a8:	e92d 41f0 	stmdb	sp!, {r4, r5, r6, r7, r8, lr}
    16ac:	6ac7      	ldr	r7, [r0, #44]	; 0x2c
    16ae:	4606      	mov	r6, r0
    16b0:	4688      	mov	r8, r1
    16b2:	2400      	movs	r4, #0
    16b4:	42bc      	cmp	r4, r7
    16b6:	d008      	beq.n	16ca <__mriToken_MatchingString+0x22>
    16b8:	f856 5024 	ldr.w	r5, [r6, r4, lsl #2]
    16bc:	4641      	mov	r1, r8
    16be:	4628      	mov	r0, r5
    16c0:	f006 ff1f 	bl	8502 <strcmp>
    16c4:	b110      	cbz	r0, 16cc <__mriToken_MatchingString+0x24>
    16c6:	3401      	adds	r4, #1
    16c8:	e7f4      	b.n	16b4 <__mriToken_MatchingString+0xc>
    16ca:	2500      	movs	r5, #0
    16cc:	4628      	mov	r0, r5
    16ce:	e8bd 81f0 	ldmia.w	sp!, {r4, r5, r6, r7, r8, pc}

000016d2 <__mriToken_MatchingStringPrefix>:
    16d2:	e92d 41f0 	stmdb	sp!, {r4, r5, r6, r7, r8, lr}
    16d6:	6ac7      	ldr	r7, [r0, #44]	; 0x2c
    16d8:	4606      	mov	r6, r0
    16da:	4688      	mov	r8, r1
    16dc:	2500      	movs	r5, #0
    16de:	42bd      	cmp	r5, r7
    16e0:	d009      	beq.n	16f6 <__mriToken_MatchingStringPrefix+0x24>
    16e2:	f856 4025 	ldr.w	r4, [r6, r5, lsl #2]
    16e6:	4641      	mov	r1, r8
    16e8:	4620      	mov	r0, r4
    16ea:	f006 ff32 	bl	8552 <strstr>
    16ee:	4284      	cmp	r4, r0
    16f0:	d002      	beq.n	16f8 <__mriToken_MatchingStringPrefix+0x26>
    16f2:	3501      	adds	r5, #1
    16f4:	e7f3      	b.n	16de <__mriToken_MatchingStringPrefix+0xc>
    16f6:	2400      	movs	r4, #0
    16f8:	4620      	mov	r0, r4
    16fa:	e8bd 81f0 	ldmia.w	sp!, {r4, r5, r6, r7, r8, pc}

000016fe <__mriSemihost_IsDebuggeeMakingSemihostCall>:
    16fe:	b508      	push	{r3, lr}
    1700:	f000 fcd0 	bl	20a4 <__mriPlatform_TypeOfCurrentInstruction>
    1704:	3801      	subs	r0, #1
    1706:	b2c0      	uxtb	r0, r0
    1708:	2801      	cmp	r0, #1
    170a:	bf8c      	ite	hi
    170c:	2000      	movhi	r0, #0
    170e:	2001      	movls	r0, #1
    1710:	bd08      	pop	{r3, pc}

00001712 <__mriSemihost_HandleSemihostRequest>:
    1712:	b51f      	push	{r0, r1, r2, r3, r4, lr}
    1714:	f000 fcc6 	bl	20a4 <__mriPlatform_TypeOfCurrentInstruction>
    1718:	4604      	mov	r4, r0
    171a:	4668      	mov	r0, sp
    171c:	f000 fc54 	bl	1fc8 <__mriPlatform_GetSemihostCallParameters>
    1720:	2c01      	cmp	r4, #1
    1722:	d103      	bne.n	172c <__mriSemihost_HandleSemihostRequest+0x1a>
    1724:	4668      	mov	r0, sp
    1726:	f000 f8ba 	bl	189e <__mriSemihost_HandleMbedSemihostRequest>
    172a:	e006      	b.n	173a <__mriSemihost_HandleSemihostRequest+0x28>
    172c:	2c02      	cmp	r4, #2
    172e:	d103      	bne.n	1738 <__mriSemihost_HandleSemihostRequest+0x26>
    1730:	4668      	mov	r0, sp
    1732:	f000 f805 	bl	1740 <__mriSemihost_HandleNewlibSemihostRequest>
    1736:	e000      	b.n	173a <__mriSemihost_HandleSemihostRequest+0x28>
    1738:	2000      	movs	r0, #0
    173a:	b004      	add	sp, #16
    173c:	bd10      	pop	{r4, pc}
	...

00001740 <__mriSemihost_HandleNewlibSemihostRequest>:
    1740:	b51f      	push	{r0, r1, r2, r3, r4, lr}
    1742:	4604      	mov	r4, r0
    1744:	f000 fc28 	bl	1f98 <__mriPlatform_GetProgramCounter>
    1748:	4b3c      	ldr	r3, [pc, #240]	; (183c <CFSR_STACK_ERROR_BITS+0x24>)
    174a:	f040 0001 	orr.w	r0, r0, #1
    174e:	4298      	cmp	r0, r3
    1750:	d109      	bne.n	1766 <__mriSemihost_HandleNewlibSemihostRequest+0x26>
    1752:	6823      	ldr	r3, [r4, #0]
    1754:	4668      	mov	r0, sp
    1756:	9300      	str	r3, [sp, #0]
    1758:	6863      	ldr	r3, [r4, #4]
    175a:	9301      	str	r3, [sp, #4]
    175c:	68a3      	ldr	r3, [r4, #8]
    175e:	9302      	str	r3, [sp, #8]
    1760:	f001 fd22 	bl	31a8 <__mriIssueGdbFileWriteRequest>
    1764:	e067      	b.n	1836 <CFSR_STACK_ERROR_BITS+0x1e>
    1766:	4b36      	ldr	r3, [pc, #216]	; (1840 <CFSR_STACK_ERROR_BITS+0x28>)
    1768:	4298      	cmp	r0, r3
    176a:	d109      	bne.n	1780 <__mriSemihost_HandleNewlibSemihostRequest+0x40>
    176c:	6823      	ldr	r3, [r4, #0]
    176e:	4668      	mov	r0, sp
    1770:	9300      	str	r3, [sp, #0]
    1772:	6863      	ldr	r3, [r4, #4]
    1774:	9301      	str	r3, [sp, #4]
    1776:	68a3      	ldr	r3, [r4, #8]
    1778:	9302      	str	r3, [sp, #8]
    177a:	f001 fd39 	bl	31f0 <__mriIssueGdbFileReadRequest>
    177e:	e05a      	b.n	1836 <CFSR_STACK_ERROR_BITS+0x1e>
    1780:	4b30      	ldr	r3, [pc, #192]	; (1844 <CFSR_STACK_ERROR_BITS+0x2c>)
    1782:	4298      	cmp	r0, r3
    1784:	d10d      	bne.n	17a2 <__mriSemihost_HandleNewlibSemihostRequest+0x62>
    1786:	6820      	ldr	r0, [r4, #0]
    1788:	9000      	str	r0, [sp, #0]
    178a:	f006 fec4 	bl	8516 <strlen>
    178e:	6863      	ldr	r3, [r4, #4]
    1790:	3001      	adds	r0, #1
    1792:	9302      	str	r3, [sp, #8]
    1794:	68a3      	ldr	r3, [r4, #8]
    1796:	9001      	str	r0, [sp, #4]
    1798:	4668      	mov	r0, sp
    179a:	9303      	str	r3, [sp, #12]
    179c:	f001 fcd8 	bl	3150 <__mriIssueGdbFileOpenRequest>
    17a0:	e049      	b.n	1836 <CFSR_STACK_ERROR_BITS+0x1e>
    17a2:	4b29      	ldr	r3, [pc, #164]	; (1848 <CFSR_STACK_ERROR_BITS+0x30>)
    17a4:	4298      	cmp	r0, r3
    17a6:	d109      	bne.n	17bc <__mriSemihost_HandleNewlibSemihostRequest+0x7c>
    17a8:	6820      	ldr	r0, [r4, #0]
    17aa:	9000      	str	r0, [sp, #0]
    17ac:	f006 feb3 	bl	8516 <strlen>
    17b0:	3001      	adds	r0, #1
    17b2:	9001      	str	r0, [sp, #4]
    17b4:	4668      	mov	r0, sp
    17b6:	f001 fd95 	bl	32e4 <__mriIssueGdbFileUnlinkRequest>
    17ba:	e03c      	b.n	1836 <CFSR_STACK_ERROR_BITS+0x1e>
    17bc:	4b23      	ldr	r3, [pc, #140]	; (184c <CFSR_STACK_ERROR_BITS+0x34>)
    17be:	4298      	cmp	r0, r3
    17c0:	d109      	bne.n	17d6 <__mriSemihost_HandleNewlibSemihostRequest+0x96>
    17c2:	6823      	ldr	r3, [r4, #0]
    17c4:	4668      	mov	r0, sp
    17c6:	9300      	str	r3, [sp, #0]
    17c8:	6863      	ldr	r3, [r4, #4]
    17ca:	9301      	str	r3, [sp, #4]
    17cc:	68a3      	ldr	r3, [r4, #8]
    17ce:	9302      	str	r3, [sp, #8]
    17d0:	f001 fd46 	bl	3260 <__mriIssueGdbFileSeekRequest>
    17d4:	e02f      	b.n	1836 <CFSR_STACK_ERROR_BITS+0x1e>
    17d6:	4b1e      	ldr	r3, [pc, #120]	; (1850 <CFSR_STACK_ERROR_BITS+0x38>)
    17d8:	4298      	cmp	r0, r3
    17da:	d103      	bne.n	17e4 <__mriSemihost_HandleNewlibSemihostRequest+0xa4>
    17dc:	6820      	ldr	r0, [r4, #0]
    17de:	f001 fd2b 	bl	3238 <__mriIssueGdbFileCloseRequest>
    17e2:	e028      	b.n	1836 <CFSR_STACK_ERROR_BITS+0x1e>
    17e4:	4b1b      	ldr	r3, [pc, #108]	; (1854 <CFSR_STACK_ERROR_BITS+0x3c>)
    17e6:	4298      	cmp	r0, r3
    17e8:	d104      	bne.n	17f4 <__mriSemihost_HandleNewlibSemihostRequest+0xb4>
    17ea:	e894 0003 	ldmia.w	r4, {r0, r1}
    17ee:	f001 fd5b 	bl	32a8 <__mriIssueGdbFileFStatRequest>
    17f2:	e020      	b.n	1836 <CFSR_STACK_ERROR_BITS+0x1e>
    17f4:	4b18      	ldr	r3, [pc, #96]	; (1858 <CFSR_STACK_ERROR_BITS+0x40>)
    17f6:	4298      	cmp	r0, r3
    17f8:	d109      	bne.n	180e <__mriSemihost_HandleNewlibSemihostRequest+0xce>
    17fa:	6820      	ldr	r0, [r4, #0]
    17fc:	9000      	str	r0, [sp, #0]
    17fe:	f006 fe8a 	bl	8516 <strlen>
    1802:	3001      	adds	r0, #1
    1804:	9001      	str	r0, [sp, #4]
    1806:	4668      	mov	r0, sp
    1808:	f001 fd88 	bl	331c <__mriIssueGdbFileStatRequest>
    180c:	e013      	b.n	1836 <CFSR_STACK_ERROR_BITS+0x1e>
    180e:	4b13      	ldr	r3, [pc, #76]	; (185c <CFSR_STACK_ERROR_BITS+0x44>)
    1810:	4298      	cmp	r0, r3
    1812:	d10f      	bne.n	1834 <CFSR_STACK_ERROR_BITS+0x1c>
    1814:	6820      	ldr	r0, [r4, #0]
    1816:	9000      	str	r0, [sp, #0]
    1818:	f006 fe7d 	bl	8516 <strlen>
    181c:	3001      	adds	r0, #1
    181e:	9001      	str	r0, [sp, #4]
    1820:	6860      	ldr	r0, [r4, #4]
    1822:	9002      	str	r0, [sp, #8]
    1824:	f006 fe77 	bl	8516 <strlen>
    1828:	3001      	adds	r0, #1
    182a:	9003      	str	r0, [sp, #12]
    182c:	4668      	mov	r0, sp
    182e:	f001 fd99 	bl	3364 <__mriIssueGdbFileRenameRequest>
    1832:	e000      	b.n	1836 <CFSR_STACK_ERROR_BITS+0x1e>
    1834:	2000      	movs	r0, #0
    1836:	b004      	add	sp, #16
    1838:	bd10      	pop	{r4, pc}
    183a:	bf00      	nop
    183c:	00001861 	.word	0x00001861
    1840:	00001865 	.word	0x00001865
    1844:	00001869 	.word	0x00001869
    1848:	00001871 	.word	0x00001871
    184c:	00001879 	.word	0x00001879
    1850:	0000187d 	.word	0x0000187d
    1854:	00001881 	.word	0x00001881
    1858:	00001875 	.word	0x00001875
    185c:	0000186d 	.word	0x0000186d

00001860 <__mriNewlib_SemihostWrite>:
    1860:	beff      	bkpt	0x00ff
    1862:	4770      	bx	lr

00001864 <__mriNewlib_SemihostRead>:
    1864:	beff      	bkpt	0x00ff
    1866:	4770      	bx	lr

00001868 <__mriNewLib_SemihostOpen>:
    1868:	beff      	bkpt	0x00ff
    186a:	4770      	bx	lr

0000186c <__mriNewLib_SemihostRename>:
    186c:	beff      	bkpt	0x00ff
    186e:	4770      	bx	lr

00001870 <__mriNewLib_SemihostUnlink>:
    1870:	beff      	bkpt	0x00ff
    1872:	4770      	bx	lr

00001874 <__mriNewLib_SemihostStat>:
    1874:	beff      	bkpt	0x00ff
    1876:	4770      	bx	lr

00001878 <__mriNewlib_SemihostLSeek>:
    1878:	beff      	bkpt	0x00ff
    187a:	4770      	bx	lr

0000187c <__mriNewlib_SemihostClose>:
    187c:	beff      	bkpt	0x00ff
    187e:	4770      	bx	lr

00001880 <__mriNewlib_SemihostFStat>:
    1880:	beff      	bkpt	0x00ff
    1882:	4770      	bx	lr

00001884 <convertBytesTransferredToBytesNotTransferred>:
    1884:	b510      	push	{r4, lr}
    1886:	4604      	mov	r4, r0
    1888:	f7ff fd36 	bl	12f8 <__mriCore_GetSemihostReturnCode>
    188c:	1e03      	subs	r3, r0, #0
    188e:	bfa8      	it	ge
    1890:	ebc3 0004 	rsbge	r0, r3, r4
    1894:	2100      	movs	r1, #0
    1896:	e8bd 4010 	ldmia.w	sp!, {r4, lr}
    189a:	f000 bba7 	b.w	1fec <__mriPlatform_SetSemihostCallReturnAndErrnoValues>

0000189e <__mriSemihost_HandleMbedSemihostRequest>:
    189e:	b530      	push	{r4, r5, lr}
    18a0:	6803      	ldr	r3, [r0, #0]
    18a2:	b091      	sub	sp, #68	; 0x44
    18a4:	2b09      	cmp	r3, #9
    18a6:	f000 8088 	beq.w	19ba <__mriSemihost_HandleMbedSemihostRequest+0x11c>
    18aa:	d80f      	bhi.n	18cc <__mriSemihost_HandleMbedSemihostRequest+0x2e>
    18ac:	2b02      	cmp	r3, #2
    18ae:	d051      	beq.n	1954 <__mriSemihost_HandleMbedSemihostRequest+0xb6>
    18b0:	d802      	bhi.n	18b8 <__mriSemihost_HandleMbedSemihostRequest+0x1a>
    18b2:	2b01      	cmp	r3, #1
    18b4:	d02e      	beq.n	1914 <__mriSemihost_HandleMbedSemihostRequest+0x76>
    18b6:	e088      	b.n	19ca <__mriSemihost_HandleMbedSemihostRequest+0x12c>
    18b8:	2b05      	cmp	r3, #5
    18ba:	d050      	beq.n	195e <__mriSemihost_HandleMbedSemihostRequest+0xc0>
    18bc:	2b06      	cmp	r3, #6
    18be:	f040 8084 	bne.w	19ca <__mriSemihost_HandleMbedSemihostRequest+0x12c>
    18c2:	6845      	ldr	r5, [r0, #4]
    18c4:	4628      	mov	r0, r5
    18c6:	f001 fc93 	bl	31f0 <__mriIssueGdbFileReadRequest>
    18ca:	e04c      	b.n	1966 <__mriSemihost_HandleMbedSemihostRequest+0xc8>
    18cc:	2b0c      	cmp	r3, #12
    18ce:	d050      	beq.n	1972 <__mriSemihost_HandleMbedSemihostRequest+0xd4>
    18d0:	d80c      	bhi.n	18ec <__mriSemihost_HandleMbedSemihostRequest+0x4e>
    18d2:	2b0a      	cmp	r3, #10
    18d4:	d179      	bne.n	19ca <__mriSemihost_HandleMbedSemihostRequest+0x12c>
    18d6:	6843      	ldr	r3, [r0, #4]
    18d8:	4668      	mov	r0, sp
    18da:	681a      	ldr	r2, [r3, #0]
    18dc:	9200      	str	r2, [sp, #0]
    18de:	685b      	ldr	r3, [r3, #4]
    18e0:	9301      	str	r3, [sp, #4]
    18e2:	2300      	movs	r3, #0
    18e4:	9302      	str	r3, [sp, #8]
    18e6:	f001 fcbb 	bl	3260 <__mriIssueGdbFileSeekRequest>
    18ea:	e06f      	b.n	19cc <__mriSemihost_HandleMbedSemihostRequest+0x12e>
    18ec:	2b0e      	cmp	r3, #14
    18ee:	d05d      	beq.n	19ac <__mriSemihost_HandleMbedSemihostRequest+0x10e>
    18f0:	f240 1201 	movw	r2, #257	; 0x101
    18f4:	4293      	cmp	r3, r2
    18f6:	d168      	bne.n	19ca <__mriSemihost_HandleMbedSemihostRequest+0x12c>
    18f8:	6843      	ldr	r3, [r0, #4]
    18fa:	685c      	ldr	r4, [r3, #4]
    18fc:	681d      	ldr	r5, [r3, #0]
    18fe:	f001 f8f7 	bl	2af0 <__mriMbed1768_GetMbedUid>
    1902:	2c24      	cmp	r4, #36	; 0x24
    1904:	bf34      	ite	cc
    1906:	4622      	movcc	r2, r4
    1908:	2224      	movcs	r2, #36	; 0x24
    190a:	4601      	mov	r1, r0
    190c:	4628      	mov	r0, r5
    190e:	f006 fb11 	bl	7f34 <memcpy>
    1912:	e052      	b.n	19ba <__mriSemihost_HandleMbedSemihostRequest+0x11c>
    1914:	6840      	ldr	r0, [r0, #4]
    1916:	6802      	ldr	r2, [r0, #0]
    1918:	9200      	str	r2, [sp, #0]
    191a:	6841      	ldr	r1, [r0, #4]
    191c:	074a      	lsls	r2, r1, #29
    191e:	d405      	bmi.n	192c <__mriSemihost_HandleMbedSemihostRequest+0x8e>
    1920:	f011 0208 	ands.w	r2, r1, #8
    1924:	d005      	beq.n	1932 <__mriSemihost_HandleMbedSemihostRequest+0x94>
    1926:	f44f 7202 	mov.w	r2, #520	; 0x208
    192a:	e003      	b.n	1934 <__mriSemihost_HandleMbedSemihostRequest+0x96>
    192c:	f44f 62c0 	mov.w	r2, #1536	; 0x600
    1930:	e000      	b.n	1934 <__mriSemihost_HandleMbedSemihostRequest+0x96>
    1932:	4613      	mov	r3, r2
    1934:	f011 0f02 	tst.w	r1, #2
    1938:	bf18      	it	ne
    193a:	2302      	movne	r3, #2
    193c:	4313      	orrs	r3, r2
    193e:	9302      	str	r3, [sp, #8]
    1940:	f44f 73db 	mov.w	r3, #438	; 0x1b6
    1944:	9303      	str	r3, [sp, #12]
    1946:	6883      	ldr	r3, [r0, #8]
    1948:	4668      	mov	r0, sp
    194a:	3301      	adds	r3, #1
    194c:	9301      	str	r3, [sp, #4]
    194e:	f001 fbff 	bl	3150 <__mriIssueGdbFileOpenRequest>
    1952:	e03b      	b.n	19cc <__mriSemihost_HandleMbedSemihostRequest+0x12e>
    1954:	6843      	ldr	r3, [r0, #4]
    1956:	6818      	ldr	r0, [r3, #0]
    1958:	f001 fc6e 	bl	3238 <__mriIssueGdbFileCloseRequest>
    195c:	e036      	b.n	19cc <__mriSemihost_HandleMbedSemihostRequest+0x12e>
    195e:	6845      	ldr	r5, [r0, #4]
    1960:	4628      	mov	r0, r5
    1962:	f001 fc21 	bl	31a8 <__mriIssueGdbFileWriteRequest>
    1966:	4604      	mov	r4, r0
    1968:	b1f0      	cbz	r0, 19a8 <__mriSemihost_HandleMbedSemihostRequest+0x10a>
    196a:	68a8      	ldr	r0, [r5, #8]
    196c:	f7ff ff8a 	bl	1884 <convertBytesTransferredToBytesNotTransferred>
    1970:	e01a      	b.n	19a8 <__mriSemihost_HandleMbedSemihostRequest+0x10a>
    1972:	6843      	ldr	r3, [r0, #4]
    1974:	4669      	mov	r1, sp
    1976:	6818      	ldr	r0, [r3, #0]
    1978:	f001 fc96 	bl	32a8 <__mriIssueGdbFileFStatRequest>
    197c:	4604      	mov	r4, r0
    197e:	b198      	cbz	r0, 19a8 <__mriSemihost_HandleMbedSemihostRequest+0x10a>
    1980:	f7ff fcba 	bl	12f8 <__mriCore_GetSemihostReturnCode>
    1984:	4601      	mov	r1, r0
    1986:	b978      	cbnz	r0, 19a8 <__mriSemihost_HandleMbedSemihostRequest+0x10a>
    1988:	f89d 3021 	ldrb.w	r3, [sp, #33]	; 0x21
    198c:	f89d 2022 	ldrb.w	r2, [sp, #34]	; 0x22
    1990:	041b      	lsls	r3, r3, #16
    1992:	ea43 2302 	orr.w	r3, r3, r2, lsl #8
    1996:	f89d 2023 	ldrb.w	r2, [sp, #35]	; 0x23
    199a:	f89d 0020 	ldrb.w	r0, [sp, #32]
    199e:	4313      	orrs	r3, r2
    19a0:	ea43 6000 	orr.w	r0, r3, r0, lsl #24
    19a4:	f000 fb22 	bl	1fec <__mriPlatform_SetSemihostCallReturnAndErrnoValues>
    19a8:	4620      	mov	r0, r4
    19aa:	e00f      	b.n	19cc <__mriSemihost_HandleMbedSemihostRequest+0x12e>
    19ac:	6840      	ldr	r0, [r0, #4]
    19ae:	6843      	ldr	r3, [r0, #4]
    19b0:	3301      	adds	r3, #1
    19b2:	6043      	str	r3, [r0, #4]
    19b4:	f001 fc96 	bl	32e4 <__mriIssueGdbFileUnlinkRequest>
    19b8:	e008      	b.n	19cc <__mriSemihost_HandleMbedSemihostRequest+0x12e>
    19ba:	f000 fb4f 	bl	205c <__mriPlatform_AdvanceProgramCounterToNextInstruction>
    19be:	2000      	movs	r0, #0
    19c0:	4601      	mov	r1, r0
    19c2:	f000 fb13 	bl	1fec <__mriPlatform_SetSemihostCallReturnAndErrnoValues>
    19c6:	2001      	movs	r0, #1
    19c8:	e000      	b.n	19cc <__mriSemihost_HandleMbedSemihostRequest+0x12e>
    19ca:	2000      	movs	r0, #0
    19cc:	b011      	add	sp, #68	; 0x44
    19ce:	bd30      	pop	{r4, r5, pc}

000019d0 <findDWTComparator>:
    19d0:	4b12      	ldr	r3, [pc, #72]	; (1a1c <findDWTComparator+0x4c>)
    19d2:	b5f0      	push	{r4, r5, r6, r7, lr}
    19d4:	681f      	ldr	r7, [r3, #0]
    19d6:	4606      	mov	r6, r0
    19d8:	0f3f      	lsrs	r7, r7, #28
    19da:	2300      	movs	r3, #0
    19dc:	f103 6460 	add.w	r4, r3, #234881024	; 0xe000000
    19e0:	f504 7481 	add.w	r4, r4, #258	; 0x102
    19e4:	42bb      	cmp	r3, r7
    19e6:	ea4f 1004 	mov.w	r0, r4, lsl #4
    19ea:	d013      	beq.n	1a14 <findDWTComparator+0x44>
    19ec:	6885      	ldr	r5, [r0, #8]
    19ee:	4c0c      	ldr	r4, [pc, #48]	; (1a20 <findDWTComparator+0x50>)
    19f0:	402c      	ands	r4, r5
    19f2:	4294      	cmp	r4, r2
    19f4:	d110      	bne.n	1a18 <findDWTComparator+0x48>
    19f6:	6804      	ldr	r4, [r0, #0]
    19f8:	42b4      	cmp	r4, r6
    19fa:	d10d      	bne.n	1a18 <findDWTComparator+0x48>
    19fc:	f8d0 c004 	ldr.w	r12, [r0, #4]
    1a00:	460d      	mov	r5, r1
    1a02:	2400      	movs	r4, #0
    1a04:	2d01      	cmp	r5, #1
    1a06:	d902      	bls.n	1a0e <findDWTComparator+0x3e>
    1a08:	086d      	lsrs	r5, r5, #1
    1a0a:	3401      	adds	r4, #1
    1a0c:	e7fa      	b.n	1a04 <findDWTComparator+0x34>
    1a0e:	45a4      	cmp	r12, r4
    1a10:	d102      	bne.n	1a18 <findDWTComparator+0x48>
    1a12:	bdf0      	pop	{r4, r5, r6, r7, pc}
    1a14:	2000      	movs	r0, #0
    1a16:	bdf0      	pop	{r4, r5, r6, r7, pc}
    1a18:	3301      	adds	r3, #1
    1a1a:	e7df      	b.n	19dc <findDWTComparator+0xc>
    1a1c:	e0001000 	.word	0xe0001000
    1a20:	000ffdaf 	.word	0x000ffdaf

00001a24 <getFPBCodeComparatorCount>:
    1a24:	4b04      	ldr	r3, [pc, #16]	; (1a38 <getFPBCodeComparatorCount+0x14>)
    1a26:	681b      	ldr	r3, [r3, #0]
    1a28:	f3c3 1003 	ubfx	r0, r3, #4, #4
    1a2c:	f403 43e0 	and.w	r3, r3, #28672	; 0x7000
    1a30:	ea40 2013 	orr.w	r0, r0, r3, lsr #8
    1a34:	4770      	bx	lr
    1a36:	bf00      	nop
    1a38:	e0002000 	.word	0xe0002000

00001a3c <prepareToAccessMPURegion>:
    1a3c:	4b04      	ldr	r3, [pc, #16]	; (1a50 <prepareToAccessMPURegion+0x14>)
    1a3e:	681a      	ldr	r2, [r3, #0]
    1a40:	f3c2 2207 	ubfx	r2, r2, #8, #8
    1a44:	4290      	cmp	r0, r2
    1a46:	bf3a      	itte	cc
    1a48:	6098      	strcc	r0, [r3, #8]
    1a4a:	2001      	movcc	r0, #1
    1a4c:	2000      	movcs	r0, #0
    1a4e:	4770      	bx	lr
    1a50:	e000ed90 	.word	0xe000ed90

00001a54 <displayMemFaultCauseToGdbConsole>:
    1a54:	b570      	push	{r4, r5, r6, lr}
    1a56:	4d1e      	ldr	r5, [pc, #120]	; (1ad0 <displayMemFaultCauseToGdbConsole+0x7c>)
    1a58:	6aac      	ldr	r4, [r5, #40]	; 0x28
    1a5a:	f014 06ff 	ands.w	r6, r4, #255	; 0xff
    1a5e:	d035      	beq.n	1acc <displayMemFaultCauseToGdbConsole+0x78>
    1a60:	481c      	ldr	r0, [pc, #112]	; (1ad4 <displayMemFaultCauseToGdbConsole+0x80>)
    1a62:	f001 fe86 	bl	3772 <__mriGdbConsole_WriteString>
    1a66:	481c      	ldr	r0, [pc, #112]	; (1ad8 <displayMemFaultCauseToGdbConsole+0x84>)
    1a68:	f001 fe83 	bl	3772 <__mriGdbConsole_WriteString>
    1a6c:	4630      	mov	r0, r6
    1a6e:	f001 fea5 	bl	37bc <__mriGdbConsole_WriteHexValue>
    1a72:	0626      	lsls	r6, r4, #24
    1a74:	d505      	bpl.n	1a82 <displayMemFaultCauseToGdbConsole+0x2e>
    1a76:	4819      	ldr	r0, [pc, #100]	; (1adc <displayMemFaultCauseToGdbConsole+0x88>)
    1a78:	f001 fe7b 	bl	3772 <__mriGdbConsole_WriteString>
    1a7c:	6b68      	ldr	r0, [r5, #52]	; 0x34
    1a7e:	f001 fe9d 	bl	37bc <__mriGdbConsole_WriteHexValue>
    1a82:	06a5      	lsls	r5, r4, #26
    1a84:	d502      	bpl.n	1a8c <displayMemFaultCauseToGdbConsole+0x38>
    1a86:	4816      	ldr	r0, [pc, #88]	; (1ae0 <displayMemFaultCauseToGdbConsole+0x8c>)
    1a88:	f001 fe73 	bl	3772 <__mriGdbConsole_WriteString>
    1a8c:	06e0      	lsls	r0, r4, #27
    1a8e:	d507      	bpl.n	1aa0 <displayMemFaultCauseToGdbConsole+0x4c>
    1a90:	4814      	ldr	r0, [pc, #80]	; (1ae4 <displayMemFaultCauseToGdbConsole+0x90>)
    1a92:	f001 fe6e 	bl	3772 <__mriGdbConsole_WriteString>
    1a96:	4b14      	ldr	r3, [pc, #80]	; (1ae8 <displayMemFaultCauseToGdbConsole+0x94>)
    1a98:	f8d3 0140 	ldr.w	r0, [r3, #320]	; 0x140
    1a9c:	f001 fe8e 	bl	37bc <__mriGdbConsole_WriteHexValue>
    1aa0:	0721      	lsls	r1, r4, #28
    1aa2:	d507      	bpl.n	1ab4 <displayMemFaultCauseToGdbConsole+0x60>
    1aa4:	4811      	ldr	r0, [pc, #68]	; (1aec <displayMemFaultCauseToGdbConsole+0x98>)
    1aa6:	f001 fe64 	bl	3772 <__mriGdbConsole_WriteString>
    1aaa:	4b0f      	ldr	r3, [pc, #60]	; (1ae8 <displayMemFaultCauseToGdbConsole+0x94>)
    1aac:	f8d3 0140 	ldr.w	r0, [r3, #320]	; 0x140
    1ab0:	f001 fe84 	bl	37bc <__mriGdbConsole_WriteHexValue>
    1ab4:	07a2      	lsls	r2, r4, #30
    1ab6:	d502      	bpl.n	1abe <displayMemFaultCauseToGdbConsole+0x6a>
    1ab8:	480d      	ldr	r0, [pc, #52]	; (1af0 <displayMemFaultCauseToGdbConsole+0x9c>)
    1aba:	f001 fe5a 	bl	3772 <__mriGdbConsole_WriteString>
    1abe:	07e3      	lsls	r3, r4, #31
    1ac0:	d504      	bpl.n	1acc <displayMemFaultCauseToGdbConsole+0x78>
    1ac2:	e8bd 4070 	ldmia.w	sp!, {r4, r5, r6, lr}
    1ac6:	480b      	ldr	r0, [pc, #44]	; (1af4 <displayMemFaultCauseToGdbConsole+0xa0>)
    1ac8:	f001 be53 	b.w	3772 <__mriGdbConsole_WriteString>
    1acc:	bd70      	pop	{r4, r5, r6, pc}
    1ace:	bf00      	nop
    1ad0:	e000ed00 	.word	0xe000ed00
    1ad4:	0000cfd0 	.word	0x0000cfd0
    1ad8:	0000cfdf 	.word	0x0000cfdf
    1adc:	0000cff4 	.word	0x0000cff4
    1ae0:	0000d009 	.word	0x0000d009
    1ae4:	0000d023 	.word	0x0000d023
    1ae8:	10000a50 	.word	0x10000a50
    1aec:	0000d040 	.word	0x0000d040
    1af0:	0000d05f 	.word	0x0000d05f
    1af4:	0000d070 	.word	0x0000d070

00001af8 <displayBusFaultCauseToGdbConsole>:
    1af8:	b570      	push	{r4, r5, r6, lr}
    1afa:	4d21      	ldr	r5, [pc, #132]	; (1b80 <displayBusFaultCauseToGdbConsole+0x88>)
    1afc:	6aac      	ldr	r4, [r5, #40]	; 0x28
    1afe:	0a24      	lsrs	r4, r4, #8
    1b00:	f014 06ff 	ands.w	r6, r4, #255	; 0xff
    1b04:	d03a      	beq.n	1b7c <displayBusFaultCauseToGdbConsole+0x84>
    1b06:	481f      	ldr	r0, [pc, #124]	; (1b84 <displayBusFaultCauseToGdbConsole+0x8c>)
    1b08:	f001 fe33 	bl	3772 <__mriGdbConsole_WriteString>
    1b0c:	481e      	ldr	r0, [pc, #120]	; (1b88 <displayBusFaultCauseToGdbConsole+0x90>)
    1b0e:	f001 fe30 	bl	3772 <__mriGdbConsole_WriteString>
    1b12:	4630      	mov	r0, r6
    1b14:	f001 fe52 	bl	37bc <__mriGdbConsole_WriteHexValue>
    1b18:	0623      	lsls	r3, r4, #24
    1b1a:	d505      	bpl.n	1b28 <displayBusFaultCauseToGdbConsole+0x30>
    1b1c:	481b      	ldr	r0, [pc, #108]	; (1b8c <displayBusFaultCauseToGdbConsole+0x94>)
    1b1e:	f001 fe28 	bl	3772 <__mriGdbConsole_WriteString>
    1b22:	6ba8      	ldr	r0, [r5, #56]	; 0x38
    1b24:	f001 fe4a 	bl	37bc <__mriGdbConsole_WriteHexValue>
    1b28:	06a6      	lsls	r6, r4, #26
    1b2a:	d502      	bpl.n	1b32 <displayBusFaultCauseToGdbConsole+0x3a>
    1b2c:	4818      	ldr	r0, [pc, #96]	; (1b90 <displayBusFaultCauseToGdbConsole+0x98>)
    1b2e:	f001 fe20 	bl	3772 <__mriGdbConsole_WriteString>
    1b32:	06e5      	lsls	r5, r4, #27
    1b34:	d507      	bpl.n	1b46 <displayBusFaultCauseToGdbConsole+0x4e>
    1b36:	4817      	ldr	r0, [pc, #92]	; (1b94 <displayBusFaultCauseToGdbConsole+0x9c>)
    1b38:	f001 fe1b 	bl	3772 <__mriGdbConsole_WriteString>
    1b3c:	4b16      	ldr	r3, [pc, #88]	; (1b98 <displayBusFaultCauseToGdbConsole+0xa0>)
    1b3e:	f8d3 0140 	ldr.w	r0, [r3, #320]	; 0x140
    1b42:	f001 fe3b 	bl	37bc <__mriGdbConsole_WriteHexValue>
    1b46:	0720      	lsls	r0, r4, #28
    1b48:	d507      	bpl.n	1b5a <displayBusFaultCauseToGdbConsole+0x62>
    1b4a:	4814      	ldr	r0, [pc, #80]	; (1b9c <displayBusFaultCauseToGdbConsole+0xa4>)
    1b4c:	f001 fe11 	bl	3772 <__mriGdbConsole_WriteString>
    1b50:	4b11      	ldr	r3, [pc, #68]	; (1b98 <displayBusFaultCauseToGdbConsole+0xa0>)
    1b52:	f8d3 0140 	ldr.w	r0, [r3, #320]	; 0x140
    1b56:	f001 fe31 	bl	37bc <__mriGdbConsole_WriteHexValue>
    1b5a:	0761      	lsls	r1, r4, #29
    1b5c:	d502      	bpl.n	1b64 <displayBusFaultCauseToGdbConsole+0x6c>
    1b5e:	4810      	ldr	r0, [pc, #64]	; (1ba0 <displayBusFaultCauseToGdbConsole+0xa8>)
    1b60:	f001 fe07 	bl	3772 <__mriGdbConsole_WriteString>
    1b64:	07a2      	lsls	r2, r4, #30
    1b66:	d502      	bpl.n	1b6e <displayBusFaultCauseToGdbConsole+0x76>
    1b68:	480e      	ldr	r0, [pc, #56]	; (1ba4 <displayBusFaultCauseToGdbConsole+0xac>)
    1b6a:	f001 fe02 	bl	3772 <__mriGdbConsole_WriteString>
    1b6e:	07e3      	lsls	r3, r4, #31
    1b70:	d504      	bpl.n	1b7c <displayBusFaultCauseToGdbConsole+0x84>
    1b72:	e8bd 4070 	ldmia.w	sp!, {r4, r5, r6, lr}
    1b76:	480c      	ldr	r0, [pc, #48]	; (1ba8 <displayBusFaultCauseToGdbConsole+0xb0>)
    1b78:	f001 bdfb 	b.w	3772 <__mriGdbConsole_WriteString>
    1b7c:	bd70      	pop	{r4, r5, r6, pc}
    1b7e:	bf00      	nop
    1b80:	e000ed00 	.word	0xe000ed00
    1b84:	0000d087 	.word	0x0000d087
    1b88:	0000cfdf 	.word	0x0000cfdf
    1b8c:	0000cff4 	.word	0x0000cff4
    1b90:	0000d009 	.word	0x0000d009
    1b94:	0000d023 	.word	0x0000d023
    1b98:	10000a50 	.word	0x10000a50
    1b9c:	0000d040 	.word	0x0000d040
    1ba0:	0000d096 	.word	0x0000d096
    1ba4:	0000d0b1 	.word	0x0000d0b1
    1ba8:	0000d0ca 	.word	0x0000d0ca

00001bac <displayUsageFaultCauseToGdbConsole>:
    1bac:	4b17      	ldr	r3, [pc, #92]	; (1c0c <displayUsageFaultCauseToGdbConsole+0x60>)
    1bae:	b510      	push	{r4, lr}
    1bb0:	6a9c      	ldr	r4, [r3, #40]	; 0x28
    1bb2:	0c24      	lsrs	r4, r4, #16
    1bb4:	d028      	beq.n	1c08 <displayUsageFaultCauseToGdbConsole+0x5c>
    1bb6:	4816      	ldr	r0, [pc, #88]	; (1c10 <displayUsageFaultCauseToGdbConsole+0x64>)
    1bb8:	f001 fddb 	bl	3772 <__mriGdbConsole_WriteString>
    1bbc:	4815      	ldr	r0, [pc, #84]	; (1c14 <displayUsageFaultCauseToGdbConsole+0x68>)
    1bbe:	f001 fdd8 	bl	3772 <__mriGdbConsole_WriteString>
    1bc2:	4620      	mov	r0, r4
    1bc4:	f001 fdfa 	bl	37bc <__mriGdbConsole_WriteHexValue>
    1bc8:	05a2      	lsls	r2, r4, #22
    1bca:	d502      	bpl.n	1bd2 <displayUsageFaultCauseToGdbConsole+0x26>
    1bcc:	4812      	ldr	r0, [pc, #72]	; (1c18 <displayUsageFaultCauseToGdbConsole+0x6c>)
    1bce:	f001 fdd0 	bl	3772 <__mriGdbConsole_WriteString>
    1bd2:	05e3      	lsls	r3, r4, #23
    1bd4:	d502      	bpl.n	1bdc <displayUsageFaultCauseToGdbConsole+0x30>
    1bd6:	4811      	ldr	r0, [pc, #68]	; (1c1c <displayUsageFaultCauseToGdbConsole+0x70>)
    1bd8:	f001 fdcb 	bl	3772 <__mriGdbConsole_WriteString>
    1bdc:	0720      	lsls	r0, r4, #28
    1bde:	d502      	bpl.n	1be6 <displayUsageFaultCauseToGdbConsole+0x3a>
    1be0:	480f      	ldr	r0, [pc, #60]	; (1c20 <displayUsageFaultCauseToGdbConsole+0x74>)
    1be2:	f001 fdc6 	bl	3772 <__mriGdbConsole_WriteString>
    1be6:	0761      	lsls	r1, r4, #29
    1be8:	d502      	bpl.n	1bf0 <displayUsageFaultCauseToGdbConsole+0x44>
    1bea:	480e      	ldr	r0, [pc, #56]	; (1c24 <displayUsageFaultCauseToGdbConsole+0x78>)
    1bec:	f001 fdc1 	bl	3772 <__mriGdbConsole_WriteString>
    1bf0:	07a2      	lsls	r2, r4, #30
    1bf2:	d502      	bpl.n	1bfa <displayUsageFaultCauseToGdbConsole+0x4e>
    1bf4:	480c      	ldr	r0, [pc, #48]	; (1c28 <displayUsageFaultCauseToGdbConsole+0x7c>)
    1bf6:	f001 fdbc 	bl	3772 <__mriGdbConsole_WriteString>
    1bfa:	07e3      	lsls	r3, r4, #31
    1bfc:	d504      	bpl.n	1c08 <displayUsageFaultCauseToGdbConsole+0x5c>
    1bfe:	e8bd 4010 	ldmia.w	sp!, {r4, lr}
    1c02:	480a      	ldr	r0, [pc, #40]	; (1c2c <displayUsageFaultCauseToGdbConsole+0x80>)
    1c04:	f001 bdb5 	b.w	3772 <__mriGdbConsole_WriteString>
    1c08:	bd10      	pop	{r4, pc}
    1c0a:	bf00      	nop
    1c0c:	e000ed00 	.word	0xe000ed00
    1c10:	0000d0e4 	.word	0x0000d0e4
    1c14:	0000cfdf 	.word	0x0000cfdf
    1c18:	0000d0f5 	.word	0x0000d0f5
    1c1c:	0000d109 	.word	0x0000d109
    1c20:	0000d11f 	.word	0x0000d11f
    1c24:	0000d137 	.word	0x0000d137
    1c28:	0000d15b 	.word	0x0000d15b
    1c2c:	0000d16e 	.word	0x0000d16e

00001c30 <sendRegisterForTResponse>:
    1c30:	b537      	push	{r0, r1, r2, r4, r5, lr}
    1c32:	4605      	mov	r5, r0
    1c34:	9201      	str	r2, [sp, #4]
    1c36:	f000 ffe9 	bl	2c0c <__mriBuffer_WriteByteAsHex>
    1c3a:	4628      	mov	r0, r5
    1c3c:	213a      	movs	r1, #58	; 0x3a
    1c3e:	f000 ffbf 	bl	2bc0 <__mriBuffer_WriteChar>
    1c42:	2400      	movs	r4, #0
    1c44:	ab01      	add	r3, sp, #4
    1c46:	5d19      	ldrb	r1, [r3, r4]
    1c48:	4628      	mov	r0, r5
    1c4a:	3401      	adds	r4, #1
    1c4c:	f000 ffde 	bl	2c0c <__mriBuffer_WriteByteAsHex>
    1c50:	2c04      	cmp	r4, #4
    1c52:	d1f7      	bne.n	1c44 <sendRegisterForTResponse+0x14>
    1c54:	4628      	mov	r0, r5
    1c56:	213b      	movs	r1, #59	; 0x3b
    1c58:	f000 ffb2 	bl	2bc0 <__mriBuffer_WriteChar>
    1c5c:	b003      	add	sp, #12
    1c5e:	bd30      	pop	{r4, r5, pc}

00001c60 <calculateFPBComparatorValue>:
    1c60:	4b0c      	ldr	r3, [pc, #48]	; (1c94 <calculateFPBComparatorValue+0x34>)
    1c62:	4003      	ands	r3, r0
    1c64:	b113      	cbz	r3, 1c6c <calculateFPBComparatorValue+0xc>
    1c66:	f04f 30ff 	mov.w	r0, #4294967295
    1c6a:	4770      	bx	lr
    1c6c:	f020 4360 	bic.w	r3, r0, #3758096384	; 0xe0000000
    1c70:	f023 0303 	bic.w	r3, r3, #3
    1c74:	f043 0301 	orr.w	r3, r3, #1
    1c78:	b939      	cbnz	r1, 1c8a <calculateFPBComparatorValue+0x2a>
    1c7a:	f010 0f02 	tst.w	r0, #2
    1c7e:	bf0c      	ite	eq
    1c80:	f04f 4280 	moveq.w	r2, #1073741824	; 0x40000000
    1c84:	f04f 4200 	movne.w	r2, #2147483648	; 0x80000000
    1c88:	e001      	b.n	1c8e <calculateFPBComparatorValue+0x2e>
    1c8a:	f04f 4240 	mov.w	r2, #3221225472	; 0xc0000000
    1c8e:	ea43 0002 	orr.w	r0, r3, r2
    1c92:	4770      	bx	lr
    1c94:	e0000001 	.word	0xe0000001

00001c98 <findFPBBreakpointComparator>:
    1c98:	b538      	push	{r3, r4, r5, lr}
    1c9a:	f7ff ffe1 	bl	1c60 <calculateFPBComparatorValue>
    1c9e:	4604      	mov	r4, r0
    1ca0:	f7ff fec0 	bl	1a24 <getFPBCodeComparatorCount>
    1ca4:	4a09      	ldr	r2, [pc, #36]	; (1ccc <findFPBBreakpointComparator+0x34>)
    1ca6:	2300      	movs	r3, #0
    1ca8:	4283      	cmp	r3, r0
    1caa:	4615      	mov	r5, r2
    1cac:	d009      	beq.n	1cc2 <findFPBBreakpointComparator+0x2a>
    1cae:	f852 1b04 	ldr.w	r1, [r2], #4
    1cb2:	f021 5100 	bic.w	r1, r1, #536870912	; 0x20000000
    1cb6:	f021 0102 	bic.w	r1, r1, #2
    1cba:	428c      	cmp	r4, r1
    1cbc:	d003      	beq.n	1cc6 <findFPBBreakpointComparator+0x2e>
    1cbe:	3301      	adds	r3, #1
    1cc0:	e7f2      	b.n	1ca8 <findFPBBreakpointComparator+0x10>
    1cc2:	2000      	movs	r0, #0
    1cc4:	bd38      	pop	{r3, r4, r5, pc}
    1cc6:	4628      	mov	r0, r5
    1cc8:	bd38      	pop	{r3, r4, r5, pc}
    1cca:	bf00      	nop
    1ccc:	e0002008 	.word	0xe0002008

00001cd0 <isMPUNotPresent>:
    1cd0:	4b04      	ldr	r3, [pc, #16]	; (1ce4 <isMPUNotPresent+0x14>)
    1cd2:	6818      	ldr	r0, [r3, #0]
    1cd4:	f3c0 2007 	ubfx	r0, r0, #8, #8
    1cd8:	f1d0 0001 	rsbs	r0, r0, #1
    1cdc:	bf38      	it	cc
    1cde:	2000      	movcc	r0, #0
    1ce0:	4770      	bx	lr
    1ce2:	bf00      	nop
    1ce4:	e000ed90 	.word	0xe000ed90

00001ce8 <disableMPU>:
    1ce8:	b508      	push	{r3, lr}
    1cea:	f7ff fff1 	bl	1cd0 <isMPUNotPresent>
    1cee:	b940      	cbnz	r0, 1d02 <disableMPU+0x1a>
    1cf0:	4b04      	ldr	r3, [pc, #16]	; (1d04 <disableMPU+0x1c>)
    1cf2:	685a      	ldr	r2, [r3, #4]
    1cf4:	f022 0201 	bic.w	r2, r2, #1
    1cf8:	605a      	str	r2, [r3, #4]
    1cfa:	f3bf 8f4f 	dsb	sy
    1cfe:	f3bf 8f6f 	isb	sy
    1d02:	bd08      	pop	{r3, pc}
    1d04:	e000ed90 	.word	0xe000ed90

00001d08 <__mriPlatform_DisableSingleStep>:
    1d08:	4b06      	ldr	r3, [pc, #24]	; (1d24 <__mriPlatform_DisableSingleStep+0x1c>)
    1d0a:	68da      	ldr	r2, [r3, #12]
    1d0c:	f422 2280 	bic.w	r2, r2, #262144	; 0x40000
    1d10:	60da      	str	r2, [r3, #12]
    1d12:	4b05      	ldr	r3, [pc, #20]	; (1d28 <__mriPlatform_DisableSingleStep+0x20>)
    1d14:	f8d3 2138 	ldr.w	r2, [r3, #312]	; 0x138
    1d18:	f022 0204 	bic.w	r2, r2, #4
    1d1c:	f8c3 2138 	str.w	r2, [r3, #312]	; 0x138
    1d20:	4770      	bx	lr
    1d22:	bf00      	nop
    1d24:	e000edf0 	.word	0xe000edf0
    1d28:	10000a50 	.word	0x10000a50

00001d2c <__mriCortexMInit>:
    1d2c:	b538      	push	{r3, r4, r5, lr}
    1d2e:	4c26      	ldr	r4, [pc, #152]	; (1dc8 <__mriCortexMInit+0x9c>)
    1d30:	f000 fbd0 	bl	24d4 <__mriARMv7MAsmInit>
    1d34:	4825      	ldr	r0, [pc, #148]	; (1dcc <__mriCortexMInit+0xa0>)
    1d36:	2100      	movs	r1, #0
    1d38:	f44f 720c 	mov.w	r2, #560	; 0x230
    1d3c:	f006 f903 	bl	7f46 <memset>
    1d40:	68e3      	ldr	r3, [r4, #12]
    1d42:	f043 7380 	orr.w	r3, r3, #16777216	; 0x1000000
    1d46:	60e3      	str	r3, [r4, #12]
    1d48:	4b21      	ldr	r3, [pc, #132]	; (1dd0 <__mriCortexMInit+0xa4>)
    1d4a:	6818      	ldr	r0, [r3, #0]
    1d4c:	2300      	movs	r3, #0
    1d4e:	0f00      	lsrs	r0, r0, #28
    1d50:	f103 6260 	add.w	r2, r3, #234881024	; 0xe000000
    1d54:	f502 7281 	add.w	r2, r2, #258	; 0x102
    1d58:	4283      	cmp	r3, r0
    1d5a:	ea4f 1202 	mov.w	r2, r2, lsl #4
    1d5e:	d00a      	beq.n	1d76 <__mriCortexMInit+0x4a>
    1d60:	2100      	movs	r1, #0
    1d62:	6011      	str	r1, [r2, #0]
    1d64:	6051      	str	r1, [r2, #4]
    1d66:	6891      	ldr	r1, [r2, #8]
    1d68:	3301      	adds	r3, #1
    1d6a:	f421 71d7 	bic.w	r1, r1, #430	; 0x1ae
    1d6e:	f021 0101 	bic.w	r1, r1, #1
    1d72:	6091      	str	r1, [r2, #8]
    1d74:	e7ec      	b.n	1d50 <__mriCortexMInit+0x24>
    1d76:	f7ff fe55 	bl	1a24 <getFPBCodeComparatorCount>
    1d7a:	4a16      	ldr	r2, [pc, #88]	; (1dd4 <__mriCortexMInit+0xa8>)
    1d7c:	4916      	ldr	r1, [pc, #88]	; (1dd8 <__mriCortexMInit+0xac>)
    1d7e:	6813      	ldr	r3, [r2, #0]
    1d80:	f3c3 2303 	ubfx	r3, r3, #8, #4
    1d84:	4418      	add	r0, r3
    1d86:	2300      	movs	r3, #0
    1d88:	4283      	cmp	r3, r0
    1d8a:	d004      	beq.n	1d96 <__mriCortexMInit+0x6a>
    1d8c:	2500      	movs	r5, #0
    1d8e:	f841 5b04 	str.w	r5, [r1], #4
    1d92:	3301      	adds	r3, #1
    1d94:	e7f8      	b.n	1d88 <__mriCortexMInit+0x5c>
    1d96:	6813      	ldr	r3, [r2, #0]
    1d98:	4d10      	ldr	r5, [pc, #64]	; (1ddc <__mriCortexMInit+0xb0>)
    1d9a:	f043 0303 	orr.w	r3, r3, #3
    1d9e:	6013      	str	r3, [r2, #0]
    1da0:	2308      	movs	r3, #8
    1da2:	77eb      	strb	r3, [r5, #31]
    1da4:	f885 3022 	strb.w	r3, [r5, #34]	; 0x22
    1da8:	f885 3023 	strb.w	r3, [r5, #35]	; 0x23
    1dac:	f7ff ffac 	bl	1d08 <__mriPlatform_DisableSingleStep>
    1db0:	68e3      	ldr	r3, [r4, #12]
    1db2:	f423 3300 	bic.w	r3, r3, #131072	; 0x20000
    1db6:	60e3      	str	r3, [r4, #12]
    1db8:	2300      	movs	r3, #0
    1dba:	f885 3020 	strb.w	r3, [r5, #32]
    1dbe:	68e3      	ldr	r3, [r4, #12]
    1dc0:	f443 3380 	orr.w	r3, r3, #65536	; 0x10000
    1dc4:	60e3      	str	r3, [r4, #12]
    1dc6:	bd38      	pop	{r3, r4, r5, pc}
    1dc8:	e000edf0 	.word	0xe000edf0
    1dcc:	10000a50 	.word	0x10000a50
    1dd0:	e0001000 	.word	0xe0001000
    1dd4:	e0002000 	.word	0xe0002000
    1dd8:	e0002008 	.word	0xe0002008
    1ddc:	e000ed00 	.word	0xe000ed00

00001de0 <__mriPlatform_IsSingleStepping>:
    1de0:	4b02      	ldr	r3, [pc, #8]	; (1dec <__mriPlatform_IsSingleStepping+0xc>)
    1de2:	f8d3 0138 	ldr.w	r0, [r3, #312]	; 0x138
    1de6:	f000 0004 	and.w	r0, r0, #4
    1dea:	4770      	bx	lr
    1dec:	10000a50 	.word	0x10000a50

00001df0 <__mriPlatform_GetPacketBuffer>:
    1df0:	4800      	ldr	r0, [pc, #0]	; (1df4 <__mriPlatform_GetPacketBuffer+0x4>)
    1df2:	4770      	bx	lr
    1df4:	10000bf4 	.word	0x10000bf4

00001df8 <__mriPlatform_GetPacketBufferSize>:
    1df8:	2089      	movs	r0, #137	; 0x89
    1dfa:	4770      	bx	lr

00001dfc <__mriPlatform_DetermineCauseOfException>:
    1dfc:	f3ef 8305 	mrs	r3, IPSR
    1e00:	b2db      	uxtb	r3, r3
    1e02:	3b02      	subs	r3, #2
    1e04:	2b16      	cmp	r3, #22
    1e06:	d82f      	bhi.n	1e68 <__mriPlatform_DetermineCauseOfException+0x6c>
    1e08:	e8df f003 	tbb	[pc, r3]
    1e0c:	0e30300c 	.word	0x0e30300c
    1e10:	2e2e2e10 	.word	0x2e2e2e10
    1e14:	2e122e2e 	.word	0x2e122e2e
    1e18:	2e2e2e2e 	.word	0x2e2e2e2e
    1e1c:	0c2e2e2e 	.word	0x0c2e2e2e
    1e20:	0c0c      	.short	0x0c0c
    1e22:	0c          	.byte	0x0c
    1e23:	00          	.byte	0x00
    1e24:	2002      	movs	r0, #2
    1e26:	4770      	bx	lr
    1e28:	200a      	movs	r0, #10
    1e2a:	4770      	bx	lr
    1e2c:	2004      	movs	r0, #4
    1e2e:	4770      	bx	lr
    1e30:	4b0f      	ldr	r3, [pc, #60]	; (1e70 <__mriPlatform_DetermineCauseOfException+0x74>)
    1e32:	6b1b      	ldr	r3, [r3, #48]	; 0x30
    1e34:	06d8      	lsls	r0, r3, #27
    1e36:	d408      	bmi.n	1e4a <__mriPlatform_DetermineCauseOfException+0x4e>
    1e38:	0759      	lsls	r1, r3, #29
    1e3a:	d409      	bmi.n	1e50 <__mriPlatform_DetermineCauseOfException+0x54>
    1e3c:	079a      	lsls	r2, r3, #30
    1e3e:	d40a      	bmi.n	1e56 <__mriPlatform_DetermineCauseOfException+0x5a>
    1e40:	07db      	lsls	r3, r3, #31
    1e42:	d511      	bpl.n	1e68 <__mriPlatform_DetermineCauseOfException+0x6c>
    1e44:	2303      	movs	r3, #3
    1e46:	2201      	movs	r2, #1
    1e48:	e007      	b.n	1e5a <__mriPlatform_DetermineCauseOfException+0x5e>
    1e4a:	2300      	movs	r3, #0
    1e4c:	2210      	movs	r2, #16
    1e4e:	e004      	b.n	1e5a <__mriPlatform_DetermineCauseOfException+0x5e>
    1e50:	2301      	movs	r3, #1
    1e52:	2204      	movs	r2, #4
    1e54:	e001      	b.n	1e5a <__mriPlatform_DetermineCauseOfException+0x5e>
    1e56:	2302      	movs	r3, #2
    1e58:	461a      	mov	r2, r3
    1e5a:	4905      	ldr	r1, [pc, #20]	; (1e70 <__mriPlatform_DetermineCauseOfException+0x74>)
    1e5c:	630a      	str	r2, [r1, #48]	; 0x30
    1e5e:	4a05      	ldr	r2, [pc, #20]	; (1e74 <__mriPlatform_DetermineCauseOfException+0x78>)
    1e60:	eb02 03c3 	add.w	r3, r2, r3, lsl #3
    1e64:	7918      	ldrb	r0, [r3, #4]
    1e66:	4770      	bx	lr
    1e68:	2011      	movs	r0, #17
    1e6a:	4770      	bx	lr
    1e6c:	200b      	movs	r0, #11
    1e6e:	4770      	bx	lr
    1e70:	e000ed00 	.word	0xe000ed00
    1e74:	0000cf90 	.word	0x0000cf90

00001e78 <__mriPlatform_DisplayFaultCauseToGdbConsole>:
    1e78:	b510      	push	{r4, lr}
    1e7a:	f3ef 8305 	mrs	r3, IPSR
    1e7e:	b2db      	uxtb	r3, r3
    1e80:	3b03      	subs	r3, #3
    1e82:	2b03      	cmp	r3, #3
    1e84:	d82f      	bhi.n	1ee6 <__mriPlatform_DisplayFaultCauseToGdbConsole+0x6e>
    1e86:	e8df f003 	tbb	[pc, r3]
    1e8a:	2102      	.short	0x2102
    1e8c:	2724      	.short	0x2724
    1e8e:	4b16      	ldr	r3, [pc, #88]	; (1ee8 <__mriPlatform_DisplayFaultCauseToGdbConsole+0x70>)
    1e90:	4816      	ldr	r0, [pc, #88]	; (1eec <__mriPlatform_DisplayFaultCauseToGdbConsole+0x74>)
    1e92:	6adc      	ldr	r4, [r3, #44]	; 0x2c
    1e94:	f001 fc6d 	bl	3772 <__mriGdbConsole_WriteString>
    1e98:	4815      	ldr	r0, [pc, #84]	; (1ef0 <__mriPlatform_DisplayFaultCauseToGdbConsole+0x78>)
    1e9a:	f001 fc6a 	bl	3772 <__mriGdbConsole_WriteString>
    1e9e:	4620      	mov	r0, r4
    1ea0:	f001 fc8c 	bl	37bc <__mriGdbConsole_WriteHexValue>
    1ea4:	2c00      	cmp	r4, #0
    1ea6:	da02      	bge.n	1eae <__mriPlatform_DisplayFaultCauseToGdbConsole+0x36>
    1ea8:	4812      	ldr	r0, [pc, #72]	; (1ef4 <__mriPlatform_DisplayFaultCauseToGdbConsole+0x7c>)
    1eaa:	f001 fc62 	bl	3772 <__mriGdbConsole_WriteString>
    1eae:	07a2      	lsls	r2, r4, #30
    1eb0:	d502      	bpl.n	1eb8 <__mriPlatform_DisplayFaultCauseToGdbConsole+0x40>
    1eb2:	4811      	ldr	r0, [pc, #68]	; (1ef8 <__mriPlatform_DisplayFaultCauseToGdbConsole+0x80>)
    1eb4:	f001 fc5d 	bl	3772 <__mriGdbConsole_WriteString>
    1eb8:	0063      	lsls	r3, r4, #1
    1eba:	d50f      	bpl.n	1edc <__mriPlatform_DisplayFaultCauseToGdbConsole+0x64>
    1ebc:	480f      	ldr	r0, [pc, #60]	; (1efc <__mriPlatform_DisplayFaultCauseToGdbConsole+0x84>)
    1ebe:	f001 fc58 	bl	3772 <__mriGdbConsole_WriteString>
    1ec2:	f7ff fdc7 	bl	1a54 <displayMemFaultCauseToGdbConsole>
    1ec6:	f7ff fe17 	bl	1af8 <displayBusFaultCauseToGdbConsole>
    1eca:	e005      	b.n	1ed8 <__mriPlatform_DisplayFaultCauseToGdbConsole+0x60>
    1ecc:	f7ff fdc2 	bl	1a54 <displayMemFaultCauseToGdbConsole>
    1ed0:	e004      	b.n	1edc <__mriPlatform_DisplayFaultCauseToGdbConsole+0x64>
    1ed2:	f7ff fe11 	bl	1af8 <displayBusFaultCauseToGdbConsole>
    1ed6:	e001      	b.n	1edc <__mriPlatform_DisplayFaultCauseToGdbConsole+0x64>
    1ed8:	f7ff fe68 	bl	1bac <displayUsageFaultCauseToGdbConsole>
    1edc:	e8bd 4010 	ldmia.w	sp!, {r4, lr}
    1ee0:	4807      	ldr	r0, [pc, #28]	; (1f00 <__mriPlatform_DisplayFaultCauseToGdbConsole+0x88>)
    1ee2:	f001 bc46 	b.w	3772 <__mriGdbConsole_WriteString>
    1ee6:	bd10      	pop	{r4, pc}
    1ee8:	e000ed00 	.word	0xe000ed00
    1eec:	0000d189 	.word	0x0000d189
    1ef0:	0000cfdf 	.word	0x0000cfdf
    1ef4:	0000d199 	.word	0x0000d199
    1ef8:	0000d1aa 	.word	0x0000d1aa
    1efc:	0000d1c1 	.word	0x0000d1c1
    1f00:	0000d1cd 	.word	0x0000d1cd

00001f04 <__mriPlatform_LeavingDebugger>:
    1f04:	b570      	push	{r4, r5, r6, lr}
    1f06:	4d1f      	ldr	r5, [pc, #124]	; (1f84 <__mriPlatform_LeavingDebugger+0x80>)
    1f08:	f7ff feee 	bl	1ce8 <disableMPU>
    1f0c:	6828      	ldr	r0, [r5, #0]
    1f0e:	4c1e      	ldr	r4, [pc, #120]	; (1f88 <__mriPlatform_LeavingDebugger+0x84>)
    1f10:	f3c0 2007 	ubfx	r0, r0, #8, #8
    1f14:	3801      	subs	r0, #1
    1f16:	f7ff fd91 	bl	1a3c <prepareToAccessMPURegion>
    1f1a:	f8d4 6194 	ldr.w	r6, [r4, #404]	; 0x194
    1f1e:	f7ff fed7 	bl	1cd0 <isMPUNotPresent>
    1f22:	b908      	cbnz	r0, 1f28 <__mriPlatform_LeavingDebugger+0x24>
    1f24:	0176      	lsls	r6, r6, #5
    1f26:	60ee      	str	r6, [r5, #12]
    1f28:	f8d4 6198 	ldr.w	r6, [r4, #408]	; 0x198
    1f2c:	f7ff fed0 	bl	1cd0 <isMPUNotPresent>
    1f30:	b900      	cbnz	r0, 1f34 <__mriPlatform_LeavingDebugger+0x30>
    1f32:	612e      	str	r6, [r5, #16]
    1f34:	f8d4 0190 	ldr.w	r0, [r4, #400]	; 0x190
    1f38:	f7ff fd80 	bl	1a3c <prepareToAccessMPURegion>
    1f3c:	f8d4 618c 	ldr.w	r6, [r4, #396]	; 0x18c
    1f40:	f7ff fec6 	bl	1cd0 <isMPUNotPresent>
    1f44:	b920      	cbnz	r0, 1f50 <__mriPlatform_LeavingDebugger+0x4c>
    1f46:	606e      	str	r6, [r5, #4]
    1f48:	f3bf 8f4f 	dsb	sy
    1f4c:	f3bf 8f6f 	isb	sy
    1f50:	4b0d      	ldr	r3, [pc, #52]	; (1f88 <__mriPlatform_LeavingDebugger+0x84>)
    1f52:	461a      	mov	r2, r3
    1f54:	6811      	ldr	r1, [r2, #0]
    1f56:	480d      	ldr	r0, [pc, #52]	; (1f8c <__mriPlatform_LeavingDebugger+0x88>)
    1f58:	3304      	adds	r3, #4
    1f5a:	4281      	cmp	r1, r0
    1f5c:	490c      	ldr	r1, [pc, #48]	; (1f90 <__mriPlatform_LeavingDebugger+0x8c>)
    1f5e:	d102      	bne.n	1f66 <__mriPlatform_LeavingDebugger+0x62>
    1f60:	428b      	cmp	r3, r1
    1f62:	461a      	mov	r2, r3
    1f64:	d3f5      	bcc.n	1f52 <__mriPlatform_LeavingDebugger+0x4e>
    1f66:	f8d4 31a0 	ldr.w	r3, [r4, #416]	; 0x1a0
    1f6a:	1a8a      	subs	r2, r1, r2
    1f6c:	429a      	cmp	r2, r3
    1f6e:	bfc4      	itt	gt
    1f70:	4b05      	ldrgt	r3, [pc, #20]	; (1f88 <__mriPlatform_LeavingDebugger+0x84>)
    1f72:	f8c3 21a0 	strgt.w	r2, [r3, #416]	; 0x1a0
    1f76:	4b07      	ldr	r3, [pc, #28]	; (1f94 <__mriPlatform_LeavingDebugger+0x90>)
    1f78:	68da      	ldr	r2, [r3, #12]
    1f7a:	f422 3200 	bic.w	r2, r2, #131072	; 0x20000
    1f7e:	60da      	str	r2, [r3, #12]
    1f80:	bd70      	pop	{r4, r5, r6, pc}
    1f82:	bf00      	nop
    1f84:	e000ed90 	.word	0xe000ed90
    1f88:	10000a50 	.word	0x10000a50
    1f8c:	deadbeef 	.word	0xdeadbeef
    1f90:	10000b88 	.word	0x10000b88
    1f94:	e000edf0 	.word	0xe000edf0

00001f98 <__mriPlatform_GetProgramCounter>:
    1f98:	4b01      	ldr	r3, [pc, #4]	; (1fa0 <__mriPlatform_GetProgramCounter+0x8>)
    1f9a:	f8d3 0180 	ldr.w	r0, [r3, #384]	; 0x180
    1f9e:	4770      	bx	lr
    1fa0:	10000a50 	.word	0x10000a50

00001fa4 <__mriPlatform_SetProgramCounter>:
    1fa4:	4b01      	ldr	r3, [pc, #4]	; (1fac <__mriPlatform_SetProgramCounter+0x8>)
    1fa6:	f8c3 0180 	str.w	r0, [r3, #384]	; 0x180
    1faa:	4770      	bx	lr
    1fac:	10000a50 	.word	0x10000a50

00001fb0 <__mriPlatform_WasProgramCounterModifiedByUser>:
    1fb0:	4b04      	ldr	r3, [pc, #16]	; (1fc4 <__mriPlatform_WasProgramCounterModifiedByUser+0x14>)
    1fb2:	f8d3 0180 	ldr.w	r0, [r3, #384]	; 0x180
    1fb6:	f8d3 3188 	ldr.w	r3, [r3, #392]	; 0x188
    1fba:	1ac0      	subs	r0, r0, r3
    1fbc:	bf18      	it	ne
    1fbe:	2001      	movne	r0, #1
    1fc0:	4770      	bx	lr
    1fc2:	bf00      	nop
    1fc4:	10000a50 	.word	0x10000a50

00001fc8 <__mriPlatform_GetSemihostCallParameters>:
    1fc8:	b530      	push	{r4, r5, lr}
    1fca:	4a07      	ldr	r2, [pc, #28]	; (1fe8 <__mriPlatform_GetSemihostCallParameters+0x20>)
    1fcc:	f8d2 5148 	ldr.w	r5, [r2, #328]	; 0x148
    1fd0:	f8d2 414c 	ldr.w	r4, [r2, #332]	; 0x14c
    1fd4:	f8d2 1150 	ldr.w	r1, [r2, #336]	; 0x150
    1fd8:	f8d2 2144 	ldr.w	r2, [r2, #324]	; 0x144
    1fdc:	6084      	str	r4, [r0, #8]
    1fde:	e880 0024 	stmia.w	r0, {r2, r5}
    1fe2:	60c1      	str	r1, [r0, #12]
    1fe4:	bd30      	pop	{r4, r5, pc}
    1fe6:	bf00      	nop
    1fe8:	10000a50 	.word	0x10000a50

00001fec <__mriPlatform_SetSemihostCallReturnAndErrnoValues>:
    1fec:	4b03      	ldr	r3, [pc, #12]	; (1ffc <__mriPlatform_SetSemihostCallReturnAndErrnoValues+0x10>)
    1fee:	2800      	cmp	r0, #0
    1ff0:	f8c3 0144 	str.w	r0, [r3, #324]	; 0x144
    1ff4:	bfbc      	itt	lt
    1ff6:	4b02      	ldrlt	r3, [pc, #8]	; (2000 <__mriPlatform_SetSemihostCallReturnAndErrnoValues+0x14>)
    1ff8:	6019      	strlt	r1, [r3, #0]
    1ffa:	4770      	bx	lr
    1ffc:	10000a50 	.word	0x10000a50
    2000:	10000c90 	.word	0x10000c90

00002004 <__mriPlatform_WasMemoryFaultEncountered>:
    2004:	f3bf 8f4f 	dsb	sy
    2008:	4b05      	ldr	r3, [pc, #20]	; (2020 <__mriPlatform_WasMemoryFaultEncountered+0x1c>)
    200a:	f8d3 0138 	ldr.w	r0, [r3, #312]	; 0x138
    200e:	f8d3 2138 	ldr.w	r2, [r3, #312]	; 0x138
    2012:	f000 0002 	and.w	r0, r0, #2
    2016:	f022 0202 	bic.w	r2, r2, #2
    201a:	f8c3 2138 	str.w	r2, [r3, #312]	; 0x138
    201e:	4770      	bx	lr
    2020:	10000a50 	.word	0x10000a50

00002024 <throwingMemRead16>:
    2024:	b510      	push	{r4, lr}
    2026:	f000 fb1b 	bl	2660 <__mriPlatform_MemRead16>
    202a:	4604      	mov	r4, r0
    202c:	f7ff ffea 	bl	2004 <__mriPlatform_WasMemoryFaultEncountered>
    2030:	b138      	cbz	r0, 2042 <throwingMemRead16+0x1e>
    2032:	4b05      	ldr	r3, [pc, #20]	; (2048 <throwingMemRead16+0x24>)
    2034:	2000      	movs	r0, #0
    2036:	681a      	ldr	r2, [r3, #0]
    2038:	2a0a      	cmp	r2, #10
    203a:	bfb8      	it	lt
    203c:	220a      	movlt	r2, #10
    203e:	601a      	str	r2, [r3, #0]
    2040:	bd10      	pop	{r4, pc}
    2042:	4620      	mov	r0, r4
    2044:	bd10      	pop	{r4, pc}
    2046:	bf00      	nop
    2048:	10000a48 	.word	0x10000a48

0000204c <getFirstHalfWordOfCurrentInstruction>:
    204c:	4b02      	ldr	r3, [pc, #8]	; (2058 <getFirstHalfWordOfCurrentInstruction+0xc>)
    204e:	f8d3 0180 	ldr.w	r0, [r3, #384]	; 0x180
    2052:	f7ff bfe7 	b.w	2024 <throwingMemRead16>
    2056:	bf00      	nop
    2058:	10000a50 	.word	0x10000a50

0000205c <__mriPlatform_AdvanceProgramCounterToNextInstruction>:
    205c:	b538      	push	{r3, r4, r5, lr}
    205e:	4c0f      	ldr	r4, [pc, #60]	; (209c <__mriPlatform_AdvanceProgramCounterToNextInstruction+0x40>)
    2060:	2500      	movs	r5, #0
    2062:	6025      	str	r5, [r4, #0]
    2064:	f7ff fff2 	bl	204c <getFirstHalfWordOfCurrentInstruction>
    2068:	6823      	ldr	r3, [r4, #0]
    206a:	b10b      	cbz	r3, 2070 <__mriPlatform_AdvanceProgramCounterToNextInstruction+0x14>
    206c:	6025      	str	r5, [r4, #0]
    206e:	bd38      	pop	{r3, r4, r5, pc}
    2070:	f400 4278 	and.w	r2, r0, #63488	; 0xf800
    2074:	f400 4068 	and.w	r0, r0, #59392	; 0xe800
    2078:	f5b0 4f68 	cmp.w	r0, #59392	; 0xe800
    207c:	4b08      	ldr	r3, [pc, #32]	; (20a0 <__mriPlatform_AdvanceProgramCounterToNextInstruction+0x44>)
    207e:	d002      	beq.n	2086 <__mriPlatform_AdvanceProgramCounterToNextInstruction+0x2a>
    2080:	f5b2 4f70 	cmp.w	r2, #61440	; 0xf000
    2084:	d103      	bne.n	208e <__mriPlatform_AdvanceProgramCounterToNextInstruction+0x32>
    2086:	f8d3 2180 	ldr.w	r2, [r3, #384]	; 0x180
    208a:	3204      	adds	r2, #4
    208c:	e002      	b.n	2094 <__mriPlatform_AdvanceProgramCounterToNextInstruction+0x38>
    208e:	f8d3 2180 	ldr.w	r2, [r3, #384]	; 0x180
    2092:	3202      	adds	r2, #2
    2094:	f8c3 2180 	str.w	r2, [r3, #384]	; 0x180
    2098:	bd38      	pop	{r3, r4, r5, pc}
    209a:	bf00      	nop
    209c:	10000a48 	.word	0x10000a48
    20a0:	10000a50 	.word	0x10000a50

000020a4 <__mriPlatform_TypeOfCurrentInstruction>:
    20a4:	b538      	push	{r3, r4, r5, lr}
    20a6:	4d0e      	ldr	r5, [pc, #56]	; (20e0 <__mriPlatform_TypeOfCurrentInstruction+0x3c>)
    20a8:	2400      	movs	r4, #0
    20aa:	602c      	str	r4, [r5, #0]
    20ac:	f7ff ffce 	bl	204c <getFirstHalfWordOfCurrentInstruction>
    20b0:	682b      	ldr	r3, [r5, #0]
    20b2:	b113      	cbz	r3, 20ba <__mriPlatform_TypeOfCurrentInstruction+0x16>
    20b4:	602c      	str	r4, [r5, #0]
    20b6:	4620      	mov	r0, r4
    20b8:	bd38      	pop	{r3, r4, r5, pc}
    20ba:	f64b 63ab 	movw	r3, #48811	; 0xbeab
    20be:	4298      	cmp	r0, r3
    20c0:	d009      	beq.n	20d6 <__mriPlatform_TypeOfCurrentInstruction+0x32>
    20c2:	f64b 63ff 	movw	r3, #48895	; 0xbeff
    20c6:	4298      	cmp	r0, r3
    20c8:	d007      	beq.n	20da <__mriPlatform_TypeOfCurrentInstruction+0x36>
    20ca:	f5b0 4f3e 	cmp.w	r0, #48640	; 0xbe00
    20ce:	bf14      	ite	ne
    20d0:	2000      	movne	r0, #0
    20d2:	2003      	moveq	r0, #3
    20d4:	bd38      	pop	{r3, r4, r5, pc}
    20d6:	2001      	movs	r0, #1
    20d8:	bd38      	pop	{r3, r4, r5, pc}
    20da:	2002      	movs	r0, #2
    20dc:	bd38      	pop	{r3, r4, r5, pc}
    20de:	bf00      	nop
    20e0:	10000a48 	.word	0x10000a48

000020e4 <__mriPlatform_WriteTResponseRegistersToBuffer>:
    20e4:	b538      	push	{r3, r4, r5, lr}
    20e6:	4c0d      	ldr	r4, [pc, #52]	; (211c <__mriPlatform_WriteTResponseRegistersToBuffer+0x38>)
    20e8:	4605      	mov	r5, r0
    20ea:	f8d4 2174 	ldr.w	r2, [r4, #372]	; 0x174
    20ee:	210c      	movs	r1, #12
    20f0:	f7ff fd9e 	bl	1c30 <sendRegisterForTResponse>
    20f4:	4628      	mov	r0, r5
    20f6:	f8d4 2178 	ldr.w	r2, [r4, #376]	; 0x178
    20fa:	210d      	movs	r1, #13
    20fc:	f7ff fd98 	bl	1c30 <sendRegisterForTResponse>
    2100:	4628      	mov	r0, r5
    2102:	f8d4 217c 	ldr.w	r2, [r4, #380]	; 0x17c
    2106:	210e      	movs	r1, #14
    2108:	f7ff fd92 	bl	1c30 <sendRegisterForTResponse>
    210c:	4628      	mov	r0, r5
    210e:	f8d4 2180 	ldr.w	r2, [r4, #384]	; 0x180
    2112:	210f      	movs	r1, #15
    2114:	e8bd 4038 	ldmia.w	sp!, {r3, r4, r5, lr}
    2118:	f7ff bd8a 	b.w	1c30 <sendRegisterForTResponse>
    211c:	10000a50 	.word	0x10000a50

00002120 <__mriPlatform_CopyContextToBuffer>:
    2120:	b570      	push	{r4, r5, r6, lr}
    2122:	4c06      	ldr	r4, [pc, #24]	; (213c <__mriPlatform_CopyContextToBuffer+0x1c>)
    2124:	4606      	mov	r6, r0
    2126:	f104 0544 	add.w	r5, r4, #68	; 0x44
    212a:	f814 1f01 	ldrb.w	r1, [r4, #1]!
    212e:	4630      	mov	r0, r6
    2130:	f000 fd6c 	bl	2c0c <__mriBuffer_WriteByteAsHex>
    2134:	42ac      	cmp	r4, r5
    2136:	d1f8      	bne.n	212a <__mriPlatform_CopyContextToBuffer+0xa>
    2138:	bd70      	pop	{r4, r5, r6, pc}
    213a:	bf00      	nop
    213c:	10000b93 	.word	0x10000b93

00002140 <__mriPlatform_CopyContextFromBuffer>:
    2140:	b570      	push	{r4, r5, r6, lr}
    2142:	4c06      	ldr	r4, [pc, #24]	; (215c <__mriPlatform_CopyContextFromBuffer+0x1c>)
    2144:	4606      	mov	r6, r0
    2146:	f104 0544 	add.w	r5, r4, #68	; 0x44
    214a:	4630      	mov	r0, r6
    214c:	f000 fd7c 	bl	2c48 <__mriBuffer_ReadByteAsHex>
    2150:	f804 0f01 	strb.w	r0, [r4, #1]!
    2154:	42ac      	cmp	r4, r5
    2156:	d1f8      	bne.n	214a <__mriPlatform_CopyContextFromBuffer+0xa>
    2158:	bd70      	pop	{r4, r5, r6, pc}
    215a:	bf00      	nop
    215c:	10000b93 	.word	0x10000b93

00002160 <__mriPlatform_SetHardwareBreakpoint>:
    2160:	b5f8      	push	{r3, r4, r5, r6, r7, lr}
    2162:	4c18      	ldr	r4, [pc, #96]	; (21c4 <__mriPlatform_SetHardwareBreakpoint+0x64>)
    2164:	2500      	movs	r5, #0
    2166:	2902      	cmp	r1, #2
    2168:	4606      	mov	r6, r0
    216a:	6025      	str	r5, [r4, #0]
    216c:	d008      	beq.n	2180 <__mriPlatform_SetHardwareBreakpoint+0x20>
    216e:	d301      	bcc.n	2174 <__mriPlatform_SetHardwareBreakpoint+0x14>
    2170:	2904      	cmp	r1, #4
    2172:	d904      	bls.n	217e <__mriPlatform_SetHardwareBreakpoint+0x1e>
    2174:	2304      	movs	r3, #4
    2176:	6023      	str	r3, [r4, #0]
    2178:	f04f 35ff 	mov.w	r5, #4294967295
    217c:	e000      	b.n	2180 <__mriPlatform_SetHardwareBreakpoint+0x20>
    217e:	2501      	movs	r5, #1
    2180:	6823      	ldr	r3, [r4, #0]
    2182:	b9f3      	cbnz	r3, 21c2 <__mriPlatform_SetHardwareBreakpoint+0x62>
    2184:	4630      	mov	r0, r6
    2186:	4629      	mov	r1, r5
    2188:	f7ff fd86 	bl	1c98 <findFPBBreakpointComparator>
    218c:	4607      	mov	r7, r0
    218e:	b9c0      	cbnz	r0, 21c2 <__mriPlatform_SetHardwareBreakpoint+0x62>
    2190:	f7ff fc48 	bl	1a24 <getFPBCodeComparatorCount>
    2194:	4a0c      	ldr	r2, [pc, #48]	; (21c8 <__mriPlatform_SetHardwareBreakpoint+0x68>)
    2196:	463b      	mov	r3, r7
    2198:	4283      	cmp	r3, r0
    219a:	4617      	mov	r7, r2
    219c:	d00c      	beq.n	21b8 <__mriPlatform_SetHardwareBreakpoint+0x58>
    219e:	f852 1b04 	ldr.w	r1, [r2], #4
    21a2:	07c9      	lsls	r1, r1, #31
    21a4:	d501      	bpl.n	21aa <__mriPlatform_SetHardwareBreakpoint+0x4a>
    21a6:	3301      	adds	r3, #1
    21a8:	e7f6      	b.n	2198 <__mriPlatform_SetHardwareBreakpoint+0x38>
    21aa:	b12f      	cbz	r7, 21b8 <__mriPlatform_SetHardwareBreakpoint+0x58>
    21ac:	4630      	mov	r0, r6
    21ae:	4629      	mov	r1, r5
    21b0:	f7ff fd56 	bl	1c60 <calculateFPBComparatorValue>
    21b4:	6038      	str	r0, [r7, #0]
    21b6:	bdf8      	pop	{r3, r4, r5, r6, r7, pc}
    21b8:	6823      	ldr	r3, [r4, #0]
    21ba:	2b08      	cmp	r3, #8
    21bc:	bfb8      	it	lt
    21be:	2308      	movlt	r3, #8
    21c0:	6023      	str	r3, [r4, #0]
    21c2:	bdf8      	pop	{r3, r4, r5, r6, r7, pc}
    21c4:	10000a48 	.word	0x10000a48
    21c8:	e0002008 	.word	0xe0002008

000021cc <__mriPlatform_EnableSingleStep>:
    21cc:	b5f8      	push	{r3, r4, r5, r6, r7, lr}
    21ce:	4d31      	ldr	r5, [pc, #196]	; (2294 <__mriPlatform_EnableSingleStep+0xc8>)
    21d0:	2300      	movs	r3, #0
    21d2:	602b      	str	r3, [r5, #0]
    21d4:	f7ff ff3a 	bl	204c <getFirstHalfWordOfCurrentInstruction>
    21d8:	682f      	ldr	r7, [r5, #0]
    21da:	462e      	mov	r6, r5
    21dc:	4c2e      	ldr	r4, [pc, #184]	; (2298 <__mriPlatform_EnableSingleStep+0xcc>)
    21de:	b927      	cbnz	r7, 21ea <__mriPlatform_EnableSingleStep+0x1e>
    21e0:	f400 407f 	and.w	r0, r0, #65280	; 0xff00
    21e4:	f5b0 4f5f 	cmp.w	r0, #57088	; 0xdf00
    21e8:	d02b      	beq.n	2242 <__mriPlatform_EnableSingleStep+0x76>
    21ea:	f8d4 3138 	ldr.w	r3, [r4, #312]	; 0x138
    21ee:	2500      	movs	r5, #0
    21f0:	f043 0304 	orr.w	r3, r3, #4
    21f4:	f8c4 3138 	str.w	r3, [r4, #312]	; 0x138
    21f8:	6035      	str	r5, [r6, #0]
    21fa:	f7ff ff27 	bl	204c <getFirstHalfWordOfCurrentInstruction>
    21fe:	6833      	ldr	r3, [r6, #0]
    2200:	4607      	mov	r7, r0
    2202:	b933      	cbnz	r3, 2212 <__mriPlatform_EnableSingleStep+0x46>
    2204:	4b24      	ldr	r3, [pc, #144]	; (2298 <__mriPlatform_EnableSingleStep+0xcc>)
    2206:	f8d3 0180 	ldr.w	r0, [r3, #384]	; 0x180
    220a:	3002      	adds	r0, #2
    220c:	f7ff ff0a 	bl	2024 <throwingMemRead16>
    2210:	e000      	b.n	2214 <__mriPlatform_EnableSingleStep+0x48>
    2212:	4628      	mov	r0, r5
    2214:	6833      	ldr	r3, [r6, #0]
    2216:	b11b      	cbz	r3, 2220 <__mriPlatform_EnableSingleStep+0x54>
    2218:	4b1e      	ldr	r3, [pc, #120]	; (2294 <__mriPlatform_EnableSingleStep+0xc8>)
    221a:	2200      	movs	r2, #0
    221c:	601a      	str	r2, [r3, #0]
    221e:	e021      	b.n	2264 <__mriPlatform_EnableSingleStep+0x98>
    2220:	f027 070f 	bic.w	r7, r7, #15
    2224:	b2bf      	uxth	r7, r7
    2226:	f24f 3380 	movw	r3, #62336	; 0xf380
    222a:	429f      	cmp	r7, r3
    222c:	d11a      	bne.n	2264 <__mriPlatform_EnableSingleStep+0x98>
    222e:	f500 40ef 	add.w	r0, r0, #30592	; 0x7780
    2232:	306f      	adds	r0, #111	; 0x6f
    2234:	b280      	uxth	r0, r0
    2236:	2801      	cmp	r0, #1
    2238:	d814      	bhi.n	2264 <__mriPlatform_EnableSingleStep+0x98>
    223a:	2308      	movs	r3, #8
    223c:	f383 8811 	msr	BASEPRI, r3
    2240:	e022      	b.n	2288 <__mriPlatform_EnableSingleStep+0xbc>
    2242:	4b16      	ldr	r3, [pc, #88]	; (229c <__mriPlatform_EnableSingleStep+0xd0>)
    2244:	2102      	movs	r1, #2
    2246:	689b      	ldr	r3, [r3, #8]
    2248:	6ad8      	ldr	r0, [r3, #44]	; 0x2c
    224a:	f020 0001 	bic.w	r0, r0, #1
    224e:	f7ff ff87 	bl	2160 <__mriPlatform_SetHardwareBreakpoint>
    2252:	682b      	ldr	r3, [r5, #0]
    2254:	b98b      	cbnz	r3, 227a <__mriPlatform_EnableSingleStep+0xae>
    2256:	f8d4 3138 	ldr.w	r3, [r4, #312]	; 0x138
    225a:	f043 0310 	orr.w	r3, r3, #16
    225e:	f8c4 3138 	str.w	r3, [r4, #312]	; 0x138
    2262:	bdf8      	pop	{r3, r4, r5, r6, r7, pc}
    2264:	f3ef 8312 	mrs	r3, BASEPRI_MAX
    2268:	f8c4 319c 	str.w	r3, [r4, #412]	; 0x19c
    226c:	f8d4 3138 	ldr.w	r3, [r4, #312]	; 0x138
    2270:	f043 0308 	orr.w	r3, r3, #8
    2274:	f8c4 3138 	str.w	r3, [r4, #312]	; 0x138
    2278:	e7df      	b.n	223a <__mriPlatform_EnableSingleStep+0x6e>
    227a:	f8d4 3138 	ldr.w	r3, [r4, #312]	; 0x138
    227e:	602f      	str	r7, [r5, #0]
    2280:	f043 0304 	orr.w	r3, r3, #4
    2284:	f8c4 3138 	str.w	r3, [r4, #312]	; 0x138
    2288:	4b05      	ldr	r3, [pc, #20]	; (22a0 <__mriPlatform_EnableSingleStep+0xd4>)
    228a:	68da      	ldr	r2, [r3, #12]
    228c:	f442 2280 	orr.w	r2, r2, #262144	; 0x40000
    2290:	60da      	str	r2, [r3, #12]
    2292:	bdf8      	pop	{r3, r4, r5, r6, r7, pc}
    2294:	10000a48 	.word	0x10000a48
    2298:	10000a50 	.word	0x10000a50
    229c:	e000ed00 	.word	0xe000ed00
    22a0:	e000edf0 	.word	0xe000edf0

000022a4 <__mriPlatform_ClearHardwareBreakpoint>:
    22a4:	4b0c      	ldr	r3, [pc, #48]	; (22d8 <__mriPlatform_ClearHardwareBreakpoint+0x34>)
    22a6:	2200      	movs	r2, #0
    22a8:	2902      	cmp	r1, #2
    22aa:	b510      	push	{r4, lr}
    22ac:	601a      	str	r2, [r3, #0]
    22ae:	d003      	beq.n	22b8 <__mriPlatform_ClearHardwareBreakpoint+0x14>
    22b0:	d304      	bcc.n	22bc <__mriPlatform_ClearHardwareBreakpoint+0x18>
    22b2:	2904      	cmp	r1, #4
    22b4:	d907      	bls.n	22c6 <__mriPlatform_ClearHardwareBreakpoint+0x22>
    22b6:	e001      	b.n	22bc <__mriPlatform_ClearHardwareBreakpoint+0x18>
    22b8:	4611      	mov	r1, r2
    22ba:	e005      	b.n	22c8 <__mriPlatform_ClearHardwareBreakpoint+0x24>
    22bc:	2204      	movs	r2, #4
    22be:	601a      	str	r2, [r3, #0]
    22c0:	f04f 31ff 	mov.w	r1, #4294967295
    22c4:	e000      	b.n	22c8 <__mriPlatform_ClearHardwareBreakpoint+0x24>
    22c6:	2101      	movs	r1, #1
    22c8:	681c      	ldr	r4, [r3, #0]
    22ca:	b91c      	cbnz	r4, 22d4 <__mriPlatform_ClearHardwareBreakpoint+0x30>
    22cc:	f7ff fce4 	bl	1c98 <findFPBBreakpointComparator>
    22d0:	b100      	cbz	r0, 22d4 <__mriPlatform_ClearHardwareBreakpoint+0x30>
    22d2:	6004      	str	r4, [r0, #0]
    22d4:	bd10      	pop	{r4, pc}
    22d6:	bf00      	nop
    22d8:	10000a48 	.word	0x10000a48

000022dc <__mriPlatform_EnteringDebugger>:
    22dc:	b538      	push	{r3, r4, r5, lr}
    22de:	4d3b      	ldr	r5, [pc, #236]	; (23cc <__mriPlatform_EnteringDebugger+0xf0>)
    22e0:	4c3b      	ldr	r4, [pc, #236]	; (23d0 <__mriPlatform_EnteringDebugger+0xf4>)
    22e2:	f8d5 3138 	ldr.w	r3, [r5, #312]	; 0x138
    22e6:	f023 0302 	bic.w	r3, r3, #2
    22ea:	f8c5 3138 	str.w	r3, [r5, #312]	; 0x138
    22ee:	f8d5 3180 	ldr.w	r3, [r5, #384]	; 0x180
    22f2:	f8c5 3188 	str.w	r3, [r5, #392]	; 0x188
    22f6:	f7ff fceb 	bl	1cd0 <isMPUNotPresent>
    22fa:	b908      	cbnz	r0, 2300 <__mriPlatform_EnteringDebugger+0x24>
    22fc:	6863      	ldr	r3, [r4, #4]
    22fe:	e001      	b.n	2304 <__mriPlatform_EnteringDebugger+0x28>
    2300:	f04f 33ff 	mov.w	r3, #4294967295
    2304:	f8c5 318c 	str.w	r3, [r5, #396]	; 0x18c
    2308:	68a3      	ldr	r3, [r4, #8]
    230a:	f8c5 3190 	str.w	r3, [r5, #400]	; 0x190
    230e:	6820      	ldr	r0, [r4, #0]
    2310:	f3c0 2007 	ubfx	r0, r0, #8, #8
    2314:	3801      	subs	r0, #1
    2316:	f7ff fb91 	bl	1a3c <prepareToAccessMPURegion>
    231a:	f7ff fcd9 	bl	1cd0 <isMPUNotPresent>
    231e:	b918      	cbnz	r0, 2328 <__mriPlatform_EnteringDebugger+0x4c>
    2320:	4b2b      	ldr	r3, [pc, #172]	; (23d0 <__mriPlatform_EnteringDebugger+0xf4>)
    2322:	68db      	ldr	r3, [r3, #12]
    2324:	095b      	lsrs	r3, r3, #5
    2326:	e000      	b.n	232a <__mriPlatform_EnteringDebugger+0x4e>
    2328:	2300      	movs	r3, #0
    232a:	f8c5 3194 	str.w	r3, [r5, #404]	; 0x194
    232e:	f7ff fccf 	bl	1cd0 <isMPUNotPresent>
    2332:	b908      	cbnz	r0, 2338 <__mriPlatform_EnteringDebugger+0x5c>
    2334:	6923      	ldr	r3, [r4, #16]
    2336:	e000      	b.n	233a <__mriPlatform_EnteringDebugger+0x5e>
    2338:	2300      	movs	r3, #0
    233a:	f8c5 3198 	str.w	r3, [r5, #408]	; 0x198
    233e:	f7ff fcd3 	bl	1ce8 <disableMPU>
    2342:	6820      	ldr	r0, [r4, #0]
    2344:	f3c0 2007 	ubfx	r0, r0, #8, #8
    2348:	3801      	subs	r0, #1
    234a:	f7ff fb77 	bl	1a3c <prepareToAccessMPURegion>
    234e:	f7ff fcbf 	bl	1cd0 <isMPUNotPresent>
    2352:	b908      	cbnz	r0, 2358 <__mriPlatform_EnteringDebugger+0x7c>
    2354:	4b1e      	ldr	r3, [pc, #120]	; (23d0 <__mriPlatform_EnteringDebugger+0xf4>)
    2356:	60d8      	str	r0, [r3, #12]
    2358:	f7ff fcba 	bl	1cd0 <isMPUNotPresent>
    235c:	b908      	cbnz	r0, 2362 <__mriPlatform_EnteringDebugger+0x86>
    235e:	4b1d      	ldr	r3, [pc, #116]	; (23d4 <__mriPlatform_EnteringDebugger+0xf8>)
    2360:	6123      	str	r3, [r4, #16]
    2362:	f7ff fcb5 	bl	1cd0 <isMPUNotPresent>
    2366:	b938      	cbnz	r0, 2378 <__mriPlatform_EnteringDebugger+0x9c>
    2368:	6863      	ldr	r3, [r4, #4]
    236a:	f043 0303 	orr.w	r3, r3, #3
    236e:	6063      	str	r3, [r4, #4]
    2370:	f3bf 8f4f 	dsb	sy
    2374:	f3bf 8f6f 	isb	sy
    2378:	f8d5 2138 	ldr.w	r2, [r5, #312]	; 0x138
    237c:	4b13      	ldr	r3, [pc, #76]	; (23cc <__mriPlatform_EnteringDebugger+0xf0>)
    237e:	0711      	lsls	r1, r2, #28
    2380:	d50c      	bpl.n	239c <__mriPlatform_EnteringDebugger+0xc0>
    2382:	f8d3 2138 	ldr.w	r2, [r3, #312]	; 0x138
    2386:	f022 0208 	bic.w	r2, r2, #8
    238a:	f8c3 2138 	str.w	r2, [r3, #312]	; 0x138
    238e:	f8d3 319c 	ldr.w	r3, [r3, #412]	; 0x19c
    2392:	f383 8811 	msr	BASEPRI, r3
    2396:	2300      	movs	r3, #0
    2398:	f8c5 319c 	str.w	r3, [r5, #412]	; 0x19c
    239c:	f8d5 2138 	ldr.w	r2, [r5, #312]	; 0x138
    23a0:	4b0a      	ldr	r3, [pc, #40]	; (23cc <__mriPlatform_EnteringDebugger+0xf0>)
    23a2:	06d2      	lsls	r2, r2, #27
    23a4:	d50d      	bpl.n	23c2 <__mriPlatform_EnteringDebugger+0xe6>
    23a6:	f8d3 2138 	ldr.w	r2, [r3, #312]	; 0x138
    23aa:	2102      	movs	r1, #2
    23ac:	f022 0210 	bic.w	r2, r2, #16
    23b0:	f8c3 2138 	str.w	r2, [r3, #312]	; 0x138
    23b4:	4b08      	ldr	r3, [pc, #32]	; (23d8 <__mriPlatform_EnteringDebugger+0xfc>)
    23b6:	689b      	ldr	r3, [r3, #8]
    23b8:	6ad8      	ldr	r0, [r3, #44]	; 0x2c
    23ba:	f020 0001 	bic.w	r0, r0, #1
    23be:	f7ff ff71 	bl	22a4 <__mriPlatform_ClearHardwareBreakpoint>
    23c2:	e8bd 4038 	ldmia.w	sp!, {r3, r4, r5, lr}
    23c6:	f7ff bc9f 	b.w	1d08 <__mriPlatform_DisableSingleStep>
    23ca:	bf00      	nop
    23cc:	10000a50 	.word	0x10000a50
    23d0:	e000ed90 	.word	0xe000ed90
    23d4:	0100003f 	.word	0x0100003f
    23d8:	e000ed00 	.word	0xe000ed00

000023dc <__mriPlatform_SetHardwareWatchpoint>:
    23dc:	2a02      	cmp	r2, #2
    23de:	bf98      	it	ls
    23e0:	4b20      	ldrls	r3, [pc, #128]	; (2464 <__mriPlatform_SetHardwareWatchpoint+0x88>)
    23e2:	b570      	push	{r4, r5, r6, lr}
    23e4:	bf98      	it	ls
    23e6:	5c9d      	ldrbls	r5, [r3, r2]
    23e8:	f101 33ff 	add.w	r3, r1, #4294967295
    23ec:	bf88      	it	hi
    23ee:	2500      	movhi	r5, #0
    23f0:	420b      	tst	r3, r1
    23f2:	4606      	mov	r6, r0
    23f4:	460c      	mov	r4, r1
    23f6:	d106      	bne.n	2406 <__mriPlatform_SetHardwareWatchpoint+0x2a>
    23f8:	424b      	negs	r3, r1
    23fa:	4003      	ands	r3, r0
    23fc:	4298      	cmp	r0, r3
    23fe:	d102      	bne.n	2406 <__mriPlatform_SetHardwareWatchpoint+0x2a>
    2400:	1f6b      	subs	r3, r5, #5
    2402:	2b02      	cmp	r3, #2
    2404:	d905      	bls.n	2412 <__mriPlatform_SetHardwareWatchpoint+0x36>
    2406:	4b18      	ldr	r3, [pc, #96]	; (2468 <__mriPlatform_SetHardwareWatchpoint+0x8c>)
    2408:	681a      	ldr	r2, [r3, #0]
    240a:	2a04      	cmp	r2, #4
    240c:	bfb8      	it	lt
    240e:	2204      	movlt	r2, #4
    2410:	e026      	b.n	2460 <__mriPlatform_SetHardwareWatchpoint+0x84>
    2412:	462a      	mov	r2, r5
    2414:	f7ff fadc 	bl	19d0 <findDWTComparator>
    2418:	bb18      	cbnz	r0, 2462 <__mriPlatform_SetHardwareWatchpoint+0x86>
    241a:	4b14      	ldr	r3, [pc, #80]	; (246c <__mriPlatform_SetHardwareWatchpoint+0x90>)
    241c:	6819      	ldr	r1, [r3, #0]
    241e:	0f09      	lsrs	r1, r1, #28
    2420:	f100 6360 	add.w	r3, r0, #234881024	; 0xe000000
    2424:	f503 7381 	add.w	r3, r3, #258	; 0x102
    2428:	4288      	cmp	r0, r1
    242a:	ea4f 1303 	mov.w	r3, r3, lsl #4
    242e:	d012      	beq.n	2456 <__mriPlatform_SetHardwareWatchpoint+0x7a>
    2430:	689a      	ldr	r2, [r3, #8]
    2432:	f012 020f 	ands.w	r2, r2, #15
    2436:	d001      	beq.n	243c <__mriPlatform_SetHardwareWatchpoint+0x60>
    2438:	3001      	adds	r0, #1
    243a:	e7f1      	b.n	2420 <__mriPlatform_SetHardwareWatchpoint+0x44>
    243c:	b15b      	cbz	r3, 2456 <__mriPlatform_SetHardwareWatchpoint+0x7a>
    243e:	2c01      	cmp	r4, #1
    2440:	d902      	bls.n	2448 <__mriPlatform_SetHardwareWatchpoint+0x6c>
    2442:	0864      	lsrs	r4, r4, #1
    2444:	3201      	adds	r2, #1
    2446:	e7fa      	b.n	243e <__mriPlatform_SetHardwareWatchpoint+0x62>
    2448:	605a      	str	r2, [r3, #4]
    244a:	6859      	ldr	r1, [r3, #4]
    244c:	4291      	cmp	r1, r2
    244e:	d102      	bne.n	2456 <__mriPlatform_SetHardwareWatchpoint+0x7a>
    2450:	601e      	str	r6, [r3, #0]
    2452:	609d      	str	r5, [r3, #8]
    2454:	bd70      	pop	{r4, r5, r6, pc}
    2456:	4b04      	ldr	r3, [pc, #16]	; (2468 <__mriPlatform_SetHardwareWatchpoint+0x8c>)
    2458:	681a      	ldr	r2, [r3, #0]
    245a:	2a08      	cmp	r2, #8
    245c:	bfb8      	it	lt
    245e:	2208      	movlt	r2, #8
    2460:	601a      	str	r2, [r3, #0]
    2462:	bd70      	pop	{r4, r5, r6, pc}
    2464:	0000d1cf 	.word	0x0000d1cf
    2468:	10000a48 	.word	0x10000a48
    246c:	e0001000 	.word	0xe0001000

00002470 <__mriPlatform_ClearHardwareWatchpoint>:
    2470:	2a02      	cmp	r2, #2
    2472:	bf98      	it	ls
    2474:	4b11      	ldrls	r3, [pc, #68]	; (24bc <__mriPlatform_ClearHardwareWatchpoint+0x4c>)
    2476:	b510      	push	{r4, lr}
    2478:	f101 34ff 	add.w	r4, r1, #4294967295
    247c:	bf94      	ite	ls
    247e:	5c9a      	ldrbls	r2, [r3, r2]
    2480:	2200      	movhi	r2, #0
    2482:	400c      	ands	r4, r1
    2484:	d106      	bne.n	2494 <__mriPlatform_ClearHardwareWatchpoint+0x24>
    2486:	424b      	negs	r3, r1
    2488:	4003      	ands	r3, r0
    248a:	4298      	cmp	r0, r3
    248c:	d102      	bne.n	2494 <__mriPlatform_ClearHardwareWatchpoint+0x24>
    248e:	1f53      	subs	r3, r2, #5
    2490:	2b02      	cmp	r3, #2
    2492:	d906      	bls.n	24a2 <__mriPlatform_ClearHardwareWatchpoint+0x32>
    2494:	4b0a      	ldr	r3, [pc, #40]	; (24c0 <__mriPlatform_ClearHardwareWatchpoint+0x50>)
    2496:	681a      	ldr	r2, [r3, #0]
    2498:	2a04      	cmp	r2, #4
    249a:	bfb8      	it	lt
    249c:	2204      	movlt	r2, #4
    249e:	601a      	str	r2, [r3, #0]
    24a0:	bd10      	pop	{r4, pc}
    24a2:	f7ff fa95 	bl	19d0 <findDWTComparator>
    24a6:	b140      	cbz	r0, 24ba <__mriPlatform_ClearHardwareWatchpoint+0x4a>
    24a8:	6004      	str	r4, [r0, #0]
    24aa:	6044      	str	r4, [r0, #4]
    24ac:	6883      	ldr	r3, [r0, #8]
    24ae:	f423 73d7 	bic.w	r3, r3, #430	; 0x1ae
    24b2:	f023 0301 	bic.w	r3, r3, #1
    24b6:	6083      	str	r3, [r0, #8]
    24b8:	bd10      	pop	{r4, pc}
    24ba:	bd10      	pop	{r4, pc}
    24bc:	0000d1cf 	.word	0x0000d1cf
    24c0:	10000a48 	.word	0x10000a48

000024c4 <__mriPlatform_GetTargetXmlSize>:
    24c4:	f240 20b9 	movw	r0, #697	; 0x2b9
    24c8:	4770      	bx	lr
	...

000024cc <__mriPlatform_GetTargetXml>:
    24cc:	4800      	ldr	r0, [pc, #0]	; (24d0 <__mriPlatform_GetTargetXml+0x4>)
    24ce:	4770      	bx	lr
    24d0:	0000ccd3 	.word	0x0000ccd3

000024d4 <__mriARMv7MAsmInit>:
    24d4:	4770      	bx	lr

000024d6 <mriExceptionHandler>:
    24d6:	4856      	ldr	r0, [pc, #344]	; (2630 <UART3_IRQHandler+0x6>)
    24d8:	f000 b803 	b.w	24e2 <mriGetSPAndCallHandler>

000024dc <mriFaultHandler>:
    24dc:	4855      	ldr	r0, [pc, #340]	; (2634 <UART3_IRQHandler+0xa>)
    24de:	f000 b800 	b.w	24e2 <mriGetSPAndCallHandler>

000024e2 <mriGetSPAndCallHandler>:
    24e2:	f01e 0f04 	tst.w	lr, #4
    24e6:	bf0c      	ite	eq
    24e8:	f3ef 8108 	mrseq	r1, MSP
    24ec:	f3ef 8109 	mrsne	r1, PSP
    24f0:	4a51      	ldr	r2, [pc, #324]	; (2638 <UART3_IRQHandler+0xe>)
    24f2:	6011      	str	r1, [r2, #0]
    24f4:	4687      	mov	pc, r0

000024f6 <checkForStackError>:
    24f6:	4851      	ldr	r0, [pc, #324]	; (263c <UART3_IRQHandler+0x12>)
    24f8:	4a51      	ldr	r2, [pc, #324]	; (2640 <UART3_IRQHandler+0x16>)
    24fa:	6800      	ldr	r0, [r0, #0]
    24fc:	4210      	tst	r0, r2
    24fe:	f000 8003 	beq.w	2508 <mriSaveRestoreContext>
    2502:	4950      	ldr	r1, [pc, #320]	; (2644 <UART3_IRQHandler+0x1a>)
    2504:	f000 b800 	b.w	2508 <mriSaveRestoreContext>

00002508 <mriSaveRestoreContext>:
    2508:	484f      	ldr	r0, [pc, #316]	; (2648 <UART3_IRQHandler+0x1e>)
    250a:	6802      	ldr	r2, [r0, #0]
    250c:	f012 0f01 	tst.w	r2, #1
    2510:	bf1e      	ittt	ne
    2512:	f042 0202 	orrne.w	r2, r2, #2
    2516:	6002      	strne	r2, [r0, #0]
    2518:	f000 b856 	bne.w	25c8 <mriAdvancePCAndReturn>
    251c:	f042 0201 	orr.w	r2, r2, #1
    2520:	6002      	str	r2, [r0, #0]
    2522:	2027      	movs	r0, #39	; 0x27
    2524:	f8df c120 	ldr.w	r12, [pc, #288]	; 2648 <UART3_IRQHandler+0x1e>
    2528:	4a48      	ldr	r2, [pc, #288]	; (264c <UART3_IRQHandler+0x22>)
    252a:	4613      	mov	r3, r2
    252c:	e96c 2302 	strd	r2, r3, [r12, #-8]!
    2530:	3801      	subs	r0, #1
    2532:	d1fb      	bne.n	252c <mriSaveRestoreContext+0x24>
    2534:	f3ef 8208 	mrs	r2, MSP
    2538:	4845      	ldr	r0, [pc, #276]	; (2650 <UART3_IRQHandler+0x26>)
    253a:	6002      	str	r2, [r0, #0]
    253c:	4842      	ldr	r0, [pc, #264]	; (2648 <UART3_IRQHandler+0x1e>)
    253e:	f380 8808 	msr	MSP, r0
    2542:	4844      	ldr	r0, [pc, #272]	; (2654 <UART3_IRQHandler+0x2a>)
    2544:	e92d 5000 	stmdb	sp!, {r12, lr}
    2548:	e8b1 500c 	ldmia.w	r1!, {r2, r3, r12, lr}
    254c:	e8a0 500c 	stmia.w	r0!, {r2, r3, r12, lr}
    2550:	e8a0 0ff0 	stmia.w	r0!, {r4, r5, r6, r7, r8, r9, r10, r11}
    2554:	c93c      	ldmia	r1!, {r2, r3, r4, r5}
    2556:	f840 2b08 	str.w	r2, [r0], #8
    255a:	c038      	stmia	r0!, {r3, r4, r5}
    255c:	f415 7f00 	tst.w	r5, #512	; 0x200
    2560:	bf18      	it	ne
    2562:	3104      	addne	r1, #4
    2564:	f840 1c10 	str.w	r1, [r0, #-16]
    2568:	f7fe ff24 	bl	13b4 <__mriDebugException>
    256c:	483a      	ldr	r0, [pc, #232]	; (2658 <UART3_IRQHandler+0x2e>)
    256e:	f850 1c0c 	ldr.w	r1, [r0, #-12]
    2572:	6802      	ldr	r2, [r0, #0]
    2574:	f422 7200 	bic.w	r2, r2, #512	; 0x200
    2578:	f841 2d04 	str.w	r2, [r1, #-4]!
    257c:	e930 000c 	ldmdb	r0!, {r2, r3}
    2580:	e921 000c 	stmdb	r1!, {r2, r3}
    2584:	f850 cd08 	ldr.w	r12, [r0, #-8]!
    2588:	f841 cd04 	str.w	r12, [r1, #-4]!
    258c:	e930 0ff0 	ldmdb	r0!, {r4, r5, r6, r7, r8, r9, r10, r11}
    2590:	e930 500c 	ldmdb	r0!, {r2, r3, r12, lr}
    2594:	e921 500c 	stmdb	r1!, {r2, r3, r12, lr}
    2598:	e8bd 5000 	ldmia.w	sp!, {r12, lr}
    259c:	482c      	ldr	r0, [pc, #176]	; (2650 <UART3_IRQHandler+0x26>)
    259e:	6802      	ldr	r2, [r0, #0]
    25a0:	f382 8808 	msr	MSP, r2
    25a4:	f01e 0f04 	tst.w	lr, #4
    25a8:	bf0c      	ite	eq
    25aa:	f381 8808 	msreq	MSP, r1
    25ae:	f381 8809 	msrne	PSP, r1
    25b2:	4825      	ldr	r0, [pc, #148]	; (2648 <UART3_IRQHandler+0x1e>)
    25b4:	6801      	ldr	r1, [r0, #0]
    25b6:	f021 0101 	bic.w	r1, r1, #1
    25ba:	6001      	str	r1, [r0, #0]
    25bc:	f3bf 8f4f 	dsb	sy
    25c0:	f3bf 8f6f 	isb	sy
    25c4:	f000 b81b 	b.w	25fe <mriClearFaultStatusBitsAndReturn>

000025c8 <mriAdvancePCAndReturn>:
    25c8:	481c      	ldr	r0, [pc, #112]	; (263c <UART3_IRQHandler+0x12>)
    25ca:	6800      	ldr	r0, [r0, #0]
    25cc:	f410 6f80 	tst.w	r0, #1024	; 0x400
    25d0:	f040 8015 	bne.w	25fe <mriClearFaultStatusBitsAndReturn>
    25d4:	6988      	ldr	r0, [r1, #24]
    25d6:	8802      	ldrh	r2, [r0, #0]
    25d8:	f402 4278 	and.w	r2, r2, #63488	; 0xf800
    25dc:	f5b2 4f68 	cmp.w	r2, #59392	; 0xe800
    25e0:	d008      	beq.n	25f4 <mriAdvancePCAndReturn+0x2c>
    25e2:	f5b2 4f70 	cmp.w	r2, #61440	; 0xf000
    25e6:	d005      	beq.n	25f4 <mriAdvancePCAndReturn+0x2c>
    25e8:	f5b2 4f78 	cmp.w	r2, #63488	; 0xf800
    25ec:	d002      	beq.n	25f4 <mriAdvancePCAndReturn+0x2c>
    25ee:	f100 0002 	add.w	r0, r0, #2
    25f2:	e001      	b.n	25f8 <mriAdvancePCAndReturn+0x30>
    25f4:	f100 0004 	add.w	r0, r0, #4
    25f8:	6188      	str	r0, [r1, #24]
    25fa:	f000 b800 	b.w	25fe <mriClearFaultStatusBitsAndReturn>

000025fe <mriClearFaultStatusBitsAndReturn>:
    25fe:	480f      	ldr	r0, [pc, #60]	; (263c <UART3_IRQHandler+0x12>)
    2600:	6801      	ldr	r1, [r0, #0]
    2602:	6001      	str	r1, [r0, #0]
    2604:	6841      	ldr	r1, [r0, #4]
    2606:	6041      	str	r1, [r0, #4]
    2608:	4770      	bx	lr

0000260a <HardFault_Handler>:
    260a:	f7ff bf67 	b.w	24dc <mriFaultHandler>

0000260e <MemManage_Handler>:
    260e:	f7ff bf65 	b.w	24dc <mriFaultHandler>

00002612 <BusFault_Handler>:
    2612:	f7ff bf63 	b.w	24dc <mriFaultHandler>

00002616 <UsageFault_Handler>:
    2616:	f7ff bf5e 	b.w	24d6 <mriExceptionHandler>

0000261a <DebugMon_Handler>:
    261a:	f7ff bf5c 	b.w	24d6 <mriExceptionHandler>

0000261e <UART0_IRQHandler>:
    261e:	f7ff bf5a 	b.w	24d6 <mriExceptionHandler>

00002622 <UART1_IRQHandler>:
    2622:	f7ff bf58 	b.w	24d6 <mriExceptionHandler>

00002626 <UART2_IRQHandler>:
    2626:	f7ff bf56 	b.w	24d6 <mriExceptionHandler>

0000262a <UART3_IRQHandler>:
    262a:	f7ff bf54 	b.w	24d6 <mriExceptionHandler>
    262e:	0000      	.short	0x0000
    2630:	00002509 	.word	0x00002509
    2634:	000024f7 	.word	0x000024f7
    2638:	10000b90 	.word	0x10000b90
    263c:	e000ed28 	.word	0xe000ed28
    2640:	00001818 	.word	0x00001818
    2644:	0000cfb0 	.word	0x0000cfb0
    2648:	10000b88 	.word	0x10000b88
    264c:	deadbeef 	.word	0xdeadbeef
    2650:	10000b8c 	.word	0x10000b8c
    2654:	10000b94 	.word	0x10000b94
    2658:	10000bd4 	.word	0x10000bd4

0000265c <__mriPlatform_MemRead32>:
    265c:	6800      	ldr	r0, [r0, #0]
    265e:	4770      	bx	lr

00002660 <__mriPlatform_MemRead16>:
    2660:	8800      	ldrh	r0, [r0, #0]
    2662:	b280      	uxth	r0, r0
    2664:	4770      	bx	lr

00002666 <__mriPlatform_MemRead8>:
    2666:	7800      	ldrb	r0, [r0, #0]
    2668:	4770      	bx	lr

0000266a <__mriPlatform_MemWrite32>:
    266a:	6001      	str	r1, [r0, #0]
    266c:	4770      	bx	lr

0000266e <__mriPlatform_MemWrite16>:
    266e:	8001      	strh	r1, [r0, #0]
    2670:	4770      	bx	lr

00002672 <__mriPlatform_MemWrite8>:
    2672:	7001      	strb	r1, [r0, #0]
    2674:	4770      	bx	lr
	...

00002678 <__mriPlatform_CommUartIndex>:
    2678:	4b03      	ldr	r3, [pc, #12]	; (2688 <__mriPlatform_CommUartIndex+0x10>)
    267a:	4804      	ldr	r0, [pc, #16]	; (268c <__mriPlatform_CommUartIndex+0x14>)
    267c:	681a      	ldr	r2, [r3, #0]
    267e:	4b04      	ldr	r3, [pc, #16]	; (2690 <__mriPlatform_CommUartIndex+0x18>)
    2680:	1ad3      	subs	r3, r2, r3
    2682:	109b      	asrs	r3, r3, #2
    2684:	4358      	muls	r0, r3
    2686:	4770      	bx	lr
    2688:	10000c80 	.word	0x10000c80
    268c:	38e38e39 	.word	0x38e38e39
    2690:	0000d1d4 	.word	0x0000d1d4

00002694 <__mriPlatform_CommHasReceiveData>:
    2694:	4b03      	ldr	r3, [pc, #12]	; (26a4 <__mriPlatform_CommHasReceiveData+0x10>)
    2696:	681b      	ldr	r3, [r3, #0]
    2698:	68db      	ldr	r3, [r3, #12]
    269a:	7d18      	ldrb	r0, [r3, #20]
    269c:	f000 0001 	and.w	r0, r0, #1
    26a0:	4770      	bx	lr
    26a2:	bf00      	nop
    26a4:	10000c80 	.word	0x10000c80

000026a8 <__mriPlatform_CommReceiveChar>:
    26a8:	b508      	push	{r3, lr}
    26aa:	f7ff fff3 	bl	2694 <__mriPlatform_CommHasReceiveData>
    26ae:	2800      	cmp	r0, #0
    26b0:	d0fb      	beq.n	26aa <__mriPlatform_CommReceiveChar+0x2>
    26b2:	4b02      	ldr	r3, [pc, #8]	; (26bc <__mriPlatform_CommReceiveChar+0x14>)
    26b4:	681b      	ldr	r3, [r3, #0]
    26b6:	68db      	ldr	r3, [r3, #12]
    26b8:	7818      	ldrb	r0, [r3, #0]
    26ba:	bd08      	pop	{r3, pc}
    26bc:	10000c80 	.word	0x10000c80

000026c0 <__mriPlatform_CommSendChar>:
    26c0:	4b04      	ldr	r3, [pc, #16]	; (26d4 <__mriPlatform_CommSendChar+0x14>)
    26c2:	681b      	ldr	r3, [r3, #0]
    26c4:	68db      	ldr	r3, [r3, #12]
    26c6:	7d1a      	ldrb	r2, [r3, #20]
    26c8:	0692      	lsls	r2, r2, #26
    26ca:	d5fc      	bpl.n	26c6 <__mriPlatform_CommSendChar+0x6>
    26cc:	b2c0      	uxtb	r0, r0
    26ce:	7018      	strb	r0, [r3, #0]
    26d0:	4770      	bx	lr
    26d2:	bf00      	nop
    26d4:	10000c80 	.word	0x10000c80

000026d8 <__mriPlatform_CommCausedInterrupt>:
    26d8:	b510      	push	{r4, lr}
    26da:	f3ef 8405 	mrs	r4, IPSR
    26de:	f7ff ffcb 	bl	2678 <__mriPlatform_CommUartIndex>
    26e2:	b2e3      	uxtb	r3, r4
    26e4:	3015      	adds	r0, #21
    26e6:	1a1b      	subs	r3, r3, r0
    26e8:	4258      	negs	r0, r3
    26ea:	4158      	adcs	r0, r3
    26ec:	bd10      	pop	{r4, pc}
	...

000026f0 <__mriPlatform_CommClearInterrupt>:
    26f0:	4b02      	ldr	r3, [pc, #8]	; (26fc <__mriPlatform_CommClearInterrupt+0xc>)
    26f2:	681b      	ldr	r3, [r3, #0]
    26f4:	68db      	ldr	r3, [r3, #12]
    26f6:	689b      	ldr	r3, [r3, #8]
    26f8:	4770      	bx	lr
    26fa:	bf00      	nop
    26fc:	10000c80 	.word	0x10000c80

00002700 <__mriPlatform_CommSharingWithApplication>:
    2700:	4b02      	ldr	r3, [pc, #8]	; (270c <__mriPlatform_CommSharingWithApplication+0xc>)
    2702:	6858      	ldr	r0, [r3, #4]
    2704:	f000 0001 	and.w	r0, r0, #1
    2708:	4770      	bx	lr
    270a:	bf00      	nop
    270c:	10000c80 	.word	0x10000c80

00002710 <__mriPlatform_CommShouldWaitForGdbConnect>:
    2710:	4b04      	ldr	r3, [pc, #16]	; (2724 <__mriPlatform_CommShouldWaitForGdbConnect+0x14>)
    2712:	6858      	ldr	r0, [r3, #4]
    2714:	0783      	lsls	r3, r0, #30
    2716:	bf5a      	itte	pl
    2718:	f000 0001 	andpl.w	r0, r0, #1
    271c:	f080 0001 	eorpl.w	r0, r0, #1
    2720:	2000      	movmi	r0, #0
    2722:	4770      	bx	lr
    2724:	10000c80 	.word	0x10000c80

00002728 <__mriPlatform_CommIsWaitingForGdbToConnect>:
    2728:	b508      	push	{r3, lr}
    272a:	f7ff fff1 	bl	2710 <__mriPlatform_CommShouldWaitForGdbConnect>
    272e:	b128      	cbz	r0, 273c <__mriPlatform_CommIsWaitingForGdbToConnect+0x14>
    2730:	4b03      	ldr	r3, [pc, #12]	; (2740 <__mriPlatform_CommIsWaitingForGdbToConnect+0x18>)
    2732:	681b      	ldr	r3, [r3, #0]
    2734:	68db      	ldr	r3, [r3, #12]
    2736:	6a18      	ldr	r0, [r3, #32]
    2738:	f000 0001 	and.w	r0, r0, #1
    273c:	bd08      	pop	{r3, pc}
    273e:	bf00      	nop
    2740:	10000c80 	.word	0x10000c80

00002744 <__mriPlatform_CommPrepareToWaitForGdbConnection>:
    2744:	b508      	push	{r3, lr}
    2746:	f7ff ffe3 	bl	2710 <__mriPlatform_CommShouldWaitForGdbConnect>
    274a:	b120      	cbz	r0, 2756 <__mriPlatform_CommPrepareToWaitForGdbConnection+0x12>
    274c:	4b02      	ldr	r3, [pc, #8]	; (2758 <__mriPlatform_CommPrepareToWaitForGdbConnection+0x14>)
    274e:	2207      	movs	r2, #7
    2750:	681b      	ldr	r3, [r3, #0]
    2752:	68db      	ldr	r3, [r3, #12]
    2754:	621a      	str	r2, [r3, #32]
    2756:	bd08      	pop	{r3, pc}
    2758:	10000c80 	.word	0x10000c80

0000275c <__mriLpc176xUart_Init>:
    275c:	e92d 4ff0 	stmdb	sp!, {r4, r5, r6, r7, r8, r9, r10, r11, lr}
    2760:	b087      	sub	sp, #28
    2762:	4604      	mov	r4, r0
    2764:	2100      	movs	r1, #0
    2766:	a803      	add	r0, sp, #12
    2768:	220c      	movs	r2, #12
    276a:	f005 fbec 	bl	7f46 <memset>
    276e:	4620      	mov	r0, r4
    2770:	4995      	ldr	r1, [pc, #596]	; (29c8 <__mriLpc176xUart_Init+0x26c>)
    2772:	f7fe ff99 	bl	16a8 <__mriToken_MatchingString>
    2776:	b108      	cbz	r0, 277c <__mriLpc176xUart_Init+0x20>
    2778:	2300      	movs	r3, #0
    277a:	9304      	str	r3, [sp, #16]
    277c:	4620      	mov	r0, r4
    277e:	4993      	ldr	r1, [pc, #588]	; (29cc <__mriLpc176xUart_Init+0x270>)
    2780:	f7fe ff92 	bl	16a8 <__mriToken_MatchingString>
    2784:	b108      	cbz	r0, 278a <__mriLpc176xUart_Init+0x2e>
    2786:	2303      	movs	r3, #3
    2788:	9304      	str	r3, [sp, #16]
    278a:	4620      	mov	r0, r4
    278c:	4990      	ldr	r1, [pc, #576]	; (29d0 <__mriLpc176xUart_Init+0x274>)
    278e:	f7fe ff8b 	bl	16a8 <__mriToken_MatchingString>
    2792:	b108      	cbz	r0, 2798 <__mriLpc176xUart_Init+0x3c>
    2794:	2301      	movs	r3, #1
    2796:	9304      	str	r3, [sp, #16]
    2798:	4620      	mov	r0, r4
    279a:	498e      	ldr	r1, [pc, #568]	; (29d4 <__mriLpc176xUart_Init+0x278>)
    279c:	f7fe ff84 	bl	16a8 <__mriToken_MatchingString>
    27a0:	b108      	cbz	r0, 27a6 <__mriLpc176xUart_Init+0x4a>
    27a2:	2302      	movs	r3, #2
    27a4:	9304      	str	r3, [sp, #16]
    27a6:	4620      	mov	r0, r4
    27a8:	498b      	ldr	r1, [pc, #556]	; (29d8 <__mriLpc176xUart_Init+0x27c>)
    27aa:	f7fe ff7d 	bl	16a8 <__mriToken_MatchingString>
    27ae:	b108      	cbz	r0, 27b4 <__mriLpc176xUart_Init+0x58>
    27b0:	2300      	movs	r3, #0
    27b2:	9304      	str	r3, [sp, #16]
    27b4:	4620      	mov	r0, r4
    27b6:	4989      	ldr	r1, [pc, #548]	; (29dc <__mriLpc176xUart_Init+0x280>)
    27b8:	f7fe ff76 	bl	16a8 <__mriToken_MatchingString>
    27bc:	b108      	cbz	r0, 27c2 <__mriLpc176xUart_Init+0x66>
    27be:	2301      	movs	r3, #1
    27c0:	9304      	str	r3, [sp, #16]
    27c2:	4620      	mov	r0, r4
    27c4:	4986      	ldr	r1, [pc, #536]	; (29e0 <__mriLpc176xUart_Init+0x284>)
    27c6:	f7fe ff6f 	bl	16a8 <__mriToken_MatchingString>
    27ca:	b108      	cbz	r0, 27d0 <__mriLpc176xUart_Init+0x74>
    27cc:	2302      	movs	r3, #2
    27ce:	9304      	str	r3, [sp, #16]
    27d0:	4620      	mov	r0, r4
    27d2:	4984      	ldr	r1, [pc, #528]	; (29e4 <__mriLpc176xUart_Init+0x288>)
    27d4:	f7fe ff68 	bl	16a8 <__mriToken_MatchingString>
    27d8:	b108      	cbz	r0, 27de <__mriLpc176xUart_Init+0x82>
    27da:	2303      	movs	r3, #3
    27dc:	9304      	str	r3, [sp, #16]
    27de:	4620      	mov	r0, r4
    27e0:	4981      	ldr	r1, [pc, #516]	; (29e8 <__mriLpc176xUart_Init+0x28c>)
    27e2:	f7fe ff76 	bl	16d2 <__mriToken_MatchingStringPrefix>
    27e6:	b1d8      	cbz	r0, 2820 <__mriLpc176xUart_Init+0xc4>
    27e8:	300e      	adds	r0, #14
    27ea:	2300      	movs	r3, #0
    27ec:	f810 2b01 	ldrb.w	r2, [r0], #1
    27f0:	b1aa      	cbz	r2, 281e <__mriLpc176xUart_Init+0xc2>
    27f2:	4a7e      	ldr	r2, [pc, #504]	; (29ec <__mriLpc176xUart_Init+0x290>)
    27f4:	2500      	movs	r5, #0
    27f6:	6015      	str	r5, [r2, #0]
    27f8:	f810 1c01 	ldrb.w	r1, [r0, #-1]
    27fc:	3930      	subs	r1, #48	; 0x30
    27fe:	b2ce      	uxtb	r6, r1
    2800:	2e09      	cmp	r6, #9
    2802:	d902      	bls.n	280a <__mriLpc176xUart_Init+0xae>
    2804:	2109      	movs	r1, #9
    2806:	6011      	str	r1, [r2, #0]
    2808:	4629      	mov	r1, r5
    280a:	6812      	ldr	r2, [r2, #0]
    280c:	b11a      	cbz	r2, 2816 <__mriLpc176xUart_Init+0xba>
    280e:	4a77      	ldr	r2, [pc, #476]	; (29ec <__mriLpc176xUart_Init+0x290>)
    2810:	2100      	movs	r1, #0
    2812:	6011      	str	r1, [r2, #0]
    2814:	e003      	b.n	281e <__mriLpc176xUart_Init+0xc2>
    2816:	220a      	movs	r2, #10
    2818:	fb02 1303 	mla	r3, r2, r3, r1
    281c:	e7e6      	b.n	27ec <__mriLpc176xUart_Init+0x90>
    281e:	9305      	str	r3, [sp, #20]
    2820:	4620      	mov	r0, r4
    2822:	4973      	ldr	r1, [pc, #460]	; (29f0 <__mriLpc176xUart_Init+0x294>)
    2824:	f7fe ff40 	bl	16a8 <__mriToken_MatchingString>
    2828:	b108      	cbz	r0, 282e <__mriLpc176xUart_Init+0xd2>
    282a:	2301      	movs	r3, #1
    282c:	9303      	str	r3, [sp, #12]
    282e:	9b04      	ldr	r3, [sp, #16]
    2830:	2124      	movs	r1, #36	; 0x24
    2832:	4359      	muls	r1, r3
    2834:	486f      	ldr	r0, [pc, #444]	; (29f4 <__mriLpc176xUart_Init+0x298>)
    2836:	4a70      	ldr	r2, [pc, #448]	; (29f8 <__mriLpc176xUart_Init+0x29c>)
    2838:	9f03      	ldr	r7, [sp, #12]
    283a:	1843      	adds	r3, r0, r1
    283c:	6013      	str	r3, [r2, #0]
    283e:	b127      	cbz	r7, 284a <__mriLpc176xUart_Init+0xee>
    2840:	6853      	ldr	r3, [r2, #4]
    2842:	f043 0301 	orr.w	r3, r3, #1
    2846:	6053      	str	r3, [r2, #4]
    2848:	e0ba      	b.n	29c0 <__mriLpc176xUart_Init+0x264>
    284a:	4a6c      	ldr	r2, [pc, #432]	; (29fc <__mriLpc176xUart_Init+0x2a0>)
    284c:	691c      	ldr	r4, [r3, #16]
    284e:	f8d2 50c4 	ldr.w	r5, [r2, #196]	; 0xc4
    2852:	432c      	orrs	r4, r5
    2854:	f8c2 40c4 	str.w	r4, [r2, #196]	; 0xc4
    2858:	5842      	ldr	r2, [r0, r1]
    285a:	6959      	ldr	r1, [r3, #20]
    285c:	6810      	ldr	r0, [r2, #0]
    285e:	2510      	movs	r5, #16
    2860:	ea20 0101 	bic.w	r1, r0, r1
    2864:	6011      	str	r1, [r2, #0]
    2866:	6959      	ldr	r1, [r3, #20]
    2868:	6810      	ldr	r0, [r2, #0]
    286a:	f001 3155 	and.w	r1, r1, #1431655765	; 0x55555555
    286e:	4301      	orrs	r1, r0
    2870:	6011      	str	r1, [r2, #0]
    2872:	68da      	ldr	r2, [r3, #12]
    2874:	2101      	movs	r1, #1
    2876:	f882 5028 	strb.w	r5, [r2, #40]	; 0x28
    287a:	68da      	ldr	r2, [r3, #12]
    287c:	2003      	movs	r0, #3
    287e:	7211      	strb	r1, [r2, #8]
    2880:	68da      	ldr	r2, [r3, #12]
    2882:	7310      	strb	r0, [r2, #12]
    2884:	9a05      	ldr	r2, [sp, #20]
    2886:	2a00      	cmp	r2, #0
    2888:	d05a      	beq.n	2940 <__mriLpc176xUart_Init+0x1e4>
    288a:	485d      	ldr	r0, [pc, #372]	; (2a00 <__mriLpc176xUart_Init+0x2a4>)
    288c:	6800      	ldr	r0, [r0, #0]
    288e:	ea4f 1c10 	mov.w	r12, r0, lsr #4
    2892:	fbbc f4f2 	udiv	r4, r12, r2
    2896:	fb02 f004 	mul.w	r0, r2, r4
    289a:	4560      	cmp	r0, r12
    289c:	d039      	beq.n	2912 <__mriLpc176xUart_Init+0x1b6>
    289e:	0110      	lsls	r0, r2, #4
    28a0:	ea4f 2c0c 	mov.w	r12, r12, lsl #8
    28a4:	9001      	str	r0, [sp, #4]
    28a6:	f04f 38ff 	mov.w	r8, #4294967295
    28aa:	460d      	mov	r5, r1
    28ac:	ea4f 1e01 	mov.w	lr, r1, lsl #4
    28b0:	4616      	mov	r6, r2
    28b2:	2001      	movs	r0, #1
    28b4:	4288      	cmp	r0, r1
    28b6:	d227      	bcs.n	2908 <__mriLpc176xUart_Init+0x1ac>
    28b8:	ea4f 1906 	mov.w	r9, r6, lsl #4
    28bc:	fbb9 f9fe 	udiv	r9, r9, lr
    28c0:	4491      	add	r9, r2
    28c2:	fbbc f9f9 	udiv	r9, r12, r9
    28c6:	f109 0980 	add.w	r9, r9, #128	; 0x80
    28ca:	ea4f 2919 	mov.w	r9, r9, lsr #8
    28ce:	ea4f 1a09 	mov.w	r10, r9, lsl #4
    28d2:	fb00 fb0a 	mul.w	r11, r0, r10
    28d6:	ea4f 1b0b 	mov.w	r11, r11, lsl #4
    28da:	fbbb fbfe 	udiv	r11, r11, lr
    28de:	44da      	add	r10, r11
    28e0:	f8dd b004 	ldr.w	r11, [sp, #4]
    28e4:	fbbc fafa 	udiv	r10, r12, r10
    28e8:	ebcb 0a0a 	rsb	r10, r11, r10
    28ec:	f1ba 0f00 	cmp.w	r10, #0
    28f0:	bfb8      	it	lt
    28f2:	f1ca 0a00 	rsblt	r10, r10, #0
    28f6:	45c2      	cmp	r10, r8
    28f8:	d203      	bcs.n	2902 <__mriLpc176xUart_Init+0x1a6>
    28fa:	46d0      	mov	r8, r10
    28fc:	4607      	mov	r7, r0
    28fe:	460d      	mov	r5, r1
    2900:	464c      	mov	r4, r9
    2902:	4416      	add	r6, r2
    2904:	3001      	adds	r0, #1
    2906:	e7d5      	b.n	28b4 <__mriLpc176xUart_Init+0x158>
    2908:	3101      	adds	r1, #1
    290a:	2910      	cmp	r1, #16
    290c:	d1ce      	bne.n	28ac <__mriLpc176xUart_Init+0x150>
    290e:	ea47 1505 	orr.w	r5, r7, r5, lsl #4
    2912:	68da      	ldr	r2, [r3, #12]
    2914:	b2ed      	uxtb	r5, r5
    2916:	7b11      	ldrb	r1, [r2, #12]
    2918:	f041 0180 	orr.w	r1, r1, #128	; 0x80
    291c:	7311      	strb	r1, [r2, #12]
    291e:	b2e1      	uxtb	r1, r4
    2920:	f3c4 2407 	ubfx	r4, r4, #8, #8
    2924:	7011      	strb	r1, [r2, #0]
    2926:	7114      	strb	r4, [r2, #4]
    2928:	f882 5028 	strb.w	r5, [r2, #40]	; 0x28
    292c:	68da      	ldr	r2, [r3, #12]
    292e:	7b11      	ldrb	r1, [r2, #12]
    2930:	f001 017f 	and.w	r1, r1, #127	; 0x7f
    2934:	7311      	strb	r1, [r2, #12]
    2936:	4a30      	ldr	r2, [pc, #192]	; (29f8 <__mriLpc176xUart_Init+0x29c>)
    2938:	6851      	ldr	r1, [r2, #4]
    293a:	f041 0102 	orr.w	r1, r1, #2
    293e:	6051      	str	r1, [r2, #4]
    2940:	685a      	ldr	r2, [r3, #4]
    2942:	6999      	ldr	r1, [r3, #24]
    2944:	6814      	ldr	r4, [r2, #0]
    2946:	6a18      	ldr	r0, [r3, #32]
    2948:	ea24 0401 	bic.w	r4, r4, r1
    294c:	4008      	ands	r0, r1
    294e:	ea44 0100 	orr.w	r1, r4, r0
    2952:	6011      	str	r1, [r2, #0]
    2954:	689a      	ldr	r2, [r3, #8]
    2956:	69d9      	ldr	r1, [r3, #28]
    2958:	6814      	ldr	r4, [r2, #0]
    295a:	6a18      	ldr	r0, [r3, #32]
    295c:	ea24 0401 	bic.w	r4, r4, r1
    2960:	4008      	ands	r0, r1
    2962:	ea44 0100 	orr.w	r1, r4, r0
    2966:	6011      	str	r1, [r2, #0]
    2968:	68da      	ldr	r2, [r3, #12]
    296a:	7b11      	ldrb	r1, [r2, #12]
    296c:	7b10      	ldrb	r0, [r2, #12]
    296e:	b2c9      	uxtb	r1, r1
    2970:	f000 007f 	and.w	r0, r0, #127	; 0x7f
    2974:	7310      	strb	r0, [r2, #12]
    2976:	68da      	ldr	r2, [r3, #12]
    2978:	2001      	movs	r0, #1
    297a:	6050      	str	r0, [r2, #4]
    297c:	68db      	ldr	r3, [r3, #12]
    297e:	7319      	strb	r1, [r3, #12]
    2980:	f7ff fee0 	bl	2744 <__mriPlatform_CommPrepareToWaitForGdbConnection>
    2984:	f7ff fe78 	bl	2678 <__mriPlatform_CommUartIndex>
    2988:	3005      	adds	r0, #5
    298a:	b2c0      	uxtb	r0, r0
    298c:	b243      	sxtb	r3, r0
    298e:	2b00      	cmp	r3, #0
    2990:	da06      	bge.n	29a0 <__mriLpc176xUart_Init+0x244>
    2992:	4a1c      	ldr	r2, [pc, #112]	; (2a04 <__mriLpc176xUart_Init+0x2a8>)
    2994:	f000 010f 	and.w	r1, r0, #15
    2998:	440a      	add	r2, r1
    299a:	2100      	movs	r1, #0
    299c:	7611      	strb	r1, [r2, #24]
    299e:	e006      	b.n	29ae <__mriLpc176xUart_Init+0x252>
    29a0:	f103 4260 	add.w	r2, r3, #3758096384	; 0xe0000000
    29a4:	f502 4261 	add.w	r2, r2, #57600	; 0xe100
    29a8:	2100      	movs	r1, #0
    29aa:	f882 1300 	strb.w	r1, [r2, #768]	; 0x300
    29ae:	2201      	movs	r2, #1
    29b0:	f000 001f 	and.w	r0, r0, #31
    29b4:	fa02 f000 	lsl.w	r0, r2, r0
    29b8:	4a13      	ldr	r2, [pc, #76]	; (2a08 <__mriLpc176xUart_Init+0x2ac>)
    29ba:	095b      	lsrs	r3, r3, #5
    29bc:	f842 0023 	str.w	r0, [r2, r3, lsl #2]
    29c0:	b007      	add	sp, #28
    29c2:	e8bd 8ff0 	ldmia.w	sp!, {r4, r5, r6, r7, r8, r9, r10, r11, pc}
    29c6:	bf00      	nop
    29c8:	0000d264 	.word	0x0000d264
    29cc:	0000d276 	.word	0x0000d276
    29d0:	0000d28b 	.word	0x0000d28b
    29d4:	0000d2a1 	.word	0x0000d2a1
    29d8:	0000d2b7 	.word	0x0000d2b7
    29dc:	0000d2c2 	.word	0x0000d2c2
    29e0:	0000d2cd 	.word	0x0000d2cd
    29e4:	0000d2d8 	.word	0x0000d2d8
    29e8:	0000d2f2 	.word	0x0000d2f2
    29ec:	10000a48 	.word	0x10000a48
    29f0:	0000d2e3 	.word	0x0000d2e3
    29f4:	0000d1d4 	.word	0x0000d1d4
    29f8:	10000c80 	.word	0x10000c80
    29fc:	400fc000 	.word	0x400fc000
    2a00:	100000d4 	.word	0x100000d4
    2a04:	e000ecfc 	.word	0xe000ecfc
    2a08:	e000e100 	.word	0xe000e100

00002a0c <__mriPlatform_CommWaitForReceiveDataToStop>:
    2a0c:	b538      	push	{r3, r4, r5, lr}
    2a0e:	4b13      	ldr	r3, [pc, #76]	; (2a5c <__mriPlatform_CommWaitForReceiveDataToStop+0x50>)
    2a10:	681c      	ldr	r4, [r3, #0]
    2a12:	685d      	ldr	r5, [r3, #4]
    2a14:	68da      	ldr	r2, [r3, #12]
    2a16:	f022 427f 	bic.w	r2, r2, #4278190080	; 0xff000000
    2a1a:	b142      	cbz	r2, 2a2e <__mriPlatform_CommWaitForReceiveDataToStop+0x22>
    2a1c:	2200      	movs	r2, #0
    2a1e:	601a      	str	r2, [r3, #0]
    2a20:	68d9      	ldr	r1, [r3, #12]
    2a22:	f021 417f 	bic.w	r1, r1, #4278190080	; 0xff000000
    2a26:	6059      	str	r1, [r3, #4]
    2a28:	609a      	str	r2, [r3, #8]
    2a2a:	2205      	movs	r2, #5
    2a2c:	601a      	str	r2, [r3, #0]
    2a2e:	f7ff fe31 	bl	2694 <__mriPlatform_CommHasReceiveData>
    2a32:	4b0a      	ldr	r3, [pc, #40]	; (2a5c <__mriPlatform_CommWaitForReceiveDataToStop+0x50>)
    2a34:	b930      	cbnz	r0, 2a44 <__mriPlatform_CommWaitForReceiveDataToStop+0x38>
    2a36:	68da      	ldr	r2, [r3, #12]
    2a38:	f022 427f 	bic.w	r2, r2, #4278190080	; 0xff000000
    2a3c:	b112      	cbz	r2, 2a44 <__mriPlatform_CommWaitForReceiveDataToStop+0x38>
    2a3e:	681a      	ldr	r2, [r3, #0]
    2a40:	03d2      	lsls	r2, r2, #15
    2a42:	d5f4      	bpl.n	2a2e <__mriPlatform_CommWaitForReceiveDataToStop+0x22>
    2a44:	f025 457f 	bic.w	r5, r5, #4278190080	; 0xff000000
    2a48:	605d      	str	r5, [r3, #4]
    2a4a:	601c      	str	r4, [r3, #0]
    2a4c:	f7ff fe22 	bl	2694 <__mriPlatform_CommHasReceiveData>
    2a50:	b110      	cbz	r0, 2a58 <__mriPlatform_CommWaitForReceiveDataToStop+0x4c>
    2a52:	f7ff fe29 	bl	26a8 <__mriPlatform_CommReceiveChar>
    2a56:	e7da      	b.n	2a0e <__mriPlatform_CommWaitForReceiveDataToStop+0x2>
    2a58:	bd38      	pop	{r3, r4, r5, pc}
    2a5a:	bf00      	nop
    2a5c:	e000e010 	.word	0xe000e010

00002a60 <__mriPlatform_Init>:
    2a60:	e92d 41f0 	stmdb	sp!, {r4, r5, r6, r7, r8, lr}
    2a64:	4d1d      	ldr	r5, [pc, #116]	; (2adc <__mriPlatform_Init+0x7c>)
    2a66:	2300      	movs	r3, #0
    2a68:	462a      	mov	r2, r5
    2a6a:	f842 3b04 	str.w	r3, [r2], #4
    2a6e:	4b1c      	ldr	r3, [pc, #112]	; (2ae0 <__mriPlatform_Init+0x80>)
    2a70:	4680      	mov	r8, r0
    2a72:	f103 0620 	add.w	r6, r3, #32
    2a76:	6818      	ldr	r0, [r3, #0]
    2a78:	6859      	ldr	r1, [r3, #4]
    2a7a:	4614      	mov	r4, r2
    2a7c:	c403      	stmia	r4!, {r0, r1}
    2a7e:	3308      	adds	r3, #8
    2a80:	42b3      	cmp	r3, r6
    2a82:	4622      	mov	r2, r4
    2a84:	d1f7      	bne.n	2a76 <__mriPlatform_Init+0x16>
    2a86:	6818      	ldr	r0, [r3, #0]
    2a88:	4e16      	ldr	r6, [pc, #88]	; (2ae4 <__mriPlatform_Init+0x84>)
    2a8a:	6020      	str	r0, [r4, #0]
    2a8c:	6833      	ldr	r3, [r6, #0]
    2a8e:	4c16      	ldr	r4, [pc, #88]	; (2ae8 <__mriPlatform_Init+0x88>)
    2a90:	2700      	movs	r7, #0
    2a92:	07d9      	lsls	r1, r3, #31
    2a94:	6027      	str	r7, [r4, #0]
    2a96:	d517      	bpl.n	2ac8 <__mriPlatform_Init+0x68>
    2a98:	4814      	ldr	r0, [pc, #80]	; (2aec <__mriPlatform_Init+0x8c>)
    2a9a:	f000 f839 	bl	2b10 <__mriGetMbedUid>
    2a9e:	f000 f82b 	bl	2af8 <__mriDisableMbed>
    2aa2:	6027      	str	r7, [r4, #0]
    2aa4:	f241 3389 	movw	r3, #5001	; 0x1389
    2aa8:	3b01      	subs	r3, #1
    2aaa:	d002      	beq.n	2ab2 <__mriPlatform_Init+0x52>
    2aac:	6832      	ldr	r2, [r6, #0]
    2aae:	07d2      	lsls	r2, r2, #31
    2ab0:	d4fa      	bmi.n	2aa8 <__mriPlatform_Init+0x48>
    2ab2:	6833      	ldr	r3, [r6, #0]
    2ab4:	07db      	lsls	r3, r3, #31
    2ab6:	bf44      	itt	mi
    2ab8:	2305      	movmi	r3, #5
    2aba:	6023      	strmi	r3, [r4, #0]
    2abc:	6823      	ldr	r3, [r4, #0]
    2abe:	b91b      	cbnz	r3, 2ac8 <__mriPlatform_Init+0x68>
    2ac0:	682b      	ldr	r3, [r5, #0]
    2ac2:	f043 0301 	orr.w	r3, r3, #1
    2ac6:	602b      	str	r3, [r5, #0]
    2ac8:	6823      	ldr	r3, [r4, #0]
    2aca:	b923      	cbnz	r3, 2ad6 <__mriPlatform_Init+0x76>
    2acc:	4640      	mov	r0, r8
    2ace:	e8bd 41f0 	ldmia.w	sp!, {r4, r5, r6, r7, r8, lr}
    2ad2:	f000 bfd1 	b.w	3a78 <__mriLpc176x_Init>
    2ad6:	e8bd 81f0 	ldmia.w	sp!, {r4, r5, r6, r7, r8, pc}
    2ada:	bf00      	nop
    2adc:	1000075c 	.word	0x1000075c
    2ae0:	0000d301 	.word	0x0000d301
    2ae4:	e000edf0 	.word	0xe000edf0
    2ae8:	10000a48 	.word	0x10000a48
    2aec:	10000760 	.word	0x10000760

00002af0 <__mriMbed1768_GetMbedUid>:
    2af0:	4800      	ldr	r0, [pc, #0]	; (2af4 <__mriMbed1768_GetMbedUid+0x4>)
    2af2:	4770      	bx	lr
    2af4:	10000760 	.word	0x10000760

00002af8 <__mriDisableMbed>:
    2af8:	b082      	sub	sp, #8
    2afa:	a901      	add	r1, sp, #4
    2afc:	f240 1005 	movw	r0, #261	; 0x105
    2b00:	beab      	bkpt	0x00ab
    2b02:	2800      	cmp	r0, #0
    2b04:	bf0c      	ite	eq
    2b06:	9801      	ldreq	r0, [sp, #4]
    2b08:	f04f 30ff 	movne.w	r0, #4294967295
    2b0c:	b002      	add	sp, #8
    2b0e:	4770      	bx	lr

00002b10 <__mriGetMbedUid>:
    2b10:	b082      	sub	sp, #8
    2b12:	9000      	str	r0, [sp, #0]
    2b14:	2021      	movs	r0, #33	; 0x21
    2b16:	9001      	str	r0, [sp, #4]
    2b18:	4669      	mov	r1, sp
    2b1a:	f240 1001 	movw	r0, #257	; 0x101
    2b1e:	beab      	bkpt	0x00ab
    2b20:	b002      	add	sp, #8
    2b22:	4770      	bx	lr

00002b24 <HexCharToNibble>:
    2b24:	f1a0 0361 	sub.w	r3, r0, #97	; 0x61
    2b28:	2b05      	cmp	r3, #5
    2b2a:	d801      	bhi.n	2b30 <HexCharToNibble+0xc>
    2b2c:	3857      	subs	r0, #87	; 0x57
    2b2e:	4770      	bx	lr
    2b30:	f1a0 0341 	sub.w	r3, r0, #65	; 0x41
    2b34:	2b05      	cmp	r3, #5
    2b36:	d801      	bhi.n	2b3c <HexCharToNibble+0x18>
    2b38:	3837      	subs	r0, #55	; 0x37
    2b3a:	4770      	bx	lr
    2b3c:	3830      	subs	r0, #48	; 0x30
    2b3e:	b2c3      	uxtb	r3, r0
    2b40:	2b09      	cmp	r3, #9
    2b42:	d907      	bls.n	2b54 <HexCharToNibble+0x30>
    2b44:	4b04      	ldr	r3, [pc, #16]	; (2b58 <HexCharToNibble+0x34>)
    2b46:	f04f 30ff 	mov.w	r0, #4294967295
    2b4a:	681a      	ldr	r2, [r3, #0]
    2b4c:	2a02      	cmp	r2, #2
    2b4e:	bfb8      	it	lt
    2b50:	2202      	movlt	r2, #2
    2b52:	601a      	str	r2, [r3, #0]
    2b54:	4770      	bx	lr
    2b56:	bf00      	nop
    2b58:	10000a48 	.word	0x10000a48

00002b5c <__mriBuffer_Init>:
    2b5c:	440a      	add	r2, r1
    2b5e:	6001      	str	r1, [r0, #0]
    2b60:	6042      	str	r2, [r0, #4]
    2b62:	6081      	str	r1, [r0, #8]
    2b64:	4770      	bx	lr

00002b66 <__mriBuffer_Reset>:
    2b66:	6803      	ldr	r3, [r0, #0]
    2b68:	6083      	str	r3, [r0, #8]
    2b6a:	4770      	bx	lr

00002b6c <__mriBuffer_SetEndOfBuffer>:
    2b6c:	6883      	ldr	r3, [r0, #8]
    2b6e:	6842      	ldr	r2, [r0, #4]
    2b70:	4293      	cmp	r3, r2
    2b72:	bf38      	it	cc
    2b74:	6043      	strcc	r3, [r0, #4]
    2b76:	4770      	bx	lr

00002b78 <__mriBuffer_BytesLeft>:
    2b78:	6883      	ldr	r3, [r0, #8]
    2b7a:	6840      	ldr	r0, [r0, #4]
    2b7c:	4283      	cmp	r3, r0
    2b7e:	bf94      	ite	ls
    2b80:	ebc3 0000 	rsbls	r0, r3, r0
    2b84:	2000      	movhi	r0, #0
    2b86:	4770      	bx	lr

00002b88 <throwExceptionAndFlagBufferOverrunIfBufferLeftIsSmallerThan>:
    2b88:	b538      	push	{r3, r4, r5, lr}
    2b8a:	460d      	mov	r5, r1
    2b8c:	4604      	mov	r4, r0
    2b8e:	f7ff fff3 	bl	2b78 <__mriBuffer_BytesLeft>
    2b92:	42a8      	cmp	r0, r5
    2b94:	d208      	bcs.n	2ba8 <throwExceptionAndFlagBufferOverrunIfBufferLeftIsSmallerThan+0x20>
    2b96:	6863      	ldr	r3, [r4, #4]
    2b98:	3301      	adds	r3, #1
    2b9a:	60a3      	str	r3, [r4, #8]
    2b9c:	4b03      	ldr	r3, [pc, #12]	; (2bac <throwExceptionAndFlagBufferOverrunIfBufferLeftIsSmallerThan+0x24>)
    2b9e:	681a      	ldr	r2, [r3, #0]
    2ba0:	2a01      	cmp	r2, #1
    2ba2:	bfb8      	it	lt
    2ba4:	2201      	movlt	r2, #1
    2ba6:	601a      	str	r2, [r3, #0]
    2ba8:	bd38      	pop	{r3, r4, r5, pc}
    2baa:	bf00      	nop
    2bac:	10000a48 	.word	0x10000a48

00002bb0 <__mriBuffer_OverrunDetected>:
    2bb0:	6882      	ldr	r2, [r0, #8]
    2bb2:	6840      	ldr	r0, [r0, #4]
    2bb4:	4282      	cmp	r2, r0
    2bb6:	bf94      	ite	ls
    2bb8:	2000      	movls	r0, #0
    2bba:	2001      	movhi	r0, #1
    2bbc:	4770      	bx	lr
	...

00002bc0 <__mriBuffer_WriteChar>:
    2bc0:	b570      	push	{r4, r5, r6, lr}
    2bc2:	4d07      	ldr	r5, [pc, #28]	; (2be0 <__mriBuffer_WriteChar+0x20>)
    2bc4:	2300      	movs	r3, #0
    2bc6:	460e      	mov	r6, r1
    2bc8:	2101      	movs	r1, #1
    2bca:	602b      	str	r3, [r5, #0]
    2bcc:	4604      	mov	r4, r0
    2bce:	f7ff ffdb 	bl	2b88 <throwExceptionAndFlagBufferOverrunIfBufferLeftIsSmallerThan>
    2bd2:	682b      	ldr	r3, [r5, #0]
    2bd4:	b91b      	cbnz	r3, 2bde <__mriBuffer_WriteChar+0x1e>
    2bd6:	68a3      	ldr	r3, [r4, #8]
    2bd8:	1c5a      	adds	r2, r3, #1
    2bda:	60a2      	str	r2, [r4, #8]
    2bdc:	701e      	strb	r6, [r3, #0]
    2bde:	bd70      	pop	{r4, r5, r6, pc}
    2be0:	10000a48 	.word	0x10000a48

00002be4 <__mriBuffer_ReadChar>:
    2be4:	b570      	push	{r4, r5, r6, lr}
    2be6:	4e08      	ldr	r6, [pc, #32]	; (2c08 <__mriBuffer_ReadChar+0x24>)
    2be8:	2400      	movs	r4, #0
    2bea:	2101      	movs	r1, #1
    2bec:	4605      	mov	r5, r0
    2bee:	6034      	str	r4, [r6, #0]
    2bf0:	f7ff ffca 	bl	2b88 <throwExceptionAndFlagBufferOverrunIfBufferLeftIsSmallerThan>
    2bf4:	6833      	ldr	r3, [r6, #0]
    2bf6:	b923      	cbnz	r3, 2c02 <__mriBuffer_ReadChar+0x1e>
    2bf8:	68ab      	ldr	r3, [r5, #8]
    2bfa:	1c5a      	adds	r2, r3, #1
    2bfc:	60aa      	str	r2, [r5, #8]
    2bfe:	7818      	ldrb	r0, [r3, #0]
    2c00:	bd70      	pop	{r4, r5, r6, pc}
    2c02:	4620      	mov	r0, r4
    2c04:	bd70      	pop	{r4, r5, r6, pc}
    2c06:	bf00      	nop
    2c08:	10000a48 	.word	0x10000a48

00002c0c <__mriBuffer_WriteByteAsHex>:
    2c0c:	b570      	push	{r4, r5, r6, lr}
    2c0e:	4e0c      	ldr	r6, [pc, #48]	; (2c40 <__mriBuffer_WriteByteAsHex+0x34>)
    2c10:	2300      	movs	r3, #0
    2c12:	460d      	mov	r5, r1
    2c14:	2102      	movs	r1, #2
    2c16:	6033      	str	r3, [r6, #0]
    2c18:	4604      	mov	r4, r0
    2c1a:	f7ff ffb5 	bl	2b88 <throwExceptionAndFlagBufferOverrunIfBufferLeftIsSmallerThan>
    2c1e:	6833      	ldr	r3, [r6, #0]
    2c20:	b96b      	cbnz	r3, 2c3e <__mriBuffer_WriteByteAsHex+0x32>
    2c22:	68a3      	ldr	r3, [r4, #8]
    2c24:	0929      	lsrs	r1, r5, #4
    2c26:	1c5a      	adds	r2, r3, #1
    2c28:	60a2      	str	r2, [r4, #8]
    2c2a:	4a06      	ldr	r2, [pc, #24]	; (2c44 <__mriBuffer_WriteByteAsHex+0x38>)
    2c2c:	f005 050f 	and.w	r5, r5, #15
    2c30:	5c51      	ldrb	r1, [r2, r1]
    2c32:	5d52      	ldrb	r2, [r2, r5]
    2c34:	7019      	strb	r1, [r3, #0]
    2c36:	68a3      	ldr	r3, [r4, #8]
    2c38:	1c59      	adds	r1, r3, #1
    2c3a:	60a1      	str	r1, [r4, #8]
    2c3c:	701a      	strb	r2, [r3, #0]
    2c3e:	bd70      	pop	{r4, r5, r6, pc}
    2c40:	10000a48 	.word	0x10000a48
    2c44:	0000d325 	.word	0x0000d325

00002c48 <__mriBuffer_ReadByteAsHex>:
    2c48:	b570      	push	{r4, r5, r6, lr}
    2c4a:	4d10      	ldr	r5, [pc, #64]	; (2c8c <__mriBuffer_ReadByteAsHex+0x44>)
    2c4c:	2300      	movs	r3, #0
    2c4e:	2102      	movs	r1, #2
    2c50:	602b      	str	r3, [r5, #0]
    2c52:	4604      	mov	r4, r0
    2c54:	f7ff ff98 	bl	2b88 <throwExceptionAndFlagBufferOverrunIfBufferLeftIsSmallerThan>
    2c58:	682b      	ldr	r3, [r5, #0]
    2c5a:	b10b      	cbz	r3, 2c60 <__mriBuffer_ReadByteAsHex+0x18>
    2c5c:	2000      	movs	r0, #0
    2c5e:	bd70      	pop	{r4, r5, r6, pc}
    2c60:	68a3      	ldr	r3, [r4, #8]
    2c62:	7818      	ldrb	r0, [r3, #0]
    2c64:	f7ff ff5e 	bl	2b24 <HexCharToNibble>
    2c68:	682b      	ldr	r3, [r5, #0]
    2c6a:	0100      	lsls	r0, r0, #4
    2c6c:	b2c6      	uxtb	r6, r0
    2c6e:	b92b      	cbnz	r3, 2c7c <__mriBuffer_ReadByteAsHex+0x34>
    2c70:	68a3      	ldr	r3, [r4, #8]
    2c72:	7858      	ldrb	r0, [r3, #1]
    2c74:	f7ff ff56 	bl	2b24 <HexCharToNibble>
    2c78:	4330      	orrs	r0, r6
    2c7a:	b2c6      	uxtb	r6, r0
    2c7c:	682b      	ldr	r3, [r5, #0]
    2c7e:	2b00      	cmp	r3, #0
    2c80:	d1ec      	bne.n	2c5c <__mriBuffer_ReadByteAsHex+0x14>
    2c82:	68a3      	ldr	r3, [r4, #8]
    2c84:	4630      	mov	r0, r6
    2c86:	3302      	adds	r3, #2
    2c88:	60a3      	str	r3, [r4, #8]
    2c8a:	bd70      	pop	{r4, r5, r6, pc}
    2c8c:	10000a48 	.word	0x10000a48

00002c90 <__mriBuffer_WriteSizedString>:
    2c90:	b5f8      	push	{r3, r4, r5, r6, r7, lr}
    2c92:	4f0b      	ldr	r7, [pc, #44]	; (2cc0 <__mriBuffer_WriteSizedString+0x30>)
    2c94:	2300      	movs	r3, #0
    2c96:	460c      	mov	r4, r1
    2c98:	4611      	mov	r1, r2
    2c9a:	603b      	str	r3, [r7, #0]
    2c9c:	4605      	mov	r5, r0
    2c9e:	4616      	mov	r6, r2
    2ca0:	f7ff ff72 	bl	2b88 <throwExceptionAndFlagBufferOverrunIfBufferLeftIsSmallerThan>
    2ca4:	683b      	ldr	r3, [r7, #0]
    2ca6:	b94b      	cbnz	r3, 2cbc <__mriBuffer_WriteSizedString+0x2c>
    2ca8:	4426      	add	r6, r4
    2caa:	42b4      	cmp	r4, r6
    2cac:	d006      	beq.n	2cbc <__mriBuffer_WriteSizedString+0x2c>
    2cae:	68ab      	ldr	r3, [r5, #8]
    2cb0:	1c5a      	adds	r2, r3, #1
    2cb2:	60aa      	str	r2, [r5, #8]
    2cb4:	f814 2b01 	ldrb.w	r2, [r4], #1
    2cb8:	701a      	strb	r2, [r3, #0]
    2cba:	e7f6      	b.n	2caa <__mriBuffer_WriteSizedString+0x1a>
    2cbc:	bdf8      	pop	{r3, r4, r5, r6, r7, pc}
    2cbe:	bf00      	nop
    2cc0:	10000a48 	.word	0x10000a48

00002cc4 <__mriBuffer_WriteString>:
    2cc4:	b538      	push	{r3, r4, r5, lr}
    2cc6:	4605      	mov	r5, r0
    2cc8:	4608      	mov	r0, r1
    2cca:	460c      	mov	r4, r1
    2ccc:	f005 fc23 	bl	8516 <strlen>
    2cd0:	4621      	mov	r1, r4
    2cd2:	4602      	mov	r2, r0
    2cd4:	4628      	mov	r0, r5
    2cd6:	e8bd 4038 	ldmia.w	sp!, {r3, r4, r5, lr}
    2cda:	f7ff bfd9 	b.w	2c90 <__mriBuffer_WriteSizedString>
	...

00002ce0 <__mriBuffer_ReadUIntegerAsHex>:
    2ce0:	e92d 41f0 	stmdb	sp!, {r4, r5, r6, r7, r8, lr}
    2ce4:	2600      	movs	r6, #0
    2ce6:	4604      	mov	r4, r0
    2ce8:	4637      	mov	r7, r6
    2cea:	4d16      	ldr	r5, [pc, #88]	; (2d44 <__mriBuffer_ReadUIntegerAsHex+0x64>)
    2cec:	2300      	movs	r3, #0
    2cee:	4620      	mov	r0, r4
    2cf0:	602b      	str	r3, [r5, #0]
    2cf2:	f7ff ff77 	bl	2be4 <__mriBuffer_ReadChar>
    2cf6:	682b      	ldr	r3, [r5, #0]
    2cf8:	46a8      	mov	r8, r5
    2cfa:	b963      	cbnz	r3, 2d16 <__mriBuffer_ReadUIntegerAsHex+0x36>
    2cfc:	f7ff ff12 	bl	2b24 <HexCharToNibble>
    2d00:	682b      	ldr	r3, [r5, #0]
    2d02:	b133      	cbz	r3, 2d12 <__mriBuffer_ReadUIntegerAsHex+0x32>
    2d04:	68a3      	ldr	r3, [r4, #8]
    2d06:	6822      	ldr	r2, [r4, #0]
    2d08:	4293      	cmp	r3, r2
    2d0a:	d904      	bls.n	2d16 <__mriBuffer_ReadUIntegerAsHex+0x36>
    2d0c:	3b01      	subs	r3, #1
    2d0e:	60a3      	str	r3, [r4, #8]
    2d10:	e001      	b.n	2d16 <__mriBuffer_ReadUIntegerAsHex+0x36>
    2d12:	eb00 1606 	add.w	r6, r0, r6, lsl #4
    2d16:	682b      	ldr	r3, [r5, #0]
    2d18:	b90b      	cbnz	r3, 2d1e <__mriBuffer_ReadUIntegerAsHex+0x3e>
    2d1a:	3701      	adds	r7, #1
    2d1c:	e7e5      	b.n	2cea <__mriBuffer_ReadUIntegerAsHex+0xa>
    2d1e:	4b09      	ldr	r3, [pc, #36]	; (2d44 <__mriBuffer_ReadUIntegerAsHex+0x64>)
    2d20:	2200      	movs	r2, #0
    2d22:	601a      	str	r2, [r3, #0]
    2d24:	6863      	ldr	r3, [r4, #4]
    2d26:	68a2      	ldr	r2, [r4, #8]
    2d28:	429a      	cmp	r2, r3
    2d2a:	bf88      	it	hi
    2d2c:	60a3      	strhi	r3, [r4, #8]
    2d2e:	b92f      	cbnz	r7, 2d3c <__mriBuffer_ReadUIntegerAsHex+0x5c>
    2d30:	2303      	movs	r3, #3
    2d32:	f8c8 3000 	str.w	r3, [r8]
    2d36:	4638      	mov	r0, r7
    2d38:	e8bd 81f0 	ldmia.w	sp!, {r4, r5, r6, r7, r8, pc}
    2d3c:	4630      	mov	r0, r6
    2d3e:	e8bd 81f0 	ldmia.w	sp!, {r4, r5, r6, r7, r8, pc}
    2d42:	bf00      	nop
    2d44:	10000a48 	.word	0x10000a48

00002d48 <__mriBuffer_WriteUIntegerAsHex>:
    2d48:	e92d 41f0 	stmdb	sp!, {r4, r5, r6, r7, r8, lr}
    2d4c:	4680      	mov	r8, r0
    2d4e:	460e      	mov	r6, r1
    2d50:	b119      	cbz	r1, 2d5a <__mriBuffer_WriteUIntegerAsHex+0x12>
    2d52:	f04f 437f 	mov.w	r3, #4278190080	; 0xff000000
    2d56:	2400      	movs	r4, #0
    2d58:	e008      	b.n	2d6c <__mriBuffer_WriteUIntegerAsHex+0x24>
    2d5a:	e8bd 41f0 	ldmia.w	sp!, {r4, r5, r6, r7, r8, lr}
    2d5e:	f7ff bf55 	b.w	2c0c <__mriBuffer_WriteByteAsHex>
    2d62:	3401      	adds	r4, #1
    2d64:	2c04      	cmp	r4, #4
    2d66:	ea4f 2313 	mov.w	r3, r3, lsr #8
    2d6a:	d001      	beq.n	2d70 <__mriBuffer_WriteUIntegerAsHex+0x28>
    2d6c:	4233      	tst	r3, r6
    2d6e:	d0f8      	beq.n	2d62 <__mriBuffer_WriteUIntegerAsHex+0x1a>
    2d70:	f1c4 0403 	rsb	r4, r4, #3
    2d74:	00e5      	lsls	r5, r4, #3
    2d76:	1c63      	adds	r3, r4, #1
    2d78:	d00d      	beq.n	2d96 <__mriBuffer_WriteUIntegerAsHex+0x4e>
    2d7a:	fa26 f105 	lsr.w	r1, r6, r5
    2d7e:	4f07      	ldr	r7, [pc, #28]	; (2d9c <__mriBuffer_WriteUIntegerAsHex+0x54>)
    2d80:	2300      	movs	r3, #0
    2d82:	4640      	mov	r0, r8
    2d84:	b2c9      	uxtb	r1, r1
    2d86:	603b      	str	r3, [r7, #0]
    2d88:	f7ff ff40 	bl	2c0c <__mriBuffer_WriteByteAsHex>
    2d8c:	683b      	ldr	r3, [r7, #0]
    2d8e:	3c01      	subs	r4, #1
    2d90:	3d08      	subs	r5, #8
    2d92:	2b00      	cmp	r3, #0
    2d94:	d0ef      	beq.n	2d76 <__mriBuffer_WriteUIntegerAsHex+0x2e>
    2d96:	e8bd 81f0 	ldmia.w	sp!, {r4, r5, r6, r7, r8, pc}
    2d9a:	bf00      	nop
    2d9c:	10000a48 	.word	0x10000a48

00002da0 <__mriBuffer_WriteIntegerAsHex>:
    2da0:	4b0a      	ldr	r3, [pc, #40]	; (2dcc <__mriBuffer_WriteIntegerAsHex+0x2c>)
    2da2:	b570      	push	{r4, r5, r6, lr}
    2da4:	2200      	movs	r2, #0
    2da6:	1e0c      	subs	r4, r1, #0
    2da8:	4606      	mov	r6, r0
    2daa:	601a      	str	r2, [r3, #0]
    2dac:	461d      	mov	r5, r3
    2dae:	da03      	bge.n	2db8 <__mriBuffer_WriteIntegerAsHex+0x18>
    2db0:	212d      	movs	r1, #45	; 0x2d
    2db2:	4264      	negs	r4, r4
    2db4:	f7ff ff04 	bl	2bc0 <__mriBuffer_WriteChar>
    2db8:	682b      	ldr	r3, [r5, #0]
    2dba:	b92b      	cbnz	r3, 2dc8 <__mriBuffer_WriteIntegerAsHex+0x28>
    2dbc:	4630      	mov	r0, r6
    2dbe:	4621      	mov	r1, r4
    2dc0:	e8bd 4070 	ldmia.w	sp!, {r4, r5, r6, lr}
    2dc4:	f7ff bfc0 	b.w	2d48 <__mriBuffer_WriteUIntegerAsHex>
    2dc8:	bd70      	pop	{r4, r5, r6, pc}
    2dca:	bf00      	nop
    2dcc:	10000a48 	.word	0x10000a48

00002dd0 <__mriBuffer_IsNextCharEqualTo>:
    2dd0:	b570      	push	{r4, r5, r6, lr}
    2dd2:	4d0b      	ldr	r5, [pc, #44]	; (2e00 <__mriBuffer_IsNextCharEqualTo+0x30>)
    2dd4:	2300      	movs	r3, #0
    2dd6:	602b      	str	r3, [r5, #0]
    2dd8:	4604      	mov	r4, r0
    2dda:	460e      	mov	r6, r1
    2ddc:	f7ff fecc 	bl	2b78 <__mriBuffer_BytesLeft>
    2de0:	462b      	mov	r3, r5
    2de2:	b908      	cbnz	r0, 2de8 <__mriBuffer_IsNextCharEqualTo+0x18>
    2de4:	2201      	movs	r2, #1
    2de6:	602a      	str	r2, [r5, #0]
    2de8:	6818      	ldr	r0, [r3, #0]
    2dea:	b938      	cbnz	r0, 2dfc <__mriBuffer_IsNextCharEqualTo+0x2c>
    2dec:	68a3      	ldr	r3, [r4, #8]
    2dee:	781a      	ldrb	r2, [r3, #0]
    2df0:	42b2      	cmp	r2, r6
    2df2:	d104      	bne.n	2dfe <__mriBuffer_IsNextCharEqualTo+0x2e>
    2df4:	3301      	adds	r3, #1
    2df6:	60a3      	str	r3, [r4, #8]
    2df8:	2001      	movs	r0, #1
    2dfa:	bd70      	pop	{r4, r5, r6, pc}
    2dfc:	2000      	movs	r0, #0
    2dfe:	bd70      	pop	{r4, r5, r6, pc}
    2e00:	10000a48 	.word	0x10000a48

00002e04 <__mriBuffer_ReadIntegerAsHex>:
    2e04:	b5f8      	push	{r3, r4, r5, r6, r7, lr}
    2e06:	4c12      	ldr	r4, [pc, #72]	; (2e50 <__mriBuffer_ReadIntegerAsHex+0x4c>)
    2e08:	2500      	movs	r5, #0
    2e0a:	212d      	movs	r1, #45	; 0x2d
    2e0c:	4607      	mov	r7, r0
    2e0e:	6025      	str	r5, [r4, #0]
    2e10:	f7ff ffde 	bl	2dd0 <__mriBuffer_IsNextCharEqualTo>
    2e14:	6823      	ldr	r3, [r4, #0]
    2e16:	4606      	mov	r6, r0
    2e18:	b91b      	cbnz	r3, 2e22 <__mriBuffer_ReadIntegerAsHex+0x1e>
    2e1a:	4638      	mov	r0, r7
    2e1c:	f7ff ff60 	bl	2ce0 <__mriBuffer_ReadUIntegerAsHex>
    2e20:	e000      	b.n	2e24 <__mriBuffer_ReadIntegerAsHex+0x20>
    2e22:	4628      	mov	r0, r5
    2e24:	6822      	ldr	r2, [r4, #0]
    2e26:	4b0a      	ldr	r3, [pc, #40]	; (2e50 <__mriBuffer_ReadIntegerAsHex+0x4c>)
    2e28:	b982      	cbnz	r2, 2e4c <__mriBuffer_ReadIntegerAsHex+0x48>
    2e2a:	b936      	cbnz	r6, 2e3a <__mriBuffer_ReadIntegerAsHex+0x36>
    2e2c:	2800      	cmp	r0, #0
    2e2e:	da0e      	bge.n	2e4e <__mriBuffer_ReadIntegerAsHex+0x4a>
    2e30:	2203      	movs	r2, #3
    2e32:	601a      	str	r2, [r3, #0]
    2e34:	f06f 4000 	mvn.w	r0, #2147483648	; 0x80000000
    2e38:	bdf8      	pop	{r3, r4, r5, r6, r7, pc}
    2e3a:	f1b0 4f00 	cmp.w	r0, #2147483648	; 0x80000000
    2e3e:	bf83      	ittte	hi
    2e40:	2203      	movhi	r2, #3
    2e42:	f04f 4000 	movhi.w	r0, #2147483648	; 0x80000000
    2e46:	601a      	strhi	r2, [r3, #0]
    2e48:	4240      	negls	r0, r0
    2e4a:	bdf8      	pop	{r3, r4, r5, r6, r7, pc}
    2e4c:	2000      	movs	r0, #0
    2e4e:	bdf8      	pop	{r3, r4, r5, r6, r7, pc}
    2e50:	10000a48 	.word	0x10000a48

00002e54 <__mriBuffer_MatchesString>:
    2e54:	e92d 43f8 	stmdb	sp!, {r3, r4, r5, r6, r7, r8, r9, lr}
    2e58:	4d15      	ldr	r5, [pc, #84]	; (2eb0 <__mriBuffer_MatchesString+0x5c>)
    2e5a:	2300      	movs	r3, #0
    2e5c:	4614      	mov	r4, r2
    2e5e:	602b      	str	r3, [r5, #0]
    2e60:	4606      	mov	r6, r0
    2e62:	4689      	mov	r9, r1
    2e64:	f7ff fe88 	bl	2b78 <__mriBuffer_BytesLeft>
    2e68:	42a0      	cmp	r0, r4
    2e6a:	bf3c      	itt	cc
    2e6c:	2301      	movcc	r3, #1
    2e6e:	602b      	strcc	r3, [r5, #0]
    2e70:	f8d5 8000 	ldr.w	r8, [r5]
    2e74:	f1b8 0f00 	cmp.w	r8, #0
    2e78:	d110      	bne.n	2e9c <__mriBuffer_MatchesString+0x48>
    2e7a:	68b7      	ldr	r7, [r6, #8]
    2e7c:	4649      	mov	r1, r9
    2e7e:	4638      	mov	r0, r7
    2e80:	4622      	mov	r2, r4
    2e82:	f005 fb50 	bl	8526 <strncmp>
    2e86:	4605      	mov	r5, r0
    2e88:	b950      	cbnz	r0, 2ea0 <__mriBuffer_MatchesString+0x4c>
    2e8a:	4630      	mov	r0, r6
    2e8c:	f7ff fe74 	bl	2b78 <__mriBuffer_BytesLeft>
    2e90:	42a0      	cmp	r0, r4
    2e92:	d007      	beq.n	2ea4 <__mriBuffer_MatchesString+0x50>
    2e94:	5d3b      	ldrb	r3, [r7, r4]
    2e96:	2b3a      	cmp	r3, #58	; 0x3a
    2e98:	d107      	bne.n	2eaa <__mriBuffer_MatchesString+0x56>
    2e9a:	e003      	b.n	2ea4 <__mriBuffer_MatchesString+0x50>
    2e9c:	2500      	movs	r5, #0
    2e9e:	e004      	b.n	2eaa <__mriBuffer_MatchesString+0x56>
    2ea0:	4645      	mov	r5, r8
    2ea2:	e002      	b.n	2eaa <__mriBuffer_MatchesString+0x56>
    2ea4:	443c      	add	r4, r7
    2ea6:	60b4      	str	r4, [r6, #8]
    2ea8:	2501      	movs	r5, #1
    2eaa:	4628      	mov	r0, r5
    2eac:	e8bd 83f8 	ldmia.w	sp!, {r3, r4, r5, r6, r7, r8, r9, pc}
    2eb0:	10000a48 	.word	0x10000a48

00002eb4 <handleBreakpointWatchpointException>:
    2eb4:	4b03      	ldr	r3, [pc, #12]	; (2ec4 <handleBreakpointWatchpointException+0x10>)
    2eb6:	681b      	ldr	r3, [r3, #0]
    2eb8:	2b04      	cmp	r3, #4
    2eba:	bf0c      	ite	eq
    2ebc:	4802      	ldreq	r0, [pc, #8]	; (2ec8 <handleBreakpointWatchpointException+0x14>)
    2ebe:	4803      	ldrne	r0, [pc, #12]	; (2ecc <handleBreakpointWatchpointException+0x18>)
    2ec0:	f7fe b9be 	b.w	1240 <__mriCore_PrepareStringResponse>
    2ec4:	10000a48 	.word	0x10000a48
    2ec8:	0000d335 	.word	0x0000d335
    2ecc:	0000d339 	.word	0x0000d339

00002ed0 <parseBreakpointWatchpointCommandArguments>:
    2ed0:	b570      	push	{r4, r5, r6, lr}
    2ed2:	4606      	mov	r6, r0
    2ed4:	f7fe fa16 	bl	1304 <__mriCore_GetBuffer>
    2ed8:	4c0f      	ldr	r4, [pc, #60]	; (2f18 <parseBreakpointWatchpointCommandArguments+0x48>)
    2eda:	2300      	movs	r3, #0
    2edc:	6023      	str	r3, [r4, #0]
    2ede:	4605      	mov	r5, r0
    2ee0:	f7ff fe80 	bl	2be4 <__mriBuffer_ReadChar>
    2ee4:	6823      	ldr	r3, [r4, #0]
    2ee6:	7230      	strb	r0, [r6, #8]
    2ee8:	b9ab      	cbnz	r3, 2f16 <parseBreakpointWatchpointCommandArguments+0x46>
    2eea:	4628      	mov	r0, r5
    2eec:	212c      	movs	r1, #44	; 0x2c
    2eee:	f000 f8bf 	bl	3070 <__mriCmd_ThrowIfNextCharIsNotEqualTo>
    2ef2:	6823      	ldr	r3, [r4, #0]
    2ef4:	b97b      	cbnz	r3, 2f16 <parseBreakpointWatchpointCommandArguments+0x46>
    2ef6:	4628      	mov	r0, r5
    2ef8:	f000 f8ac 	bl	3054 <__mriCmd_ReadUIntegerArgument>
    2efc:	6823      	ldr	r3, [r4, #0]
    2efe:	6030      	str	r0, [r6, #0]
    2f00:	b94b      	cbnz	r3, 2f16 <parseBreakpointWatchpointCommandArguments+0x46>
    2f02:	4628      	mov	r0, r5
    2f04:	212c      	movs	r1, #44	; 0x2c
    2f06:	f000 f8b3 	bl	3070 <__mriCmd_ThrowIfNextCharIsNotEqualTo>
    2f0a:	6823      	ldr	r3, [r4, #0]
    2f0c:	b91b      	cbnz	r3, 2f16 <parseBreakpointWatchpointCommandArguments+0x46>
    2f0e:	4628      	mov	r0, r5
    2f10:	f000 f8a0 	bl	3054 <__mriCmd_ReadUIntegerArgument>
    2f14:	6070      	str	r0, [r6, #4]
    2f16:	bd70      	pop	{r4, r5, r6, pc}
    2f18:	10000a48 	.word	0x10000a48

00002f1c <handleWatchpointSetCommand>:
    2f1c:	b510      	push	{r4, lr}
    2f1e:	4c09      	ldr	r4, [pc, #36]	; (2f44 <handleWatchpointSetCommand+0x28>)
    2f20:	2300      	movs	r3, #0
    2f22:	4602      	mov	r2, r0
    2f24:	c903      	ldmia	r1, {r0, r1}
    2f26:	6023      	str	r3, [r4, #0]
    2f28:	f7ff fa58 	bl	23dc <__mriPlatform_SetHardwareWatchpoint>
    2f2c:	6823      	ldr	r3, [r4, #0]
    2f2e:	b11b      	cbz	r3, 2f38 <handleWatchpointSetCommand+0x1c>
    2f30:	e8bd 4010 	ldmia.w	sp!, {r4, lr}
    2f34:	f7ff bfbe 	b.w	2eb4 <handleBreakpointWatchpointException>
    2f38:	4803      	ldr	r0, [pc, #12]	; (2f48 <handleWatchpointSetCommand+0x2c>)
    2f3a:	e8bd 4010 	ldmia.w	sp!, {r4, lr}
    2f3e:	f7fe b97f 	b.w	1240 <__mriCore_PrepareStringResponse>
    2f42:	bf00      	nop
    2f44:	10000a48 	.word	0x10000a48
    2f48:	0000d33d 	.word	0x0000d33d

00002f4c <handleWatchpointRemoveCommand>:
    2f4c:	b510      	push	{r4, lr}
    2f4e:	4c09      	ldr	r4, [pc, #36]	; (2f74 <handleWatchpointRemoveCommand+0x28>)
    2f50:	2300      	movs	r3, #0
    2f52:	4602      	mov	r2, r0
    2f54:	c903      	ldmia	r1, {r0, r1}
    2f56:	6023      	str	r3, [r4, #0]
    2f58:	f7ff fa8a 	bl	2470 <__mriPlatform_ClearHardwareWatchpoint>
    2f5c:	6823      	ldr	r3, [r4, #0]
    2f5e:	b11b      	cbz	r3, 2f68 <handleWatchpointRemoveCommand+0x1c>
    2f60:	e8bd 4010 	ldmia.w	sp!, {r4, lr}
    2f64:	f7ff bfa6 	b.w	2eb4 <handleBreakpointWatchpointException>
    2f68:	4803      	ldr	r0, [pc, #12]	; (2f78 <handleWatchpointRemoveCommand+0x2c>)
    2f6a:	e8bd 4010 	ldmia.w	sp!, {r4, lr}
    2f6e:	f7fe b967 	b.w	1240 <__mriCore_PrepareStringResponse>
    2f72:	bf00      	nop
    2f74:	10000a48 	.word	0x10000a48
    2f78:	0000d33d 	.word	0x0000d33d

00002f7c <__mriCmd_HandleBreakpointWatchpointSetCommand>:
    2f7c:	b51f      	push	{r0, r1, r2, r3, r4, lr}
    2f7e:	4c16      	ldr	r4, [pc, #88]	; (2fd8 <__mriCmd_HandleBreakpointWatchpointSetCommand+0x5c>)
    2f80:	2300      	movs	r3, #0
    2f82:	a801      	add	r0, sp, #4
    2f84:	6023      	str	r3, [r4, #0]
    2f86:	f7ff ffa3 	bl	2ed0 <parseBreakpointWatchpointCommandArguments>
    2f8a:	6823      	ldr	r3, [r4, #0]
    2f8c:	b10b      	cbz	r3, 2f92 <__mriCmd_HandleBreakpointWatchpointSetCommand+0x16>
    2f8e:	4813      	ldr	r0, [pc, #76]	; (2fdc <__mriCmd_HandleBreakpointWatchpointSetCommand+0x60>)
    2f90:	e01d      	b.n	2fce <__mriCmd_HandleBreakpointWatchpointSetCommand+0x52>
    2f92:	f89d 300c 	ldrb.w	r3, [sp, #12]
    2f96:	3b31      	subs	r3, #49	; 0x31
    2f98:	2b03      	cmp	r3, #3
    2f9a:	d817      	bhi.n	2fcc <__mriCmd_HandleBreakpointWatchpointSetCommand+0x50>
    2f9c:	e8df f003 	tbb	[pc, r3]
    2fa0:	110f0d02 	.word	0x110f0d02
    2fa4:	9801      	ldr	r0, [sp, #4]
    2fa6:	9902      	ldr	r1, [sp, #8]
    2fa8:	f7ff f8da 	bl	2160 <__mriPlatform_SetHardwareBreakpoint>
    2fac:	6823      	ldr	r3, [r4, #0]
    2fae:	b113      	cbz	r3, 2fb6 <__mriCmd_HandleBreakpointWatchpointSetCommand+0x3a>
    2fb0:	f7ff ff80 	bl	2eb4 <handleBreakpointWatchpointException>
    2fb4:	e00d      	b.n	2fd2 <__mriCmd_HandleBreakpointWatchpointSetCommand+0x56>
    2fb6:	480a      	ldr	r0, [pc, #40]	; (2fe0 <__mriCmd_HandleBreakpointWatchpointSetCommand+0x64>)
    2fb8:	e009      	b.n	2fce <__mriCmd_HandleBreakpointWatchpointSetCommand+0x52>
    2fba:	2000      	movs	r0, #0
    2fbc:	e002      	b.n	2fc4 <__mriCmd_HandleBreakpointWatchpointSetCommand+0x48>
    2fbe:	2001      	movs	r0, #1
    2fc0:	e000      	b.n	2fc4 <__mriCmd_HandleBreakpointWatchpointSetCommand+0x48>
    2fc2:	2002      	movs	r0, #2
    2fc4:	a901      	add	r1, sp, #4
    2fc6:	f7ff ffa9 	bl	2f1c <handleWatchpointSetCommand>
    2fca:	e002      	b.n	2fd2 <__mriCmd_HandleBreakpointWatchpointSetCommand+0x56>
    2fcc:	4805      	ldr	r0, [pc, #20]	; (2fe4 <__mriCmd_HandleBreakpointWatchpointSetCommand+0x68>)
    2fce:	f7fe f937 	bl	1240 <__mriCore_PrepareStringResponse>
    2fd2:	2000      	movs	r0, #0
    2fd4:	b004      	add	sp, #16
    2fd6:	bd10      	pop	{r4, pc}
    2fd8:	10000a48 	.word	0x10000a48
    2fdc:	0000d335 	.word	0x0000d335
    2fe0:	0000d33d 	.word	0x0000d33d
    2fe4:	0000ccd2 	.word	0x0000ccd2

00002fe8 <__mriCmd_HandleBreakpointWatchpointRemoveCommand>:
    2fe8:	b51f      	push	{r0, r1, r2, r3, r4, lr}
    2fea:	4c16      	ldr	r4, [pc, #88]	; (3044 <__mriCmd_HandleBreakpointWatchpointRemoveCommand+0x5c>)
    2fec:	2300      	movs	r3, #0
    2fee:	a801      	add	r0, sp, #4
    2ff0:	6023      	str	r3, [r4, #0]
    2ff2:	f7ff ff6d 	bl	2ed0 <parseBreakpointWatchpointCommandArguments>
    2ff6:	6823      	ldr	r3, [r4, #0]
    2ff8:	b10b      	cbz	r3, 2ffe <__mriCmd_HandleBreakpointWatchpointRemoveCommand+0x16>
    2ffa:	4813      	ldr	r0, [pc, #76]	; (3048 <__mriCmd_HandleBreakpointWatchpointRemoveCommand+0x60>)
    2ffc:	e01d      	b.n	303a <__mriCmd_HandleBreakpointWatchpointRemoveCommand+0x52>
    2ffe:	f89d 300c 	ldrb.w	r3, [sp, #12]
    3002:	3b31      	subs	r3, #49	; 0x31
    3004:	2b03      	cmp	r3, #3
    3006:	d817      	bhi.n	3038 <__mriCmd_HandleBreakpointWatchpointRemoveCommand+0x50>
    3008:	e8df f003 	tbb	[pc, r3]
    300c:	110f0d02 	.word	0x110f0d02
    3010:	9801      	ldr	r0, [sp, #4]
    3012:	9902      	ldr	r1, [sp, #8]
    3014:	f7ff f946 	bl	22a4 <__mriPlatform_ClearHardwareBreakpoint>
    3018:	6823      	ldr	r3, [r4, #0]
    301a:	b113      	cbz	r3, 3022 <__mriCmd_HandleBreakpointWatchpointRemoveCommand+0x3a>
    301c:	f7ff ff4a 	bl	2eb4 <handleBreakpointWatchpointException>
    3020:	e00d      	b.n	303e <__mriCmd_HandleBreakpointWatchpointRemoveCommand+0x56>
    3022:	480a      	ldr	r0, [pc, #40]	; (304c <__mriCmd_HandleBreakpointWatchpointRemoveCommand+0x64>)
    3024:	e009      	b.n	303a <__mriCmd_HandleBreakpointWatchpointRemoveCommand+0x52>
    3026:	2000      	movs	r0, #0
    3028:	e002      	b.n	3030 <__mriCmd_HandleBreakpointWatchpointRemoveCommand+0x48>
    302a:	2001      	movs	r0, #1
    302c:	e000      	b.n	3030 <__mriCmd_HandleBreakpointWatchpointRemoveCommand+0x48>
    302e:	2002      	movs	r0, #2
    3030:	a901      	add	r1, sp, #4
    3032:	f7ff ff8b 	bl	2f4c <handleWatchpointRemoveCommand>
    3036:	e002      	b.n	303e <__mriCmd_HandleBreakpointWatchpointRemoveCommand+0x56>
    3038:	4805      	ldr	r0, [pc, #20]	; (3050 <__mriCmd_HandleBreakpointWatchpointRemoveCommand+0x68>)
    303a:	f7fe f901 	bl	1240 <__mriCore_PrepareStringResponse>
    303e:	2000      	movs	r0, #0
    3040:	b004      	add	sp, #16
    3042:	bd10      	pop	{r4, pc}
    3044:	10000a48 	.word	0x10000a48
    3048:	0000d335 	.word	0x0000d335
    304c:	0000d33d 	.word	0x0000d33d
    3050:	0000ccd2 	.word	0x0000ccd2

00003054 <__mriCmd_ReadUIntegerArgument>:
    3054:	b510      	push	{r4, lr}
    3056:	4c05      	ldr	r4, [pc, #20]	; (306c <__mriCmd_ReadUIntegerArgument+0x18>)
    3058:	2300      	movs	r3, #0
    305a:	6023      	str	r3, [r4, #0]
    305c:	f7ff fe40 	bl	2ce0 <__mriBuffer_ReadUIntegerAsHex>
    3060:	6823      	ldr	r3, [r4, #0]
    3062:	2b00      	cmp	r3, #0
    3064:	bf18      	it	ne
    3066:	2000      	movne	r0, #0
    3068:	bd10      	pop	{r4, pc}
    306a:	bf00      	nop
    306c:	10000a48 	.word	0x10000a48

00003070 <__mriCmd_ThrowIfNextCharIsNotEqualTo>:
    3070:	b508      	push	{r3, lr}
    3072:	f7ff fead 	bl	2dd0 <__mriBuffer_IsNextCharEqualTo>
    3076:	b928      	cbnz	r0, 3084 <__mriCmd_ThrowIfNextCharIsNotEqualTo+0x14>
    3078:	4b03      	ldr	r3, [pc, #12]	; (3088 <__mriCmd_ThrowIfNextCharIsNotEqualTo+0x18>)
    307a:	681a      	ldr	r2, [r3, #0]
    307c:	2a04      	cmp	r2, #4
    307e:	bfb8      	it	lt
    3080:	2204      	movlt	r2, #4
    3082:	601a      	str	r2, [r3, #0]
    3084:	bd08      	pop	{r3, pc}
    3086:	bf00      	nop
    3088:	10000a48 	.word	0x10000a48

0000308c <__mriCmd_ReadAddressAndLengthArguments>:
    308c:	b570      	push	{r4, r5, r6, lr}
    308e:	4c0a      	ldr	r4, [pc, #40]	; (30b8 <__mriCmd_ReadAddressAndLengthArguments+0x2c>)
    3090:	2300      	movs	r3, #0
    3092:	460d      	mov	r5, r1
    3094:	6023      	str	r3, [r4, #0]
    3096:	4606      	mov	r6, r0
    3098:	f7ff ffdc 	bl	3054 <__mriCmd_ReadUIntegerArgument>
    309c:	6823      	ldr	r3, [r4, #0]
    309e:	6028      	str	r0, [r5, #0]
    30a0:	b94b      	cbnz	r3, 30b6 <__mriCmd_ReadAddressAndLengthArguments+0x2a>
    30a2:	4630      	mov	r0, r6
    30a4:	212c      	movs	r1, #44	; 0x2c
    30a6:	f7ff ffe3 	bl	3070 <__mriCmd_ThrowIfNextCharIsNotEqualTo>
    30aa:	6823      	ldr	r3, [r4, #0]
    30ac:	b91b      	cbnz	r3, 30b6 <__mriCmd_ReadAddressAndLengthArguments+0x2a>
    30ae:	4630      	mov	r0, r6
    30b0:	f7ff ffd0 	bl	3054 <__mriCmd_ReadUIntegerArgument>
    30b4:	6068      	str	r0, [r5, #4]
    30b6:	bd70      	pop	{r4, r5, r6, pc}
    30b8:	10000a48 	.word	0x10000a48

000030bc <__mriCmd_ReadAddressAndLengthArgumentsWithColon>:
    30bc:	b538      	push	{r3, r4, r5, lr}
    30be:	4c07      	ldr	r4, [pc, #28]	; (30dc <__mriCmd_ReadAddressAndLengthArgumentsWithColon+0x20>)
    30c0:	2300      	movs	r3, #0
    30c2:	6023      	str	r3, [r4, #0]
    30c4:	4605      	mov	r5, r0
    30c6:	f7ff ffe1 	bl	308c <__mriCmd_ReadAddressAndLengthArguments>
    30ca:	6823      	ldr	r3, [r4, #0]
    30cc:	b92b      	cbnz	r3, 30da <__mriCmd_ReadAddressAndLengthArgumentsWithColon+0x1e>
    30ce:	4628      	mov	r0, r5
    30d0:	213a      	movs	r1, #58	; 0x3a
    30d2:	e8bd 4038 	ldmia.w	sp!, {r3, r4, r5, lr}
    30d6:	f7ff bfcb 	b.w	3070 <__mriCmd_ThrowIfNextCharIsNotEqualTo>
    30da:	bd38      	pop	{r3, r4, r5, pc}
    30dc:	10000a48 	.word	0x10000a48

000030e0 <__mriCmd_HandleContinueCommand>:
    30e0:	b570      	push	{r4, r5, r6, lr}
    30e2:	f7fe f90f 	bl	1304 <__mriCore_GetBuffer>
    30e6:	4606      	mov	r6, r0
    30e8:	f7fe ff62 	bl	1fb0 <__mriPlatform_WasProgramCounterModifiedByUser>
    30ec:	b918      	cbnz	r0, 30f6 <__mriCmd_HandleContinueCommand+0x16>
    30ee:	f7fe ffd9 	bl	20a4 <__mriPlatform_TypeOfCurrentInstruction>
    30f2:	2803      	cmp	r0, #3
    30f4:	d012      	beq.n	311c <__mriCmd_HandleContinueCommand+0x3c>
    30f6:	2500      	movs	r5, #0
    30f8:	4c0a      	ldr	r4, [pc, #40]	; (3124 <__mriCmd_HandleContinueCommand+0x44>)
    30fa:	2300      	movs	r3, #0
    30fc:	4630      	mov	r0, r6
    30fe:	6023      	str	r3, [r4, #0]
    3100:	f7ff ffa8 	bl	3054 <__mriCmd_ReadUIntegerArgument>
    3104:	6823      	ldr	r3, [r4, #0]
    3106:	b90b      	cbnz	r3, 310c <__mriCmd_HandleContinueCommand+0x2c>
    3108:	f7fe ff4c 	bl	1fa4 <__mriPlatform_SetProgramCounter>
    310c:	6823      	ldr	r3, [r4, #0]
    310e:	b113      	cbz	r3, 3116 <__mriCmd_HandleContinueCommand+0x36>
    3110:	4b04      	ldr	r3, [pc, #16]	; (3124 <__mriCmd_HandleContinueCommand+0x44>)
    3112:	2200      	movs	r2, #0
    3114:	601a      	str	r2, [r3, #0]
    3116:	f045 0003 	orr.w	r0, r5, #3
    311a:	bd70      	pop	{r4, r5, r6, pc}
    311c:	f7fe ff9e 	bl	205c <__mriPlatform_AdvanceProgramCounterToNextInstruction>
    3120:	2504      	movs	r5, #4
    3122:	e7e9      	b.n	30f8 <__mriCmd_HandleContinueCommand+0x18>
    3124:	10000a48 	.word	0x10000a48

00003128 <processGdbFileResponseCommands>:
    3128:	b508      	push	{r3, lr}
    312a:	f7fe f913 	bl	1354 <__mriCore_GdbCommandHandlingLoop>
    312e:	f7fe f893 	bl	1258 <__mriCore_WasControlCFlagSentFromGdb>
    3132:	b148      	cbz	r0, 3148 <processGdbFileResponseCommands+0x20>
    3134:	f7fe f8b2 	bl	129c <__mriCore_WasSemihostCallCancelledByGdb>
    3138:	b908      	cbnz	r0, 313e <processGdbFileResponseCommands+0x16>
    313a:	f7fe f8b7 	bl	12ac <__mriCore_FlagSemihostCallAsHandled>
    313e:	2002      	movs	r0, #2
    3140:	f7fe f8c8 	bl	12d4 <__mriCore_SetSignalValue>
    3144:	2000      	movs	r0, #0
    3146:	bd08      	pop	{r3, pc}
    3148:	f7fe f8b0 	bl	12ac <__mriCore_FlagSemihostCallAsHandled>
    314c:	2001      	movs	r0, #1
    314e:	bd08      	pop	{r3, pc}

00003150 <__mriIssueGdbFileOpenRequest>:
    3150:	b538      	push	{r3, r4, r5, lr}
    3152:	4605      	mov	r5, r0
    3154:	f7fe f8da 	bl	130c <__mriCore_GetInitializedBuffer>
    3158:	4912      	ldr	r1, [pc, #72]	; (31a4 <__mriIssueGdbFileOpenRequest+0x54>)
    315a:	4604      	mov	r4, r0
    315c:	f7ff fdb2 	bl	2cc4 <__mriBuffer_WriteString>
    3160:	4620      	mov	r0, r4
    3162:	6829      	ldr	r1, [r5, #0]
    3164:	f7ff fdf0 	bl	2d48 <__mriBuffer_WriteUIntegerAsHex>
    3168:	4620      	mov	r0, r4
    316a:	212f      	movs	r1, #47	; 0x2f
    316c:	f7ff fd28 	bl	2bc0 <__mriBuffer_WriteChar>
    3170:	4620      	mov	r0, r4
    3172:	6869      	ldr	r1, [r5, #4]
    3174:	f7ff fde8 	bl	2d48 <__mriBuffer_WriteUIntegerAsHex>
    3178:	4620      	mov	r0, r4
    317a:	212c      	movs	r1, #44	; 0x2c
    317c:	f7ff fd20 	bl	2bc0 <__mriBuffer_WriteChar>
    3180:	4620      	mov	r0, r4
    3182:	68a9      	ldr	r1, [r5, #8]
    3184:	f7ff fde0 	bl	2d48 <__mriBuffer_WriteUIntegerAsHex>
    3188:	4620      	mov	r0, r4
    318a:	212c      	movs	r1, #44	; 0x2c
    318c:	f7ff fd18 	bl	2bc0 <__mriBuffer_WriteChar>
    3190:	4620      	mov	r0, r4
    3192:	68e9      	ldr	r1, [r5, #12]
    3194:	f7ff fdd8 	bl	2d48 <__mriBuffer_WriteUIntegerAsHex>
    3198:	f7fe f8c0 	bl	131c <__mriCore_SendPacketToGdb>
    319c:	e8bd 4038 	ldmia.w	sp!, {r3, r4, r5, lr}
    31a0:	f7ff bfc2 	b.w	3128 <processGdbFileResponseCommands>
    31a4:	0000d34b 	.word	0x0000d34b

000031a8 <__mriIssueGdbFileWriteRequest>:
    31a8:	b538      	push	{r3, r4, r5, lr}
    31aa:	4605      	mov	r5, r0
    31ac:	f7fe f8ae 	bl	130c <__mriCore_GetInitializedBuffer>
    31b0:	490e      	ldr	r1, [pc, #56]	; (31ec <__mriIssueGdbFileWriteRequest+0x44>)
    31b2:	4604      	mov	r4, r0
    31b4:	f7ff fd86 	bl	2cc4 <__mriBuffer_WriteString>
    31b8:	4620      	mov	r0, r4
    31ba:	6829      	ldr	r1, [r5, #0]
    31bc:	f7ff fdc4 	bl	2d48 <__mriBuffer_WriteUIntegerAsHex>
    31c0:	4620      	mov	r0, r4
    31c2:	212c      	movs	r1, #44	; 0x2c
    31c4:	f7ff fcfc 	bl	2bc0 <__mriBuffer_WriteChar>
    31c8:	4620      	mov	r0, r4
    31ca:	6869      	ldr	r1, [r5, #4]
    31cc:	f7ff fdbc 	bl	2d48 <__mriBuffer_WriteUIntegerAsHex>
    31d0:	4620      	mov	r0, r4
    31d2:	212c      	movs	r1, #44	; 0x2c
    31d4:	f7ff fcf4 	bl	2bc0 <__mriBuffer_WriteChar>
    31d8:	4620      	mov	r0, r4
    31da:	68a9      	ldr	r1, [r5, #8]
    31dc:	f7ff fdb4 	bl	2d48 <__mriBuffer_WriteUIntegerAsHex>
    31e0:	f7fe f89c 	bl	131c <__mriCore_SendPacketToGdb>
    31e4:	e8bd 4038 	ldmia.w	sp!, {r3, r4, r5, lr}
    31e8:	f7ff bf9e 	b.w	3128 <processGdbFileResponseCommands>
    31ec:	0000d343 	.word	0x0000d343

000031f0 <__mriIssueGdbFileReadRequest>:
    31f0:	b538      	push	{r3, r4, r5, lr}
    31f2:	4605      	mov	r5, r0
    31f4:	f7fe f88a 	bl	130c <__mriCore_GetInitializedBuffer>
    31f8:	490e      	ldr	r1, [pc, #56]	; (3234 <__mriIssueGdbFileReadRequest+0x44>)
    31fa:	4604      	mov	r4, r0
    31fc:	f7ff fd62 	bl	2cc4 <__mriBuffer_WriteString>
    3200:	4620      	mov	r0, r4
    3202:	6829      	ldr	r1, [r5, #0]
    3204:	f7ff fda0 	bl	2d48 <__mriBuffer_WriteUIntegerAsHex>
    3208:	4620      	mov	r0, r4
    320a:	212c      	movs	r1, #44	; 0x2c
    320c:	f7ff fcd8 	bl	2bc0 <__mriBuffer_WriteChar>
    3210:	4620      	mov	r0, r4
    3212:	6869      	ldr	r1, [r5, #4]
    3214:	f7ff fd98 	bl	2d48 <__mriBuffer_WriteUIntegerAsHex>
    3218:	4620      	mov	r0, r4
    321a:	212c      	movs	r1, #44	; 0x2c
    321c:	f7ff fcd0 	bl	2bc0 <__mriBuffer_WriteChar>
    3220:	4620      	mov	r0, r4
    3222:	68a9      	ldr	r1, [r5, #8]
    3224:	f7ff fd90 	bl	2d48 <__mriBuffer_WriteUIntegerAsHex>
    3228:	f7fe f878 	bl	131c <__mriCore_SendPacketToGdb>
    322c:	e8bd 4038 	ldmia.w	sp!, {r3, r4, r5, lr}
    3230:	f7ff bf7a 	b.w	3128 <processGdbFileResponseCommands>
    3234:	0000d352 	.word	0x0000d352

00003238 <__mriIssueGdbFileCloseRequest>:
    3238:	b538      	push	{r3, r4, r5, lr}
    323a:	4604      	mov	r4, r0
    323c:	f7fe f866 	bl	130c <__mriCore_GetInitializedBuffer>
    3240:	4906      	ldr	r1, [pc, #24]	; (325c <__mriIssueGdbFileCloseRequest+0x24>)
    3242:	4605      	mov	r5, r0
    3244:	f7ff fd3e 	bl	2cc4 <__mriBuffer_WriteString>
    3248:	4628      	mov	r0, r5
    324a:	4621      	mov	r1, r4
    324c:	f7ff fd7c 	bl	2d48 <__mriBuffer_WriteUIntegerAsHex>
    3250:	f7fe f864 	bl	131c <__mriCore_SendPacketToGdb>
    3254:	e8bd 4038 	ldmia.w	sp!, {r3, r4, r5, lr}
    3258:	f7ff bf66 	b.w	3128 <processGdbFileResponseCommands>
    325c:	0000d372 	.word	0x0000d372

00003260 <__mriIssueGdbFileSeekRequest>:
    3260:	b538      	push	{r3, r4, r5, lr}
    3262:	4605      	mov	r5, r0
    3264:	f7fe f852 	bl	130c <__mriCore_GetInitializedBuffer>
    3268:	490e      	ldr	r1, [pc, #56]	; (32a4 <__mriIssueGdbFileSeekRequest+0x44>)
    326a:	4604      	mov	r4, r0
    326c:	f7ff fd2a 	bl	2cc4 <__mriBuffer_WriteString>
    3270:	4620      	mov	r0, r4
    3272:	6829      	ldr	r1, [r5, #0]
    3274:	f7ff fd68 	bl	2d48 <__mriBuffer_WriteUIntegerAsHex>
    3278:	4620      	mov	r0, r4
    327a:	212c      	movs	r1, #44	; 0x2c
    327c:	f7ff fca0 	bl	2bc0 <__mriBuffer_WriteChar>
    3280:	4620      	mov	r0, r4
    3282:	6869      	ldr	r1, [r5, #4]
    3284:	f7ff fd8c 	bl	2da0 <__mriBuffer_WriteIntegerAsHex>
    3288:	4620      	mov	r0, r4
    328a:	212c      	movs	r1, #44	; 0x2c
    328c:	f7ff fc98 	bl	2bc0 <__mriBuffer_WriteChar>
    3290:	4620      	mov	r0, r4
    3292:	68a9      	ldr	r1, [r5, #8]
    3294:	f7ff fd84 	bl	2da0 <__mriBuffer_WriteIntegerAsHex>
    3298:	f7fe f840 	bl	131c <__mriCore_SendPacketToGdb>
    329c:	e8bd 4038 	ldmia.w	sp!, {r3, r4, r5, lr}
    32a0:	f7ff bf42 	b.w	3128 <processGdbFileResponseCommands>
    32a4:	0000d359 	.word	0x0000d359

000032a8 <__mriIssueGdbFileFStatRequest>:
    32a8:	b570      	push	{r4, r5, r6, lr}
    32aa:	460d      	mov	r5, r1
    32ac:	4606      	mov	r6, r0
    32ae:	f7fe f82d 	bl	130c <__mriCore_GetInitializedBuffer>
    32b2:	490b      	ldr	r1, [pc, #44]	; (32e0 <__mriIssueGdbFileFStatRequest+0x38>)
    32b4:	4604      	mov	r4, r0
    32b6:	f7ff fd05 	bl	2cc4 <__mriBuffer_WriteString>
    32ba:	4620      	mov	r0, r4
    32bc:	4631      	mov	r1, r6
    32be:	f7ff fd43 	bl	2d48 <__mriBuffer_WriteUIntegerAsHex>
    32c2:	4620      	mov	r0, r4
    32c4:	212c      	movs	r1, #44	; 0x2c
    32c6:	f7ff fc7b 	bl	2bc0 <__mriBuffer_WriteChar>
    32ca:	4620      	mov	r0, r4
    32cc:	4629      	mov	r1, r5
    32ce:	f7ff fd3b 	bl	2d48 <__mriBuffer_WriteUIntegerAsHex>
    32d2:	f7fe f823 	bl	131c <__mriCore_SendPacketToGdb>
    32d6:	e8bd 4070 	ldmia.w	sp!, {r4, r5, r6, lr}
    32da:	f7ff bf25 	b.w	3128 <processGdbFileResponseCommands>
    32de:	bf00      	nop
    32e0:	0000d361 	.word	0x0000d361

000032e4 <__mriIssueGdbFileUnlinkRequest>:
    32e4:	b538      	push	{r3, r4, r5, lr}
    32e6:	4605      	mov	r5, r0
    32e8:	f7fe f810 	bl	130c <__mriCore_GetInitializedBuffer>
    32ec:	490a      	ldr	r1, [pc, #40]	; (3318 <__mriIssueGdbFileUnlinkRequest+0x34>)
    32ee:	4604      	mov	r4, r0
    32f0:	f7ff fce8 	bl	2cc4 <__mriBuffer_WriteString>
    32f4:	4620      	mov	r0, r4
    32f6:	6829      	ldr	r1, [r5, #0]
    32f8:	f7ff fd26 	bl	2d48 <__mriBuffer_WriteUIntegerAsHex>
    32fc:	4620      	mov	r0, r4
    32fe:	212f      	movs	r1, #47	; 0x2f
    3300:	f7ff fc5e 	bl	2bc0 <__mriBuffer_WriteChar>
    3304:	4620      	mov	r0, r4
    3306:	6869      	ldr	r1, [r5, #4]
    3308:	f7ff fd1e 	bl	2d48 <__mriBuffer_WriteUIntegerAsHex>
    330c:	f7fe f806 	bl	131c <__mriCore_SendPacketToGdb>
    3310:	e8bd 4038 	ldmia.w	sp!, {r3, r4, r5, lr}
    3314:	f7ff bf08 	b.w	3128 <processGdbFileResponseCommands>
    3318:	0000d369 	.word	0x0000d369

0000331c <__mriIssueGdbFileStatRequest>:
    331c:	b538      	push	{r3, r4, r5, lr}
    331e:	4605      	mov	r5, r0
    3320:	f7fd fff4 	bl	130c <__mriCore_GetInitializedBuffer>
    3324:	490e      	ldr	r1, [pc, #56]	; (3360 <__mriIssueGdbFileStatRequest+0x44>)
    3326:	4604      	mov	r4, r0
    3328:	f7ff fccc 	bl	2cc4 <__mriBuffer_WriteString>
    332c:	4620      	mov	r0, r4
    332e:	6829      	ldr	r1, [r5, #0]
    3330:	f7ff fd0a 	bl	2d48 <__mriBuffer_WriteUIntegerAsHex>
    3334:	4620      	mov	r0, r4
    3336:	212f      	movs	r1, #47	; 0x2f
    3338:	f7ff fc42 	bl	2bc0 <__mriBuffer_WriteChar>
    333c:	4620      	mov	r0, r4
    333e:	6869      	ldr	r1, [r5, #4]
    3340:	f7ff fd02 	bl	2d48 <__mriBuffer_WriteUIntegerAsHex>
    3344:	4620      	mov	r0, r4
    3346:	212c      	movs	r1, #44	; 0x2c
    3348:	f7ff fc3a 	bl	2bc0 <__mriBuffer_WriteChar>
    334c:	4620      	mov	r0, r4
    334e:	68a9      	ldr	r1, [r5, #8]
    3350:	f7ff fcfa 	bl	2d48 <__mriBuffer_WriteUIntegerAsHex>
    3354:	f7fd ffe2 	bl	131c <__mriCore_SendPacketToGdb>
    3358:	e8bd 4038 	ldmia.w	sp!, {r3, r4, r5, lr}
    335c:	f7ff bee4 	b.w	3128 <processGdbFileResponseCommands>
    3360:	0000d37a 	.word	0x0000d37a

00003364 <__mriIssueGdbFileRenameRequest>:
    3364:	b538      	push	{r3, r4, r5, lr}
    3366:	4605      	mov	r5, r0
    3368:	f7fd ffd0 	bl	130c <__mriCore_GetInitializedBuffer>
    336c:	4912      	ldr	r1, [pc, #72]	; (33b8 <__mriIssueGdbFileRenameRequest+0x54>)
    336e:	4604      	mov	r4, r0
    3370:	f7ff fca8 	bl	2cc4 <__mriBuffer_WriteString>
    3374:	4620      	mov	r0, r4
    3376:	6829      	ldr	r1, [r5, #0]
    3378:	f7ff fce6 	bl	2d48 <__mriBuffer_WriteUIntegerAsHex>
    337c:	4620      	mov	r0, r4
    337e:	212f      	movs	r1, #47	; 0x2f
    3380:	f7ff fc1e 	bl	2bc0 <__mriBuffer_WriteChar>
    3384:	4620      	mov	r0, r4
    3386:	6869      	ldr	r1, [r5, #4]
    3388:	f7ff fcde 	bl	2d48 <__mriBuffer_WriteUIntegerAsHex>
    338c:	4620      	mov	r0, r4
    338e:	212c      	movs	r1, #44	; 0x2c
    3390:	f7ff fc16 	bl	2bc0 <__mriBuffer_WriteChar>
    3394:	4620      	mov	r0, r4
    3396:	68a9      	ldr	r1, [r5, #8]
    3398:	f7ff fcd6 	bl	2d48 <__mriBuffer_WriteUIntegerAsHex>
    339c:	4620      	mov	r0, r4
    339e:	212f      	movs	r1, #47	; 0x2f
    33a0:	f7ff fc0e 	bl	2bc0 <__mriBuffer_WriteChar>
    33a4:	4620      	mov	r0, r4
    33a6:	68e9      	ldr	r1, [r5, #12]
    33a8:	f7ff fcce 	bl	2d48 <__mriBuffer_WriteUIntegerAsHex>
    33ac:	f7fd ffb6 	bl	131c <__mriCore_SendPacketToGdb>
    33b0:	e8bd 4038 	ldmia.w	sp!, {r3, r4, r5, lr}
    33b4:	f7ff beb8 	b.w	3128 <processGdbFileResponseCommands>
    33b8:	0000d381 	.word	0x0000d381

000033bc <__mriHandleFileIOCommand>:
    33bc:	b570      	push	{r4, r5, r6, lr}
    33be:	f7fd ffa1 	bl	1304 <__mriCore_GetBuffer>
    33c2:	4604      	mov	r4, r0
    33c4:	f7ff fd1e 	bl	2e04 <__mriBuffer_ReadIntegerAsHex>
    33c8:	212c      	movs	r1, #44	; 0x2c
    33ca:	4606      	mov	r6, r0
    33cc:	4620      	mov	r0, r4
    33ce:	f7ff fcff 	bl	2dd0 <__mriBuffer_IsNextCharEqualTo>
    33d2:	b150      	cbz	r0, 33ea <__mriHandleFileIOCommand+0x2e>
    33d4:	4620      	mov	r0, r4
    33d6:	f7ff fd15 	bl	2e04 <__mriBuffer_ReadIntegerAsHex>
    33da:	490b      	ldr	r1, [pc, #44]	; (3408 <__mriHandleFileIOCommand+0x4c>)
    33dc:	4605      	mov	r5, r0
    33de:	2202      	movs	r2, #2
    33e0:	4620      	mov	r0, r4
    33e2:	f7ff fd37 	bl	2e54 <__mriBuffer_MatchesString>
    33e6:	4604      	mov	r4, r0
