
LPC1768/EegTire.elf:     file format elf32-littlearm
architecture: arm, flags 0x00000112:
EXEC_P, HAS_SYMS, D_PAGED
start address 0x00004e99


Disassembly of section .text:

00000000 <__isr_vector>:
       0:	10008000 	.word	0x10008000
       4:	00004e99 	.word	0x00004e99
       8:	00004ec9 	.word	0x00004ec9
       c:	0000260b 	.word	0x0000260b
      10:	0000260f 	.word	0x0000260f
      14:	00002613 	.word	0x00002613
      18:	00002617 	.word	0x00002617
	...
      2c:	00004ed3 	.word	0x00004ed3
      30:	0000261b 	.word	0x0000261b
      34:	00000000 	.word	0x00000000
      38:	00004ed7 	.word	0x00004ed7
      3c:	00004ed9 	.word	0x00004ed9
      40:	00004edb 	.word	0x00004edb
      44:	00004edb 	.word	0x00004edb
      48:	00004edb 	.word	0x00004edb
      4c:	00004edb 	.word	0x00004edb
      50:	00004edb 	.word	0x00004edb
      54:	0000261f 	.word	0x0000261f
      58:	00002623 	.word	0x00002623
      5c:	00002627 	.word	0x00002627
      60:	0000262b 	.word	0x0000262b
      64:	00004edb 	.word	0x00004edb
      68:	00004edb 	.word	0x00004edb
      6c:	00004edb 	.word	0x00004edb
      70:	00004edb 	.word	0x00004edb
      74:	00004edb 	.word	0x00004edb
      78:	00004edb 	.word	0x00004edb
      7c:	00004edb 	.word	0x00004edb
      80:	00004edb 	.word	0x00004edb
      84:	00004edb 	.word	0x00004edb
      88:	00004edb 	.word	0x00004edb
      8c:	00004edb 	.word	0x00004edb
      90:	00004edb 	.word	0x00004edb
      94:	00004edb 	.word	0x00004edb
      98:	00004edb 	.word	0x00004edb
      9c:	00004edb 	.word	0x00004edb
      a0:	00004edb 	.word	0x00004edb
      a4:	00004edb 	.word	0x00004edb
      a8:	00004edb 	.word	0x00004edb
      ac:	00004edb 	.word	0x00004edb
      b0:	00004edb 	.word	0x00004edb
      b4:	00004edb 	.word	0x00004edb
      b8:	00004edb 	.word	0x00004edb
      bc:	00004edb 	.word	0x00004edb
      c0:	00004edb 	.word	0x00004edb
      c4:	00004edb 	.word	0x00004edb
      c8:	00004edb 	.word	0x00004edb

000000cc <__do_global_dtors_aux>:
      cc:	b510      	push	{r4, lr}
      ce:	4c05      	ldr	r4, [pc, #20]	; (e4 <__do_global_dtors_aux+0x18>)
      d0:	7823      	ldrb	r3, [r4, #0]
      d2:	b933      	cbnz	r3, e2 <__do_global_dtors_aux+0x16>
      d4:	4b04      	ldr	r3, [pc, #16]	; (e8 <__do_global_dtors_aux+0x1c>)
      d6:	b113      	cbz	r3, de <__do_global_dtors_aux+0x12>
      d8:	4804      	ldr	r0, [pc, #16]	; (ec <__do_global_dtors_aux+0x20>)
      da:	f3af 8000 	nop.w
      de:	2301      	movs	r3, #1
      e0:	7023      	strb	r3, [r4, #0]
      e2:	bd10      	pop	{r4, pc}
      e4:	10000188 	.word	0x10000188
      e8:	00000000 	.word	0x00000000
      ec:	0000e19c 	.word	0x0000e19c

000000f0 <frame_dummy>:
      f0:	b508      	push	{r3, lr}
      f2:	4b06      	ldr	r3, [pc, #24]	; (10c <frame_dummy+0x1c>)
      f4:	b11b      	cbz	r3, fe <frame_dummy+0xe>
      f6:	4806      	ldr	r0, [pc, #24]	; (110 <frame_dummy+0x20>)
      f8:	4906      	ldr	r1, [pc, #24]	; (114 <frame_dummy+0x24>)
      fa:	f3af 8000 	nop.w
      fe:	4806      	ldr	r0, [pc, #24]	; (118 <frame_dummy+0x28>)
     100:	6803      	ldr	r3, [r0, #0]
     102:	b113      	cbz	r3, 10a <frame_dummy+0x1a>
     104:	4b05      	ldr	r3, [pc, #20]	; (11c <frame_dummy+0x2c>)
     106:	b103      	cbz	r3, 10a <frame_dummy+0x1a>
     108:	4798      	blx	r3
     10a:	bd08      	pop	{r3, pc}
     10c:	00000000 	.word	0x00000000
     110:	0000e19c 	.word	0x0000e19c
     114:	1000018c 	.word	0x1000018c
     118:	10000188 	.word	0x10000188
     11c:	00000000 	.word	0x00000000

00000120 <NVIC_EnableIRQ>:
     120:	b082      	sub	sp, #8
     122:	4603      	mov	r3, r0
     124:	f88d 3007 	strb.w	r3, [sp, #7]
     128:	4b07      	ldr	r3, [pc, #28]	; (148 <NVIC_EnableIRQ+0x28>)
     12a:	f99d 2007 	ldrsb.w	r2, [sp, #7]
     12e:	0952      	lsrs	r2, r2, #5
     130:	f89d 1007 	ldrb.w	r1, [sp, #7]
     134:	f001 011f 	and.w	r1, r1, #31
     138:	2001      	movs	r0, #1
     13a:	fa00 f101 	lsl.w	r1, r0, r1
     13e:	f843 1022 	str.w	r1, [r3, r2, lsl #2]
     142:	b002      	add	sp, #8
     144:	4770      	bx	lr
     146:	bf00      	nop
     148:	e000e100 	.word	0xe000e100

0000014c <NVIC_DisableIRQ>:
     14c:	b082      	sub	sp, #8
     14e:	4603      	mov	r3, r0
     150:	f88d 3007 	strb.w	r3, [sp, #7]
     154:	4b07      	ldr	r3, [pc, #28]	; (174 <NVIC_DisableIRQ+0x28>)
     156:	f99d 2007 	ldrsb.w	r2, [sp, #7]
     15a:	0952      	lsrs	r2, r2, #5
     15c:	f89d 1007 	ldrb.w	r1, [sp, #7]
     160:	f001 011f 	and.w	r1, r1, #31
     164:	2001      	movs	r0, #1
     166:	fa00 f101 	lsl.w	r1, r0, r1
     16a:	3220      	adds	r2, #32
     16c:	f843 1022 	str.w	r1, [r3, r2, lsl #2]
     170:	b002      	add	sp, #8
     172:	4770      	bx	lr
     174:	e000e100 	.word	0xe000e100

00000178 <gpio_write>:
     178:	b082      	sub	sp, #8
     17a:	9001      	str	r0, [sp, #4]
     17c:	9100      	str	r1, [sp, #0]
     17e:	9b00      	ldr	r3, [sp, #0]
     180:	2b00      	cmp	r3, #0
     182:	d005      	beq.n	190 <gpio_write+0x18>
     184:	9b01      	ldr	r3, [sp, #4]
     186:	68db      	ldr	r3, [r3, #12]
     188:	9a01      	ldr	r2, [sp, #4]
     18a:	6852      	ldr	r2, [r2, #4]
     18c:	601a      	str	r2, [r3, #0]
     18e:	e004      	b.n	19a <gpio_write+0x22>
     190:	9b01      	ldr	r3, [sp, #4]
     192:	691b      	ldr	r3, [r3, #16]
     194:	9a01      	ldr	r2, [sp, #4]
     196:	6852      	ldr	r2, [r2, #4]
     198:	601a      	str	r2, [r3, #0]
     19a:	b002      	add	sp, #8
     19c:	4770      	bx	lr
     19e:	bf00      	nop

000001a0 <gpio_read>:
     1a0:	b082      	sub	sp, #8
     1a2:	9001      	str	r0, [sp, #4]
     1a4:	9b01      	ldr	r3, [sp, #4]
     1a6:	695b      	ldr	r3, [r3, #20]
     1a8:	681a      	ldr	r2, [r3, #0]
     1aa:	9b01      	ldr	r3, [sp, #4]
     1ac:	685b      	ldr	r3, [r3, #4]
     1ae:	4013      	ands	r3, r2
     1b0:	2b00      	cmp	r3, #0
     1b2:	d001      	beq.n	1b8 <gpio_read+0x18>
     1b4:	2301      	movs	r3, #1
     1b6:	e000      	b.n	1ba <gpio_read+0x1a>
     1b8:	2300      	movs	r3, #0
     1ba:	4618      	mov	r0, r3
     1bc:	b002      	add	sp, #8
     1be:	4770      	bx	lr

000001c0 <mbed::DigitalOut::DigitalOut(PinName)>:
     1c0:	b500      	push	{lr}
     1c2:	b083      	sub	sp, #12
     1c4:	9001      	str	r0, [sp, #4]
     1c6:	9100      	str	r1, [sp, #0]
     1c8:	9b01      	ldr	r3, [sp, #4]
     1ca:	2200      	movs	r2, #0
     1cc:	601a      	str	r2, [r3, #0]
     1ce:	9b01      	ldr	r3, [sp, #4]
     1d0:	2200      	movs	r2, #0
     1d2:	605a      	str	r2, [r3, #4]
     1d4:	9b01      	ldr	r3, [sp, #4]
     1d6:	2200      	movs	r2, #0
     1d8:	609a      	str	r2, [r3, #8]
     1da:	9b01      	ldr	r3, [sp, #4]
     1dc:	2200      	movs	r2, #0
     1de:	60da      	str	r2, [r3, #12]
     1e0:	9b01      	ldr	r3, [sp, #4]
     1e2:	2200      	movs	r2, #0
     1e4:	611a      	str	r2, [r3, #16]
     1e6:	9b01      	ldr	r3, [sp, #4]
     1e8:	2200      	movs	r2, #0
     1ea:	615a      	str	r2, [r3, #20]
     1ec:	9b01      	ldr	r3, [sp, #4]
     1ee:	4618      	mov	r0, r3
     1f0:	9900      	ldr	r1, [sp, #0]
     1f2:	f003 fed7 	bl	3fa4 <gpio_init_out>
     1f6:	9b01      	ldr	r3, [sp, #4]
     1f8:	4618      	mov	r0, r3
     1fa:	b003      	add	sp, #12
     1fc:	f85d fb04 	ldr.w	pc, [sp], #4

00000200 <mbed::DigitalOut::write(int)>:
     200:	b500      	push	{lr}
     202:	b083      	sub	sp, #12
     204:	9001      	str	r0, [sp, #4]
     206:	9100      	str	r1, [sp, #0]
     208:	9b01      	ldr	r3, [sp, #4]
     20a:	4618      	mov	r0, r3
     20c:	9900      	ldr	r1, [sp, #0]
     20e:	f7ff ffb3 	bl	178 <gpio_write>
     212:	b003      	add	sp, #12
     214:	f85d fb04 	ldr.w	pc, [sp], #4

00000218 <mbed::DigitalOut::read()>:
     218:	b500      	push	{lr}
     21a:	b083      	sub	sp, #12
     21c:	9001      	str	r0, [sp, #4]
     21e:	9b01      	ldr	r3, [sp, #4]
     220:	4618      	mov	r0, r3
     222:	f7ff ffbd 	bl	1a0 <gpio_read>
     226:	4603      	mov	r3, r0
     228:	4618      	mov	r0, r3
     22a:	b003      	add	sp, #12
     22c:	f85d fb04 	ldr.w	pc, [sp], #4

00000230 <mbed::DigitalOut::operator=(int)>:
     230:	b500      	push	{lr}
     232:	b083      	sub	sp, #12
     234:	9001      	str	r0, [sp, #4]
     236:	9100      	str	r1, [sp, #0]
     238:	9801      	ldr	r0, [sp, #4]
     23a:	9900      	ldr	r1, [sp, #0]
     23c:	f7ff ffe0 	bl	200 <mbed::DigitalOut::write(int)>
     240:	9b01      	ldr	r3, [sp, #4]
     242:	4618      	mov	r0, r3
     244:	b003      	add	sp, #12
     246:	f85d fb04 	ldr.w	pc, [sp], #4
     24a:	bf00      	nop

0000024c <mbed::DigitalOut::operator int()>:
     24c:	b500      	push	{lr}
     24e:	b083      	sub	sp, #12
     250:	9001      	str	r0, [sp, #4]
     252:	9801      	ldr	r0, [sp, #4]
     254:	f7ff ffe0 	bl	218 <mbed::DigitalOut::read()>
     258:	4603      	mov	r3, r0
     25a:	4618      	mov	r0, r3
     25c:	b003      	add	sp, #12
     25e:	f85d fb04 	ldr.w	pc, [sp], #4
     262:	bf00      	nop

00000264 <mbed::AnalogIn::AnalogIn(PinName)>:
     264:	b500      	push	{lr}
     266:	b083      	sub	sp, #12
     268:	9001      	str	r0, [sp, #4]
     26a:	9100      	str	r1, [sp, #0]
     26c:	9b01      	ldr	r3, [sp, #4]
     26e:	4618      	mov	r0, r3
     270:	9900      	ldr	r1, [sp, #0]
     272:	f003 fc33 	bl	3adc <analogin_init>
     276:	9b01      	ldr	r3, [sp, #4]
     278:	4618      	mov	r0, r3
     27a:	b003      	add	sp, #12
     27c:	f85d fb04 	ldr.w	pc, [sp], #4

00000280 <mbed::AnalogIn::read()>:
     280:	b500      	push	{lr}
     282:	b083      	sub	sp, #12
     284:	9001      	str	r0, [sp, #4]
     286:	9b01      	ldr	r3, [sp, #4]
     288:	4618      	mov	r0, r3
     28a:	f003 fce9 	bl	3c60 <analogin_read>
     28e:	4603      	mov	r3, r0
     290:	4618      	mov	r0, r3
     292:	b003      	add	sp, #12
     294:	f85d fb04 	ldr.w	pc, [sp], #4

00000298 <mbed::AnalogIn::operator float()>:
     298:	b500      	push	{lr}
     29a:	b083      	sub	sp, #12
     29c:	9001      	str	r0, [sp, #4]
     29e:	9801      	ldr	r0, [sp, #4]
     2a0:	f7ff ffee 	bl	280 <mbed::AnalogIn::read()>
     2a4:	4603      	mov	r3, r0
     2a6:	4618      	mov	r0, r3
     2a8:	b003      	add	sp, #12
     2aa:	f85d fb04 	ldr.w	pc, [sp], #4
     2ae:	bf00      	nop

000002b0 <mbed::AnalogOut::AnalogOut(PinName)>:
     2b0:	b500      	push	{lr}
     2b2:	b083      	sub	sp, #12
     2b4:	9001      	str	r0, [sp, #4]
     2b6:	9100      	str	r1, [sp, #0]
     2b8:	9b01      	ldr	r3, [sp, #4]
     2ba:	4618      	mov	r0, r3
     2bc:	9900      	ldr	r1, [sp, #0]
     2be:	f003 fce5 	bl	3c8c <analogout_init>
     2c2:	9b01      	ldr	r3, [sp, #4]
     2c4:	4618      	mov	r0, r3
     2c6:	b003      	add	sp, #12
     2c8:	f85d fb04 	ldr.w	pc, [sp], #4

000002cc <mbed::AnalogOut::write(float)>:
     2cc:	b500      	push	{lr}
     2ce:	b083      	sub	sp, #12
     2d0:	9001      	str	r0, [sp, #4]
     2d2:	9100      	str	r1, [sp, #0]
     2d4:	9b01      	ldr	r3, [sp, #4]
     2d6:	4618      	mov	r0, r3
     2d8:	9900      	ldr	r1, [sp, #0]
     2da:	f003 fd11 	bl	3d00 <analogout_write>
     2de:	b003      	add	sp, #12
     2e0:	f85d fb04 	ldr.w	pc, [sp], #4

000002e4 <mbed::AnalogOut::operator=(float)>:
     2e4:	b500      	push	{lr}
     2e6:	b083      	sub	sp, #12
     2e8:	9001      	str	r0, [sp, #4]
     2ea:	9100      	str	r1, [sp, #0]
     2ec:	9801      	ldr	r0, [sp, #4]
     2ee:	9900      	ldr	r1, [sp, #0]
     2f0:	f7ff ffec 	bl	2cc <mbed::AnalogOut::write(float)>
     2f4:	9b01      	ldr	r3, [sp, #4]
     2f6:	4618      	mov	r0, r3
     2f8:	b003      	add	sp, #12
     2fa:	f85d fb04 	ldr.w	pc, [sp], #4
     2fe:	bf00      	nop

00000300 <mbed::SerialBase::~SerialBase()>:
     300:	b500      	push	{lr}
     302:	b083      	sub	sp, #12
     304:	9001      	str	r0, [sp, #4]
     306:	9b01      	ldr	r3, [sp, #4]
     308:	4a06      	ldr	r2, [pc, #24]	; (324 <mbed::SerialBase::~SerialBase()+0x24>)
     30a:	601a      	str	r2, [r3, #0]
     30c:	2300      	movs	r3, #0
     30e:	2b00      	cmp	r3, #0
     310:	d002      	beq.n	318 <mbed::SerialBase::~SerialBase()+0x18>
     312:	9801      	ldr	r0, [sp, #4]
     314:	f006 fab2 	bl	687c <operator delete(void*)>
     318:	9b01      	ldr	r3, [sp, #4]
     31a:	4618      	mov	r0, r3
     31c:	b003      	add	sp, #12
     31e:	f85d fb04 	ldr.w	pc, [sp], #4
     322:	bf00      	nop
     324:	0000cc40 	.word	0x0000cc40

00000328 <mbed::SerialBase::~SerialBase()>:
     328:	b500      	push	{lr}
     32a:	b083      	sub	sp, #12
     32c:	9001      	str	r0, [sp, #4]
     32e:	9801      	ldr	r0, [sp, #4]
     330:	f7ff ffe6 	bl	300 <mbed::SerialBase::~SerialBase()>
     334:	9801      	ldr	r0, [sp, #4]
     336:	f006 faa1 	bl	687c <operator delete(void*)>
     33a:	9b01      	ldr	r3, [sp, #4]
     33c:	4618      	mov	r0, r3
     33e:	b003      	add	sp, #12
     340:	f85d fb04 	ldr.w	pc, [sp], #4

00000344 <mbed::Ticker::attach(void (*)(), float)>:
     344:	b500      	push	{lr}
     346:	b085      	sub	sp, #20
     348:	9003      	str	r0, [sp, #12]
     34a:	9102      	str	r1, [sp, #8]
     34c:	9201      	str	r2, [sp, #4]
     34e:	9801      	ldr	r0, [sp, #4]
     350:	4907      	ldr	r1, [pc, #28]	; (370 <mbed::Ticker::attach(void (*)(), float)+0x2c>)
     352:	f006 ffed 	bl	7330 <__aeabi_fmul>
     356:	4603      	mov	r3, r0
     358:	4618      	mov	r0, r3
     35a:	f007 f9d5 	bl	7708 <__aeabi_f2uiz>
     35e:	4603      	mov	r3, r0
     360:	9803      	ldr	r0, [sp, #12]
     362:	9902      	ldr	r1, [sp, #8]
     364:	461a      	mov	r2, r3
     366:	f000 f805 	bl	374 <mbed::Ticker::attach_us(void (*)(), unsigned int)>
     36a:	b005      	add	sp, #20
     36c:	f85d fb04 	ldr.w	pc, [sp], #4
     370:	49742400 	.word	0x49742400

00000374 <mbed::Ticker::attach_us(void (*)(), unsigned int)>:
     374:	b500      	push	{lr}
     376:	b085      	sub	sp, #20
     378:	9003      	str	r0, [sp, #12]
     37a:	9102      	str	r1, [sp, #8]
     37c:	9201      	str	r2, [sp, #4]
     37e:	9b03      	ldr	r3, [sp, #12]
     380:	3314      	adds	r3, #20
     382:	4618      	mov	r0, r3
     384:	9902      	ldr	r1, [sp, #8]
     386:	f003 ff1b 	bl	41c0 <mbed::FunctionPointer::attach(void (*)())>
     38a:	9803      	ldr	r0, [sp, #12]
     38c:	9901      	ldr	r1, [sp, #4]
     38e:	f004 fc73 	bl	4c78 <mbed::Ticker::setup(unsigned int)>
     392:	b005      	add	sp, #20
     394:	f85d fb04 	ldr.w	pc, [sp], #4

00000398 <init_relay_brake()>:
     398:	b508      	push	{r3, lr}
     39a:	4804      	ldr	r0, [pc, #16]	; (3ac <init_relay_brake()+0x14>)
     39c:	2100      	movs	r1, #0
     39e:	f7ff ff47 	bl	230 <mbed::DigitalOut::operator=(int)>
     3a2:	4803      	ldr	r0, [pc, #12]	; (3b0 <init_relay_brake()+0x18>)
     3a4:	2100      	movs	r1, #0
     3a6:	f7ff ff43 	bl	230 <mbed::DigitalOut::operator=(int)>
     3aa:	bd08      	pop	{r3, pc}
     3ac:	1000037c 	.word	0x1000037c
     3b0:	100003c4 	.word	0x100003c4

000003b4 <throttle_set(float)>:
     3b4:	b500      	push	{lr}
     3b6:	b083      	sub	sp, #12
     3b8:	9001      	str	r0, [sp, #4]
     3ba:	4b18      	ldr	r3, [pc, #96]	; (41c <CFSR_BUS_IMPRECISE_BIT+0x1c>)
     3bc:	9a01      	ldr	r2, [sp, #4]
     3be:	601a      	str	r2, [r3, #0]
     3c0:	4817      	ldr	r0, [pc, #92]	; (420 <CFSR_BUS_IMPRECISE_BIT+0x20>)
     3c2:	f7ff ff43 	bl	24c <mbed::DigitalOut::operator int()>
     3c6:	4603      	mov	r3, r0
     3c8:	2b00      	cmp	r3, #0
     3ca:	d107      	bne.n	3dc <throttle_set(float)+0x28>
     3cc:	4815      	ldr	r0, [pc, #84]	; (424 <CFSR_BUS_IMPRECISE_BIT+0x24>)
     3ce:	f004 fcc3 	bl	4d58 <mbed::Timer::read_ms()>
     3d2:	4603      	mov	r3, r0
     3d4:	2b00      	cmp	r3, #0
     3d6:	d101      	bne.n	3dc <throttle_set(float)+0x28>
     3d8:	2301      	movs	r3, #1
     3da:	e000      	b.n	3de <throttle_set(float)+0x2a>
     3dc:	2300      	movs	r3, #0
     3de:	2b00      	cmp	r3, #0
     3e0:	d007      	beq.n	3f2 <throttle_set(float)+0x3e>
     3e2:	480f      	ldr	r0, [pc, #60]	; (420 <CFSR_BUS_IMPRECISE_BIT+0x20>)
     3e4:	2101      	movs	r1, #1
     3e6:	f7ff ff23 	bl	230 <mbed::DigitalOut::operator=(int)>
     3ea:	480e      	ldr	r0, [pc, #56]	; (424 <CFSR_BUS_IMPRECISE_BIT+0x24>)
     3ec:	f004 fc86 	bl	4cfc <mbed::Timer::start()>
     3f0:	e010      	b.n	414 <CFSR_BUS_IMPRECISE_BIT+0x14>
     3f2:	480d      	ldr	r0, [pc, #52]	; (428 <CFSR_BUS_IMPRECISE_BIT+0x28>)
     3f4:	f004 fcb0 	bl	4d58 <mbed::Timer::read_ms()>
     3f8:	4603      	mov	r3, r0
     3fa:	2b00      	cmp	r3, #0
     3fc:	bf14      	ite	ne
     3fe:	2300      	movne	r3, #0
     400:	2301      	moveq	r3, #1
     402:	b2db      	uxtb	r3, r3
     404:	2b00      	cmp	r3, #0
     406:	d005      	beq.n	414 <CFSR_BUS_IMPRECISE_BIT+0x14>
     408:	4b04      	ldr	r3, [pc, #16]	; (41c <CFSR_BUS_IMPRECISE_BIT+0x1c>)
     40a:	681b      	ldr	r3, [r3, #0]
     40c:	4807      	ldr	r0, [pc, #28]	; (42c <CFSR_BUS_IMPRECISE_BIT+0x2c>)
     40e:	4619      	mov	r1, r3
     410:	f7ff ff68 	bl	2e4 <mbed::AnalogOut::operator=(float)>
     414:	b003      	add	sp, #12
     416:	f85d fb04 	ldr.w	pc, [sp], #4
     41a:	bf00      	nop
     41c:	100003e8 	.word	0x100003e8
     420:	1000037c 	.word	0x1000037c
     424:	100003dc 	.word	0x100003dc
     428:	100003ec 	.word	0x100003ec
     42c:	10000210 	.word	0x10000210

00000430 <throttle_clear()>:
     430:	b508      	push	{r3, lr}
     432:	480f      	ldr	r0, [pc, #60]	; (470 <throttle_clear()+0x40>)
     434:	f04f 0100 	mov.w	r1, #0
     438:	f7ff ff54 	bl	2e4 <mbed::AnalogOut::operator=(float)>
     43c:	480d      	ldr	r0, [pc, #52]	; (474 <throttle_clear()+0x44>)
     43e:	2100      	movs	r1, #0
     440:	f7ff fef6 	bl	230 <mbed::DigitalOut::operator=(int)>
     444:	480c      	ldr	r0, [pc, #48]	; (478 <throttle_clear()+0x48>)
     446:	f7ff ff01 	bl	24c <mbed::DigitalOut::operator int()>
     44a:	4603      	mov	r3, r0
     44c:	2b01      	cmp	r3, #1
     44e:	d107      	bne.n	460 <throttle_clear()+0x30>
     450:	480a      	ldr	r0, [pc, #40]	; (47c <throttle_clear()+0x4c>)
     452:	f004 fc81 	bl	4d58 <mbed::Timer::read_ms()>
     456:	4603      	mov	r3, r0
     458:	2b00      	cmp	r3, #0
     45a:	d101      	bne.n	460 <throttle_clear()+0x30>
     45c:	2301      	movs	r3, #1
     45e:	e000      	b.n	462 <throttle_clear()+0x32>
     460:	2300      	movs	r3, #0
     462:	2b00      	cmp	r3, #0
     464:	d002      	beq.n	46c <throttle_clear()+0x3c>
     466:	4805      	ldr	r0, [pc, #20]	; (47c <throttle_clear()+0x4c>)
     468:	f004 fc48 	bl	4cfc <mbed::Timer::start()>
     46c:	bd08      	pop	{r3, pc}
     46e:	bf00      	nop
     470:	10000210 	.word	0x10000210
     474:	100003c4 	.word	0x100003c4
     478:	1000037c 	.word	0x1000037c
     47c:	100003ec 	.word	0x100003ec

00000480 <relay_break_process()>:
     480:	b508      	push	{r3, lr}
     482:	481e      	ldr	r0, [pc, #120]	; (4fc <relay_break_process()+0x7c>)
     484:	f004 fc68 	bl	4d58 <mbed::Timer::read_ms()>
     488:	4602      	mov	r2, r0
     48a:	4b1d      	ldr	r3, [pc, #116]	; (500 <relay_break_process()+0x80>)
     48c:	681b      	ldr	r3, [r3, #0]
     48e:	f44f 717a 	mov.w	r1, #1000	; 0x3e8
     492:	fb01 f303 	mul.w	r3, r1, r3
     496:	429a      	cmp	r2, r3
     498:	bfb4      	ite	lt
     49a:	2300      	movlt	r3, #0
     49c:	2301      	movge	r3, #1
     49e:	b2db      	uxtb	r3, r3
     4a0:	2b00      	cmp	r3, #0
     4a2:	d00f      	beq.n	4c4 <relay_break_process()+0x44>
     4a4:	4b17      	ldr	r3, [pc, #92]	; (504 <relay_break_process()+0x84>)
     4a6:	681b      	ldr	r3, [r3, #0]
     4a8:	4817      	ldr	r0, [pc, #92]	; (508 <relay_break_process()+0x88>)
     4aa:	4619      	mov	r1, r3
     4ac:	f7ff ff1a 	bl	2e4 <mbed::AnalogOut::operator=(float)>
     4b0:	4816      	ldr	r0, [pc, #88]	; (50c <relay_break_process()+0x8c>)
     4b2:	2101      	movs	r1, #1
     4b4:	f7ff febc 	bl	230 <mbed::DigitalOut::operator=(int)>
     4b8:	4810      	ldr	r0, [pc, #64]	; (4fc <relay_break_process()+0x7c>)
     4ba:	f004 fc2d 	bl	4d18 <mbed::Timer::stop()>
     4be:	480f      	ldr	r0, [pc, #60]	; (4fc <relay_break_process()+0x7c>)
     4c0:	f004 fc72 	bl	4da8 <mbed::Timer::reset()>
     4c4:	4812      	ldr	r0, [pc, #72]	; (510 <relay_break_process()+0x90>)
     4c6:	f004 fc47 	bl	4d58 <mbed::Timer::read_ms()>
     4ca:	4602      	mov	r2, r0
     4cc:	4b11      	ldr	r3, [pc, #68]	; (514 <relay_break_process()+0x94>)
     4ce:	681b      	ldr	r3, [r3, #0]
     4d0:	f44f 717a 	mov.w	r1, #1000	; 0x3e8
     4d4:	fb01 f303 	mul.w	r3, r1, r3
     4d8:	429a      	cmp	r2, r3
     4da:	bfb4      	ite	lt
     4dc:	2300      	movlt	r3, #0
     4de:	2301      	movge	r3, #1
     4e0:	b2db      	uxtb	r3, r3
     4e2:	2b00      	cmp	r3, #0
     4e4:	d009      	beq.n	4fa <relay_break_process()+0x7a>
     4e6:	480c      	ldr	r0, [pc, #48]	; (518 <relay_break_process()+0x98>)
     4e8:	2100      	movs	r1, #0
     4ea:	f7ff fea1 	bl	230 <mbed::DigitalOut::operator=(int)>
     4ee:	4808      	ldr	r0, [pc, #32]	; (510 <relay_break_process()+0x90>)
     4f0:	f004 fc12 	bl	4d18 <mbed::Timer::stop()>
     4f4:	4806      	ldr	r0, [pc, #24]	; (510 <relay_break_process()+0x90>)
     4f6:	f004 fc57 	bl	4da8 <mbed::Timer::reset()>
     4fa:	bd08      	pop	{r3, pc}
     4fc:	100003dc 	.word	0x100003dc
     500:	100000cc 	.word	0x100000cc
     504:	100003e8 	.word	0x100003e8
     508:	10000210 	.word	0x10000210
     50c:	100003c4 	.word	0x100003c4
     510:	100003ec 	.word	0x100003ec
     514:	100000d0 	.word	0x100000d0
     518:	1000037c 	.word	0x1000037c

0000051c <push(float)>:
     51c:	b500      	push	{lr}
     51e:	b083      	sub	sp, #12
     520:	9001      	str	r0, [sp, #4]
     522:	4808      	ldr	r0, [pc, #32]	; (544 <push(float)+0x28>)
     524:	2100      	movs	r1, #0
     526:	f7ff fe83 	bl	230 <mbed::DigitalOut::operator=(int)>
     52a:	4807      	ldr	r0, [pc, #28]	; (548 <push(float)+0x2c>)
     52c:	2100      	movs	r1, #0
     52e:	f7ff fe7f 	bl	230 <mbed::DigitalOut::operator=(int)>
     532:	4806      	ldr	r0, [pc, #24]	; (54c <push(float)+0x30>)
     534:	f003 fdfa 	bl	412c <wait>
     538:	9801      	ldr	r0, [sp, #4]
     53a:	f7ff ff3b 	bl	3b4 <throttle_set(float)>
     53e:	b003      	add	sp, #12
     540:	f85d fb04 	ldr.w	pc, [sp], #4
     544:	10000214 	.word	0x10000214
     548:	1000022c 	.word	0x1000022c
     54c:	3ca3d70a 	.word	0x3ca3d70a

00000550 <_stop()>:
     550:	b508      	push	{r3, lr}
     552:	4807      	ldr	r0, [pc, #28]	; (570 <_stop()+0x20>)
     554:	2100      	movs	r1, #0
     556:	f7ff fe6b 	bl	230 <mbed::DigitalOut::operator=(int)>
     55a:	4806      	ldr	r0, [pc, #24]	; (574 <_stop()+0x24>)
     55c:	f003 fde6 	bl	412c <wait>
     560:	4805      	ldr	r0, [pc, #20]	; (578 <_stop()+0x28>)
     562:	2100      	movs	r1, #0
     564:	f7ff fe64 	bl	230 <mbed::DigitalOut::operator=(int)>
     568:	f7ff ff62 	bl	430 <throttle_clear()>
     56c:	bd08      	pop	{r3, pc}
     56e:	bf00      	nop
     570:	10000214 	.word	0x10000214
     574:	3d23d70a 	.word	0x3d23d70a
     578:	1000022c 	.word	0x1000022c

0000057c <_break()>:
     57c:	b508      	push	{r3, lr}
     57e:	4807      	ldr	r0, [pc, #28]	; (59c <_break()+0x20>)
     580:	2100      	movs	r1, #0
     582:	f7ff fe55 	bl	230 <mbed::DigitalOut::operator=(int)>
     586:	4806      	ldr	r0, [pc, #24]	; (5a0 <_break()+0x24>)
     588:	2101      	movs	r1, #1
     58a:	f7ff fe51 	bl	230 <mbed::DigitalOut::operator=(int)>
     58e:	f7ff ff4f 	bl	430 <throttle_clear()>
     592:	4804      	ldr	r0, [pc, #16]	; (5a4 <_break()+0x28>)
     594:	f003 fdca 	bl	412c <wait>
     598:	bd08      	pop	{r3, pc}
     59a:	bf00      	nop
     59c:	1000022c 	.word	0x1000022c
     5a0:	10000214 	.word	0x10000214
     5a4:	3ca3d70a 	.word	0x3ca3d70a

000005a8 <relay_on()>:
     5a8:	b508      	push	{r3, lr}
     5aa:	4807      	ldr	r0, [pc, #28]	; (5c8 <relay_on()+0x20>)
     5ac:	2100      	movs	r1, #0
     5ae:	f7ff fe3f 	bl	230 <mbed::DigitalOut::operator=(int)>
     5b2:	4806      	ldr	r0, [pc, #24]	; (5cc <relay_on()+0x24>)
     5b4:	f04f 0100 	mov.w	r1, #0
     5b8:	f7ff fe94 	bl	2e4 <mbed::AnalogOut::operator=(float)>
     5bc:	4804      	ldr	r0, [pc, #16]	; (5d0 <relay_on()+0x28>)
     5be:	2101      	movs	r1, #1
     5c0:	f7ff fe36 	bl	230 <mbed::DigitalOut::operator=(int)>
     5c4:	bd08      	pop	{r3, pc}
     5c6:	bf00      	nop
     5c8:	1000022c 	.word	0x1000022c
     5cc:	10000210 	.word	0x10000210
     5d0:	1000037c 	.word	0x1000037c

000005d4 <pull(float)>:
     5d4:	b500      	push	{lr}
     5d6:	b083      	sub	sp, #12
     5d8:	9001      	str	r0, [sp, #4]
     5da:	4808      	ldr	r0, [pc, #32]	; (5fc <pull(float)+0x28>)
     5dc:	2100      	movs	r1, #0
     5de:	f7ff fe27 	bl	230 <mbed::DigitalOut::operator=(int)>
     5e2:	4807      	ldr	r0, [pc, #28]	; (600 <pull(float)+0x2c>)
     5e4:	2101      	movs	r1, #1
     5e6:	f7ff fe23 	bl	230 <mbed::DigitalOut::operator=(int)>
     5ea:	4806      	ldr	r0, [pc, #24]	; (604 <pull(float)+0x30>)
     5ec:	f003 fd9e 	bl	412c <wait>
     5f0:	9801      	ldr	r0, [sp, #4]
     5f2:	f7ff fedf 	bl	3b4 <throttle_set(float)>
     5f6:	b003      	add	sp, #12
     5f8:	f85d fb04 	ldr.w	pc, [sp], #4
     5fc:	10000214 	.word	0x10000214
     600:	1000022c 	.word	0x1000022c
     604:	3d23d70a 	.word	0x3d23d70a

00000608 <send_line()>:
     608:	b500      	push	{lr}
     60a:	b083      	sub	sp, #12
     60c:	2300      	movs	r3, #0
     60e:	9301      	str	r3, [sp, #4]
     610:	2006      	movs	r0, #6
     612:	f7ff fd9b 	bl	14c <NVIC_DisableIRQ>
     616:	4b4b      	ldr	r3, [pc, #300]	; (744 <send_line()+0x13c>)
     618:	681a      	ldr	r2, [r3, #0]
     61a:	4b4b      	ldr	r3, [pc, #300]	; (748 <send_line()+0x140>)
     61c:	681b      	ldr	r3, [r3, #0]
     61e:	429a      	cmp	r2, r3
     620:	bf14      	ite	ne
     622:	2300      	movne	r3, #0
     624:	2301      	moveq	r3, #1
     626:	f88d 3003 	strb.w	r3, [sp, #3]
     62a:	e04f      	b.n	6cc <send_line()+0xc4>
     62c:	4b45      	ldr	r3, [pc, #276]	; (744 <send_line()+0x13c>)
     62e:	681b      	ldr	r3, [r3, #0]
     630:	1c59      	adds	r1, r3, #1
     632:	4b46      	ldr	r3, [pc, #280]	; (74c <send_line()+0x144>)
     634:	fb81 2303 	smull	r2, r3, r1, r3
     638:	440b      	add	r3, r1
     63a:	11da      	asrs	r2, r3, #7
     63c:	17cb      	asrs	r3, r1, #31
     63e:	1ad2      	subs	r2, r2, r3
     640:	4613      	mov	r3, r2
     642:	021b      	lsls	r3, r3, #8
     644:	1a9b      	subs	r3, r3, r2
     646:	1aca      	subs	r2, r1, r3
     648:	4b3f      	ldr	r3, [pc, #252]	; (748 <send_line()+0x140>)
     64a:	681b      	ldr	r3, [r3, #0]
     64c:	429a      	cmp	r2, r3
     64e:	bf14      	ite	ne
     650:	2300      	movne	r3, #0
     652:	2301      	moveq	r3, #1
     654:	b2db      	uxtb	r3, r3
     656:	2b00      	cmp	r3, #0
     658:	d01d      	beq.n	696 <send_line()+0x8e>
     65a:	2006      	movs	r0, #6
     65c:	f7ff fd60 	bl	120 <NVIC_EnableIRQ>
     660:	bf00      	nop
     662:	4b38      	ldr	r3, [pc, #224]	; (744 <send_line()+0x13c>)
     664:	681b      	ldr	r3, [r3, #0]
     666:	1c59      	adds	r1, r3, #1
     668:	4b38      	ldr	r3, [pc, #224]	; (74c <send_line()+0x144>)
     66a:	fb81 2303 	smull	r2, r3, r1, r3
     66e:	440b      	add	r3, r1
     670:	11da      	asrs	r2, r3, #7
     672:	17cb      	asrs	r3, r1, #31
     674:	1ad2      	subs	r2, r2, r3
     676:	4613      	mov	r3, r2
     678:	021b      	lsls	r3, r3, #8
     67a:	1a9b      	subs	r3, r3, r2
     67c:	1aca      	subs	r2, r1, r3
     67e:	4b32      	ldr	r3, [pc, #200]	; (748 <send_line()+0x140>)
     680:	681b      	ldr	r3, [r3, #0]
     682:	429a      	cmp	r2, r3
     684:	bf14      	ite	ne
     686:	2300      	movne	r3, #0
     688:	2301      	moveq	r3, #1
     68a:	b2db      	uxtb	r3, r3
     68c:	2b00      	cmp	r3, #0
     68e:	d1e8      	bne.n	662 <send_line()+0x5a>
     690:	2006      	movs	r0, #6
     692:	f7ff fd5b 	bl	14c <NVIC_DisableIRQ>
     696:	4b2b      	ldr	r3, [pc, #172]	; (744 <send_line()+0x13c>)
     698:	681b      	ldr	r3, [r3, #0]
     69a:	492d      	ldr	r1, [pc, #180]	; (750 <send_line()+0x148>)
     69c:	9a01      	ldr	r2, [sp, #4]
     69e:	440a      	add	r2, r1
     6a0:	7811      	ldrb	r1, [r2, #0]
     6a2:	4a2c      	ldr	r2, [pc, #176]	; (754 <send_line()+0x14c>)
     6a4:	54d1      	strb	r1, [r2, r3]
     6a6:	9b01      	ldr	r3, [sp, #4]
     6a8:	3301      	adds	r3, #1
     6aa:	9301      	str	r3, [sp, #4]
     6ac:	4b25      	ldr	r3, [pc, #148]	; (744 <send_line()+0x13c>)
     6ae:	681b      	ldr	r3, [r3, #0]
     6b0:	1c59      	adds	r1, r3, #1
     6b2:	4b26      	ldr	r3, [pc, #152]	; (74c <send_line()+0x144>)
     6b4:	fb81 2303 	smull	r2, r3, r1, r3
     6b8:	440b      	add	r3, r1
     6ba:	11da      	asrs	r2, r3, #7
     6bc:	17cb      	asrs	r3, r1, #31
     6be:	1ad2      	subs	r2, r2, r3
     6c0:	4613      	mov	r3, r2
     6c2:	021b      	lsls	r3, r3, #8
     6c4:	1a9b      	subs	r3, r3, r2
     6c6:	1aca      	subs	r2, r1, r3
     6c8:	4b1e      	ldr	r3, [pc, #120]	; (744 <send_line()+0x13c>)
     6ca:	601a      	str	r2, [r3, #0]
     6cc:	9b01      	ldr	r3, [sp, #4]
     6ce:	2b00      	cmp	r3, #0
     6d0:	d0ac      	beq.n	62c <send_line()+0x24>
     6d2:	9b01      	ldr	r3, [sp, #4]
     6d4:	3b01      	subs	r3, #1
     6d6:	4a1e      	ldr	r2, [pc, #120]	; (750 <send_line()+0x148>)
     6d8:	5cd3      	ldrb	r3, [r2, r3]
     6da:	2b0a      	cmp	r3, #10
     6dc:	d1a6      	bne.n	62c <send_line()+0x24>
     6de:	481e      	ldr	r0, [pc, #120]	; (758 <send_line()+0x150>)
     6e0:	f004 f950 	bl	4984 <mbed::SerialBase::writeable()>
     6e4:	4603      	mov	r3, r0
     6e6:	2b00      	cmp	r3, #0
     6e8:	d005      	beq.n	6f6 <send_line()+0xee>
     6ea:	f89d 3003 	ldrb.w	r3, [sp, #3]
     6ee:	2b00      	cmp	r3, #0
     6f0:	d001      	beq.n	6f6 <send_line()+0xee>
     6f2:	2301      	movs	r3, #1
     6f4:	e000      	b.n	6f8 <send_line()+0xf0>
     6f6:	2300      	movs	r3, #0
     6f8:	2b00      	cmp	r3, #0
     6fa:	d01b      	beq.n	734 <send_line()+0x12c>
     6fc:	4b12      	ldr	r3, [pc, #72]	; (748 <send_line()+0x140>)
     6fe:	681b      	ldr	r3, [r3, #0]
     700:	4a14      	ldr	r2, [pc, #80]	; (754 <send_line()+0x14c>)
     702:	5cd3      	ldrb	r3, [r2, r3]
     704:	f88d 3002 	strb.w	r3, [sp, #2]
     708:	4b0f      	ldr	r3, [pc, #60]	; (748 <send_line()+0x140>)
     70a:	681b      	ldr	r3, [r3, #0]
     70c:	1c59      	adds	r1, r3, #1
     70e:	4b0f      	ldr	r3, [pc, #60]	; (74c <send_line()+0x144>)
     710:	fb81 2303 	smull	r2, r3, r1, r3
     714:	440b      	add	r3, r1
     716:	11da      	asrs	r2, r3, #7
     718:	17cb      	asrs	r3, r1, #31
     71a:	1ad2      	subs	r2, r2, r3
     71c:	4613      	mov	r3, r2
     71e:	021b      	lsls	r3, r3, #8
     720:	1a9b      	subs	r3, r3, r2
     722:	1aca      	subs	r2, r1, r3
     724:	4b08      	ldr	r3, [pc, #32]	; (748 <send_line()+0x140>)
     726:	601a      	str	r2, [r3, #0]
     728:	f89d 3002 	ldrb.w	r3, [sp, #2]
     72c:	480b      	ldr	r0, [pc, #44]	; (75c <send_line()+0x154>)
     72e:	4619      	mov	r1, r3
     730:	f004 fa06 	bl	4b40 <mbed::Stream::putc(int)>
     734:	2006      	movs	r0, #6
     736:	f7ff fcf3 	bl	120 <NVIC_EnableIRQ>
     73a:	bf00      	nop
     73c:	b003      	add	sp, #12
     73e:	f85d fb04 	ldr.w	pc, [sp], #4
     742:	bf00      	nop
     744:	100005f8 	.word	0x100005f8
     748:	100005fc 	.word	0x100005fc
     74c:	80808081 	.word	0x80808081
     750:	10000608 	.word	0x10000608
     754:	100003f8 	.word	0x100003f8
     758:	100001a4 	.word	0x100001a4
     75c:	100001ec 	.word	0x100001ec

00000760 <read_line()>:
     760:	b500      	push	{lr}
     762:	b083      	sub	sp, #12
     764:	2300      	movs	r3, #0
     766:	9301      	str	r3, [sp, #4]
     768:	2006      	movs	r0, #6
     76a:	f7ff fcef 	bl	14c <NVIC_DisableIRQ>
     76e:	e037      	b.n	7e0 <read_line()+0x80>
     770:	4b26      	ldr	r3, [pc, #152]	; (80c <Heap_Size+0xc>)
     772:	681a      	ldr	r2, [r3, #0]
     774:	4b26      	ldr	r3, [pc, #152]	; (810 <Heap_Size+0x10>)
     776:	681b      	ldr	r3, [r3, #0]
     778:	429a      	cmp	r2, r3
     77a:	bf14      	ite	ne
     77c:	2300      	movne	r3, #0
     77e:	2301      	moveq	r3, #1
     780:	b2db      	uxtb	r3, r3
     782:	2b00      	cmp	r3, #0
     784:	d011      	beq.n	7aa <read_line()+0x4a>
     786:	2006      	movs	r0, #6
     788:	f7ff fcca 	bl	120 <NVIC_EnableIRQ>
     78c:	bf00      	nop
     78e:	4b1f      	ldr	r3, [pc, #124]	; (80c <Heap_Size+0xc>)
     790:	681a      	ldr	r2, [r3, #0]
     792:	4b1f      	ldr	r3, [pc, #124]	; (810 <Heap_Size+0x10>)
     794:	681b      	ldr	r3, [r3, #0]
     796:	429a      	cmp	r2, r3
     798:	bf14      	ite	ne
     79a:	2300      	movne	r3, #0
     79c:	2301      	moveq	r3, #1
     79e:	b2db      	uxtb	r3, r3
     7a0:	2b00      	cmp	r3, #0
     7a2:	d1f4      	bne.n	78e <read_line()+0x2e>
     7a4:	2006      	movs	r0, #6
     7a6:	f7ff fcd1 	bl	14c <NVIC_DisableIRQ>
     7aa:	4b19      	ldr	r3, [pc, #100]	; (810 <Heap_Size+0x10>)
     7ac:	681b      	ldr	r3, [r3, #0]
     7ae:	4a19      	ldr	r2, [pc, #100]	; (814 <Heap_Size+0x14>)
     7b0:	5cd2      	ldrb	r2, [r2, r3]
     7b2:	4919      	ldr	r1, [pc, #100]	; (818 <Heap_Size+0x18>)
     7b4:	9b01      	ldr	r3, [sp, #4]
     7b6:	440b      	add	r3, r1
     7b8:	701a      	strb	r2, [r3, #0]
     7ba:	9b01      	ldr	r3, [sp, #4]
     7bc:	3301      	adds	r3, #1
     7be:	9301      	str	r3, [sp, #4]
     7c0:	4b13      	ldr	r3, [pc, #76]	; (810 <Heap_Size+0x10>)
     7c2:	681b      	ldr	r3, [r3, #0]
     7c4:	1c59      	adds	r1, r3, #1
     7c6:	4b15      	ldr	r3, [pc, #84]	; (81c <Heap_Size+0x1c>)
     7c8:	fb81 2303 	smull	r2, r3, r1, r3
     7cc:	440b      	add	r3, r1
     7ce:	11da      	asrs	r2, r3, #7
     7d0:	17cb      	asrs	r3, r1, #31
     7d2:	1ad2      	subs	r2, r2, r3
     7d4:	4613      	mov	r3, r2
     7d6:	021b      	lsls	r3, r3, #8
     7d8:	1a9b      	subs	r3, r3, r2
     7da:	1aca      	subs	r2, r1, r3
     7dc:	4b0c      	ldr	r3, [pc, #48]	; (810 <Heap_Size+0x10>)
     7de:	601a      	str	r2, [r3, #0]
     7e0:	9b01      	ldr	r3, [sp, #4]
     7e2:	2b00      	cmp	r3, #0
     7e4:	d0c4      	beq.n	770 <read_line()+0x10>
     7e6:	9b01      	ldr	r3, [sp, #4]
     7e8:	3b01      	subs	r3, #1
     7ea:	4a0b      	ldr	r2, [pc, #44]	; (818 <Heap_Size+0x18>)
     7ec:	5cd3      	ldrb	r3, [r2, r3]
     7ee:	2b0d      	cmp	r3, #13
     7f0:	d1be      	bne.n	770 <read_line()+0x10>
     7f2:	2006      	movs	r0, #6
     7f4:	f7ff fc94 	bl	120 <NVIC_EnableIRQ>
     7f8:	9b01      	ldr	r3, [sp, #4]
     7fa:	3b01      	subs	r3, #1
     7fc:	4a06      	ldr	r2, [pc, #24]	; (818 <Heap_Size+0x18>)
     7fe:	2100      	movs	r1, #0
     800:	54d1      	strb	r1, [r2, r3]
     802:	bf00      	nop
     804:	b003      	add	sp, #12
     806:	f85d fb04 	ldr.w	pc, [sp], #4
     80a:	bf00      	nop
     80c:	10000600 	.word	0x10000600
     810:	10000604 	.word	0x10000604
     814:	100004f8 	.word	0x100004f8
     818:	10000658 	.word	0x10000658
     81c:	80808081 	.word	0x80808081

00000820 <Rx_interrupt()>:
     820:	b510      	push	{r4, lr}
     822:	4820      	ldr	r0, [pc, #128]	; (8a4 <Rx_interrupt()+0x84>)
     824:	2101      	movs	r1, #1
     826:	f7ff fd03 	bl	230 <mbed::DigitalOut::operator=(int)>
     82a:	e018      	b.n	85e <Rx_interrupt()+0x3e>
     82c:	4b1e      	ldr	r3, [pc, #120]	; (8a8 <Rx_interrupt()+0x88>)
     82e:	681c      	ldr	r4, [r3, #0]
     830:	481e      	ldr	r0, [pc, #120]	; (8ac <Rx_interrupt()+0x8c>)
     832:	f004 f999 	bl	4b68 <mbed::Stream::getc()>
     836:	4603      	mov	r3, r0
     838:	b2da      	uxtb	r2, r3
     83a:	4b1d      	ldr	r3, [pc, #116]	; (8b0 <Rx_interrupt()+0x90>)
     83c:	551a      	strb	r2, [r3, r4]
     83e:	4b1a      	ldr	r3, [pc, #104]	; (8a8 <Rx_interrupt()+0x88>)
     840:	681b      	ldr	r3, [r3, #0]
     842:	1c59      	adds	r1, r3, #1
     844:	4b1b      	ldr	r3, [pc, #108]	; (8b4 <Rx_interrupt()+0x94>)
     846:	fb81 2303 	smull	r2, r3, r1, r3
     84a:	440b      	add	r3, r1
     84c:	11da      	asrs	r2, r3, #7
     84e:	17cb      	asrs	r3, r1, #31
     850:	1ad2      	subs	r2, r2, r3
     852:	4613      	mov	r3, r2
     854:	021b      	lsls	r3, r3, #8
     856:	1a9b      	subs	r3, r3, r2
     858:	1aca      	subs	r2, r1, r3
     85a:	4b13      	ldr	r3, [pc, #76]	; (8a8 <Rx_interrupt()+0x88>)
     85c:	601a      	str	r2, [r3, #0]
     85e:	4816      	ldr	r0, [pc, #88]	; (8b8 <Rx_interrupt()+0x98>)
     860:	f004 f882 	bl	4968 <mbed::SerialBase::readable()>
     864:	4603      	mov	r3, r0
     866:	2b00      	cmp	r3, #0
     868:	d013      	beq.n	892 <Rx_interrupt()+0x72>
     86a:	4b0f      	ldr	r3, [pc, #60]	; (8a8 <Rx_interrupt()+0x88>)
     86c:	681b      	ldr	r3, [r3, #0]
     86e:	1c59      	adds	r1, r3, #1
     870:	4b10      	ldr	r3, [pc, #64]	; (8b4 <Rx_interrupt()+0x94>)
     872:	fb81 2303 	smull	r2, r3, r1, r3
     876:	440b      	add	r3, r1
     878:	11da      	asrs	r2, r3, #7
     87a:	17cb      	asrs	r3, r1, #31
     87c:	1ad2      	subs	r2, r2, r3
     87e:	4613      	mov	r3, r2
     880:	021b      	lsls	r3, r3, #8
     882:	1a9b      	subs	r3, r3, r2
     884:	1aca      	subs	r2, r1, r3
     886:	4b0d      	ldr	r3, [pc, #52]	; (8bc <Rx_interrupt()+0x9c>)
     888:	681b      	ldr	r3, [r3, #0]
     88a:	429a      	cmp	r2, r3
     88c:	d001      	beq.n	892 <Rx_interrupt()+0x72>
     88e:	2301      	movs	r3, #1
     890:	e000      	b.n	894 <Rx_interrupt()+0x74>
     892:	2300      	movs	r3, #0
     894:	2b00      	cmp	r3, #0
     896:	d1c9      	bne.n	82c <Rx_interrupt()+0xc>
     898:	4802      	ldr	r0, [pc, #8]	; (8a4 <Rx_interrupt()+0x84>)
     89a:	2100      	movs	r1, #0
     89c:	f7ff fcc8 	bl	230 <mbed::DigitalOut::operator=(int)>
     8a0:	bf00      	nop
     8a2:	bd10      	pop	{r4, pc}
     8a4:	10000394 	.word	0x10000394
     8a8:	10000600 	.word	0x10000600
     8ac:	100001ec 	.word	0x100001ec
     8b0:	100004f8 	.word	0x100004f8
     8b4:	80808081 	.word	0x80808081
     8b8:	100001a4 	.word	0x100001a4
     8bc:	10000604 	.word	0x10000604

000008c0 <Tx_interrupt()>:
     8c0:	b508      	push	{r3, lr}
     8c2:	481a      	ldr	r0, [pc, #104]	; (92c <Tx_interrupt()+0x6c>)
     8c4:	2101      	movs	r1, #1
     8c6:	f7ff fcb3 	bl	230 <mbed::DigitalOut::operator=(int)>
     8ca:	e017      	b.n	8fc <Tx_interrupt()+0x3c>
     8cc:	4b18      	ldr	r3, [pc, #96]	; (930 <Tx_interrupt()+0x70>)
     8ce:	681b      	ldr	r3, [r3, #0]
     8d0:	4a18      	ldr	r2, [pc, #96]	; (934 <Tx_interrupt()+0x74>)
     8d2:	5cd3      	ldrb	r3, [r2, r3]
     8d4:	4818      	ldr	r0, [pc, #96]	; (938 <Tx_interrupt()+0x78>)
     8d6:	4619      	mov	r1, r3
     8d8:	f004 f932 	bl	4b40 <mbed::Stream::putc(int)>
     8dc:	4b14      	ldr	r3, [pc, #80]	; (930 <Tx_interrupt()+0x70>)
     8de:	681b      	ldr	r3, [r3, #0]
     8e0:	1c59      	adds	r1, r3, #1
     8e2:	4b16      	ldr	r3, [pc, #88]	; (93c <Tx_interrupt()+0x7c>)
     8e4:	fb81 2303 	smull	r2, r3, r1, r3
     8e8:	440b      	add	r3, r1
     8ea:	11da      	asrs	r2, r3, #7
     8ec:	17cb      	asrs	r3, r1, #31
     8ee:	1ad2      	subs	r2, r2, r3
     8f0:	4613      	mov	r3, r2
     8f2:	021b      	lsls	r3, r3, #8
     8f4:	1a9b      	subs	r3, r3, r2
     8f6:	1aca      	subs	r2, r1, r3
     8f8:	4b0d      	ldr	r3, [pc, #52]	; (930 <Tx_interrupt()+0x70>)
     8fa:	601a      	str	r2, [r3, #0]
     8fc:	4810      	ldr	r0, [pc, #64]	; (940 <Tx_interrupt()+0x80>)
     8fe:	f004 f841 	bl	4984 <mbed::SerialBase::writeable()>
     902:	4603      	mov	r3, r0
     904:	2b00      	cmp	r3, #0
     906:	d007      	beq.n	918 <Tx_interrupt()+0x58>
     908:	4b0e      	ldr	r3, [pc, #56]	; (944 <Tx_interrupt()+0x84>)
     90a:	681a      	ldr	r2, [r3, #0]
     90c:	4b08      	ldr	r3, [pc, #32]	; (930 <Tx_interrupt()+0x70>)
     90e:	681b      	ldr	r3, [r3, #0]
     910:	429a      	cmp	r2, r3
     912:	d001      	beq.n	918 <Tx_interrupt()+0x58>
     914:	2301      	movs	r3, #1
     916:	e000      	b.n	91a <Tx_interrupt()+0x5a>
     918:	2300      	movs	r3, #0
     91a:	2b00      	cmp	r3, #0
     91c:	d1d6      	bne.n	8cc <Tx_interrupt()+0xc>
     91e:	4803      	ldr	r0, [pc, #12]	; (92c <Tx_interrupt()+0x6c>)
     920:	2100      	movs	r1, #0
     922:	f7ff fc85 	bl	230 <mbed::DigitalOut::operator=(int)>
     926:	bf00      	nop
     928:	bd08      	pop	{r3, pc}
     92a:	bf00      	nop
     92c:	100003ac 	.word	0x100003ac
     930:	100005fc 	.word	0x100005fc
     934:	100003f8 	.word	0x100003f8
     938:	100001ec 	.word	0x100001ec
     93c:	80808081 	.word	0x80808081
     940:	100001a4 	.word	0x100001a4
     944:	100005f8 	.word	0x100005f8

00000948 <init_serial_interrupt()>:
     948:	b508      	push	{r3, lr}
     94a:	4808      	ldr	r0, [pc, #32]	; (96c <init_serial_interrupt()+0x24>)
     94c:	f44f 5116 	mov.w	r1, #9600	; 0x2580
     950:	f003 fffa 	bl	4948 <mbed::SerialBase::baud(int)>
     954:	4805      	ldr	r0, [pc, #20]	; (96c <init_serial_interrupt()+0x24>)
     956:	4906      	ldr	r1, [pc, #24]	; (970 <init_serial_interrupt()+0x28>)
     958:	2200      	movs	r2, #0
     95a:	f004 f821 	bl	49a0 <mbed::SerialBase::attach(void (*)(), mbed::SerialBase::IrqType)>
     95e:	4803      	ldr	r0, [pc, #12]	; (96c <init_serial_interrupt()+0x24>)
     960:	4904      	ldr	r1, [pc, #16]	; (974 <init_serial_interrupt()+0x2c>)
     962:	2201      	movs	r2, #1
     964:	f004 f81c 	bl	49a0 <mbed::SerialBase::attach(void (*)(), mbed::SerialBase::IrqType)>
     968:	bd08      	pop	{r3, pc}
     96a:	bf00      	nop
     96c:	100001a4 	.word	0x100001a4
     970:	00000821 	.word	0x00000821
     974:	000008c1 	.word	0x000008c1

00000978 <parse_command(char*)>:
     978:	b082      	sub	sp, #8
     97a:	9001      	str	r0, [sp, #4]
     97c:	9b01      	ldr	r3, [sp, #4]
     97e:	781b      	ldrb	r3, [r3, #0]
     980:	2b77      	cmp	r3, #119	; 0x77
     982:	d101      	bne.n	988 <parse_command(char*)+0x10>
     984:	2300      	movs	r3, #0
     986:	e023      	b.n	9d0 <parse_command(char*)+0x58>
     988:	9b01      	ldr	r3, [sp, #4]
     98a:	781b      	ldrb	r3, [r3, #0]
     98c:	2b78      	cmp	r3, #120	; 0x78
     98e:	d101      	bne.n	994 <parse_command(char*)+0x1c>
     990:	2301      	movs	r3, #1
     992:	e01d      	b.n	9d0 <parse_command(char*)+0x58>
     994:	9b01      	ldr	r3, [sp, #4]
     996:	781b      	ldrb	r3, [r3, #0]
     998:	2b64      	cmp	r3, #100	; 0x64
     99a:	d101      	bne.n	9a0 <parse_command(char*)+0x28>
     99c:	2302      	movs	r3, #2
     99e:	e017      	b.n	9d0 <parse_command(char*)+0x58>
     9a0:	9b01      	ldr	r3, [sp, #4]
     9a2:	781b      	ldrb	r3, [r3, #0]
     9a4:	2b61      	cmp	r3, #97	; 0x61
     9a6:	d101      	bne.n	9ac <parse_command(char*)+0x34>
     9a8:	2303      	movs	r3, #3
     9aa:	e011      	b.n	9d0 <parse_command(char*)+0x58>
     9ac:	9b01      	ldr	r3, [sp, #4]
     9ae:	781b      	ldrb	r3, [r3, #0]
     9b0:	2b73      	cmp	r3, #115	; 0x73
     9b2:	d101      	bne.n	9b8 <parse_command(char*)+0x40>
     9b4:	2304      	movs	r3, #4
     9b6:	e00b      	b.n	9d0 <parse_command(char*)+0x58>
     9b8:	9b01      	ldr	r3, [sp, #4]
     9ba:	781b      	ldrb	r3, [r3, #0]
     9bc:	2b62      	cmp	r3, #98	; 0x62
     9be:	d101      	bne.n	9c4 <parse_command(char*)+0x4c>
     9c0:	2305      	movs	r3, #5
     9c2:	e005      	b.n	9d0 <parse_command(char*)+0x58>
     9c4:	9b01      	ldr	r3, [sp, #4]
     9c6:	781b      	ldrb	r3, [r3, #0]
     9c8:	2b72      	cmp	r3, #114	; 0x72
     9ca:	d101      	bne.n	9d0 <parse_command(char*)+0x58>
     9cc:	2306      	movs	r3, #6
     9ce:	e7ff      	b.n	9d0 <parse_command(char*)+0x58>
     9d0:	4618      	mov	r0, r3
     9d2:	b002      	add	sp, #8
     9d4:	4770      	bx	lr
     9d6:	bf00      	nop

000009d8 <parse_args(char*)>:
     9d8:	b086      	sub	sp, #24
     9da:	9001      	str	r0, [sp, #4]
     9dc:	9b01      	ldr	r3, [sp, #4]
     9de:	3302      	adds	r3, #2
     9e0:	9305      	str	r3, [sp, #20]
     9e2:	2300      	movs	r3, #0
     9e4:	9304      	str	r3, [sp, #16]
     9e6:	9b05      	ldr	r3, [sp, #20]
     9e8:	781b      	ldrb	r3, [r3, #0]
     9ea:	f88d 300f 	strb.w	r3, [sp, #15]
     9ee:	f89d 300f 	ldrb.w	r3, [sp, #15]
     9f2:	2b39      	cmp	r3, #57	; 0x39
     9f4:	d803      	bhi.n	9fe <parse_args(char*)+0x26>
     9f6:	f89d 300f 	ldrb.w	r3, [sp, #15]
     9fa:	3b30      	subs	r3, #48	; 0x30
     9fc:	9304      	str	r3, [sp, #16]
     9fe:	9b05      	ldr	r3, [sp, #20]
     a00:	3301      	adds	r3, #1
     a02:	9305      	str	r3, [sp, #20]
     a04:	e00c      	b.n	a20 <parse_args(char*)+0x48>
     a06:	9a04      	ldr	r2, [sp, #16]
     a08:	4613      	mov	r3, r2
     a0a:	009b      	lsls	r3, r3, #2
     a0c:	4413      	add	r3, r2
     a0e:	005b      	lsls	r3, r3, #1
     a10:	461a      	mov	r2, r3
     a12:	9b05      	ldr	r3, [sp, #20]
     a14:	1c59      	adds	r1, r3, #1
     a16:	9105      	str	r1, [sp, #20]
     a18:	781b      	ldrb	r3, [r3, #0]
     a1a:	3b30      	subs	r3, #48	; 0x30
     a1c:	4413      	add	r3, r2
     a1e:	9304      	str	r3, [sp, #16]
     a20:	9b05      	ldr	r3, [sp, #20]
     a22:	781b      	ldrb	r3, [r3, #0]
     a24:	2b2f      	cmp	r3, #47	; 0x2f
     a26:	d903      	bls.n	a30 <parse_args(char*)+0x58>
     a28:	9b05      	ldr	r3, [sp, #20]
     a2a:	781b      	ldrb	r3, [r3, #0]
     a2c:	2b39      	cmp	r3, #57	; 0x39
     a2e:	d9ea      	bls.n	a06 <parse_args(char*)+0x2e>
     a30:	9b04      	ldr	r3, [sp, #16]
     a32:	4618      	mov	r0, r3
     a34:	b006      	add	sp, #24
     a36:	4770      	bx	lr

00000a38 <execute(COMMAND_t, int)>:
     a38:	b500      	push	{lr}
     a3a:	b085      	sub	sp, #20
     a3c:	4603      	mov	r3, r0
     a3e:	9100      	str	r1, [sp, #0]
     a40:	f88d 3007 	strb.w	r3, [sp, #7]
     a44:	9800      	ldr	r0, [sp, #0]
     a46:	f006 fc1f 	bl	7288 <__aeabi_i2f>
     a4a:	4603      	mov	r3, r0
     a4c:	4618      	mov	r0, r3
     a4e:	f006 f883 	bl	6b58 <__aeabi_f2d>
     a52:	4602      	mov	r2, r0
     a54:	460b      	mov	r3, r1
     a56:	4610      	mov	r0, r2
     a58:	4619      	mov	r1, r3
     a5a:	a31d      	add	r3, pc, #116	; (adr r3, ad0 <execute(COMMAND_t, int)+0x98>)
     a5c:	e9d3 2300 	ldrd	r2, r3, [r3]
     a60:	f006 f8ce 	bl	6c00 <__aeabi_dmul>
     a64:	4602      	mov	r2, r0
     a66:	460b      	mov	r3, r1
     a68:	4610      	mov	r0, r2
     a6a:	4619      	mov	r1, r3
     a6c:	f006 fb02 	bl	7074 <__aeabi_d2f>
     a70:	4603      	mov	r3, r0
     a72:	9303      	str	r3, [sp, #12]
     a74:	f89d 3007 	ldrb.w	r3, [sp, #7]
     a78:	2b04      	cmp	r3, #4
     a7a:	d101      	bne.n	a80 <execute(COMMAND_t, int)+0x48>
     a7c:	f7ff fd68 	bl	550 <_stop()>
     a80:	f89d 3007 	ldrb.w	r3, [sp, #7]
     a84:	2b00      	cmp	r3, #0
     a86:	d102      	bne.n	a8e <execute(COMMAND_t, int)+0x56>
     a88:	9803      	ldr	r0, [sp, #12]
     a8a:	f7ff fd47 	bl	51c <push(float)>
     a8e:	f89d 3007 	ldrb.w	r3, [sp, #7]
     a92:	2b01      	cmp	r3, #1
     a94:	d102      	bne.n	a9c <execute(COMMAND_t, int)+0x64>
     a96:	9803      	ldr	r0, [sp, #12]
     a98:	f7ff fd9c 	bl	5d4 <pull(float)>
     a9c:	f89d 3007 	ldrb.w	r3, [sp, #7]
     aa0:	2b02      	cmp	r3, #2
     aa2:	d003      	beq.n	aac <execute(COMMAND_t, int)+0x74>
     aa4:	f89d 3007 	ldrb.w	r3, [sp, #7]
     aa8:	2b03      	cmp	r3, #3
     aaa:	d102      	bne.n	ab2 <execute(COMMAND_t, int)+0x7a>
     aac:	9803      	ldr	r0, [sp, #12]
     aae:	f7ff fd35 	bl	51c <push(float)>
     ab2:	f89d 3007 	ldrb.w	r3, [sp, #7]
     ab6:	2b05      	cmp	r3, #5
     ab8:	d101      	bne.n	abe <execute(COMMAND_t, int)+0x86>
     aba:	f7ff fd5f 	bl	57c <_break()>
     abe:	f89d 3007 	ldrb.w	r3, [sp, #7]
     ac2:	2b06      	cmp	r3, #6
     ac4:	d101      	bne.n	aca <execute(COMMAND_t, int)+0x92>
     ac6:	f7ff fd6f 	bl	5a8 <relay_on()>
     aca:	b005      	add	sp, #20
     acc:	f85d fb04 	ldr.w	pc, [sp], #4
     ad0:	47ae147b 	.word	0x47ae147b
     ad4:	3f847ae1 	.word	0x3f847ae1

00000ad8 <read_voltage24()>:
     ad8:	b500      	push	{lr}
     ada:	b083      	sub	sp, #12
     adc:	4816      	ldr	r0, [pc, #88]	; (b38 <read_voltage24()+0x60>)
     ade:	f7ff fbdb 	bl	298 <mbed::AnalogIn::operator float()>
     ae2:	9001      	str	r0, [sp, #4]
     ae4:	4814      	ldr	r0, [pc, #80]	; (b38 <read_voltage24()+0x60>)
     ae6:	f7ff fbd7 	bl	298 <mbed::AnalogIn::operator float()>
     aea:	9001      	str	r0, [sp, #4]
     aec:	4812      	ldr	r0, [pc, #72]	; (b38 <read_voltage24()+0x60>)
     aee:	f7ff fbd3 	bl	298 <mbed::AnalogIn::operator float()>
     af2:	9001      	str	r0, [sp, #4]
     af4:	4810      	ldr	r0, [pc, #64]	; (b38 <read_voltage24()+0x60>)
     af6:	f7ff fbcf 	bl	298 <mbed::AnalogIn::operator float()>
     afa:	4603      	mov	r3, r0
     afc:	4618      	mov	r0, r3
     afe:	f006 f82b 	bl	6b58 <__aeabi_f2d>
     b02:	4602      	mov	r2, r0
     b04:	460b      	mov	r3, r1
     b06:	4610      	mov	r0, r2
     b08:	4619      	mov	r1, r3
     b0a:	a309      	add	r3, pc, #36	; (adr r3, b30 <read_voltage24()+0x58>)
     b0c:	e9d3 2300 	ldrd	r2, r3, [r3]
     b10:	f006 f876 	bl	6c00 <__aeabi_dmul>
     b14:	4602      	mov	r2, r0
     b16:	460b      	mov	r3, r1
     b18:	4610      	mov	r0, r2
     b1a:	4619      	mov	r1, r3
     b1c:	f006 fa82 	bl	7024 <__aeabi_d2iz>
     b20:	4603      	mov	r3, r0
     b22:	4618      	mov	r0, r3
     b24:	b003      	add	sp, #12
     b26:	f85d fb04 	ldr.w	pc, [sp], #4
     b2a:	bf00      	nop
     b2c:	f3af 8000 	nop.w
     b30:	00000000 	.word	0x00000000
     b34:	4074a000 	.word	0x4074a000
     b38:	10000208 	.word	0x10000208
     b3c:	f3af 8000 	nop.w

00000b40 <read_voltage48()>:
     b40:	b500      	push	{lr}
     b42:	b083      	sub	sp, #12
     b44:	4813      	ldr	r0, [pc, #76]	; (b94 <read_voltage48()+0x54>)
     b46:	f7ff fba7 	bl	298 <mbed::AnalogIn::operator float()>
     b4a:	9001      	str	r0, [sp, #4]
     b4c:	4811      	ldr	r0, [pc, #68]	; (b94 <read_voltage48()+0x54>)
     b4e:	f7ff fba3 	bl	298 <mbed::AnalogIn::operator float()>
     b52:	9001      	str	r0, [sp, #4]
     b54:	480f      	ldr	r0, [pc, #60]	; (b94 <read_voltage48()+0x54>)
     b56:	f7ff fb9f 	bl	298 <mbed::AnalogIn::operator float()>
     b5a:	9001      	str	r0, [sp, #4]
     b5c:	480d      	ldr	r0, [pc, #52]	; (b94 <read_voltage48()+0x54>)
     b5e:	f7ff fb9b 	bl	298 <mbed::AnalogIn::operator float()>
     b62:	4603      	mov	r3, r0
     b64:	4618      	mov	r0, r3
     b66:	f005 fff7 	bl	6b58 <__aeabi_f2d>
     b6a:	4602      	mov	r2, r0
     b6c:	460b      	mov	r3, r1
     b6e:	4610      	mov	r0, r2
     b70:	4619      	mov	r1, r3
     b72:	f04f 0200 	mov.w	r2, #0
     b76:	4b08      	ldr	r3, [pc, #32]	; (b98 <read_voltage48()+0x58>)
     b78:	f006 f842 	bl	6c00 <__aeabi_dmul>
     b7c:	4602      	mov	r2, r0
     b7e:	460b      	mov	r3, r1
     b80:	4610      	mov	r0, r2
     b82:	4619      	mov	r1, r3
     b84:	f006 fa4e 	bl	7024 <__aeabi_d2iz>
     b88:	4603      	mov	r3, r0
     b8a:	4618      	mov	r0, r3
     b8c:	b003      	add	sp, #12
     b8e:	f85d fb04 	ldr.w	pc, [sp], #4
     b92:	bf00      	nop
     b94:	1000020c 	.word	0x1000020c
     b98:	40829000 	.word	0x40829000
     b9c:	00000000 	.word	0x00000000

00000ba0 <read_pot()>:
     ba0:	b500      	push	{lr}
     ba2:	b083      	sub	sp, #12
     ba4:	4816      	ldr	r0, [pc, #88]	; (c00 <Stack_Size>)
     ba6:	f7ff fb77 	bl	298 <mbed::AnalogIn::operator float()>
     baa:	9001      	str	r0, [sp, #4]
     bac:	4814      	ldr	r0, [pc, #80]	; (c00 <Stack_Size>)
     bae:	f7ff fb73 	bl	298 <mbed::AnalogIn::operator float()>
     bb2:	9001      	str	r0, [sp, #4]
     bb4:	4812      	ldr	r0, [pc, #72]	; (c00 <Stack_Size>)
     bb6:	f7ff fb6f 	bl	298 <mbed::AnalogIn::operator float()>
     bba:	9001      	str	r0, [sp, #4]
     bbc:	4810      	ldr	r0, [pc, #64]	; (c00 <Stack_Size>)
     bbe:	f7ff fb6b 	bl	298 <mbed::AnalogIn::operator float()>
     bc2:	4603      	mov	r3, r0
     bc4:	4618      	mov	r0, r3
     bc6:	f005 ffc7 	bl	6b58 <__aeabi_f2d>
     bca:	4602      	mov	r2, r0
     bcc:	460b      	mov	r3, r1
     bce:	4610      	mov	r0, r2
     bd0:	4619      	mov	r1, r3
     bd2:	a309      	add	r3, pc, #36	; (adr r3, bf8 <read_pot()+0x58>)
     bd4:	e9d3 2300 	ldrd	r2, r3, [r3]
     bd8:	f006 f812 	bl	6c00 <__aeabi_dmul>
     bdc:	4602      	mov	r2, r0
     bde:	460b      	mov	r3, r1
     be0:	4610      	mov	r0, r2
     be2:	4619      	mov	r1, r3
     be4:	f006 fa1e 	bl	7024 <__aeabi_d2iz>
     be8:	4603      	mov	r3, r0
     bea:	4618      	mov	r0, r3
     bec:	b003      	add	sp, #12
     bee:	f85d fb04 	ldr.w	pc, [sp], #4
     bf2:	bf00      	nop
     bf4:	f3af 8000 	nop.w
     bf8:	00000000 	.word	0x00000000
     bfc:	4074a000 	.word	0x4074a000
     c00:	10000204 	.word	0x10000204
     c04:	f3af 8000 	nop.w

00000c08 <throttle_in_rise()>:
     c08:	b508      	push	{r3, lr}
     c0a:	4802      	ldr	r0, [pc, #8]	; (c14 <throttle_in_rise()+0xc>)
     c0c:	f004 f8cc 	bl	4da8 <mbed::Timer::reset()>
     c10:	bd08      	pop	{r3, pc}
     c12:	bf00      	nop
     c14:	100006a8 	.word	0x100006a8

00000c18 <throttle_in_fall()>:
     c18:	b508      	push	{r3, lr}
     c1a:	4805      	ldr	r0, [pc, #20]	; (c30 <throttle_in_fall()+0x18>)
     c1c:	f004 f88e 	bl	4d3c <mbed::Timer::read_us()>
     c20:	4602      	mov	r2, r0
     c22:	4b04      	ldr	r3, [pc, #16]	; (c34 <throttle_in_fall()+0x1c>)
     c24:	601a      	str	r2, [r3, #0]
     c26:	4802      	ldr	r0, [pc, #8]	; (c30 <throttle_in_fall()+0x18>)
     c28:	f004 f8be 	bl	4da8 <mbed::Timer::reset()>
     c2c:	bd08      	pop	{r3, pc}
     c2e:	bf00      	nop
     c30:	100006a8 	.word	0x100006a8
     c34:	100006b4 	.word	0x100006b4

00000c38 <rudo_in_rise()>:
     c38:	b508      	push	{r3, lr}
     c3a:	4802      	ldr	r0, [pc, #8]	; (c44 <rudo_in_rise()+0xc>)
     c3c:	f004 f8b4 	bl	4da8 <mbed::Timer::reset()>
     c40:	bd08      	pop	{r3, pc}
     c42:	bf00      	nop
     c44:	100006b8 	.word	0x100006b8

00000c48 <rudo_in_fall()>:
     c48:	b508      	push	{r3, lr}
     c4a:	4805      	ldr	r0, [pc, #20]	; (c60 <rudo_in_fall()+0x18>)
     c4c:	f004 f876 	bl	4d3c <mbed::Timer::read_us()>
     c50:	4602      	mov	r2, r0
     c52:	4b04      	ldr	r3, [pc, #16]	; (c64 <rudo_in_fall()+0x1c>)
     c54:	601a      	str	r2, [r3, #0]
     c56:	4802      	ldr	r0, [pc, #8]	; (c60 <rudo_in_fall()+0x18>)
     c58:	f004 f8a6 	bl	4da8 <mbed::Timer::reset()>
     c5c:	bd08      	pop	{r3, pc}
     c5e:	bf00      	nop
     c60:	100006b8 	.word	0x100006b8
     c64:	100006c4 	.word	0x100006c4

00000c68 <elev_in_rise()>:
     c68:	b508      	push	{r3, lr}
     c6a:	4802      	ldr	r0, [pc, #8]	; (c74 <elev_in_rise()+0xc>)
     c6c:	f004 f89c 	bl	4da8 <mbed::Timer::reset()>
     c70:	bd08      	pop	{r3, pc}
     c72:	bf00      	nop
     c74:	100006c8 	.word	0x100006c8

00000c78 <elev_in_fall()>:
     c78:	b508      	push	{r3, lr}
     c7a:	4805      	ldr	r0, [pc, #20]	; (c90 <elev_in_fall()+0x18>)
     c7c:	f004 f85e 	bl	4d3c <mbed::Timer::read_us()>
     c80:	4602      	mov	r2, r0
     c82:	4b04      	ldr	r3, [pc, #16]	; (c94 <elev_in_fall()+0x1c>)
     c84:	601a      	str	r2, [r3, #0]
     c86:	4802      	ldr	r0, [pc, #8]	; (c90 <elev_in_fall()+0x18>)
     c88:	f004 f88e 	bl	4da8 <mbed::Timer::reset()>
     c8c:	bd08      	pop	{r3, pc}
     c8e:	bf00      	nop
     c90:	100006c8 	.word	0x100006c8
     c94:	100006d4 	.word	0x100006d4

00000c98 <init_rc()>:
     c98:	b508      	push	{r3, lr}
     c9a:	4811      	ldr	r0, [pc, #68]	; (ce0 <init_rc()+0x48>)
     c9c:	f004 f82e 	bl	4cfc <mbed::Timer::start()>
     ca0:	4810      	ldr	r0, [pc, #64]	; (ce4 <init_rc()+0x4c>)
     ca2:	4911      	ldr	r1, [pc, #68]	; (ce8 <init_rc()+0x50>)
     ca4:	f003 fb20 	bl	42e8 <mbed::InterruptIn::rise(void (*)())>
     ca8:	480e      	ldr	r0, [pc, #56]	; (ce4 <init_rc()+0x4c>)
     caa:	4910      	ldr	r1, [pc, #64]	; (cec <init_rc()+0x54>)
     cac:	f003 fb3c 	bl	4328 <mbed::InterruptIn::fall(void (*)())>
     cb0:	480f      	ldr	r0, [pc, #60]	; (cf0 <init_rc()+0x58>)
     cb2:	f004 f823 	bl	4cfc <mbed::Timer::start()>
     cb6:	480f      	ldr	r0, [pc, #60]	; (cf4 <init_rc()+0x5c>)
     cb8:	490f      	ldr	r1, [pc, #60]	; (cf8 <init_rc()+0x60>)
     cba:	f003 fb15 	bl	42e8 <mbed::InterruptIn::rise(void (*)())>
     cbe:	480d      	ldr	r0, [pc, #52]	; (cf4 <init_rc()+0x5c>)
     cc0:	490e      	ldr	r1, [pc, #56]	; (cfc <init_rc()+0x64>)
     cc2:	f003 fb31 	bl	4328 <mbed::InterruptIn::fall(void (*)())>
     cc6:	480e      	ldr	r0, [pc, #56]	; (d00 <init_rc()+0x68>)
     cc8:	f004 f818 	bl	4cfc <mbed::Timer::start()>
     ccc:	480d      	ldr	r0, [pc, #52]	; (d04 <init_rc()+0x6c>)
     cce:	490e      	ldr	r1, [pc, #56]	; (d08 <init_rc()+0x70>)
     cd0:	f003 fb0a 	bl	42e8 <mbed::InterruptIn::rise(void (*)())>
     cd4:	480b      	ldr	r0, [pc, #44]	; (d04 <init_rc()+0x6c>)
     cd6:	490d      	ldr	r1, [pc, #52]	; (d0c <init_rc()+0x74>)
     cd8:	f003 fb26 	bl	4328 <mbed::InterruptIn::fall(void (*)())>
     cdc:	bd08      	pop	{r3, pc}
     cde:	bf00      	nop
     ce0:	100006a8 	.word	0x100006a8
     ce4:	1000025c 	.word	0x1000025c
     ce8:	00000c09 	.word	0x00000c09
     cec:	00000c19 	.word	0x00000c19
     cf0:	100006b8 	.word	0x100006b8
     cf4:	1000031c 	.word	0x1000031c
     cf8:	00000c39 	.word	0x00000c39
     cfc:	00000c49 	.word	0x00000c49
     d00:	100006c8 	.word	0x100006c8
     d04:	100002bc 	.word	0x100002bc
     d08:	00000c69 	.word	0x00000c69
     d0c:	00000c79 	.word	0x00000c79

00000d10 <mbed::Ticker::Ticker()>:
     d10:	b500      	push	{lr}
     d12:	b083      	sub	sp, #12
     d14:	9001      	str	r0, [sp, #4]
     d16:	9b01      	ldr	r3, [sp, #4]
     d18:	4618      	mov	r0, r3
     d1a:	f004 f853 	bl	4dc4 <mbed::TimerEvent::TimerEvent()>
     d1e:	9b01      	ldr	r3, [sp, #4]
     d20:	4a06      	ldr	r2, [pc, #24]	; (d3c <mbed::Ticker::Ticker()+0x2c>)
     d22:	601a      	str	r2, [r3, #0]
     d24:	9b01      	ldr	r3, [sp, #4]
     d26:	3314      	adds	r3, #20
     d28:	4618      	mov	r0, r3
     d2a:	2100      	movs	r1, #0
     d2c:	f003 fa32 	bl	4194 <mbed::FunctionPointer::FunctionPointer(void (*)())>
     d30:	9b01      	ldr	r3, [sp, #4]
     d32:	4618      	mov	r0, r3
     d34:	b003      	add	sp, #12
     d36:	f85d fb04 	ldr.w	pc, [sp], #4
     d3a:	bf00      	nop
     d3c:	0000dbf0 	.word	0x0000dbf0

00000d40 <tx_emitter_task()>:
     d40:	b530      	push	{r4, r5, lr}
     d42:	b085      	sub	sp, #20
     d44:	f7ff ff2c 	bl	ba0 <read_pot()>
     d48:	4605      	mov	r5, r0
     d4a:	f7ff fec5 	bl	ad8 <read_voltage24()>
     d4e:	4604      	mov	r4, r0
     d50:	f7ff fef6 	bl	b40 <read_voltage48()>
     d54:	4b09      	ldr	r3, [pc, #36]	; (d7c <tx_emitter_task()+0x3c>)
     d56:	6819      	ldr	r1, [r3, #0]
     d58:	4b09      	ldr	r3, [pc, #36]	; (d80 <tx_emitter_task()+0x40>)
     d5a:	681a      	ldr	r2, [r3, #0]
     d5c:	4b09      	ldr	r3, [pc, #36]	; (d84 <tx_emitter_task()+0x44>)
     d5e:	681b      	ldr	r3, [r3, #0]
     d60:	9000      	str	r0, [sp, #0]
     d62:	9101      	str	r1, [sp, #4]
     d64:	9202      	str	r2, [sp, #8]
     d66:	9303      	str	r3, [sp, #12]
     d68:	4807      	ldr	r0, [pc, #28]	; (d88 <tx_emitter_task()+0x48>)
     d6a:	4908      	ldr	r1, [pc, #32]	; (d8c <tx_emitter_task()+0x4c>)
     d6c:	462a      	mov	r2, r5
     d6e:	4623      	mov	r3, r4
     d70:	f007 fb34 	bl	83dc <siprintf>
     d74:	f7ff fc48 	bl	608 <send_line()>
     d78:	b005      	add	sp, #20
     d7a:	bd30      	pop	{r4, r5, pc}
     d7c:	100006b4 	.word	0x100006b4
     d80:	100006c4 	.word	0x100006c4
     d84:	100006d4 	.word	0x100006d4
     d88:	10000608 	.word	0x10000608
     d8c:	0000cc20 	.word	0x0000cc20

00000d90 <init_tx_emitter()>:
     d90:	b508      	push	{r3, lr}
     d92:	4803      	ldr	r0, [pc, #12]	; (da0 <init_tx_emitter()+0x10>)
     d94:	4903      	ldr	r1, [pc, #12]	; (da4 <init_tx_emitter()+0x14>)
     d96:	4a04      	ldr	r2, [pc, #16]	; (da8 <init_tx_emitter()+0x18>)
     d98:	f7ff fad4 	bl	344 <mbed::Ticker::attach(void (*)(), float)>
     d9c:	bd08      	pop	{r3, pc}
     d9e:	bf00      	nop
     da0:	100006d8 	.word	0x100006d8
     da4:	00000d41 	.word	0x00000d41
     da8:	3e99999a 	.word	0x3e99999a

00000dac <delayed_break_task()>:
     dac:	b508      	push	{r3, lr}
     dae:	f7ff fb67 	bl	480 <relay_break_process()>
     db2:	bd08      	pop	{r3, pc}

00000db4 <init_relay_brake_ticker()>:
     db4:	b508      	push	{r3, lr}
     db6:	4803      	ldr	r0, [pc, #12]	; (dc4 <init_relay_brake_ticker()+0x10>)
     db8:	4903      	ldr	r1, [pc, #12]	; (dc8 <init_relay_brake_ticker()+0x14>)
     dba:	4a04      	ldr	r2, [pc, #16]	; (dcc <init_relay_brake_ticker()+0x18>)
     dbc:	f7ff fac2 	bl	344 <mbed::Ticker::attach(void (*)(), float)>
     dc0:	bd08      	pop	{r3, pc}
     dc2:	bf00      	nop
     dc4:	10000708 	.word	0x10000708
     dc8:	00000dad 	.word	0x00000dad
     dcc:	3dcccccd 	.word	0x3dcccccd

00000dd0 <main>:
     dd0:	b500      	push	{lr}
     dd2:	b085      	sub	sp, #20
     dd4:	2300      	movs	r3, #0
     dd6:	9303      	str	r3, [sp, #12]
     dd8:	2300      	movs	r3, #0
     dda:	9302      	str	r3, [sp, #8]
     ddc:	f7ff ff5c 	bl	c98 <init_rc()>
     de0:	f7ff fdb2 	bl	948 <init_serial_interrupt()>
     de4:	f7ff ffd4 	bl	d90 <init_tx_emitter()>
     de8:	f7ff fad6 	bl	398 <init_relay_brake()>
     dec:	f7ff ffe2 	bl	db4 <init_relay_brake_ticker()>
     df0:	f7ff fcb6 	bl	760 <read_line()>
     df4:	4808      	ldr	r0, [pc, #32]	; (e18 <main+0x48>)
     df6:	f7ff fdbf 	bl	978 <parse_command(char*)>
     dfa:	4603      	mov	r3, r0
     dfc:	f88d 3007 	strb.w	r3, [sp, #7]
     e00:	4805      	ldr	r0, [pc, #20]	; (e18 <main+0x48>)
     e02:	f7ff fde9 	bl	9d8 <parse_args(char*)>
     e06:	9000      	str	r0, [sp, #0]
     e08:	f89d 3007 	ldrb.w	r3, [sp, #7]
     e0c:	4618      	mov	r0, r3
     e0e:	9900      	ldr	r1, [sp, #0]
     e10:	f7ff fe12 	bl	a38 <execute(COMMAND_t, int)>
     e14:	e7ec      	b.n	df0 <main+0x20>
     e16:	bf00      	nop
     e18:	10000658 	.word	0x10000658

00000e1c <mbed::Serial::~Serial()>:
     e1c:	b500      	push	{lr}
     e1e:	b083      	sub	sp, #12
     e20:	9001      	str	r0, [sp, #4]
     e22:	9b01      	ldr	r3, [sp, #4]
     e24:	4a0d      	ldr	r2, [pc, #52]	; (e5c <mbed::Serial::~Serial()+0x40>)
     e26:	601a      	str	r2, [r3, #0]
     e28:	9b01      	ldr	r3, [sp, #4]
     e2a:	4a0d      	ldr	r2, [pc, #52]	; (e60 <mbed::Serial::~Serial()+0x44>)
     e2c:	649a      	str	r2, [r3, #72]	; 0x48
     e2e:	9b01      	ldr	r3, [sp, #4]
     e30:	4a0c      	ldr	r2, [pc, #48]	; (e64 <mbed::Serial::~Serial()+0x48>)
     e32:	64da      	str	r2, [r3, #76]	; 0x4c
     e34:	9b01      	ldr	r3, [sp, #4]
     e36:	3348      	adds	r3, #72	; 0x48
     e38:	4618      	mov	r0, r3
     e3a:	f003 fe49 	bl	4ad0 <mbed::Stream::~Stream()>
     e3e:	9b01      	ldr	r3, [sp, #4]
     e40:	4618      	mov	r0, r3
     e42:	f7ff fa5d 	bl	300 <mbed::SerialBase::~SerialBase()>
     e46:	2300      	movs	r3, #0
     e48:	2b00      	cmp	r3, #0
     e4a:	d002      	beq.n	e52 <mbed::Serial::~Serial()+0x36>
     e4c:	9801      	ldr	r0, [sp, #4]
     e4e:	f005 fd15 	bl	687c <operator delete(void*)>
     e52:	9b01      	ldr	r3, [sp, #4]
     e54:	4618      	mov	r0, r3
     e56:	b003      	add	sp, #12
     e58:	f85d fb04 	ldr.w	pc, [sp], #4
     e5c:	0000db40 	.word	0x0000db40
     e60:	0000db58 	.word	0x0000db58
     e64:	0000db8c 	.word	0x0000db8c

00000e68 <non-virtual thunk to mbed::Serial::~Serial()>:
     e68:	f1a0 004c 	sub.w	r0, r0, #76	; 0x4c
     e6c:	f7ff bfd6 	b.w	e1c <mbed::Serial::~Serial()>

00000e70 <non-virtual thunk to mbed::Serial::~Serial()>:
     e70:	f1a0 0048 	sub.w	r0, r0, #72	; 0x48
     e74:	f7ff bfd2 	b.w	e1c <mbed::Serial::~Serial()>

00000e78 <mbed::Serial::~Serial()>:
     e78:	b500      	push	{lr}
     e7a:	b083      	sub	sp, #12
     e7c:	9001      	str	r0, [sp, #4]
     e7e:	9801      	ldr	r0, [sp, #4]
     e80:	f7ff ffcc 	bl	e1c <mbed::Serial::~Serial()>
     e84:	9801      	ldr	r0, [sp, #4]
     e86:	f005 fcf9 	bl	687c <operator delete(void*)>
     e8a:	9b01      	ldr	r3, [sp, #4]
     e8c:	4618      	mov	r0, r3
     e8e:	b003      	add	sp, #12
     e90:	f85d fb04 	ldr.w	pc, [sp], #4

00000e94 <non-virtual thunk to mbed::Serial::~Serial()>:
     e94:	f1a0 004c 	sub.w	r0, r0, #76	; 0x4c
     e98:	e7ee      	b.n	e78 <mbed::Serial::~Serial()>
     e9a:	bf00      	nop

00000e9c <non-virtual thunk to mbed::Serial::~Serial()>:
     e9c:	f1a0 0048 	sub.w	r0, r0, #72	; 0x48
     ea0:	e7ea      	b.n	e78 <mbed::Serial::~Serial()>
     ea2:	bf00      	nop

00000ea4 <mbed::Ticker::~Ticker()>:
     ea4:	b500      	push	{lr}
     ea6:	b083      	sub	sp, #12
     ea8:	9001      	str	r0, [sp, #4]
     eaa:	9b01      	ldr	r3, [sp, #4]
     eac:	4a08      	ldr	r2, [pc, #32]	; (ed0 <mbed::Ticker::~Ticker()+0x2c>)
     eae:	601a      	str	r2, [r3, #0]
     eb0:	9b01      	ldr	r3, [sp, #4]
     eb2:	4618      	mov	r0, r3
     eb4:	f003 ffb0 	bl	4e18 <mbed::TimerEvent::~TimerEvent()>
     eb8:	2300      	movs	r3, #0
     eba:	2b00      	cmp	r3, #0
     ebc:	d002      	beq.n	ec4 <mbed::Ticker::~Ticker()+0x20>
     ebe:	9801      	ldr	r0, [sp, #4]
     ec0:	f005 fcdc 	bl	687c <operator delete(void*)>
     ec4:	9b01      	ldr	r3, [sp, #4]
     ec6:	4618      	mov	r0, r3
     ec8:	b003      	add	sp, #12
     eca:	f85d fb04 	ldr.w	pc, [sp], #4
     ece:	bf00      	nop
     ed0:	0000dbf0 	.word	0x0000dbf0

00000ed4 <mbed::Ticker::~Ticker()>:
     ed4:	b500      	push	{lr}
     ed6:	b083      	sub	sp, #12
     ed8:	9001      	str	r0, [sp, #4]
     eda:	9801      	ldr	r0, [sp, #4]
     edc:	f7ff ffe2 	bl	ea4 <mbed::Ticker::~Ticker()>
     ee0:	9801      	ldr	r0, [sp, #4]
     ee2:	f005 fccb 	bl	687c <operator delete(void*)>
     ee6:	9b01      	ldr	r3, [sp, #4]
     ee8:	4618      	mov	r0, r3
     eea:	b003      	add	sp, #12
     eec:	f85d fb04 	ldr.w	pc, [sp], #4

00000ef0 <__static_initialization_and_destruction_0(int, int)>:
     ef0:	b500      	push	{lr}
     ef2:	b083      	sub	sp, #12
     ef4:	9001      	str	r0, [sp, #4]
     ef6:	9100      	str	r1, [sp, #0]
     ef8:	9b01      	ldr	r3, [sp, #4]
     efa:	2b01      	cmp	r3, #1
     efc:	d175      	bne.n	fea <__static_initialization_and_destruction_0(int, int)+0xfa>
     efe:	9a00      	ldr	r2, [sp, #0]
     f00:	f64f 73ff 	movw	r3, #65535	; 0xffff
     f04:	429a      	cmp	r2, r3
     f06:	d170      	bne.n	fea <__static_initialization_and_destruction_0(int, int)+0xfa>
     f08:	4839      	ldr	r0, [pc, #228]	; (ff0 <__static_initialization_and_destruction_0(int, int)+0x100>)
     f0a:	493a      	ldr	r1, [pc, #232]	; (ff4 <__static_initialization_and_destruction_0(int, int)+0x104>)
     f0c:	4a3a      	ldr	r2, [pc, #232]	; (ff8 <__static_initialization_and_destruction_0(int, int)+0x108>)
     f0e:	2300      	movs	r3, #0
     f10:	f003 fc9a 	bl	4848 <mbed::Serial::Serial(PinName, PinName, char const*)>
     f14:	4836      	ldr	r0, [pc, #216]	; (ff0 <__static_initialization_and_destruction_0(int, int)+0x100>)
     f16:	4939      	ldr	r1, [pc, #228]	; (ffc <__static_initialization_and_destruction_0(int, int)+0x10c>)
     f18:	4a39      	ldr	r2, [pc, #228]	; (1000 <__static_initialization_and_destruction_0(int, int)+0x110>)
     f1a:	f005 fcb3 	bl	6884 <__aeabi_atexit>
     f1e:	4839      	ldr	r0, [pc, #228]	; (1004 <__static_initialization_and_destruction_0(int, int)+0x114>)
     f20:	4939      	ldr	r1, [pc, #228]	; (1008 <__static_initialization_and_destruction_0(int, int)+0x118>)
     f22:	f7ff f99f 	bl	264 <mbed::AnalogIn::AnalogIn(PinName)>
     f26:	4839      	ldr	r0, [pc, #228]	; (100c <__static_initialization_and_destruction_0(int, int)+0x11c>)
     f28:	4939      	ldr	r1, [pc, #228]	; (1010 <__static_initialization_and_destruction_0(int, int)+0x120>)
     f2a:	f7ff f99b 	bl	264 <mbed::AnalogIn::AnalogIn(PinName)>
     f2e:	4839      	ldr	r0, [pc, #228]	; (1014 <__static_initialization_and_destruction_0(int, int)+0x124>)
     f30:	4939      	ldr	r1, [pc, #228]	; (1018 <__static_initialization_and_destruction_0(int, int)+0x128>)
     f32:	f7ff f997 	bl	264 <mbed::AnalogIn::AnalogIn(PinName)>
     f36:	4839      	ldr	r0, [pc, #228]	; (101c <__static_initialization_and_destruction_0(int, int)+0x12c>)
     f38:	4939      	ldr	r1, [pc, #228]	; (1020 <__static_initialization_and_destruction_0(int, int)+0x130>)
     f3a:	f7ff f9b9 	bl	2b0 <mbed::AnalogOut::AnalogOut(PinName)>
     f3e:	4839      	ldr	r0, [pc, #228]	; (1024 <__static_initialization_and_destruction_0(int, int)+0x134>)
     f40:	4939      	ldr	r1, [pc, #228]	; (1028 <__static_initialization_and_destruction_0(int, int)+0x138>)
     f42:	f7ff f93d 	bl	1c0 <mbed::DigitalOut::DigitalOut(PinName)>
     f46:	4839      	ldr	r0, [pc, #228]	; (102c <__static_initialization_and_destruction_0(int, int)+0x13c>)
     f48:	4939      	ldr	r1, [pc, #228]	; (1030 <__static_initialization_and_destruction_0(int, int)+0x140>)
     f4a:	f7ff f939 	bl	1c0 <mbed::DigitalOut::DigitalOut(PinName)>
     f4e:	4839      	ldr	r0, [pc, #228]	; (1034 <__static_initialization_and_destruction_0(int, int)+0x144>)
     f50:	4939      	ldr	r1, [pc, #228]	; (1038 <__static_initialization_and_destruction_0(int, int)+0x148>)
     f52:	f7ff f935 	bl	1c0 <mbed::DigitalOut::DigitalOut(PinName)>
     f56:	4839      	ldr	r0, [pc, #228]	; (103c <__static_initialization_and_destruction_0(int, int)+0x14c>)
     f58:	4939      	ldr	r1, [pc, #228]	; (1040 <__static_initialization_and_destruction_0(int, int)+0x150>)
     f5a:	f003 f959 	bl	4210 <mbed::InterruptIn::InterruptIn(PinName)>
     f5e:	4837      	ldr	r0, [pc, #220]	; (103c <__static_initialization_and_destruction_0(int, int)+0x14c>)
     f60:	4938      	ldr	r1, [pc, #224]	; (1044 <__static_initialization_and_destruction_0(int, int)+0x154>)
     f62:	4a27      	ldr	r2, [pc, #156]	; (1000 <__static_initialization_and_destruction_0(int, int)+0x110>)
     f64:	f005 fc8e 	bl	6884 <__aeabi_atexit>
     f68:	4837      	ldr	r0, [pc, #220]	; (1048 <__static_initialization_and_destruction_0(int, int)+0x158>)
     f6a:	4938      	ldr	r1, [pc, #224]	; (104c <__static_initialization_and_destruction_0(int, int)+0x15c>)
     f6c:	f003 f950 	bl	4210 <mbed::InterruptIn::InterruptIn(PinName)>
     f70:	4835      	ldr	r0, [pc, #212]	; (1048 <__static_initialization_and_destruction_0(int, int)+0x158>)
     f72:	4934      	ldr	r1, [pc, #208]	; (1044 <__static_initialization_and_destruction_0(int, int)+0x154>)
     f74:	4a22      	ldr	r2, [pc, #136]	; (1000 <__static_initialization_and_destruction_0(int, int)+0x110>)
     f76:	f005 fc85 	bl	6884 <__aeabi_atexit>
     f7a:	4835      	ldr	r0, [pc, #212]	; (1050 <__static_initialization_and_destruction_0(int, int)+0x160>)
     f7c:	4935      	ldr	r1, [pc, #212]	; (1054 <__static_initialization_and_destruction_0(int, int)+0x164>)
     f7e:	f003 f947 	bl	4210 <mbed::InterruptIn::InterruptIn(PinName)>
     f82:	4833      	ldr	r0, [pc, #204]	; (1050 <__static_initialization_and_destruction_0(int, int)+0x160>)
     f84:	492f      	ldr	r1, [pc, #188]	; (1044 <__static_initialization_and_destruction_0(int, int)+0x154>)
     f86:	4a1e      	ldr	r2, [pc, #120]	; (1000 <__static_initialization_and_destruction_0(int, int)+0x110>)
     f88:	f005 fc7c 	bl	6884 <__aeabi_atexit>
     f8c:	4832      	ldr	r0, [pc, #200]	; (1058 <__static_initialization_and_destruction_0(int, int)+0x168>)
     f8e:	4933      	ldr	r1, [pc, #204]	; (105c <__static_initialization_and_destruction_0(int, int)+0x16c>)
     f90:	f7ff f916 	bl	1c0 <mbed::DigitalOut::DigitalOut(PinName)>
     f94:	4832      	ldr	r0, [pc, #200]	; (1060 <__static_initialization_and_destruction_0(int, int)+0x170>)
     f96:	4933      	ldr	r1, [pc, #204]	; (1064 <__static_initialization_and_destruction_0(int, int)+0x174>)
     f98:	f7ff f912 	bl	1c0 <mbed::DigitalOut::DigitalOut(PinName)>
     f9c:	4832      	ldr	r0, [pc, #200]	; (1068 <__static_initialization_and_destruction_0(int, int)+0x178>)
     f9e:	4933      	ldr	r1, [pc, #204]	; (106c <__static_initialization_and_destruction_0(int, int)+0x17c>)
     fa0:	f7ff f90e 	bl	1c0 <mbed::DigitalOut::DigitalOut(PinName)>
     fa4:	4832      	ldr	r0, [pc, #200]	; (1070 <__static_initialization_and_destruction_0(int, int)+0x180>)
     fa6:	4933      	ldr	r1, [pc, #204]	; (1074 <__static_initialization_and_destruction_0(int, int)+0x184>)
     fa8:	f7ff f90a 	bl	1c0 <mbed::DigitalOut::DigitalOut(PinName)>
     fac:	4832      	ldr	r0, [pc, #200]	; (1078 <__static_initialization_and_destruction_0(int, int)+0x188>)
     fae:	f003 fe91 	bl	4cd4 <mbed::Timer::Timer()>
     fb2:	4832      	ldr	r0, [pc, #200]	; (107c <__static_initialization_and_destruction_0(int, int)+0x18c>)
     fb4:	f003 fe8e 	bl	4cd4 <mbed::Timer::Timer()>
     fb8:	4831      	ldr	r0, [pc, #196]	; (1080 <__static_initialization_and_destruction_0(int, int)+0x190>)
     fba:	f003 fe8b 	bl	4cd4 <mbed::Timer::Timer()>
     fbe:	4831      	ldr	r0, [pc, #196]	; (1084 <__static_initialization_and_destruction_0(int, int)+0x194>)
     fc0:	f003 fe88 	bl	4cd4 <mbed::Timer::Timer()>
     fc4:	4830      	ldr	r0, [pc, #192]	; (1088 <__static_initialization_and_destruction_0(int, int)+0x198>)
     fc6:	f003 fe85 	bl	4cd4 <mbed::Timer::Timer()>
     fca:	4830      	ldr	r0, [pc, #192]	; (108c <__static_initialization_and_destruction_0(int, int)+0x19c>)
     fcc:	f7ff fea0 	bl	d10 <mbed::Ticker::Ticker()>
     fd0:	482e      	ldr	r0, [pc, #184]	; (108c <__static_initialization_and_destruction_0(int, int)+0x19c>)
     fd2:	492f      	ldr	r1, [pc, #188]	; (1090 <__static_initialization_and_destruction_0(int, int)+0x1a0>)
     fd4:	4a0a      	ldr	r2, [pc, #40]	; (1000 <__static_initialization_and_destruction_0(int, int)+0x110>)
     fd6:	f005 fc55 	bl	6884 <__aeabi_atexit>
     fda:	482e      	ldr	r0, [pc, #184]	; (1094 <__static_initialization_and_destruction_0(int, int)+0x1a4>)
     fdc:	f7ff fe98 	bl	d10 <mbed::Ticker::Ticker()>
     fe0:	482c      	ldr	r0, [pc, #176]	; (1094 <__static_initialization_and_destruction_0(int, int)+0x1a4>)
     fe2:	492b      	ldr	r1, [pc, #172]	; (1090 <__static_initialization_and_destruction_0(int, int)+0x1a0>)
     fe4:	4a06      	ldr	r2, [pc, #24]	; (1000 <__static_initialization_and_destruction_0(int, int)+0x110>)
     fe6:	f005 fc4d 	bl	6884 <__aeabi_atexit>
     fea:	b003      	add	sp, #12
     fec:	f85d fb04 	ldr.w	pc, [sp], #4
     ff0:	100001a4 	.word	0x100001a4
     ff4:	2009c002 	.word	0x2009c002
     ff8:	2009c003 	.word	0x2009c003
     ffc:	00000e1d 	.word	0x00000e1d
    1000:	100000c8 	.word	0x100000c8
    1004:	10000204 	.word	0x10000204
    1008:	2009c017 	.word	0x2009c017
    100c:	10000208 	.word	0x10000208
    1010:	2009c018 	.word	0x2009c018
    1014:	1000020c 	.word	0x1000020c
    1018:	2009c019 	.word	0x2009c019
    101c:	10000210 	.word	0x10000210
    1020:	2009c01a 	.word	0x2009c01a
    1024:	10000214 	.word	0x10000214
    1028:	2009c012 	.word	0x2009c012
    102c:	1000022c 	.word	0x1000022c
    1030:	2009c011 	.word	0x2009c011
    1034:	10000244 	.word	0x10000244
    1038:	2009c00f 	.word	0x2009c00f
    103c:	1000025c 	.word	0x1000025c
    1040:	2009c045 	.word	0x2009c045
    1044:	0000429d 	.word	0x0000429d
    1048:	100002bc 	.word	0x100002bc
    104c:	2009c043 	.word	0x2009c043
    1050:	1000031c 	.word	0x1000031c
    1054:	2009c042 	.word	0x2009c042
    1058:	1000037c 	.word	0x1000037c
    105c:	2009c004 	.word	0x2009c004
    1060:	10000394 	.word	0x10000394
    1064:	2009c032 	.word	0x2009c032
    1068:	100003ac 	.word	0x100003ac
    106c:	2009c034 	.word	0x2009c034
    1070:	100003c4 	.word	0x100003c4
    1074:	2009c037 	.word	0x2009c037
    1078:	100003dc 	.word	0x100003dc
    107c:	100003ec 	.word	0x100003ec
    1080:	100006a8 	.word	0x100006a8
    1084:	100006b8 	.word	0x100006b8
    1088:	100006c8 	.word	0x100006c8
    108c:	100006d8 	.word	0x100006d8
    1090:	00000ea5 	.word	0x00000ea5
    1094:	10000708 	.word	0x10000708

00001098 <_GLOBAL__sub_I_pc>:
    1098:	b508      	push	{r3, lr}
    109a:	2001      	movs	r0, #1
    109c:	f64f 71ff 	movw	r1, #65535	; 0xffff
    10a0:	f7ff ff26 	bl	ef0 <__static_initialization_and_destruction_0(int, int)>
    10a4:	bd08      	pop	{r3, pc}
    10a6:	bf00      	nop

000010a8 <_start>:
    10a8:	b500      	push	{lr}
    10aa:	b083      	sub	sp, #12
    10ac:	4a0b      	ldr	r2, [pc, #44]	; (10dc <_start+0x34>)
    10ae:	4b0c      	ldr	r3, [pc, #48]	; (10e0 <_start+0x38>)
    10b0:	1ad3      	subs	r3, r2, r3
    10b2:	9301      	str	r3, [sp, #4]
    10b4:	9b01      	ldr	r3, [sp, #4]
    10b6:	480a      	ldr	r0, [pc, #40]	; (10e0 <_start+0x38>)
    10b8:	2100      	movs	r1, #0
    10ba:	461a      	mov	r2, r3
    10bc:	f006 ff43 	bl	7f46 <memset>
    10c0:	4808      	ldr	r0, [pc, #32]	; (10e4 <_start+0x3c>)
    10c2:	f000 f887 	bl	11d4 <__mriInit>
    10c6:	be00      	bkpt	0x0000
    10c8:	f3af 8000 	nop.w
    10cc:	f006 fea2 	bl	7e14 <__libc_init_array>
    10d0:	f7ff fe7e 	bl	dd0 <main>
    10d4:	9000      	str	r0, [sp, #0]
    10d6:	9800      	ldr	r0, [sp, #0]
    10d8:	f002 fed6 	bl	3e88 <exit>
    10dc:	10000c94 	.word	0x10000c94
    10e0:	10000188 	.word	0x10000188
    10e4:	0000cc48 	.word	0x0000cc48

000010e8 <__wrap__read>:
    10e8:	b500      	push	{lr}
    10ea:	b085      	sub	sp, #20
    10ec:	9003      	str	r0, [sp, #12]
    10ee:	9102      	str	r1, [sp, #8]
    10f0:	9201      	str	r2, [sp, #4]
    10f2:	9b03      	ldr	r3, [sp, #12]
    10f4:	2b02      	cmp	r3, #2
    10f6:	dc06      	bgt.n	1106 <__wrap__read+0x1e>
    10f8:	9803      	ldr	r0, [sp, #12]
    10fa:	9902      	ldr	r1, [sp, #8]
    10fc:	9a01      	ldr	r2, [sp, #4]
    10fe:	f000 fbb1 	bl	1864 <__mriNewlib_SemihostRead>
    1102:	4603      	mov	r3, r0
    1104:	e005      	b.n	1112 <__wrap__read+0x2a>
    1106:	9803      	ldr	r0, [sp, #12]
    1108:	9902      	ldr	r1, [sp, #8]
    110a:	9a01      	ldr	r2, [sp, #4]
    110c:	f003 fad8 	bl	46c0 <_read>
    1110:	4603      	mov	r3, r0
    1112:	4618      	mov	r0, r3
    1114:	b005      	add	sp, #20
    1116:	f85d fb04 	ldr.w	pc, [sp], #4
    111a:	bf00      	nop

0000111c <__wrap__write>:
    111c:	b500      	push	{lr}
    111e:	b085      	sub	sp, #20
    1120:	9003      	str	r0, [sp, #12]
    1122:	9102      	str	r1, [sp, #8]
    1124:	9201      	str	r2, [sp, #4]
    1126:	9b03      	ldr	r3, [sp, #12]
    1128:	2b02      	cmp	r3, #2
    112a:	dc06      	bgt.n	113a <__wrap__write+0x1e>
    112c:	9803      	ldr	r0, [sp, #12]
    112e:	9902      	ldr	r1, [sp, #8]
    1130:	9a01      	ldr	r2, [sp, #4]
    1132:	f000 fb95 	bl	1860 <__mriNewlib_SemihostWrite>
    1136:	4603      	mov	r3, r0
    1138:	e005      	b.n	1146 <__wrap__write+0x2a>
    113a:	9803      	ldr	r0, [sp, #12]
    113c:	9902      	ldr	r1, [sp, #8]
    113e:	9a01      	ldr	r2, [sp, #4]
    1140:	f003 fa7a 	bl	4638 <_write>
    1144:	4603      	mov	r3, r0
    1146:	4618      	mov	r0, r3
    1148:	b005      	add	sp, #20
    114a:	f85d fb04 	ldr.w	pc, [sp], #4
    114e:	bf00      	nop

00001150 <__wrap__isatty>:
    1150:	b500      	push	{lr}
    1152:	b083      	sub	sp, #12
    1154:	9001      	str	r0, [sp, #4]
    1156:	9b01      	ldr	r3, [sp, #4]
    1158:	2b02      	cmp	r3, #2
    115a:	dc01      	bgt.n	1160 <__wrap__isatty+0x10>
    115c:	2301      	movs	r3, #1
    115e:	e003      	b.n	1168 <__wrap__isatty+0x18>
    1160:	9801      	ldr	r0, [sp, #4]
    1162:	f003 fadf 	bl	4724 <_isatty>
    1166:	4603      	mov	r3, r0
    1168:	4618      	mov	r0, r3
    116a:	b003      	add	sp, #12
    116c:	f85d fb04 	ldr.w	pc, [sp], #4

00001170 <breakOnHeapOpFromInterruptHandler>:
    1170:	b082      	sub	sp, #8
    1172:	f3ef 8305 	mrs	r3, IPSR
    1176:	9301      	str	r3, [sp, #4]
    1178:	9b01      	ldr	r3, [sp, #4]
    117a:	2b00      	cmp	r3, #0
    117c:	d000      	beq.n	1180 <breakOnHeapOpFromInterruptHandler+0x10>
    117e:	be00      	bkpt	0x0000
    1180:	b002      	add	sp, #8
    1182:	4770      	bx	lr

00001184 <__wrap_malloc>:
    1184:	b500      	push	{lr}
    1186:	b083      	sub	sp, #12
    1188:	9001      	str	r0, [sp, #4]
    118a:	f7ff fff1 	bl	1170 <breakOnHeapOpFromInterruptHandler>
    118e:	9801      	ldr	r0, [sp, #4]
    1190:	f006 feb2 	bl	7ef8 <malloc>
    1194:	4603      	mov	r3, r0
    1196:	4618      	mov	r0, r3
    1198:	b003      	add	sp, #12
    119a:	f85d fb04 	ldr.w	pc, [sp], #4
    119e:	bf00      	nop

000011a0 <__wrap_free>:
    11a0:	b500      	push	{lr}
    11a2:	b083      	sub	sp, #12
    11a4:	9001      	str	r0, [sp, #4]
    11a6:	f7ff ffe3 	bl	1170 <breakOnHeapOpFromInterruptHandler>
    11aa:	9801      	ldr	r0, [sp, #4]
    11ac:	f006 feac 	bl	7f08 <free>
    11b0:	b003      	add	sp, #12
    11b2:	f85d fb04 	ldr.w	pc, [sp], #4
    11b6:	bf00      	nop

000011b8 <__wrap_semihost_connected>:
    11b8:	f04f 33ff 	mov.w	r3, #4294967295
    11bc:	4618      	mov	r0, r3
    11be:	4770      	bx	lr

000011c0 <abort>:
    11c0:	b508      	push	{r3, lr}
    11c2:	be00      	bkpt	0x0000
    11c4:	2001      	movs	r0, #1
    11c6:	f002 fe5f 	bl	3e88 <exit>
    11ca:	bf00      	nop

000011cc <__cxa_pure_virtual>:
    11cc:	b508      	push	{r3, lr}
    11ce:	f7ff fff7 	bl	11c0 <abort>
    11d2:	bf00      	nop

000011d4 <__mriInit>:
    11d4:	b570      	push	{r4, r5, r6, lr}
    11d6:	2100      	movs	r1, #0
    11d8:	b09e      	sub	sp, #120	; 0x78
    11da:	2224      	movs	r2, #36	; 0x24
    11dc:	4c0e      	ldr	r4, [pc, #56]	; (1218 <__mriInit+0x44>)
    11de:	4606      	mov	r6, r0
    11e0:	480e      	ldr	r0, [pc, #56]	; (121c <__mriInit+0x48>)
    11e2:	f006 feb0 	bl	7f46 <memset>
    11e6:	2500      	movs	r5, #0
    11e8:	a801      	add	r0, sp, #4
    11ea:	6025      	str	r5, [r4, #0]
    11ec:	f000 f9ec 	bl	15c8 <__mriToken_Init>
    11f0:	a801      	add	r0, sp, #4
    11f2:	4631      	mov	r1, r6
    11f4:	6025      	str	r5, [r4, #0]
    11f6:	f000 f9f7 	bl	15e8 <__mriToken_SplitString>
    11fa:	6823      	ldr	r3, [r4, #0]
    11fc:	b913      	cbnz	r3, 1204 <__mriInit+0x30>
    11fe:	a801      	add	r0, sp, #4
    1200:	f001 fc2e 	bl	2a60 <__mriPlatform_Init>
    1204:	6823      	ldr	r3, [r4, #0]
    1206:	b923      	cbnz	r3, 1212 <__mriInit+0x3e>
    1208:	4b04      	ldr	r3, [pc, #16]	; (121c <__mriInit+0x48>)
    120a:	695a      	ldr	r2, [r3, #20]
    120c:	f042 0203 	orr.w	r2, r2, #3
    1210:	615a      	str	r2, [r3, #20]
    1212:	b01e      	add	sp, #120	; 0x78
    1214:	bd70      	pop	{r4, r5, r6, pc}
    1216:	bf00      	nop
    1218:	10000a48 	.word	0x10000a48
    121c:	10000738 	.word	0x10000738

00001220 <__mriCore_InitBuffer>:
    1220:	b510      	push	{r4, lr}
    1222:	f000 fde5 	bl	1df0 <__mriPlatform_GetPacketBuffer>
    1226:	4604      	mov	r4, r0
    1228:	f000 fde6 	bl	1df8 <__mriPlatform_GetPacketBufferSize>
    122c:	4621      	mov	r1, r4
    122e:	4602      	mov	r2, r0
    1230:	e8bd 4010 	ldmia.w	sp!, {r4, lr}
    1234:	4801      	ldr	r0, [pc, #4]	; (123c <__mriCore_InitBuffer+0x1c>)
    1236:	f001 bc91 	b.w	2b5c <__mriBuffer_Init>
    123a:	bf00      	nop
    123c:	10000740 	.word	0x10000740

00001240 <__mriCore_PrepareStringResponse>:
    1240:	b510      	push	{r4, lr}
    1242:	4604      	mov	r4, r0
    1244:	f7ff ffec 	bl	1220 <__mriCore_InitBuffer>
    1248:	4621      	mov	r1, r4
    124a:	4802      	ldr	r0, [pc, #8]	; (1254 <__mriCore_PrepareStringResponse+0x14>)
    124c:	e8bd 4010 	ldmia.w	sp!, {r4, lr}
    1250:	f001 bd38 	b.w	2cc4 <__mriBuffer_WriteString>
    1254:	10000740 	.word	0x10000740

00001258 <__mriCore_WasControlCFlagSentFromGdb>:
    1258:	4b02      	ldr	r3, [pc, #8]	; (1264 <__mriCore_WasControlCFlagSentFromGdb+0xc>)
    125a:	6958      	ldr	r0, [r3, #20]
    125c:	f000 0004 	and.w	r0, r0, #4
    1260:	4770      	bx	lr
    1262:	bf00      	nop
    1264:	10000738 	.word	0x10000738

00001268 <__mriCore_IsWaitingForGdbToConnect>:
    1268:	b508      	push	{r3, lr}
    126a:	4b05      	ldr	r3, [pc, #20]	; (1280 <__mriCore_IsWaitingForGdbToConnect+0x18>)
    126c:	6958      	ldr	r0, [r3, #20]
    126e:	f010 0002 	ands.w	r0, r0, #2
    1272:	d004      	beq.n	127e <__mriCore_IsWaitingForGdbToConnect+0x16>
    1274:	f001 fa4c 	bl	2710 <__mriPlatform_CommShouldWaitForGdbConnect>
    1278:	3000      	adds	r0, #0
    127a:	bf18      	it	ne
    127c:	2001      	movne	r0, #1
    127e:	bd08      	pop	{r3, pc}
    1280:	10000738 	.word	0x10000738

00001284 <__mriCore_RecordControlCFlagSentFromGdb>:
    1284:	4b04      	ldr	r3, [pc, #16]	; (1298 <__mriCore_RecordControlCFlagSentFromGdb+0x14>)
    1286:	695a      	ldr	r2, [r3, #20]
    1288:	b110      	cbz	r0, 1290 <__mriCore_RecordControlCFlagSentFromGdb+0xc>
    128a:	f042 0204 	orr.w	r2, r2, #4
    128e:	e001      	b.n	1294 <__mriCore_RecordControlCFlagSentFromGdb+0x10>
    1290:	f022 0204 	bic.w	r2, r2, #4
    1294:	615a      	str	r2, [r3, #20]
    1296:	4770      	bx	lr
    1298:	10000738 	.word	0x10000738

0000129c <__mriCore_WasSemihostCallCancelledByGdb>:
    129c:	4b02      	ldr	r3, [pc, #8]	; (12a8 <__mriCore_WasSemihostCallCancelledByGdb+0xc>)
    129e:	69d8      	ldr	r0, [r3, #28]
    12a0:	1f03      	subs	r3, r0, #4
    12a2:	4258      	negs	r0, r3
    12a4:	4158      	adcs	r0, r3
    12a6:	4770      	bx	lr
    12a8:	10000738 	.word	0x10000738

000012ac <__mriCore_FlagSemihostCallAsHandled>:
    12ac:	b508      	push	{r3, lr}
    12ae:	f000 fed5 	bl	205c <__mriPlatform_AdvanceProgramCounterToNextInstruction>
    12b2:	4b03      	ldr	r3, [pc, #12]	; (12c0 <__mriCore_FlagSemihostCallAsHandled+0x14>)
    12b4:	6998      	ldr	r0, [r3, #24]
    12b6:	69d9      	ldr	r1, [r3, #28]
    12b8:	e8bd 4008 	ldmia.w	sp!, {r3, lr}
    12bc:	f000 be96 	b.w	1fec <__mriPlatform_SetSemihostCallReturnAndErrnoValues>
    12c0:	10000738 	.word	0x10000738

000012c4 <__mriCore_IsFirstException>:
    12c4:	4b02      	ldr	r3, [pc, #8]	; (12d0 <__mriCore_IsFirstException+0xc>)
    12c6:	6958      	ldr	r0, [r3, #20]
    12c8:	f000 0002 	and.w	r0, r0, #2
    12cc:	4770      	bx	lr
    12ce:	bf00      	nop
    12d0:	10000738 	.word	0x10000738

000012d4 <__mriCore_SetSignalValue>:
    12d4:	4b01      	ldr	r3, [pc, #4]	; (12dc <__mriCore_SetSignalValue+0x8>)
    12d6:	f883 0020 	strb.w	r0, [r3, #32]
    12da:	4770      	bx	lr
    12dc:	10000738 	.word	0x10000738

000012e0 <__mriCore_GetSignalValue>:
    12e0:	4b01      	ldr	r3, [pc, #4]	; (12e8 <__mriCore_GetSignalValue+0x8>)
    12e2:	f893 0020 	ldrb.w	r0, [r3, #32]
    12e6:	4770      	bx	lr
    12e8:	10000738 	.word	0x10000738

000012ec <__mriCore_SetSemihostReturnValues>:
    12ec:	4b01      	ldr	r3, [pc, #4]	; (12f4 <__mriCore_SetSemihostReturnValues+0x8>)
    12ee:	6198      	str	r0, [r3, #24]
    12f0:	61d9      	str	r1, [r3, #28]
    12f2:	4770      	bx	lr
    12f4:	10000738 	.word	0x10000738

000012f8 <__mriCore_GetSemihostReturnCode>:
    12f8:	4b01      	ldr	r3, [pc, #4]	; (1300 <__mriCore_GetSemihostReturnCode+0x8>)
    12fa:	6998      	ldr	r0, [r3, #24]
    12fc:	4770      	bx	lr
    12fe:	bf00      	nop
    1300:	10000738 	.word	0x10000738

00001304 <__mriCore_GetBuffer>:
    1304:	4800      	ldr	r0, [pc, #0]	; (1308 <__mriCore_GetBuffer+0x4>)
    1306:	4770      	bx	lr
    1308:	10000740 	.word	0x10000740

0000130c <__mriCore_GetInitializedBuffer>:
    130c:	b508      	push	{r3, lr}
    130e:	f7ff ff87 	bl	1220 <__mriCore_InitBuffer>
    1312:	4801      	ldr	r0, [pc, #4]	; (1318 <__mriCore_GetInitializedBuffer+0xc>)
    1314:	bd08      	pop	{r3, pc}
    1316:	bf00      	nop
    1318:	10000740 	.word	0x10000740

0000131c <__mriCore_SendPacketToGdb>:
    131c:	b508      	push	{r3, lr}
    131e:	480a      	ldr	r0, [pc, #40]	; (1348 <__mriCore_SendPacketToGdb+0x2c>)
    1320:	f001 fc46 	bl	2bb0 <__mriBuffer_OverrunDetected>
    1324:	b128      	cbz	r0, 1332 <__mriCore_SendPacketToGdb+0x16>
    1326:	f7ff ff7b 	bl	1220 <__mriCore_InitBuffer>
    132a:	4807      	ldr	r0, [pc, #28]	; (1348 <__mriCore_SendPacketToGdb+0x2c>)
    132c:	4907      	ldr	r1, [pc, #28]	; (134c <__mriCore_SendPacketToGdb+0x30>)
    132e:	f001 fcc9 	bl	2cc4 <__mriBuffer_WriteString>
    1332:	4805      	ldr	r0, [pc, #20]	; (1348 <__mriCore_SendPacketToGdb+0x2c>)
    1334:	f001 fc1a 	bl	2b6c <__mriBuffer_SetEndOfBuffer>
    1338:	e8bd 4008 	ldmia.w	sp!, {r3, lr}
    133c:	4804      	ldr	r0, [pc, #16]	; (1350 <__mriCore_SendPacketToGdb+0x34>)
    133e:	f100 0108 	add.w	r1, r0, #8
    1342:	f000 b907 	b.w	1554 <__mriPacket_SendToGDB>
    1346:	bf00      	nop
    1348:	10000740 	.word	0x10000740
    134c:	0000ccbc 	.word	0x0000ccbc
    1350:	10000738 	.word	0x10000738

00001354 <__mriCore_GdbCommandHandlingLoop>:
    1354:	b510      	push	{r4, lr}
    1356:	f7ff ff63 	bl	1220 <__mriCore_InitBuffer>
    135a:	4812      	ldr	r0, [pc, #72]	; (13a4 <__mriCore_GdbCommandHandlingLoop+0x50>)
    135c:	f100 0108 	add.w	r1, r0, #8
    1360:	f000 f894 	bl	148c <__mriPacket_GetFromGDB>
    1364:	4810      	ldr	r0, [pc, #64]	; (13a8 <__mriCore_GdbCommandHandlingLoop+0x54>)
    1366:	f001 fc3d 	bl	2be4 <__mriBuffer_ReadChar>
    136a:	2300      	movs	r3, #0
    136c:	4a0f      	ldr	r2, [pc, #60]	; (13ac <__mriCore_GdbCommandHandlingLoop+0x58>)
    136e:	eb02 01c3 	add.w	r1, r2, r3, lsl #3
    1372:	7909      	ldrb	r1, [r1, #4]
    1374:	4281      	cmp	r1, r0
    1376:	d106      	bne.n	1386 <__mriCore_GdbCommandHandlingLoop+0x32>
    1378:	f852 3033 	ldr.w	r3, [r2, r3, lsl #3]
    137c:	4798      	blx	r3
    137e:	0783      	lsls	r3, r0, #30
    1380:	4604      	mov	r4, r0
    1382:	d507      	bpl.n	1394 <__mriCore_GdbCommandHandlingLoop+0x40>
    1384:	e008      	b.n	1398 <__mriCore_GdbCommandHandlingLoop+0x44>
    1386:	3301      	adds	r3, #1
    1388:	2b0c      	cmp	r3, #12
    138a:	d1ef      	bne.n	136c <__mriCore_GdbCommandHandlingLoop+0x18>
    138c:	4808      	ldr	r0, [pc, #32]	; (13b0 <__mriCore_GdbCommandHandlingLoop+0x5c>)
    138e:	f7ff ff57 	bl	1240 <__mriCore_PrepareStringResponse>
    1392:	2400      	movs	r4, #0
    1394:	f7ff ffc2 	bl	131c <__mriCore_SendPacketToGdb>
    1398:	f004 0401 	and.w	r4, r4, #1
    139c:	2c00      	cmp	r4, #0
    139e:	d0da      	beq.n	1356 <__mriCore_GdbCommandHandlingLoop+0x2>
    13a0:	bd10      	pop	{r4, pc}
    13a2:	bf00      	nop
    13a4:	10000738 	.word	0x10000738
    13a8:	10000740 	.word	0x10000740
    13ac:	0000cc5c 	.word	0x0000cc5c
    13b0:	0000ccd2 	.word	0x0000ccd2

000013b4 <__mriDebugException>:
    13b4:	b5f8      	push	{r3, r4, r5, r6, r7, lr}
    13b6:	f7ff ff57 	bl	1268 <__mriCore_IsWaitingForGdbToConnect>
    13ba:	4606      	mov	r6, r0
    13bc:	f000 fd10 	bl	1de0 <__mriPlatform_IsSingleStepping>
    13c0:	4607      	mov	r7, r0
    13c2:	f001 f989 	bl	26d8 <__mriPlatform_CommCausedInterrupt>
    13c6:	b130      	cbz	r0, 13d6 <__mriDebugException+0x22>
    13c8:	f001 f964 	bl	2694 <__mriPlatform_CommHasReceiveData>
    13cc:	b918      	cbnz	r0, 13d6 <__mriDebugException+0x22>
    13ce:	e8bd 40f8 	ldmia.w	sp!, {r3, r4, r5, r6, r7, lr}
    13d2:	f001 b98d 	b.w	26f0 <__mriPlatform_CommClearInterrupt>
    13d6:	f3af 8000 	nop.w
    13da:	f7ff ff45 	bl	1268 <__mriCore_IsWaitingForGdbToConnect>
    13de:	b160      	cbz	r0, 13fa <__mriDebugException+0x46>
    13e0:	f001 f9a2 	bl	2728 <__mriPlatform_CommIsWaitingForGdbToConnect>
    13e4:	2800      	cmp	r0, #0
    13e6:	d1fb      	bne.n	13e0 <__mriDebugException+0x2c>
    13e8:	f001 f95e 	bl	26a8 <__mriPlatform_CommReceiveChar>
    13ec:	282b      	cmp	r0, #43	; 0x2b
    13ee:	d004      	beq.n	13fa <__mriDebugException+0x46>
    13f0:	f001 fb0c 	bl	2a0c <__mriPlatform_CommWaitForReceiveDataToStop>
    13f4:	f001 f9a6 	bl	2744 <__mriPlatform_CommPrepareToWaitForGdbConnection>
    13f8:	e7f2      	b.n	13e0 <__mriDebugException+0x2c>
    13fa:	f000 ff6f 	bl	22dc <__mriPlatform_EnteringDebugger>
    13fe:	f000 fcfd 	bl	1dfc <__mriPlatform_DetermineCauseOfException>
    1402:	4c13      	ldr	r4, [pc, #76]	; (1450 <__mriDebugException+0x9c>)
    1404:	2805      	cmp	r0, #5
    1406:	f884 0020 	strb.w	r0, [r4, #32]
    140a:	4625      	mov	r5, r4
    140c:	d10f      	bne.n	142e <__mriDebugException+0x7a>
    140e:	f000 f976 	bl	16fe <__mriSemihost_IsDebuggeeMakingSemihostCall>
    1412:	b160      	cbz	r0, 142e <__mriDebugException+0x7a>
    1414:	f000 f97d 	bl	1712 <__mriSemihost_HandleSemihostRequest>
    1418:	b148      	cbz	r0, 142e <__mriDebugException+0x7a>
    141a:	b947      	cbnz	r7, 142e <__mriDebugException+0x7a>
    141c:	f000 fd72 	bl	1f04 <__mriPlatform_LeavingDebugger>
    1420:	f3af 8000 	nop.w
    1424:	6963      	ldr	r3, [r4, #20]
    1426:	f023 0302 	bic.w	r3, r3, #2
    142a:	6163      	str	r3, [r4, #20]
    142c:	bdf8      	pop	{r3, r4, r5, r6, r7, pc}
    142e:	b91e      	cbnz	r6, 1438 <__mriDebugException+0x84>
    1430:	f000 fd22 	bl	1e78 <__mriPlatform_DisplayFaultCauseToGdbConsole>
    1434:	f002 f95e 	bl	36f4 <__mriCmd_Send_T_StopResponse>
    1438:	f7ff ff8c 	bl	1354 <__mriCore_GdbCommandHandlingLoop>
    143c:	f000 fd62 	bl	1f04 <__mriPlatform_LeavingDebugger>
    1440:	f3af 8000 	nop.w
    1444:	696b      	ldr	r3, [r5, #20]
    1446:	f023 0302 	bic.w	r3, r3, #2
    144a:	616b      	str	r3, [r5, #20]
    144c:	bdf8      	pop	{r3, r4, r5, r6, r7, pc}
    144e:	bf00      	nop
    1450:	10000738 	.word	0x10000738

00001454 <HexCharToNibble>:
    1454:	f1a0 0361 	sub.w	r3, r0, #97	; 0x61
    1458:	2b05      	cmp	r3, #5
    145a:	d801      	bhi.n	1460 <HexCharToNibble+0xc>
    145c:	3857      	subs	r0, #87	; 0x57
    145e:	4770      	bx	lr
    1460:	f1a0 0341 	sub.w	r3, r0, #65	; 0x41
    1464:	2b05      	cmp	r3, #5
    1466:	d801      	bhi.n	146c <HexCharToNibble+0x18>
    1468:	3837      	subs	r0, #55	; 0x37
    146a:	4770      	bx	lr
    146c:	3830      	subs	r0, #48	; 0x30
    146e:	b2c3      	uxtb	r3, r0
    1470:	2b09      	cmp	r3, #9
    1472:	d907      	bls.n	1484 <HexCharToNibble+0x30>
    1474:	4b04      	ldr	r3, [pc, #16]	; (1488 <HexCharToNibble+0x34>)
    1476:	f04f 30ff 	mov.w	r0, #4294967295
    147a:	681a      	ldr	r2, [r3, #0]
    147c:	2a02      	cmp	r2, #2
    147e:	bfb8      	it	lt
    1480:	2202      	movlt	r2, #2
    1482:	601a      	str	r2, [r3, #0]
    1484:	4770      	bx	lr
    1486:	bf00      	nop
    1488:	10000a48 	.word	0x10000a48

0000148c <__mriPacket_GetFromGDB>:
    148c:	b5f8      	push	{r3, r4, r5, r6, r7, lr}
    148e:	2208      	movs	r2, #8
    1490:	4604      	mov	r4, r0
    1492:	460d      	mov	r5, r1
    1494:	2100      	movs	r1, #0
    1496:	f006 fd56 	bl	7f46 <memset>
    149a:	6025      	str	r5, [r4, #0]
    149c:	7920      	ldrb	r0, [r4, #4]
    149e:	2824      	cmp	r0, #36	; 0x24
    14a0:	d004      	beq.n	14ac <__mriPacket_GetFromGDB+0x20>
    14a2:	f001 f901 	bl	26a8 <__mriPlatform_CommReceiveChar>
    14a6:	b2c0      	uxtb	r0, r0
    14a8:	7120      	strb	r0, [r4, #4]
    14aa:	e7f8      	b.n	149e <__mriPacket_GetFromGDB+0x12>
    14ac:	6820      	ldr	r0, [r4, #0]
    14ae:	f001 fb5a 	bl	2b66 <__mriBuffer_Reset>
    14b2:	2300      	movs	r3, #0
    14b4:	7163      	strb	r3, [r4, #5]
    14b6:	f001 f8f7 	bl	26a8 <__mriPlatform_CommReceiveChar>
    14ba:	b2c5      	uxtb	r5, r0
    14bc:	7125      	strb	r5, [r4, #4]
    14be:	6820      	ldr	r0, [r4, #0]
    14c0:	f001 fb5a 	bl	2b78 <__mriBuffer_BytesLeft>
    14c4:	b158      	cbz	r0, 14de <__mriPacket_GetFromGDB+0x52>
    14c6:	2d24      	cmp	r5, #36	; 0x24
    14c8:	d0e8      	beq.n	149c <__mriPacket_GetFromGDB+0x10>
    14ca:	2d23      	cmp	r5, #35	; 0x23
    14cc:	d009      	beq.n	14e2 <__mriPacket_GetFromGDB+0x56>
    14ce:	7963      	ldrb	r3, [r4, #5]
    14d0:	6820      	ldr	r0, [r4, #0]
    14d2:	442b      	add	r3, r5
    14d4:	7163      	strb	r3, [r4, #5]
    14d6:	4629      	mov	r1, r5
    14d8:	f001 fb72 	bl	2bc0 <__mriBuffer_WriteChar>
    14dc:	e7eb      	b.n	14b6 <__mriPacket_GetFromGDB+0x2a>
    14de:	2d23      	cmp	r5, #35	; 0x23
    14e0:	d1dc      	bne.n	149c <__mriPacket_GetFromGDB+0x10>
    14e2:	4d1b      	ldr	r5, [pc, #108]	; (1550 <__mriPacket_GetFromGDB+0xc4>)
    14e4:	2300      	movs	r3, #0
    14e6:	602b      	str	r3, [r5, #0]
    14e8:	f001 f8de 	bl	26a8 <__mriPlatform_CommReceiveChar>
    14ec:	b2c7      	uxtb	r7, r0
    14ee:	7127      	strb	r7, [r4, #4]
    14f0:	f001 f8da 	bl	26a8 <__mriPlatform_CommReceiveChar>
    14f4:	b2c6      	uxtb	r6, r0
    14f6:	7126      	strb	r6, [r4, #4]
    14f8:	4638      	mov	r0, r7
    14fa:	f7ff ffab 	bl	1454 <HexCharToNibble>
    14fe:	682b      	ldr	r3, [r5, #0]
    1500:	4607      	mov	r7, r0
    1502:	b943      	cbnz	r3, 1516 <__mriPacket_GetFromGDB+0x8a>
    1504:	4630      	mov	r0, r6
    1506:	f7ff ffa5 	bl	1454 <HexCharToNibble>
    150a:	682b      	ldr	r3, [r5, #0]
    150c:	b91b      	cbnz	r3, 1516 <__mriPacket_GetFromGDB+0x8a>
    150e:	b2ff      	uxtb	r7, r7
    1510:	ea40 1707 	orr.w	r7, r0, r7, lsl #4
    1514:	71a7      	strb	r7, [r4, #6]
    1516:	682b      	ldr	r3, [r5, #0]
    1518:	b113      	cbz	r3, 1520 <__mriPacket_GetFromGDB+0x94>
    151a:	7963      	ldrb	r3, [r4, #5]
    151c:	43db      	mvns	r3, r3
    151e:	71a3      	strb	r3, [r4, #6]
    1520:	f001 f8b8 	bl	2694 <__mriPlatform_CommHasReceiveData>
    1524:	2800      	cmp	r0, #0
    1526:	d1b9      	bne.n	149c <__mriPacket_GetFromGDB+0x10>
    1528:	79a2      	ldrb	r2, [r4, #6]
    152a:	7963      	ldrb	r3, [r4, #5]
    152c:	429a      	cmp	r2, r3
    152e:	bf14      	ite	ne
    1530:	202d      	movne	r0, #45	; 0x2d
    1532:	202b      	moveq	r0, #43	; 0x2b
    1534:	f001 f8c4 	bl	26c0 <__mriPlatform_CommSendChar>
    1538:	79a2      	ldrb	r2, [r4, #6]
    153a:	7963      	ldrb	r3, [r4, #5]
    153c:	429a      	cmp	r2, r3
    153e:	d1ad      	bne.n	149c <__mriPacket_GetFromGDB+0x10>
    1540:	6820      	ldr	r0, [r4, #0]
    1542:	f001 fb13 	bl	2b6c <__mriBuffer_SetEndOfBuffer>
    1546:	6820      	ldr	r0, [r4, #0]
    1548:	e8bd 40f8 	ldmia.w	sp!, {r3, r4, r5, r6, r7, lr}
    154c:	f001 bb0b 	b.w	2b66 <__mriBuffer_Reset>
    1550:	10000a48 	.word	0x10000a48

00001554 <__mriPacket_SendToGDB>:
    1554:	b570      	push	{r4, r5, r6, lr}
    1556:	2208      	movs	r2, #8
    1558:	4604      	mov	r4, r0
    155a:	460d      	mov	r5, r1
    155c:	2100      	movs	r1, #0
    155e:	f006 fcf2 	bl	7f46 <memset>
    1562:	6025      	str	r5, [r4, #0]
    1564:	6820      	ldr	r0, [r4, #0]
    1566:	f001 fafe 	bl	2b66 <__mriBuffer_Reset>
    156a:	2300      	movs	r3, #0
    156c:	7163      	strb	r3, [r4, #5]
    156e:	2024      	movs	r0, #36	; 0x24
    1570:	f001 f8a6 	bl	26c0 <__mriPlatform_CommSendChar>
    1574:	6820      	ldr	r0, [r4, #0]
    1576:	f001 faff 	bl	2b78 <__mriBuffer_BytesLeft>
    157a:	b148      	cbz	r0, 1590 <__mriPacket_SendToGDB+0x3c>
    157c:	6820      	ldr	r0, [r4, #0]
    157e:	f001 fb31 	bl	2be4 <__mriBuffer_ReadChar>
    1582:	4605      	mov	r5, r0
    1584:	f001 f89c 	bl	26c0 <__mriPlatform_CommSendChar>
    1588:	7963      	ldrb	r3, [r4, #5]
    158a:	441d      	add	r5, r3
    158c:	7165      	strb	r5, [r4, #5]
    158e:	e7f1      	b.n	1574 <__mriPacket_SendToGDB+0x20>
    1590:	2023      	movs	r0, #35	; 0x23
    1592:	f001 f895 	bl	26c0 <__mriPlatform_CommSendChar>
    1596:	7966      	ldrb	r6, [r4, #5]
    1598:	4d0a      	ldr	r5, [pc, #40]	; (15c4 <__mriPacket_SendToGDB+0x70>)
    159a:	0933      	lsrs	r3, r6, #4
    159c:	5ce8      	ldrb	r0, [r5, r3]
    159e:	f006 060f 	and.w	r6, r6, #15
    15a2:	f001 f88d 	bl	26c0 <__mriPlatform_CommSendChar>
    15a6:	5da8      	ldrb	r0, [r5, r6]
    15a8:	f001 f88a 	bl	26c0 <__mriPlatform_CommSendChar>
    15ac:	f001 f87c 	bl	26a8 <__mriPlatform_CommReceiveChar>
    15b0:	7120      	strb	r0, [r4, #4]
    15b2:	b2c0      	uxtb	r0, r0
    15b4:	2803      	cmp	r0, #3
    15b6:	d0f9      	beq.n	15ac <__mriPacket_SendToGDB+0x58>
    15b8:	b2c0      	uxtb	r0, r0
    15ba:	282b      	cmp	r0, #43	; 0x2b
    15bc:	d001      	beq.n	15c2 <__mriPacket_SendToGDB+0x6e>
    15be:	2824      	cmp	r0, #36	; 0x24
    15c0:	d1d0      	bne.n	1564 <__mriPacket_SendToGDB+0x10>
    15c2:	bd70      	pop	{r4, r5, r6, pc}
    15c4:	0000ccc0 	.word	0x0000ccc0

000015c8 <__mriToken_Init>:
    15c8:	b510      	push	{r4, lr}
    15ca:	2100      	movs	r1, #0
    15cc:	2228      	movs	r2, #40	; 0x28
    15ce:	4604      	mov	r4, r0
    15d0:	f006 fcb9 	bl	7f46 <memset>
    15d4:	2300      	movs	r3, #0
    15d6:	62e3      	str	r3, [r4, #44]	; 0x2c
    15d8:	f884 3030 	strb.w	r3, [r4, #48]	; 0x30
    15dc:	4b01      	ldr	r3, [pc, #4]	; (15e4 <__mriToken_Init+0x1c>)
    15de:	62a3      	str	r3, [r4, #40]	; 0x28
    15e0:	bd10      	pop	{r4, pc}
    15e2:	bf00      	nop
    15e4:	0000ccd0 	.word	0x0000ccd0

000015e8 <__mriToken_SplitString>:
    15e8:	b5f8      	push	{r3, r4, r5, r6, r7, lr}
    15ea:	2500      	movs	r5, #0
    15ec:	4e2d      	ldr	r6, [pc, #180]	; (16a4 <__mriToken_SplitString+0xbc>)
    15ee:	4604      	mov	r4, r0
    15f0:	460f      	mov	r7, r1
    15f2:	2228      	movs	r2, #40	; 0x28
    15f4:	4629      	mov	r1, r5
    15f6:	6035      	str	r5, [r6, #0]
    15f8:	f006 fca5 	bl	7f46 <memset>
    15fc:	4623      	mov	r3, r4
    15fe:	62e5      	str	r5, [r4, #44]	; 0x2c
    1600:	f803 5f30 	strb.w	r5, [r3, #48]!
    1604:	4639      	mov	r1, r7
    1606:	4618      	mov	r0, r3
    1608:	f104 0770 	add.w	r7, r4, #112	; 0x70
    160c:	4632      	mov	r2, r6
    160e:	460d      	mov	r5, r1
    1610:	f811 6b01 	ldrb.w	r6, [r1], #1
    1614:	b126      	cbz	r6, 1620 <__mriToken_SplitString+0x38>
    1616:	f800 6b01 	strb.w	r6, [r0], #1
    161a:	42b8      	cmp	r0, r7
    161c:	460d      	mov	r5, r1
    161e:	d1f6      	bne.n	160e <__mriToken_SplitString+0x26>
    1620:	2100      	movs	r1, #0
    1622:	7001      	strb	r1, [r0, #0]
    1624:	7829      	ldrb	r1, [r5, #0]
    1626:	b121      	cbz	r1, 1632 <__mriToken_SplitString+0x4a>
    1628:	6811      	ldr	r1, [r2, #0]
    162a:	2901      	cmp	r1, #1
    162c:	bfb8      	it	lt
    162e:	2101      	movlt	r1, #1
    1630:	6011      	str	r1, [r2, #0]
    1632:	6811      	ldr	r1, [r2, #0]
    1634:	2900      	cmp	r1, #0
    1636:	d133      	bne.n	16a0 <__mriToken_SplitString+0xb8>
    1638:	7819      	ldrb	r1, [r3, #0]
    163a:	2900      	cmp	r1, #0
    163c:	d02f      	beq.n	169e <__mriToken_SplitString+0xb6>
    163e:	4619      	mov	r1, r3
    1640:	f813 6b01 	ldrb.w	r6, [r3], #1
    1644:	b926      	cbnz	r6, 1650 <__mriToken_SplitString+0x68>
    1646:	2300      	movs	r3, #0
    1648:	6013      	str	r3, [r2, #0]
    164a:	780b      	ldrb	r3, [r1, #0]
    164c:	b94b      	cbnz	r3, 1662 <__mriToken_SplitString+0x7a>
    164e:	e013      	b.n	1678 <__mriToken_SplitString+0x90>
    1650:	6aa5      	ldr	r5, [r4, #40]	; 0x28
    1652:	3d01      	subs	r5, #1
    1654:	f815 0f01 	ldrb.w	r0, [r5, #1]!
    1658:	2800      	cmp	r0, #0
    165a:	d0f4      	beq.n	1646 <__mriToken_SplitString+0x5e>
    165c:	4286      	cmp	r6, r0
    165e:	d1f9      	bne.n	1654 <__mriToken_SplitString+0x6c>
    1660:	e7ed      	b.n	163e <__mriToken_SplitString+0x56>
    1662:	6ae3      	ldr	r3, [r4, #44]	; 0x2c
    1664:	2b09      	cmp	r3, #9
    1666:	d903      	bls.n	1670 <__mriToken_SplitString+0x88>
    1668:	4b0e      	ldr	r3, [pc, #56]	; (16a4 <__mriToken_SplitString+0xbc>)
    166a:	2001      	movs	r0, #1
    166c:	6018      	str	r0, [r3, #0]
    166e:	e003      	b.n	1678 <__mriToken_SplitString+0x90>
    1670:	1c58      	adds	r0, r3, #1
    1672:	62e0      	str	r0, [r4, #44]	; 0x2c
    1674:	f844 1023 	str.w	r1, [r4, r3, lsl #2]
    1678:	6813      	ldr	r3, [r2, #0]
    167a:	b98b      	cbnz	r3, 16a0 <__mriToken_SplitString+0xb8>
    167c:	460b      	mov	r3, r1
    167e:	f811 6b01 	ldrb.w	r6, [r1], #1
    1682:	2e00      	cmp	r6, #0
    1684:	d0d8      	beq.n	1638 <__mriToken_SplitString+0x50>
    1686:	6aa5      	ldr	r5, [r4, #40]	; 0x28
    1688:	3d01      	subs	r5, #1
    168a:	f815 0f01 	ldrb.w	r0, [r5, #1]!
    168e:	2800      	cmp	r0, #0
    1690:	d0f4      	beq.n	167c <__mriToken_SplitString+0x94>
    1692:	4286      	cmp	r6, r0
    1694:	d1f9      	bne.n	168a <__mriToken_SplitString+0xa2>
    1696:	2100      	movs	r1, #0
    1698:	7019      	strb	r1, [r3, #0]
    169a:	3301      	adds	r3, #1
    169c:	e7cc      	b.n	1638 <__mriToken_SplitString+0x50>
    169e:	bdf8      	pop	{r3, r4, r5, r6, r7, pc}
    16a0:	bdf8      	pop	{r3, r4, r5, r6, r7, pc}
    16a2:	bf00      	nop
    16a4:	10000a48 	.word	0x10000a48

000016a8 <__mriToken_MatchingString>:
    16a8:	e92d 41f0 	stmdb	sp!, {r4, r5, r6, r7, r8, lr}
    16ac:	6ac7      	ldr	r7, [r0, #44]	; 0x2c
    16ae:	4606      	mov	r6, r0
    16b0:	4688      	mov	r8, r1
    16b2:	2400      	movs	r4, #0
    16b4:	42bc      	cmp	r4, r7
    16b6:	d008      	beq.n	16ca <__mriToken_MatchingString+0x22>
    16b8:	f856 5024 	ldr.w	r5, [r6, r4, lsl #2]
    16bc:	4641      	mov	r1, r8
    16be:	4628      	mov	r0, r5
    16c0:	f006 ff1f 	bl	8502 <strcmp>
    16c4:	b110      	cbz	r0, 16cc <__mriToken_MatchingString+0x24>
    16c6:	3401      	adds	r4, #1
    16c8:	e7f4      	b.n	16b4 <__mriToken_MatchingString+0xc>
    16ca:	2500      	movs	r5, #0
    16cc:	4628      	mov	r0, r5
    16ce:	e8bd 81f0 	ldmia.w	sp!, {r4, r5, r6, r7, r8, pc}

000016d2 <__mriToken_MatchingStringPrefix>:
    16d2:	e92d 41f0 	stmdb	sp!, {r4, r5, r6, r7, r8, lr}
    16d6:	6ac7      	ldr	r7, [r0, #44]	; 0x2c
    16d8:	4606      	mov	r6, r0
    16da:	4688      	mov	r8, r1
    16dc:	2500      	movs	r5, #0
    16de:	42bd      	cmp	r5, r7
    16e0:	d009      	beq.n	16f6 <__mriToken_MatchingStringPrefix+0x24>
    16e2:	f856 4025 	ldr.w	r4, [r6, r5, lsl #2]
    16e6:	4641      	mov	r1, r8
    16e8:	4620      	mov	r0, r4
    16ea:	f006 ff32 	bl	8552 <strstr>
    16ee:	4284      	cmp	r4, r0
    16f0:	d002      	beq.n	16f8 <__mriToken_MatchingStringPrefix+0x26>
    16f2:	3501      	adds	r5, #1
    16f4:	e7f3      	b.n	16de <__mriToken_MatchingStringPrefix+0xc>
    16f6:	2400      	movs	r4, #0
    16f8:	4620      	mov	r0, r4
    16fa:	e8bd 81f0 	ldmia.w	sp!, {r4, r5, r6, r7, r8, pc}

000016fe <__mriSemihost_IsDebuggeeMakingSemihostCall>:
    16fe:	b508      	push	{r3, lr}
    1700:	f000 fcd0 	bl	20a4 <__mriPlatform_TypeOfCurrentInstruction>
    1704:	3801      	subs	r0, #1
    1706:	b2c0      	uxtb	r0, r0
    1708:	2801      	cmp	r0, #1
    170a:	bf8c      	ite	hi
    170c:	2000      	movhi	r0, #0
    170e:	2001      	movls	r0, #1
    1710:	bd08      	pop	{r3, pc}

00001712 <__mriSemihost_HandleSemihostRequest>:
    1712:	b51f      	push	{r0, r1, r2, r3, r4, lr}
    1714:	f000 fcc6 	bl	20a4 <__mriPlatform_TypeOfCurrentInstruction>
    1718:	4604      	mov	r4, r0
    171a:	4668      	mov	r0, sp
    171c:	f000 fc54 	bl	1fc8 <__mriPlatform_GetSemihostCallParameters>
    1720:	2c01      	cmp	r4, #1
    1722:	d103      	bne.n	172c <__mriSemihost_HandleSemihostRequest+0x1a>
    1724:	4668      	mov	r0, sp
    1726:	f000 f8ba 	bl	189e <__mriSemihost_HandleMbedSemihostRequest>
    172a:	e006      	b.n	173a <__mriSemihost_HandleSemihostRequest+0x28>
    172c:	2c02      	cmp	r4, #2
    172e:	d103      	bne.n	1738 <__mriSemihost_HandleSemihostRequest+0x26>
    1730:	4668      	mov	r0, sp
    1732:	f000 f805 	bl	1740 <__mriSemihost_HandleNewlibSemihostRequest>
    1736:	e000      	b.n	173a <__mriSemihost_HandleSemihostRequest+0x28>
    1738:	2000      	movs	r0, #0
    173a:	b004      	add	sp, #16
    173c:	bd10      	pop	{r4, pc}
	...

00001740 <__mriSemihost_HandleNewlibSemihostRequest>:
    1740:	b51f      	push	{r0, r1, r2, r3, r4, lr}
    1742:	4604      	mov	r4, r0
    1744:	f000 fc28 	bl	1f98 <__mriPlatform_GetProgramCounter>
    1748:	4b3c      	ldr	r3, [pc, #240]	; (183c <CFSR_STACK_ERROR_BITS+0x24>)
    174a:	f040 0001 	orr.w	r0, r0, #1
    174e:	4298      	cmp	r0, r3
    1750:	d109      	bne.n	1766 <__mriSemihost_HandleNewlibSemihostRequest+0x26>
    1752:	6823      	ldr	r3, [r4, #0]
    1754:	4668      	mov	r0, sp
    1756:	9300      	str	r3, [sp, #0]
    1758:	6863      	ldr	r3, [r4, #4]
    175a:	9301      	str	r3, [sp, #4]
    175c:	68a3      	ldr	r3, [r4, #8]
    175e:	9302      	str	r3, [sp, #8]
    1760:	f001 fd22 	bl	31a8 <__mriIssueGdbFileWriteRequest>
    1764:	e067      	b.n	1836 <CFSR_STACK_ERROR_BITS+0x1e>
    1766:	4b36      	ldr	r3, [pc, #216]	; (1840 <CFSR_STACK_ERROR_BITS+0x28>)
    1768:	4298      	cmp	r0, r3
    176a:	d109      	bne.n	1780 <__mriSemihost_HandleNewlibSemihostRequest+0x40>
    176c:	6823      	ldr	r3, [r4, #0]
    176e:	4668      	mov	r0, sp
    1770:	9300      	str	r3, [sp, #0]
    1772:	6863      	ldr	r3, [r4, #4]
    1774:	9301      	str	r3, [sp, #4]
    1776:	68a3      	ldr	r3, [r4, #8]
    1778:	9302      	str	r3, [sp, #8]
    177a:	f001 fd39 	bl	31f0 <__mriIssueGdbFileReadRequest>
    177e:	e05a      	b.n	1836 <CFSR_STACK_ERROR_BITS+0x1e>
    1780:	4b30      	ldr	r3, [pc, #192]	; (1844 <CFSR_STACK_ERROR_BITS+0x2c>)
    1782:	4298      	cmp	r0, r3
    1784:	d10d      	bne.n	17a2 <__mriSemihost_HandleNewlibSemihostRequest+0x62>
    1786:	6820      	ldr	r0, [r4, #0]
    1788:	9000      	str	r0, [sp, #0]
    178a:	f006 fec4 	bl	8516 <strlen>
    178e:	6863      	ldr	r3, [r4, #4]
    1790:	3001      	adds	r0, #1
    1792:	9302      	str	r3, [sp, #8]
    1794:	68a3      	ldr	r3, [r4, #8]
    1796:	9001      	str	r0, [sp, #4]
    1798:	4668      	mov	r0, sp
    179a:	9303      	str	r3, [sp, #12]
    179c:	f001 fcd8 	bl	3150 <__mriIssueGdbFileOpenRequest>
    17a0:	e049      	b.n	1836 <CFSR_STACK_ERROR_BITS+0x1e>
    17a2:	4b29      	ldr	r3, [pc, #164]	; (1848 <CFSR_STACK_ERROR_BITS+0x30>)
    17a4:	4298      	cmp	r0, r3
    17a6:	d109      	bne.n	17bc <__mriSemihost_HandleNewlibSemihostRequest+0x7c>
    17a8:	6820      	ldr	r0, [r4, #0]
    17aa:	9000      	str	r0, [sp, #0]
    17ac:	f006 feb3 	bl	8516 <strlen>
    17b0:	3001      	adds	r0, #1
    17b2:	9001      	str	r0, [sp, #4]
    17b4:	4668      	mov	r0, sp
    17b6:	f001 fd95 	bl	32e4 <__mriIssueGdbFileUnlinkRequest>
    17ba:	e03c      	b.n	1836 <CFSR_STACK_ERROR_BITS+0x1e>
    17bc:	4b23      	ldr	r3, [pc, #140]	; (184c <CFSR_STACK_ERROR_BITS+0x34>)
    17be:	4298      	cmp	r0, r3
    17c0:	d109      	bne.n	17d6 <__mriSemihost_HandleNewlibSemihostRequest+0x96>
    17c2:	6823      	ldr	r3, [r4, #0]
    17c4:	4668      	mov	r0, sp
    17c6:	9300      	str	r3, [sp, #0]
    17c8:	6863      	ldr	r3, [r4, #4]
    17ca:	9301      	str	r3, [sp, #4]
    17cc:	68a3      	ldr	r3, [r4, #8]
    17ce:	9302      	str	r3, [sp, #8]
    17d0:	f001 fd46 	bl	3260 <__mriIssueGdbFileSeekRequest>
    17d4:	e02f      	b.n	1836 <CFSR_STACK_ERROR_BITS+0x1e>
    17d6:	4b1e      	ldr	r3, [pc, #120]	; (1850 <CFSR_STACK_ERROR_BITS+0x38>)
    17d8:	4298      	cmp	r0, r3
    17da:	d103      	bne.n	17e4 <__mriSemihost_HandleNewlibSemihostRequest+0xa4>
    17dc:	6820      	ldr	r0, [r4, #0]
    17de:	f001 fd2b 	bl	3238 <__mriIssueGdbFileCloseRequest>
    17e2:	e028      	b.n	1836 <CFSR_STACK_ERROR_BITS+0x1e>
    17e4:	4b1b      	ldr	r3, [pc, #108]	; (1854 <CFSR_STACK_ERROR_BITS+0x3c>)
    17e6:	4298      	cmp	r0, r3
    17e8:	d104      	bne.n	17f4 <__mriSemihost_HandleNewlibSemihostRequest+0xb4>
    17ea:	e894 0003 	ldmia.w	r4, {r0, r1}
    17ee:	f001 fd5b 	bl	32a8 <__mriIssueGdbFileFStatRequest>
    17f2:	e020      	b.n	1836 <CFSR_STACK_ERROR_BITS+0x1e>
    17f4:	4b18      	ldr	r3, [pc, #96]	; (1858 <CFSR_STACK_ERROR_BITS+0x40>)
    17f6:	4298      	cmp	r0, r3
    17f8:	d109      	bne.n	180e <__mriSemihost_HandleNewlibSemihostRequest+0xce>
    17fa:	6820      	ldr	r0, [r4, #0]
    17fc:	9000      	str	r0, [sp, #0]
    17fe:	f006 fe8a 	bl	8516 <strlen>
    1802:	3001      	adds	r0, #1
    1804:	9001      	str	r0, [sp, #4]
    1806:	4668      	mov	r0, sp
    1808:	f001 fd88 	bl	331c <__mriIssueGdbFileStatRequest>
    180c:	e013      	b.n	1836 <CFSR_STACK_ERROR_BITS+0x1e>
    180e:	4b13      	ldr	r3, [pc, #76]	; (185c <CFSR_STACK_ERROR_BITS+0x44>)
    1810:	4298      	cmp	r0, r3
    1812:	d10f      	bne.n	1834 <CFSR_STACK_ERROR_BITS+0x1c>
    1814:	6820      	ldr	r0, [r4, #0]
    1816:	9000      	str	r0, [sp, #0]
    1818:	f006 fe7d 	bl	8516 <strlen>
    181c:	3001      	adds	r0, #1
    181e:	9001      	str	r0, [sp, #4]
    1820:	6860      	ldr	r0, [r4, #4]
    1822:	9002      	str	r0, [sp, #8]
    1824:	f006 fe77 	bl	8516 <strlen>
    1828:	3001      	adds	r0, #1
    182a:	9003      	str	r0, [sp, #12]
    182c:	4668      	mov	r0, sp
    182e:	f001 fd99 	bl	3364 <__mriIssueGdbFileRenameRequest>
    1832:	e000      	b.n	1836 <CFSR_STACK_ERROR_BITS+0x1e>
    1834:	2000      	movs	r0, #0
    1836:	b004      	add	sp, #16
    1838:	bd10      	pop	{r4, pc}
    183a:	bf00      	nop
    183c:	00001861 	.word	0x00001861
    1840:	00001865 	.word	0x00001865
    1844:	00001869 	.word	0x00001869
    1848:	00001871 	.word	0x00001871
    184c:	00001879 	.word	0x00001879
    1850:	0000187d 	.word	0x0000187d
    1854:	00001881 	.word	0x00001881
    1858:	00001875 	.word	0x00001875
    185c:	0000186d 	.word	0x0000186d

00001860 <__mriNewlib_SemihostWrite>:
    1860:	beff      	bkpt	0x00ff
    1862:	4770      	bx	lr

00001864 <__mriNewlib_SemihostRead>:
    1864:	beff      	bkpt	0x00ff
    1866:	4770      	bx	lr

00001868 <__mriNewLib_SemihostOpen>:
    1868:	beff      	bkpt	0x00ff
    186a:	4770      	bx	lr

0000186c <__mriNewLib_SemihostRename>:
    186c:	beff      	bkpt	0x00ff
    186e:	4770      	bx	lr

00001870 <__mriNewLib_SemihostUnlink>:
    1870:	beff      	bkpt	0x00ff
    1872:	4770      	bx	lr

00001874 <__mriNewLib_SemihostStat>:
    1874:	beff      	bkpt	0x00ff
    1876:	4770      	bx	lr

00001878 <__mriNewlib_SemihostLSeek>:
    1878:	beff      	bkpt	0x00ff
    187a:	4770      	bx	lr

0000187c <__mriNewlib_SemihostClose>:
    187c:	beff      	bkpt	0x00ff
    187e:	4770      	bx	lr

00001880 <__mriNewlib_SemihostFStat>:
    1880:	beff      	bkpt	0x00ff
    1882:	4770      	bx	lr

00001884 <convertBytesTransferredToBytesNotTransferred>:
    1884:	b510      	push	{r4, lr}
    1886:	4604      	mov	r4, r0
    1888:	f7ff fd36 	bl	12f8 <__mriCore_GetSemihostReturnCode>
    188c:	1e03      	subs	r3, r0, #0
    188e:	bfa8      	it	ge
    1890:	ebc3 0004 	rsbge	r0, r3, r4
    1894:	2100      	movs	r1, #0
    1896:	e8bd 4010 	ldmia.w	sp!, {r4, lr}
    189a:	f000 bba7 	b.w	1fec <__mriPlatform_SetSemihostCallReturnAndErrnoValues>

0000189e <__mriSemihost_HandleMbedSemihostRequest>:
    189e:	b530      	push	{r4, r5, lr}
    18a0:	6803      	ldr	r3, [r0, #0]
    18a2:	b091      	sub	sp, #68	; 0x44
    18a4:	2b09      	cmp	r3, #9
    18a6:	f000 8088 	beq.w	19ba <__mriSemihost_HandleMbedSemihostRequest+0x11c>
    18aa:	d80f      	bhi.n	18cc <__mriSemihost_HandleMbedSemihostRequest+0x2e>
    18ac:	2b02      	cmp	r3, #2
    18ae:	d051      	beq.n	1954 <__mriSemihost_HandleMbedSemihostRequest+0xb6>
    18b0:	d802      	bhi.n	18b8 <__mriSemihost_HandleMbedSemihostRequest+0x1a>
    18b2:	2b01      	cmp	r3, #1
    18b4:	d02e      	beq.n	1914 <__mriSemihost_HandleMbedSemihostRequest+0x76>
    18b6:	e088      	b.n	19ca <__mriSemihost_HandleMbedSemihostRequest+0x12c>
    18b8:	2b05      	cmp	r3, #5
    18ba:	d050      	beq.n	195e <__mriSemihost_HandleMbedSemihostRequest+0xc0>
    18bc:	2b06      	cmp	r3, #6
    18be:	f040 8084 	bne.w	19ca <__mriSemihost_HandleMbedSemihostRequest+0x12c>
    18c2:	6845      	ldr	r5, [r0, #4]
    18c4:	4628      	mov	r0, r5
    18c6:	f001 fc93 	bl	31f0 <__mriIssueGdbFileReadRequest>
    18ca:	e04c      	b.n	1966 <__mriSemihost_HandleMbedSemihostRequest+0xc8>
    18cc:	2b0c      	cmp	r3, #12
    18ce:	d050      	beq.n	1972 <__mriSemihost_HandleMbedSemihostRequest+0xd4>
    18d0:	d80c      	bhi.n	18ec <__mriSemihost_HandleMbedSemihostRequest+0x4e>
    18d2:	2b0a      	cmp	r3, #10
    18d4:	d179      	bne.n	19ca <__mriSemihost_HandleMbedSemihostRequest+0x12c>
    18d6:	6843      	ldr	r3, [r0, #4]
    18d8:	4668      	mov	r0, sp
    18da:	681a      	ldr	r2, [r3, #0]
    18dc:	9200      	str	r2, [sp, #0]
    18de:	685b      	ldr	r3, [r3, #4]
    18e0:	9301      	str	r3, [sp, #4]
    18e2:	2300      	movs	r3, #0
    18e4:	9302      	str	r3, [sp, #8]
    18e6:	f001 fcbb 	bl	3260 <__mriIssueGdbFileSeekRequest>
    18ea:	e06f      	b.n	19cc <__mriSemihost_HandleMbedSemihostRequest+0x12e>
    18ec:	2b0e      	cmp	r3, #14
    18ee:	d05d      	beq.n	19ac <__mriSemihost_HandleMbedSemihostRequest+0x10e>
    18f0:	f240 1201 	movw	r2, #257	; 0x101
    18f4:	4293      	cmp	r3, r2
    18f6:	d168      	bne.n	19ca <__mriSemihost_HandleMbedSemihostRequest+0x12c>
    18f8:	6843      	ldr	r3, [r0, #4]
    18fa:	685c      	ldr	r4, [r3, #4]
    18fc:	681d      	ldr	r5, [r3, #0]
    18fe:	f001 f8f7 	bl	2af0 <__mriMbed1768_GetMbedUid>
    1902:	2c24      	cmp	r4, #36	; 0x24
    1904:	bf34      	ite	cc
    1906:	4622      	movcc	r2, r4
    1908:	2224      	movcs	r2, #36	; 0x24
    190a:	4601      	mov	r1, r0
    190c:	4628      	mov	r0, r5
    190e:	f006 fb11 	bl	7f34 <memcpy>
    1912:	e052      	b.n	19ba <__mriSemihost_HandleMbedSemihostRequest+0x11c>
    1914:	6840      	ldr	r0, [r0, #4]
    1916:	6802      	ldr	r2, [r0, #0]
    1918:	9200      	str	r2, [sp, #0]
    191a:	6841      	ldr	r1, [r0, #4]
    191c:	074a      	lsls	r2, r1, #29
    191e:	d405      	bmi.n	192c <__mriSemihost_HandleMbedSemihostRequest+0x8e>
    1920:	f011 0208 	ands.w	r2, r1, #8
    1924:	d005      	beq.n	1932 <__mriSemihost_HandleMbedSemihostRequest+0x94>
    1926:	f44f 7202 	mov.w	r2, #520	; 0x208
    192a:	e003      	b.n	1934 <__mriSemihost_HandleMbedSemihostRequest+0x96>
    192c:	f44f 62c0 	mov.w	r2, #1536	; 0x600
    1930:	e000      	b.n	1934 <__mriSemihost_HandleMbedSemihostRequest+0x96>
    1932:	4613      	mov	r3, r2
    1934:	f011 0f02 	tst.w	r1, #2
    1938:	bf18      	it	ne
    193a:	2302      	movne	r3, #2
    193c:	4313      	orrs	r3, r2
    193e:	9302      	str	r3, [sp, #8]
    1940:	f44f 73db 	mov.w	r3, #438	; 0x1b6
    1944:	9303      	str	r3, [sp, #12]
    1946:	6883      	ldr	r3, [r0, #8]
    1948:	4668      	mov	r0, sp
    194a:	3301      	adds	r3, #1
    194c:	9301      	str	r3, [sp, #4]
    194e:	f001 fbff 	bl	3150 <__mriIssueGdbFileOpenRequest>
    1952:	e03b      	b.n	19cc <__mriSemihost_HandleMbedSemihostRequest+0x12e>
    1954:	6843      	ldr	r3, [r0, #4]
    1956:	6818      	ldr	r0, [r3, #0]
    1958:	f001 fc6e 	bl	3238 <__mriIssueGdbFileCloseRequest>
    195c:	e036      	b.n	19cc <__mriSemihost_HandleMbedSemihostRequest+0x12e>
    195e:	6845      	ldr	r5, [r0, #4]
    1960:	4628      	mov	r0, r5
    1962:	f001 fc21 	bl	31a8 <__mriIssueGdbFileWriteRequest>
    1966:	4604      	mov	r4, r0
    1968:	b1f0      	cbz	r0, 19a8 <__mriSemihost_HandleMbedSemihostRequest+0x10a>
    196a:	68a8      	ldr	r0, [r5, #8]
    196c:	f7ff ff8a 	bl	1884 <convertBytesTransferredToBytesNotTransferred>
    1970:	e01a      	b.n	19a8 <__mriSemihost_HandleMbedSemihostRequest+0x10a>
    1972:	6843      	ldr	r3, [r0, #4]
    1974:	4669      	mov	r1, sp
    1976:	6818      	ldr	r0, [r3, #0]
    1978:	f001 fc96 	bl	32a8 <__mriIssueGdbFileFStatRequest>
    197c:	4604      	mov	r4, r0
    197e:	b198      	cbz	r0, 19a8 <__mriSemihost_HandleMbedSemihostRequest+0x10a>
    1980:	f7ff fcba 	bl	12f8 <__mriCore_GetSemihostReturnCode>
    1984:	4601      	mov	r1, r0
    1986:	b978      	cbnz	r0, 19a8 <__mriSemihost_HandleMbedSemihostRequest+0x10a>
    1988:	f89d 3021 	ldrb.w	r3, [sp, #33]	; 0x21
    198c:	f89d 2022 	ldrb.w	r2, [sp, #34]	; 0x22
    1990:	041b      	lsls	r3, r3, #16
    1992:	ea43 2302 	orr.w	r3, r3, r2, lsl #8
    1996:	f89d 2023 	ldrb.w	r2, [sp, #35]	; 0x23
    199a:	f89d 0020 	ldrb.w	r0, [sp, #32]
    199e:	4313      	orrs	r3, r2
    19a0:	ea43 6000 	orr.w	r0, r3, r0, lsl #24
    19a4:	f000 fb22 	bl	1fec <__mriPlatform_SetSemihostCallReturnAndErrnoValues>
    19a8:	4620      	mov	r0, r4
    19aa:	e00f      	b.n	19cc <__mriSemihost_HandleMbedSemihostRequest+0x12e>
    19ac:	6840      	ldr	r0, [r0, #4]
    19ae:	6843      	ldr	r3, [r0, #4]
    19b0:	3301      	adds	r3, #1
    19b2:	6043      	str	r3, [r0, #4]
    19b4:	f001 fc96 	bl	32e4 <__mriIssueGdbFileUnlinkRequest>
    19b8:	e008      	b.n	19cc <__mriSemihost_HandleMbedSemihostRequest+0x12e>
    19ba:	f000 fb4f 	bl	205c <__mriPlatform_AdvanceProgramCounterToNextInstruction>
    19be:	2000      	movs	r0, #0
    19c0:	4601      	mov	r1, r0
    19c2:	f000 fb13 	bl	1fec <__mriPlatform_SetSemihostCallReturnAndErrnoValues>
    19c6:	2001      	movs	r0, #1
    19c8:	e000      	b.n	19cc <__mriSemihost_HandleMbedSemihostRequest+0x12e>
    19ca:	2000      	movs	r0, #0
    19cc:	b011      	add	sp, #68	; 0x44
    19ce:	bd30      	pop	{r4, r5, pc}

000019d0 <findDWTComparator>:
    19d0:	4b12      	ldr	r3, [pc, #72]	; (1a1c <findDWTComparator+0x4c>)
    19d2:	b5f0      	push	{r4, r5, r6, r7, lr}
    19d4:	681f      	ldr	r7, [r3, #0]
    19d6:	4606      	mov	r6, r0
    19d8:	0f3f      	lsrs	r7, r7, #28
    19da:	2300      	movs	r3, #0
    19dc:	f103 6460 	add.w	r4, r3, #234881024	; 0xe000000
    19e0:	f504 7481 	add.w	r4, r4, #258	; 0x102
    19e4:	42bb      	cmp	r3, r7
    19e6:	ea4f 1004 	mov.w	r0, r4, lsl #4
    19ea:	d013      	beq.n	1a14 <findDWTComparator+0x44>
    19ec:	6885      	ldr	r5, [r0, #8]
    19ee:	4c0c      	ldr	r4, [pc, #48]	; (1a20 <findDWTComparator+0x50>)
    19f0:	402c      	ands	r4, r5
    19f2:	4294      	cmp	r4, r2
    19f4:	d110      	bne.n	1a18 <findDWTComparator+0x48>
    19f6:	6804      	ldr	r4, [r0, #0]
    19f8:	42b4      	cmp	r4, r6
    19fa:	d10d      	bne.n	1a18 <findDWTComparator+0x48>
    19fc:	f8d0 c004 	ldr.w	r12, [r0, #4]
    1a00:	460d      	mov	r5, r1
    1a02:	2400      	movs	r4, #0
    1a04:	2d01      	cmp	r5, #1
    1a06:	d902      	bls.n	1a0e <findDWTComparator+0x3e>
    1a08:	086d      	lsrs	r5, r5, #1
    1a0a:	3401      	adds	r4, #1
    1a0c:	e7fa      	b.n	1a04 <findDWTComparator+0x34>
    1a0e:	45a4      	cmp	r12, r4
    1a10:	d102      	bne.n	1a18 <findDWTComparator+0x48>
    1a12:	bdf0      	pop	{r4, r5, r6, r7, pc}
    1a14:	2000      	movs	r0, #0
    1a16:	bdf0      	pop	{r4, r5, r6, r7, pc}
    1a18:	3301      	adds	r3, #1
    1a1a:	e7df      	b.n	19dc <findDWTComparator+0xc>
    1a1c:	e0001000 	.word	0xe0001000
    1a20:	000ffdaf 	.word	0x000ffdaf

00001a24 <getFPBCodeComparatorCount>:
    1a24:	4b04      	ldr	r3, [pc, #16]	; (1a38 <getFPBCodeComparatorCount+0x14>)
    1a26:	681b      	ldr	r3, [r3, #0]
    1a28:	f3c3 1003 	ubfx	r0, r3, #4, #4
    1a2c:	f403 43e0 	and.w	r3, r3, #28672	; 0x7000
    1a30:	ea40 2013 	orr.w	r0, r0, r3, lsr #8
    1a34:	4770      	bx	lr
    1a36:	bf00      	nop
    1a38:	e0002000 	.word	0xe0002000

00001a3c <prepareToAccessMPURegion>:
    1a3c:	4b04      	ldr	r3, [pc, #16]	; (1a50 <prepareToAccessMPURegion+0x14>)
    1a3e:	681a      	ldr	r2, [r3, #0]
    1a40:	f3c2 2207 	ubfx	r2, r2, #8, #8
    1a44:	4290      	cmp	r0, r2
    1a46:	bf3a      	itte	cc
    1a48:	6098      	strcc	r0, [r3, #8]
    1a4a:	2001      	movcc	r0, #1
    1a4c:	2000      	movcs	r0, #0
    1a4e:	4770      	bx	lr
    1a50:	e000ed90 	.word	0xe000ed90

00001a54 <displayMemFaultCauseToGdbConsole>:
    1a54:	b570      	push	{r4, r5, r6, lr}
    1a56:	4d1e      	ldr	r5, [pc, #120]	; (1ad0 <displayMemFaultCauseToGdbConsole+0x7c>)
    1a58:	6aac      	ldr	r4, [r5, #40]	; 0x28
    1a5a:	f014 06ff 	ands.w	r6, r4, #255	; 0xff
    1a5e:	d035      	beq.n	1acc <displayMemFaultCauseToGdbConsole+0x78>
    1a60:	481c      	ldr	r0, [pc, #112]	; (1ad4 <displayMemFaultCauseToGdbConsole+0x80>)
    1a62:	f001 fe86 	bl	3772 <__mriGdbConsole_WriteString>
    1a66:	481c      	ldr	r0, [pc, #112]	; (1ad8 <displayMemFaultCauseToGdbConsole+0x84>)
    1a68:	f001 fe83 	bl	3772 <__mriGdbConsole_WriteString>
    1a6c:	4630      	mov	r0, r6
    1a6e:	f001 fea5 	bl	37bc <__mriGdbConsole_WriteHexValue>
    1a72:	0626      	lsls	r6, r4, #24
    1a74:	d505      	bpl.n	1a82 <displayMemFaultCauseToGdbConsole+0x2e>
    1a76:	4819      	ldr	r0, [pc, #100]	; (1adc <displayMemFaultCauseToGdbConsole+0x88>)
    1a78:	f001 fe7b 	bl	3772 <__mriGdbConsole_WriteString>
    1a7c:	6b68      	ldr	r0, [r5, #52]	; 0x34
    1a7e:	f001 fe9d 	bl	37bc <__mriGdbConsole_WriteHexValue>
    1a82:	06a5      	lsls	r5, r4, #26
    1a84:	d502      	bpl.n	1a8c <displayMemFaultCauseToGdbConsole+0x38>
    1a86:	4816      	ldr	r0, [pc, #88]	; (1ae0 <displayMemFaultCauseToGdbConsole+0x8c>)
    1a88:	f001 fe73 	bl	3772 <__mriGdbConsole_WriteString>
    1a8c:	06e0      	lsls	r0, r4, #27
    1a8e:	d507      	bpl.n	1aa0 <displayMemFaultCauseToGdbConsole+0x4c>
    1a90:	4814      	ldr	r0, [pc, #80]	; (1ae4 <displayMemFaultCauseToGdbConsole+0x90>)
    1a92:	f001 fe6e 	bl	3772 <__mriGdbConsole_WriteString>
    1a96:	4b14      	ldr	r3, [pc, #80]	; (1ae8 <displayMemFaultCauseToGdbConsole+0x94>)
    1a98:	f8d3 0140 	ldr.w	r0, [r3, #320]	; 0x140
    1a9c:	f001 fe8e 	bl	37bc <__mriGdbConsole_WriteHexValue>
    1aa0:	0721      	lsls	r1, r4, #28
    1aa2:	d507      	bpl.n	1ab4 <displayMemFaultCauseToGdbConsole+0x60>
    1aa4:	4811      	ldr	r0, [pc, #68]	; (1aec <displayMemFaultCauseToGdbConsole+0x98>)
    1aa6:	f001 fe64 	bl	3772 <__mriGdbConsole_WriteString>
    1aaa:	4b0f      	ldr	r3, [pc, #60]	; (1ae8 <displayMemFaultCauseToGdbConsole+0x94>)
    1aac:	f8d3 0140 	ldr.w	r0, [r3, #320]	; 0x140
    1ab0:	f001 fe84 	bl	37bc <__mriGdbConsole_WriteHexValue>
    1ab4:	07a2      	lsls	r2, r4, #30
    1ab6:	d502      	bpl.n	1abe <displayMemFaultCauseToGdbConsole+0x6a>
    1ab8:	480d      	ldr	r0, [pc, #52]	; (1af0 <displayMemFaultCauseToGdbConsole+0x9c>)
    1aba:	f001 fe5a 	bl	3772 <__mriGdbConsole_WriteString>
    1abe:	07e3      	lsls	r3, r4, #31
    1ac0:	d504      	bpl.n	1acc <displayMemFaultCauseToGdbConsole+0x78>
    1ac2:	e8bd 4070 	ldmia.w	sp!, {r4, r5, r6, lr}
    1ac6:	480b      	ldr	r0, [pc, #44]	; (1af4 <displayMemFaultCauseToGdbConsole+0xa0>)
    1ac8:	f001 be53 	b.w	3772 <__mriGdbConsole_WriteString>
    1acc:	bd70      	pop	{r4, r5, r6, pc}
    1ace:	bf00      	nop
    1ad0:	e000ed00 	.word	0xe000ed00
    1ad4:	0000cfd0 	.word	0x0000cfd0
    1ad8:	0000cfdf 	.word	0x0000cfdf
    1adc:	0000cff4 	.word	0x0000cff4
    1ae0:	0000d009 	.word	0x0000d009
    1ae4:	0000d023 	.word	0x0000d023
    1ae8:	10000a50 	.word	0x10000a50
    1aec:	0000d040 	.word	0x0000d040
    1af0:	0000d05f 	.word	0x0000d05f
    1af4:	0000d070 	.word	0x0000d070

00001af8 <displayBusFaultCauseToGdbConsole>:
    1af8:	b570      	push	{r4, r5, r6, lr}
    1afa:	4d21      	ldr	r5, [pc, #132]	; (1b80 <displayBusFaultCauseToGdbConsole+0x88>)
    1afc:	6aac      	ldr	r4, [r5, #40]	; 0x28
    1afe:	0a24      	lsrs	r4, r4, #8
    1b00:	f014 06ff 	ands.w	r6, r4, #255	; 0xff
    1b04:	d03a      	beq.n	1b7c <displayBusFaultCauseToGdbConsole+0x84>
    1b06:	481f      	ldr	r0, [pc, #124]	; (1b84 <displayBusFaultCauseToGdbConsole+0x8c>)
    1b08:	f001 fe33 	bl	3772 <__mriGdbConsole_WriteString>
    1b0c:	481e      	ldr	r0, [pc, #120]	; (1b88 <displayBusFaultCauseToGdbConsole+0x90>)
    1b0e:	f001 fe30 	bl	3772 <__mriGdbConsole_WriteString>
    1b12:	4630      	mov	r0, r6
    1b14:	f001 fe52 	bl	37bc <__mriGdbConsole_WriteHexValue>
    1b18:	0623      	lsls	r3, r4, #24
    1b1a:	d505      	bpl.n	1b28 <displayBusFaultCauseToGdbConsole+0x30>
    1b1c:	481b      	ldr	r0, [pc, #108]	; (1b8c <displayBusFaultCauseToGdbConsole+0x94>)
    1b1e:	f001 fe28 	bl	3772 <__mriGdbConsole_WriteString>
    1b22:	6ba8      	ldr	r0, [r5, #56]	; 0x38
    1b24:	f001 fe4a 	bl	37bc <__mriGdbConsole_WriteHexValue>
    1b28:	06a6      	lsls	r6, r4, #26
    1b2a:	d502      	bpl.n	1b32 <displayBusFaultCauseToGdbConsole+0x3a>
    1b2c:	4818      	ldr	r0, [pc, #96]	; (1b90 <displayBusFaultCauseToGdbConsole+0x98>)
    1b2e:	f001 fe20 	bl	3772 <__mriGdbConsole_WriteString>
    1b32:	06e5      	lsls	r5, r4, #27
    1b34:	d507      	bpl.n	1b46 <displayBusFaultCauseToGdbConsole+0x4e>
    1b36:	4817      	ldr	r0, [pc, #92]	; (1b94 <displayBusFaultCauseToGdbConsole+0x9c>)
    1b38:	f001 fe1b 	bl	3772 <__mriGdbConsole_WriteString>
    1b3c:	4b16      	ldr	r3, [pc, #88]	; (1b98 <displayBusFaultCauseToGdbConsole+0xa0>)
    1b3e:	f8d3 0140 	ldr.w	r0, [r3, #320]	; 0x140
    1b42:	f001 fe3b 	bl	37bc <__mriGdbConsole_WriteHexValue>
    1b46:	0720      	lsls	r0, r4, #28
    1b48:	d507      	bpl.n	1b5a <displayBusFaultCauseToGdbConsole+0x62>
    1b4a:	4814      	ldr	r0, [pc, #80]	; (1b9c <displayBusFaultCauseToGdbConsole+0xa4>)
    1b4c:	f001 fe11 	bl	3772 <__mriGdbConsole_WriteString>
    1b50:	4b11      	ldr	r3, [pc, #68]	; (1b98 <displayBusFaultCauseToGdbConsole+0xa0>)
    1b52:	f8d3 0140 	ldr.w	r0, [r3, #320]	; 0x140
    1b56:	f001 fe31 	bl	37bc <__mriGdbConsole_WriteHexValue>
    1b5a:	0761      	lsls	r1, r4, #29
    1b5c:	d502      	bpl.n	1b64 <displayBusFaultCauseToGdbConsole+0x6c>
    1b5e:	4810      	ldr	r0, [pc, #64]	; (1ba0 <displayBusFaultCauseToGdbConsole+0xa8>)
    1b60:	f001 fe07 	bl	3772 <__mriGdbConsole_WriteString>
    1b64:	07a2      	lsls	r2, r4, #30
    1b66:	d502      	bpl.n	1b6e <displayBusFaultCauseToGdbConsole+0x76>
    1b68:	480e      	ldr	r0, [pc, #56]	; (1ba4 <displayBusFaultCauseToGdbConsole+0xac>)
    1b6a:	f001 fe02 	bl	3772 <__mriGdbConsole_WriteString>
    1b6e:	07e3      	lsls	r3, r4, #31
    1b70:	d504      	bpl.n	1b7c <displayBusFaultCauseToGdbConsole+0x84>
    1b72:	e8bd 4070 	ldmia.w	sp!, {r4, r5, r6, lr}
    1b76:	480c      	ldr	r0, [pc, #48]	; (1ba8 <displayBusFaultCauseToGdbConsole+0xb0>)
    1b78:	f001 bdfb 	b.w	3772 <__mriGdbConsole_WriteString>
    1b7c:	bd70      	pop	{r4, r5, r6, pc}
    1b7e:	bf00      	nop
    1b80:	e000ed00 	.word	0xe000ed00
    1b84:	0000d087 	.word	0x0000d087
    1b88:	0000cfdf 	.word	0x0000cfdf
    1b8c:	0000cff4 	.word	0x0000cff4
    1b90:	0000d009 	.word	0x0000d009
    1b94:	0000d023 	.word	0x0000d023
    1b98:	10000a50 	.word	0x10000a50
    1b9c:	0000d040 	.word	0x0000d040
    1ba0:	0000d096 	.word	0x0000d096
    1ba4:	0000d0b1 	.word	0x0000d0b1
    1ba8:	0000d0ca 	.word	0x0000d0ca

00001bac <displayUsageFaultCauseToGdbConsole>:
    1bac:	4b17      	ldr	r3, [pc, #92]	; (1c0c <displayUsageFaultCauseToGdbConsole+0x60>)
    1bae:	b510      	push	{r4, lr}
    1bb0:	6a9c      	ldr	r4, [r3, #40]	; 0x28
    1bb2:	0c24      	lsrs	r4, r4, #16
    1bb4:	d028      	beq.n	1c08 <displayUsageFaultCauseToGdbConsole+0x5c>
    1bb6:	4816      	ldr	r0, [pc, #88]	; (1c10 <displayUsageFaultCauseToGdbConsole+0x64>)
    1bb8:	f001 fddb 	bl	3772 <__mriGdbConsole_WriteString>
    1bbc:	4815      	ldr	r0, [pc, #84]	; (1c14 <displayUsageFaultCauseToGdbConsole+0x68>)
    1bbe:	f001 fdd8 	bl	3772 <__mriGdbConsole_WriteString>
    1bc2:	4620      	mov	r0, r4
    1bc4:	f001 fdfa 	bl	37bc <__mriGdbConsole_WriteHexValue>
    1bc8:	05a2      	lsls	r2, r4, #22
    1bca:	d502      	bpl.n	1bd2 <displayUsageFaultCauseToGdbConsole+0x26>
    1bcc:	4812      	ldr	r0, [pc, #72]	; (1c18 <displayUsageFaultCauseToGdbConsole+0x6c>)
    1bce:	f001 fdd0 	bl	3772 <__mriGdbConsole_WriteString>
    1bd2:	05e3      	lsls	r3, r4, #23
    1bd4:	d502      	bpl.n	1bdc <displayUsageFaultCauseToGdbConsole+0x30>
    1bd6:	4811      	ldr	r0, [pc, #68]	; (1c1c <displayUsageFaultCauseToGdbConsole+0x70>)
    1bd8:	f001 fdcb 	bl	3772 <__mriGdbConsole_WriteString>
    1bdc:	0720      	lsls	r0, r4, #28
    1bde:	d502      	bpl.n	1be6 <displayUsageFaultCauseToGdbConsole+0x3a>
    1be0:	480f      	ldr	r0, [pc, #60]	; (1c20 <displayUsageFaultCauseToGdbConsole+0x74>)
    1be2:	f001 fdc6 	bl	3772 <__mriGdbConsole_WriteString>
    1be6:	0761      	lsls	r1, r4, #29
    1be8:	d502      	bpl.n	1bf0 <displayUsageFaultCauseToGdbConsole+0x44>
    1bea:	480e      	ldr	r0, [pc, #56]	; (1c24 <displayUsageFaultCauseToGdbConsole+0x78>)
    1bec:	f001 fdc1 	bl	3772 <__mriGdbConsole_WriteString>
    1bf0:	07a2      	lsls	r2, r4, #30
    1bf2:	d502      	bpl.n	1bfa <displayUsageFaultCauseToGdbConsole+0x4e>
    1bf4:	480c      	ldr	r0, [pc, #48]	; (1c28 <displayUsageFaultCauseToGdbConsole+0x7c>)
    1bf6:	f001 fdbc 	bl	3772 <__mriGdbConsole_WriteString>
    1bfa:	07e3      	lsls	r3, r4, #31
    1bfc:	d504      	bpl.n	1c08 <displayUsageFaultCauseToGdbConsole+0x5c>
    1bfe:	e8bd 4010 	ldmia.w	sp!, {r4, lr}
    1c02:	480a      	ldr	r0, [pc, #40]	; (1c2c <displayUsageFaultCauseToGdbConsole+0x80>)
    1c04:	f001 bdb5 	b.w	3772 <__mriGdbConsole_WriteString>
    1c08:	bd10      	pop	{r4, pc}
    1c0a:	bf00      	nop
    1c0c:	e000ed00 	.word	0xe000ed00
    1c10:	0000d0e4 	.word	0x0000d0e4
    1c14:	0000cfdf 	.word	0x0000cfdf
    1c18:	0000d0f5 	.word	0x0000d0f5
    1c1c:	0000d109 	.word	0x0000d109
    1c20:	0000d11f 	.word	0x0000d11f
    1c24:	0000d137 	.word	0x0000d137
    1c28:	0000d15b 	.word	0x0000d15b
    1c2c:	0000d16e 	.word	0x0000d16e

00001c30 <sendRegisterForTResponse>:
    1c30:	b537      	push	{r0, r1, r2, r4, r5, lr}
    1c32:	4605      	mov	r5, r0
    1c34:	9201      	str	r2, [sp, #4]
    1c36:	f000 ffe9 	bl	2c0c <__mriBuffer_WriteByteAsHex>
    1c3a:	4628      	mov	r0, r5
    1c3c:	213a      	movs	r1, #58	; 0x3a
    1c3e:	f000 ffbf 	bl	2bc0 <__mriBuffer_WriteChar>
    1c42:	2400      	movs	r4, #0
    1c44:	ab01      	add	r3, sp, #4
    1c46:	5d19      	ldrb	r1, [r3, r4]
    1c48:	4628      	mov	r0, r5
    1c4a:	3401      	adds	r4, #1
    1c4c:	f000 ffde 	bl	2c0c <__mriBuffer_WriteByteAsHex>
    1c50:	2c04      	cmp	r4, #4
    1c52:	d1f7      	bne.n	1c44 <sendRegisterForTResponse+0x14>
    1c54:	4628      	mov	r0, r5
    1c56:	213b      	movs	r1, #59	; 0x3b
    1c58:	f000 ffb2 	bl	2bc0 <__mriBuffer_WriteChar>
    1c5c:	b003      	add	sp, #12
    1c5e:	bd30      	pop	{r4, r5, pc}

00001c60 <calculateFPBComparatorValue>:
    1c60:	4b0c      	ldr	r3, [pc, #48]	; (1c94 <calculateFPBComparatorValue+0x34>)
    1c62:	4003      	ands	r3, r0
    1c64:	b113      	cbz	r3, 1c6c <calculateFPBComparatorValue+0xc>
    1c66:	f04f 30ff 	mov.w	r0, #4294967295
    1c6a:	4770      	bx	lr
    1c6c:	f020 4360 	bic.w	r3, r0, #3758096384	; 0xe0000000
    1c70:	f023 0303 	bic.w	r3, r3, #3
    1c74:	f043 0301 	orr.w	r3, r3, #1
    1c78:	b939      	cbnz	r1, 1c8a <calculateFPBComparatorValue+0x2a>
    1c7a:	f010 0f02 	tst.w	r0, #2
    1c7e:	bf0c      	ite	eq
    1c80:	f04f 4280 	moveq.w	r2, #1073741824	; 0x40000000
    1c84:	f04f 4200 	movne.w	r2, #2147483648	; 0x80000000
    1c88:	e001      	b.n	1c8e <calculateFPBComparatorValue+0x2e>
    1c8a:	f04f 4240 	mov.w	r2, #3221225472	; 0xc0000000
    1c8e:	ea43 0002 	orr.w	r0, r3, r2
    1c92:	4770      	bx	lr
    1c94:	e0000001 	.word	0xe0000001

00001c98 <findFPBBreakpointComparator>:
    1c98:	b538      	push	{r3, r4, r5, lr}
    1c9a:	f7ff ffe1 	bl	1c60 <calculateFPBComparatorValue>
    1c9e:	4604      	mov	r4, r0
    1ca0:	f7ff fec0 	bl	1a24 <getFPBCodeComparatorCount>
    1ca4:	4a09      	ldr	r2, [pc, #36]	; (1ccc <findFPBBreakpointComparator+0x34>)
    1ca6:	2300      	movs	r3, #0
    1ca8:	4283      	cmp	r3, r0
    1caa:	4615      	mov	r5, r2
    1cac:	d009      	beq.n	1cc2 <findFPBBreakpointComparator+0x2a>
    1cae:	f852 1b04 	ldr.w	r1, [r2], #4
    1cb2:	f021 5100 	bic.w	r1, r1, #536870912	; 0x20000000
    1cb6:	f021 0102 	bic.w	r1, r1, #2
    1cba:	428c      	cmp	r4, r1
    1cbc:	d003      	beq.n	1cc6 <findFPBBreakpointComparator+0x2e>
    1cbe:	3301      	adds	r3, #1
    1cc0:	e7f2      	b.n	1ca8 <findFPBBreakpointComparator+0x10>
    1cc2:	2000      	movs	r0, #0
    1cc4:	bd38      	pop	{r3, r4, r5, pc}
    1cc6:	4628      	mov	r0, r5
    1cc8:	bd38      	pop	{r3, r4, r5, pc}
    1cca:	bf00      	nop
    1ccc:	e0002008 	.word	0xe0002008

00001cd0 <isMPUNotPresent>:
    1cd0:	4b04      	ldr	r3, [pc, #16]	; (1ce4 <isMPUNotPresent+0x14>)
    1cd2:	6818      	ldr	r0, [r3, #0]
    1cd4:	f3c0 2007 	ubfx	r0, r0, #8, #8
    1cd8:	f1d0 0001 	rsbs	r0, r0, #1
    1cdc:	bf38      	it	cc
    1cde:	2000      	movcc	r0, #0
    1ce0:	4770      	bx	lr
    1ce2:	bf00      	nop
    1ce4:	e000ed90 	.word	0xe000ed90

00001ce8 <disableMPU>:
    1ce8:	b508      	push	{r3, lr}
    1cea:	f7ff fff1 	bl	1cd0 <isMPUNotPresent>
    1cee:	b940      	cbnz	r0, 1d02 <disableMPU+0x1a>
    1cf0:	4b04      	ldr	r3, [pc, #16]	; (1d04 <disableMPU+0x1c>)
    1cf2:	685a      	ldr	r2, [r3, #4]
    1cf4:	f022 0201 	bic.w	r2, r2, #1
    1cf8:	605a      	str	r2, [r3, #4]
    1cfa:	f3bf 8f4f 	dsb	sy
    1cfe:	f3bf 8f6f 	isb	sy
    1d02:	bd08      	pop	{r3, pc}
    1d04:	e000ed90 	.word	0xe000ed90

00001d08 <__mriPlatform_DisableSingleStep>:
    1d08:	4b06      	ldr	r3, [pc, #24]	; (1d24 <__mriPlatform_DisableSingleStep+0x1c>)
    1d0a:	68da      	ldr	r2, [r3, #12]
    1d0c:	f422 2280 	bic.w	r2, r2, #262144	; 0x40000
    1d10:	60da      	str	r2, [r3, #12]
    1d12:	4b05      	ldr	r3, [pc, #20]	; (1d28 <__mriPlatform_DisableSingleStep+0x20>)
    1d14:	f8d3 2138 	ldr.w	r2, [r3, #312]	; 0x138
    1d18:	f022 0204 	bic.w	r2, r2, #4
    1d1c:	f8c3 2138 	str.w	r2, [r3, #312]	; 0x138
    1d20:	4770      	bx	lr
    1d22:	bf00      	nop
    1d24:	e000edf0 	.word	0xe000edf0
    1d28:	10000a50 	.word	0x10000a50

00001d2c <__mriCortexMInit>:
    1d2c:	b538      	push	{r3, r4, r5, lr}
    1d2e:	4c26      	ldr	r4, [pc, #152]	; (1dc8 <__mriCortexMInit+0x9c>)
    1d30:	f000 fbd0 	bl	24d4 <__mriARMv7MAsmInit>
    1d34:	4825      	ldr	r0, [pc, #148]	; (1dcc <__mriCortexMInit+0xa0>)
    1d36:	2100      	movs	r1, #0
    1d38:	f44f 720c 	mov.w	r2, #560	; 0x230
    1d3c:	f006 f903 	bl	7f46 <memset>
    1d40:	68e3      	ldr	r3, [r4, #12]
    1d42:	f043 7380 	orr.w	r3, r3, #16777216	; 0x1000000
    1d46:	60e3      	str	r3, [r4, #12]
    1d48:	4b21      	ldr	r3, [pc, #132]	; (1dd0 <__mriCortexMInit+0xa4>)
    1d4a:	6818      	ldr	r0, [r3, #0]
    1d4c:	2300      	movs	r3, #0
    1d4e:	0f00      	lsrs	r0, r0, #28
    1d50:	f103 6260 	add.w	r2, r3, #234881024	; 0xe000000
    1d54:	f502 7281 	add.w	r2, r2, #258	; 0x102
    1d58:	4283      	cmp	r3, r0
    1d5a:	ea4f 1202 	mov.w	r2, r2, lsl #4
    1d5e:	d00a      	beq.n	1d76 <__mriCortexMInit+0x4a>
    1d60:	2100      	movs	r1, #0
    1d62:	6011      	str	r1, [r2, #0]
    1d64:	6051      	str	r1, [r2, #4]
    1d66:	6891      	ldr	r1, [r2, #8]
    1d68:	3301      	adds	r3, #1
    1d6a:	f421 71d7 	bic.w	r1, r1, #430	; 0x1ae
    1d6e:	f021 0101 	bic.w	r1, r1, #1
    1d72:	6091      	str	r1, [r2, #8]
    1d74:	e7ec      	b.n	1d50 <__mriCortexMInit+0x24>
    1d76:	f7ff fe55 	bl	1a24 <getFPBCodeComparatorCount>
    1d7a:	4a16      	ldr	r2, [pc, #88]	; (1dd4 <__mriCortexMInit+0xa8>)
    1d7c:	4916      	ldr	r1, [pc, #88]	; (1dd8 <__mriCortexMInit+0xac>)
    1d7e:	6813      	ldr	r3, [r2, #0]
    1d80:	f3c3 2303 	ubfx	r3, r3, #8, #4
    1d84:	4418      	add	r0, r3
    1d86:	2300      	movs	r3, #0
    1d88:	4283      	cmp	r3, r0
    1d8a:	d004      	beq.n	1d96 <__mriCortexMInit+0x6a>
    1d8c:	2500      	movs	r5, #0
    1d8e:	f841 5b04 	str.w	r5, [r1], #4
    1d92:	3301      	adds	r3, #1
    1d94:	e7f8      	b.n	1d88 <__mriCortexMInit+0x5c>
    1d96:	6813      	ldr	r3, [r2, #0]
    1d98:	4d10      	ldr	r5, [pc, #64]	; (1ddc <__mriCortexMInit+0xb0>)
    1d9a:	f043 0303 	orr.w	r3, r3, #3
    1d9e:	6013      	str	r3, [r2, #0]
    1da0:	2308      	movs	r3, #8
    1da2:	77eb      	strb	r3, [r5, #31]
    1da4:	f885 3022 	strb.w	r3, [r5, #34]	; 0x22
    1da8:	f885 3023 	strb.w	r3, [r5, #35]	; 0x23
    1dac:	f7ff ffac 	bl	1d08 <__mriPlatform_DisableSingleStep>
    1db0:	68e3      	ldr	r3, [r4, #12]
    1db2:	f423 3300 	bic.w	r3, r3, #131072	; 0x20000
    1db6:	60e3      	str	r3, [r4, #12]
    1db8:	2300      	movs	r3, #0
    1dba:	f885 3020 	strb.w	r3, [r5, #32]
    1dbe:	68e3      	ldr	r3, [r4, #12]
    1dc0:	f443 3380 	orr.w	r3, r3, #65536	; 0x10000
    1dc4:	60e3      	str	r3, [r4, #12]
    1dc6:	bd38      	pop	{r3, r4, r5, pc}
    1dc8:	e000edf0 	.word	0xe000edf0
    1dcc:	10000a50 	.word	0x10000a50
    1dd0:	e0001000 	.word	0xe0001000
    1dd4:	e0002000 	.word	0xe0002000
    1dd8:	e0002008 	.word	0xe0002008
    1ddc:	e000ed00 	.word	0xe000ed00

00001de0 <__mriPlatform_IsSingleStepping>:
    1de0:	4b02      	ldr	r3, [pc, #8]	; (1dec <__mriPlatform_IsSingleStepping+0xc>)
    1de2:	f8d3 0138 	ldr.w	r0, [r3, #312]	; 0x138
    1de6:	f000 0004 	and.w	r0, r0, #4
    1dea:	4770      	bx	lr
    1dec:	10000a50 	.word	0x10000a50

00001df0 <__mriPlatform_GetPacketBuffer>:
    1df0:	4800      	ldr	r0, [pc, #0]	; (1df4 <__mriPlatform_GetPacketBuffer+0x4>)
    1df2:	4770      	bx	lr
    1df4:	10000bf4 	.word	0x10000bf4

00001df8 <__mriPlatform_GetPacketBufferSize>:
    1df8:	2089      	movs	r0, #137	; 0x89
    1dfa:	4770      	bx	lr

00001dfc <__mriPlatform_DetermineCauseOfException>:
    1dfc:	f3ef 8305 	mrs	r3, IPSR
    1e00:	b2db      	uxtb	r3, r3
    1e02:	3b02      	subs	r3, #2
    1e04:	2b16      	cmp	r3, #22
    1e06:	d82f      	bhi.n	1e68 <__mriPlatform_DetermineCauseOfException+0x6c>
    1e08:	e8df f003 	tbb	[pc, r3]
    1e0c:	0e30300c 	.word	0x0e30300c
    1e10:	2e2e2e10 	.word	0x2e2e2e10
    1e14:	2e122e2e 	.word	0x2e122e2e
    1e18:	2e2e2e2e 	.word	0x2e2e2e2e
    1e1c:	0c2e2e2e 	.word	0x0c2e2e2e
    1e20:	0c0c      	.short	0x0c0c
    1e22:	0c          	.byte	0x0c
    1e23:	00          	.byte	0x00
    1e24:	2002      	movs	r0, #2
    1e26:	4770      	bx	lr
    1e28:	200a      	movs	r0, #10
    1e2a:	4770      	bx	lr
    1e2c:	2004      	movs	r0, #4
    1e2e:	4770      	bx	lr
    1e30:	4b0f      	ldr	r3, [pc, #60]	; (1e70 <__mriPlatform_DetermineCauseOfException+0x74>)
    1e32:	6b1b      	ldr	r3, [r3, #48]	; 0x30
    1e34:	06d8      	lsls	r0, r3, #27
    1e36:	d408      	bmi.n	1e4a <__mriPlatform_DetermineCauseOfException+0x4e>
    1e38:	0759      	lsls	r1, r3, #29
    1e3a:	d409      	bmi.n	1e50 <__mriPlatform_DetermineCauseOfException+0x54>
    1e3c:	079a      	lsls	r2, r3, #30
    1e3e:	d40a      	bmi.n	1e56 <__mriPlatform_DetermineCauseOfException+0x5a>
    1e40:	07db      	lsls	r3, r3, #31
    1e42:	d511      	bpl.n	1e68 <__mriPlatform_DetermineCauseOfException+0x6c>
    1e44:	2303      	movs	r3, #3
    1e46:	2201      	movs	r2, #1
    1e48:	e007      	b.n	1e5a <__mriPlatform_DetermineCauseOfException+0x5e>
    1e4a:	2300      	movs	r3, #0
    1e4c:	2210      	movs	r2, #16
    1e4e:	e004      	b.n	1e5a <__mriPlatform_DetermineCauseOfException+0x5e>
    1e50:	2301      	movs	r3, #1
    1e52:	2204      	movs	r2, #4
    1e54:	e001      	b.n	1e5a <__mriPlatform_DetermineCauseOfException+0x5e>
    1e56:	2302      	movs	r3, #2
    1e58:	461a      	mov	r2, r3
    1e5a:	4905      	ldr	r1, [pc, #20]	; (1e70 <__mriPlatform_DetermineCauseOfException+0x74>)
    1e5c:	630a      	str	r2, [r1, #48]	; 0x30
    1e5e:	4a05      	ldr	r2, [pc, #20]	; (1e74 <__mriPlatform_DetermineCauseOfException+0x78>)
    1e60:	eb02 03c3 	add.w	r3, r2, r3, lsl #3
    1e64:	7918      	ldrb	r0, [r3, #4]
    1e66:	4770      	bx	lr
    1e68:	2011      	movs	r0, #17
    1e6a:	4770      	bx	lr
    1e6c:	200b      	movs	r0, #11
    1e6e:	4770      	bx	lr
    1e70:	e000ed00 	.word	0xe000ed00
    1e74:	0000cf90 	.word	0x0000cf90

00001e78 <__mriPlatform_DisplayFaultCauseToGdbConsole>:
    1e78:	b510      	push	{r4, lr}
    1e7a:	f3ef 8305 	mrs	r3, IPSR
    1e7e:	b2db      	uxtb	r3, r3
    1e80:	3b03      	subs	r3, #3
    1e82:	2b03      	cmp	r3, #3
    1e84:	d82f      	bhi.n	1ee6 <__mriPlatform_DisplayFaultCauseToGdbConsole+0x6e>
    1e86:	e8df f003 	tbb	[pc, r3]
    1e8a:	2102      	.short	0x2102
    1e8c:	2724      	.short	0x2724
    1e8e:	4b16      	ldr	r3, [pc, #88]	; (1ee8 <__mriPlatform_DisplayFaultCauseToGdbConsole+0x70>)
    1e90:	4816      	ldr	r0, [pc, #88]	; (1eec <__mriPlatform_DisplayFaultCauseToGdbConsole+0x74>)
    1e92:	6adc      	ldr	r4, [r3, #44]	; 0x2c
    1e94:	f001 fc6d 	bl	3772 <__mriGdbConsole_WriteString>
    1e98:	4815      	ldr	r0, [pc, #84]	; (1ef0 <__mriPlatform_DisplayFaultCauseToGdbConsole+0x78>)
    1e9a:	f001 fc6a 	bl	3772 <__mriGdbConsole_WriteString>
    1e9e:	4620      	mov	r0, r4
    1ea0:	f001 fc8c 	bl	37bc <__mriGdbConsole_WriteHexValue>
    1ea4:	2c00      	cmp	r4, #0
    1ea6:	da02      	bge.n	1eae <__mriPlatform_DisplayFaultCauseToGdbConsole+0x36>
    1ea8:	4812      	ldr	r0, [pc, #72]	; (1ef4 <__mriPlatform_DisplayFaultCauseToGdbConsole+0x7c>)
    1eaa:	f001 fc62 	bl	3772 <__mriGdbConsole_WriteString>
    1eae:	07a2      	lsls	r2, r4, #30
    1eb0:	d502      	bpl.n	1eb8 <__mriPlatform_DisplayFaultCauseToGdbConsole+0x40>
    1eb2:	4811      	ldr	r0, [pc, #68]	; (1ef8 <__mriPlatform_DisplayFaultCauseToGdbConsole+0x80>)
    1eb4:	f001 fc5d 	bl	3772 <__mriGdbConsole_WriteString>
    1eb8:	0063      	lsls	r3, r4, #1
    1eba:	d50f      	bpl.n	1edc <__mriPlatform_DisplayFaultCauseToGdbConsole+0x64>
    1ebc:	480f      	ldr	r0, [pc, #60]	; (1efc <__mriPlatform_DisplayFaultCauseToGdbConsole+0x84>)
    1ebe:	f001 fc58 	bl	3772 <__mriGdbConsole_WriteString>
    1ec2:	f7ff fdc7 	bl	1a54 <displayMemFaultCauseToGdbConsole>
    1ec6:	f7ff fe17 	bl	1af8 <displayBusFaultCauseToGdbConsole>
    1eca:	e005      	b.n	1ed8 <__mriPlatform_DisplayFaultCauseToGdbConsole+0x60>
    1ecc:	f7ff fdc2 	bl	1a54 <displayMemFaultCauseToGdbConsole>
    1ed0:	e004      	b.n	1edc <__mriPlatform_DisplayFaultCauseToGdbConsole+0x64>
    1ed2:	f7ff fe11 	bl	1af8 <displayBusFaultCauseToGdbConsole>
    1ed6:	e001      	b.n	1edc <__mriPlatform_DisplayFaultCauseToGdbConsole+0x64>
    1ed8:	f7ff fe68 	bl	1bac <displayUsageFaultCauseToGdbConsole>
    1edc:	e8bd 4010 	ldmia.w	sp!, {r4, lr}
    1ee0:	4807      	ldr	r0, [pc, #28]	; (1f00 <__mriPlatform_DisplayFaultCauseToGdbConsole+0x88>)
    1ee2:	f001 bc46 	b.w	3772 <__mriGdbConsole_WriteString>
    1ee6:	bd10      	pop	{r4, pc}
    1ee8:	e000ed00 	.word	0xe000ed00
    1eec:	0000d189 	.word	0x0000d189
    1ef0:	0000cfdf 	.word	0x0000cfdf
    1ef4:	0000d199 	.word	0x0000d199
    1ef8:	0000d1aa 	.word	0x0000d1aa
    1efc:	0000d1c1 	.word	0x0000d1c1
    1f00:	0000d1cd 	.word	0x0000d1cd

00001f04 <__mriPlatform_LeavingDebugger>:
    1f04:	b570      	push	{r4, r5, r6, lr}
    1f06:	4d1f      	ldr	r5, [pc, #124]	; (1f84 <__mriPlatform_LeavingDebugger+0x80>)
    1f08:	f7ff feee 	bl	1ce8 <disableMPU>
    1f0c:	6828      	ldr	r0, [r5, #0]
    1f0e:	4c1e      	ldr	r4, [pc, #120]	; (1f88 <__mriPlatform_LeavingDebugger+0x84>)
    1f10:	f3c0 2007 	ubfx	r0, r0, #8, #8
    1f14:	3801      	subs	r0, #1
    1f16:	f7ff fd91 	bl	1a3c <prepareToAccessMPURegion>
    1f1a:	f8d4 6194 	ldr.w	r6, [r4, #404]	; 0x194
    1f1e:	f7ff fed7 	bl	1cd0 <isMPUNotPresent>
    1f22:	b908      	cbnz	r0, 1f28 <__mriPlatform_LeavingDebugger+0x24>
    1f24:	0176      	lsls	r6, r6, #5
    1f26:	60ee      	str	r6, [r5, #12]
    1f28:	f8d4 6198 	ldr.w	r6, [r4, #408]	; 0x198
    1f2c:	f7ff fed0 	bl	1cd0 <isMPUNotPresent>
    1f30:	b900      	cbnz	r0, 1f34 <__mriPlatform_LeavingDebugger+0x30>
    1f32:	612e      	str	r6, [r5, #16]
    1f34:	f8d4 0190 	ldr.w	r0, [r4, #400]	; 0x190
    1f38:	f7ff fd80 	bl	1a3c <prepareToAccessMPURegion>
    1f3c:	f8d4 618c 	ldr.w	r6, [r4, #396]	; 0x18c
    1f40:	f7ff fec6 	bl	1cd0 <isMPUNotPresent>
    1f44:	b920      	cbnz	r0, 1f50 <__mriPlatform_LeavingDebugger+0x4c>
    1f46:	606e      	str	r6, [r5, #4]
    1f48:	f3bf 8f4f 	dsb	sy
    1f4c:	f3bf 8f6f 	isb	sy
    1f50:	4b0d      	ldr	r3, [pc, #52]	; (1f88 <__mriPlatform_LeavingDebugger+0x84>)
    1f52:	461a      	mov	r2, r3
    1f54:	6811      	ldr	r1, [r2, #0]
    1f56:	480d      	ldr	r0, [pc, #52]	; (1f8c <__mriPlatform_LeavingDebugger+0x88>)
    1f58:	3304      	adds	r3, #4
    1f5a:	4281      	cmp	r1, r0
    1f5c:	490c      	ldr	r1, [pc, #48]	; (1f90 <__mriPlatform_LeavingDebugger+0x8c>)
    1f5e:	d102      	bne.n	1f66 <__mriPlatform_LeavingDebugger+0x62>
    1f60:	428b      	cmp	r3, r1
    1f62:	461a      	mov	r2, r3
    1f64:	d3f5      	bcc.n	1f52 <__mriPlatform_LeavingDebugger+0x4e>
    1f66:	f8d4 31a0 	ldr.w	r3, [r4, #416]	; 0x1a0
    1f6a:	1a8a      	subs	r2, r1, r2
    1f6c:	429a      	cmp	r2, r3
    1f6e:	bfc4      	itt	gt
    1f70:	4b05      	ldrgt	r3, [pc, #20]	; (1f88 <__mriPlatform_LeavingDebugger+0x84>)
    1f72:	f8c3 21a0 	strgt.w	r2, [r3, #416]	; 0x1a0
    1f76:	4b07      	ldr	r3, [pc, #28]	; (1f94 <__mriPlatform_LeavingDebugger+0x90>)
    1f78:	68da      	ldr	r2, [r3, #12]
    1f7a:	f422 3200 	bic.w	r2, r2, #131072	; 0x20000
    1f7e:	60da      	str	r2, [r3, #12]
    1f80:	bd70      	pop	{r4, r5, r6, pc}
    1f82:	bf00      	nop
    1f84:	e000ed90 	.word	0xe000ed90
    1f88:	10000a50 	.word	0x10000a50
    1f8c:	deadbeef 	.word	0xdeadbeef
    1f90:	10000b88 	.word	0x10000b88
    1f94:	e000edf0 	.word	0xe000edf0

00001f98 <__mriPlatform_GetProgramCounter>:
    1f98:	4b01      	ldr	r3, [pc, #4]	; (1fa0 <__mriPlatform_GetProgramCounter+0x8>)
    1f9a:	f8d3 0180 	ldr.w	r0, [r3, #384]	; 0x180
    1f9e:	4770      	bx	lr
    1fa0:	10000a50 	.word	0x10000a50

00001fa4 <__mriPlatform_SetProgramCounter>:
    1fa4:	4b01      	ldr	r3, [pc, #4]	; (1fac <__mriPlatform_SetProgramCounter+0x8>)
    1fa6:	f8c3 0180 	str.w	r0, [r3, #384]	; 0x180
    1faa:	4770      	bx	lr
    1fac:	10000a50 	.word	0x10000a50

00001fb0 <__mriPlatform_WasProgramCounterModifiedByUser>:
    1fb0:	4b04      	ldr	r3, [pc, #16]	; (1fc4 <__mriPlatform_WasProgramCounterModifiedByUser+0x14>)
    1fb2:	f8d3 0180 	ldr.w	r0, [r3, #384]	; 0x180
    1fb6:	f8d3 3188 	ldr.w	r3, [r3, #392]	; 0x188
    1fba:	1ac0      	subs	r0, r0, r3
    1fbc:	bf18      	it	ne
    1fbe:	2001      	movne	r0, #1
    1fc0:	4770      	bx	lr
    1fc2:	bf00      	nop
    1fc4:	10000a50 	.word	0x10000a50

00001fc8 <__mriPlatform_GetSemihostCallParameters>:
    1fc8:	b530      	push	{r4, r5, lr}
    1fca:	4a07      	ldr	r2, [pc, #28]	; (1fe8 <__mriPlatform_GetSemihostCallParameters+0x20>)
    1fcc:	f8d2 5148 	ldr.w	r5, [r2, #328]	; 0x148
    1fd0:	f8d2 414c 	ldr.w	r4, [r2, #332]	; 0x14c
    1fd4:	f8d2 1150 	ldr.w	r1, [r2, #336]	; 0x150
    1fd8:	f8d2 2144 	ldr.w	r2, [r2, #324]	; 0x144
    1fdc:	6084      	str	r4, [r0, #8]
    1fde:	e880 0024 	stmia.w	r0, {r2, r5}
    1fe2:	60c1      	str	r1, [r0, #12]
    1fe4:	bd30      	pop	{r4, r5, pc}
    1fe6:	bf00      	nop
    1fe8:	10000a50 	.word	0x10000a50

00001fec <__mriPlatform_SetSemihostCallReturnAndErrnoValues>:
    1fec:	4b03      	ldr	r3, [pc, #12]	; (1ffc <__mriPlatform_SetSemihostCallReturnAndErrnoValues+0x10>)
    1fee:	2800      	cmp	r0, #0
    1ff0:	f8c3 0144 	str.w	r0, [r3, #324]	; 0x144
    1ff4:	bfbc      	itt	lt
    1ff6:	4b02      	ldrlt	r3, [pc, #8]	; (2000 <__mriPlatform_SetSemihostCallReturnAndErrnoValues+0x14>)
    1ff8:	6019      	strlt	r1, [r3, #0]
    1ffa:	4770      	bx	lr
    1ffc:	10000a50 	.word	0x10000a50
    2000:	10000c90 	.word	0x10000c90

00002004 <__mriPlatform_WasMemoryFaultEncountered>:
    2004:	f3bf 8f4f 	dsb	sy
    2008:	4b05      	ldr	r3, [pc, #20]	; (2020 <__mriPlatform_WasMemoryFaultEncountered+0x1c>)
    200a:	f8d3 0138 	ldr.w	r0, [r3, #312]	; 0x138
    200e:	f8d3 2138 	ldr.w	r2, [r3, #312]	; 0x138
    2012:	f000 0002 	and.w	r0, r0, #2
    2016:	f022 0202 	bic.w	r2, r2, #2
    201a:	f8c3 2138 	str.w	r2, [r3, #312]	; 0x138
    201e:	4770      	bx	lr
    2020:	10000a50 	.word	0x10000a50

00002024 <throwingMemRead16>:
    2024:	b510      	push	{r4, lr}
    2026:	f000 fb1b 	bl	2660 <__mriPlatform_MemRead16>
    202a:	4604      	mov	r4, r0
    202c:	f7ff ffea 	bl	2004 <__mriPlatform_WasMemoryFaultEncountered>
    2030:	b138      	cbz	r0, 2042 <throwingMemRead16+0x1e>
    2032:	4b05      	ldr	r3, [pc, #20]	; (2048 <throwingMemRead16+0x24>)
    2034:	2000      	movs	r0, #0
    2036:	681a      	ldr	r2, [r3, #0]
    2038:	2a0a      	cmp	r2, #10
    203a:	bfb8      	it	lt
    203c:	220a      	movlt	r2, #10
    203e:	601a      	str	r2, [r3, #0]
    2040:	bd10      	pop	{r4, pc}
    2042:	4620      	mov	r0, r4
    2044:	bd10      	pop	{r4, pc}
    2046:	bf00      	nop
    2048:	10000a48 	.word	0x10000a48

0000204c <getFirstHalfWordOfCurrentInstruction>:
    204c:	4b02      	ldr	r3, [pc, #8]	; (2058 <getFirstHalfWordOfCurrentInstruction+0xc>)
    204e:	f8d3 0180 	ldr.w	r0, [r3, #384]	; 0x180
    2052:	f7ff bfe7 	b.w	2024 <throwingMemRead16>
    2056:	bf00      	nop
    2058:	10000a50 	.word	0x10000a50

0000205c <__mriPlatform_AdvanceProgramCounterToNextInstruction>:
    205c:	b538      	push	{r3, r4, r5, lr}
    205e:	4c0f      	ldr	r4, [pc, #60]	; (209c <__mriPlatform_AdvanceProgramCounterToNextInstruction+0x40>)
    2060:	2500      	movs	r5, #0
    2062:	6025      	str	r5, [r4, #0]
    2064:	f7ff fff2 	bl	204c <getFirstHalfWordOfCurrentInstruction>
    2068:	6823      	ldr	r3, [r4, #0]
    206a:	b10b      	cbz	r3, 2070 <__mriPlatform_AdvanceProgramCounterToNextInstruction+0x14>
    206c:	6025      	str	r5, [r4, #0]
    206e:	bd38      	pop	{r3, r4, r5, pc}
    2070:	f400 4278 	and.w	r2, r0, #63488	; 0xf800
    2074:	f400 4068 	and.w	r0, r0, #59392	; 0xe800
    2078:	f5b0 4f68 	cmp.w	r0, #59392	; 0xe800
    207c:	4b08      	ldr	r3, [pc, #32]	; (20a0 <__mriPlatform_AdvanceProgramCounterToNextInstruction+0x44>)
    207e:	d002      	beq.n	2086 <__mriPlatform_AdvanceProgramCounterToNextInstruction+0x2a>
    2080:	f5b2 4f70 	cmp.w	r2, #61440	; 0xf000
    2084:	d103      	bne.n	208e <__mriPlatform_AdvanceProgramCounterToNextInstruction+0x32>
    2086:	f8d3 2180 	ldr.w	r2, [r3, #384]	; 0x180
    208a:	3204      	adds	r2, #4
    208c:	e002      	b.n	2094 <__mriPlatform_AdvanceProgramCounterToNextInstruction+0x38>
    208e:	f8d3 2180 	ldr.w	r2, [r3, #384]	; 0x180
    2092:	3202      	adds	r2, #2
    2094:	f8c3 2180 	str.w	r2, [r3, #384]	; 0x180
    2098:	bd38      	pop	{r3, r4, r5, pc}
    209a:	bf00      	nop
    209c:	10000a48 	.word	0x10000a48
    20a0:	10000a50 	.word	0x10000a50

000020a4 <__mriPlatform_TypeOfCurrentInstruction>:
    20a4:	b538      	push	{r3, r4, r5, lr}
    20a6:	4d0e      	ldr	r5, [pc, #56]	; (20e0 <__mriPlatform_TypeOfCurrentInstruction+0x3c>)
    20a8:	2400      	movs	r4, #0
    20aa:	602c      	str	r4, [r5, #0]
    20ac:	f7ff ffce 	bl	204c <getFirstHalfWordOfCurrentInstruction>
    20b0:	682b      	ldr	r3, [r5, #0]
    20b2:	b113      	cbz	r3, 20ba <__mriPlatform_TypeOfCurrentInstruction+0x16>
    20b4:	602c      	str	r4, [r5, #0]
    20b6:	4620      	mov	r0, r4
    20b8:	bd38      	pop	{r3, r4, r5, pc}
    20ba:	f64b 63ab 	movw	r3, #48811	; 0xbeab
    20be:	4298      	cmp	r0, r3
    20c0:	d009      	beq.n	20d6 <__mriPlatform_TypeOfCurrentInstruction+0x32>
    20c2:	f64b 63ff 	movw	r3, #48895	; 0xbeff
    20c6:	4298      	cmp	r0, r3
    20c8:	d007      	beq.n	20da <__mriPlatform_TypeOfCurrentInstruction+0x36>
    20ca:	f5b0 4f3e 	cmp.w	r0, #48640	; 0xbe00
    20ce:	bf14      	ite	ne
    20d0:	2000      	movne	r0, #0
    20d2:	2003      	moveq	r0, #3
    20d4:	bd38      	pop	{r3, r4, r5, pc}
    20d6:	2001      	movs	r0, #1
    20d8:	bd38      	pop	{r3, r4, r5, pc}
    20da:	2002      	movs	r0, #2
    20dc:	bd38      	pop	{r3, r4, r5, pc}
    20de:	bf00      	nop
    20e0:	10000a48 	.word	0x10000a48

000020e4 <__mriPlatform_WriteTResponseRegistersToBuffer>:
    20e4:	b538      	push	{r3, r4, r5, lr}
    20e6:	4c0d      	ldr	r4, [pc, #52]	; (211c <__mriPlatform_WriteTResponseRegistersToBuffer+0x38>)
    20e8:	4605      	mov	r5, r0
    20ea:	f8d4 2174 	ldr.w	r2, [r4, #372]	; 0x174
    20ee:	210c      	movs	r1, #12
    20f0:	f7ff fd9e 	bl	1c30 <sendRegisterForTResponse>
    20f4:	4628      	mov	r0, r5
    20f6:	f8d4 2178 	ldr.w	r2, [r4, #376]	; 0x178
    20fa:	210d      	movs	r1, #13
    20fc:	f7ff fd98 	bl	1c30 <sendRegisterForTResponse>
    2100:	4628      	mov	r0, r5
    2102:	f8d4 217c 	ldr.w	r2, [r4, #380]	; 0x17c
    2106:	210e      	movs	r1, #14
    2108:	f7ff fd92 	bl	1c30 <sendRegisterForTResponse>
    210c:	4628      	mov	r0, r5
    210e:	f8d4 2180 	ldr.w	r2, [r4, #384]	; 0x180
    2112:	210f      	movs	r1, #15
    2114:	e8bd 4038 	ldmia.w	sp!, {r3, r4, r5, lr}
    2118:	f7ff bd8a 	b.w	1c30 <sendRegisterForTResponse>
    211c:	10000a50 	.word	0x10000a50

00002120 <__mriPlatform_CopyContextToBuffer>:
    2120:	b570      	push	{r4, r5, r6, lr}
    2122:	4c06      	ldr	r4, [pc, #24]	; (213c <__mriPlatform_CopyContextToBuffer+0x1c>)
    2124:	4606      	mov	r6, r0
    2126:	f104 0544 	add.w	r5, r4, #68	; 0x44
    212a:	f814 1f01 	ldrb.w	r1, [r4, #1]!
    212e:	4630      	mov	r0, r6
    2130:	f000 fd6c 	bl	2c0c <__mriBuffer_WriteByteAsHex>
    2134:	42ac      	cmp	r4, r5
    2136:	d1f8      	bne.n	212a <__mriPlatform_CopyContextToBuffer+0xa>
    2138:	bd70      	pop	{r4, r5, r6, pc}
    213a:	bf00      	nop
    213c:	10000b93 	.word	0x10000b93

00002140 <__mriPlatform_CopyContextFromBuffer>:
    2140:	b570      	push	{r4, r5, r6, lr}
    2142:	4c06      	ldr	r4, [pc, #24]	; (215c <__mriPlatform_CopyContextFromBuffer+0x1c>)
    2144:	4606      	mov	r6, r0
    2146:	f104 0544 	add.w	r5, r4, #68	; 0x44
    214a:	4630      	mov	r0, r6
    214c:	f000 fd7c 	bl	2c48 <__mriBuffer_ReadByteAsHex>
    2150:	f804 0f01 	strb.w	r0, [r4, #1]!
    2154:	42ac      	cmp	r4, r5
    2156:	d1f8      	bne.n	214a <__mriPlatform_CopyContextFromBuffer+0xa>
    2158:	bd70      	pop	{r4, r5, r6, pc}
    215a:	bf00      	nop
    215c:	10000b93 	.word	0x10000b93

00002160 <__mriPlatform_SetHardwareBreakpoint>:
    2160:	b5f8      	push	{r3, r4, r5, r6, r7, lr}
    2162:	4c18      	ldr	r4, [pc, #96]	; (21c4 <__mriPlatform_SetHardwareBreakpoint+0x64>)
    2164:	2500      	movs	r5, #0
    2166:	2902      	cmp	r1, #2
    2168:	4606      	mov	r6, r0
    216a:	6025      	str	r5, [r4, #0]
    216c:	d008      	beq.n	2180 <__mriPlatform_SetHardwareBreakpoint+0x20>
    216e:	d301      	bcc.n	2174 <__mriPlatform_SetHardwareBreakpoint+0x14>
    2170:	2904      	cmp	r1, #4
    2172:	d904      	bls.n	217e <__mriPlatform_SetHardwareBreakpoint+0x1e>
    2174:	2304      	movs	r3, #4
    2176:	6023      	str	r3, [r4, #0]
    2178:	f04f 35ff 	mov.w	r5, #4294967295
    217c:	e000      	b.n	2180 <__mriPlatform_SetHardwareBreakpoint+0x20>
    217e:	2501      	movs	r5, #1
    2180:	6823      	ldr	r3, [r4, #0]
    2182:	b9f3      	cbnz	r3, 21c2 <__mriPlatform_SetHardwareBreakpoint+0x62>
    2184:	4630      	mov	r0, r6
    2186:	4629      	mov	r1, r5
    2188:	f7ff fd86 	bl	1c98 <findFPBBreakpointComparator>
    218c:	4607      	mov	r7, r0
    218e:	b9c0      	cbnz	r0, 21c2 <__mriPlatform_SetHardwareBreakpoint+0x62>
    2190:	f7ff fc48 	bl	1a24 <getFPBCodeComparatorCount>
    2194:	4a0c      	ldr	r2, [pc, #48]	; (21c8 <__mriPlatform_SetHardwareBreakpoint+0x68>)
    2196:	463b      	mov	r3, r7
    2198:	4283      	cmp	r3, r0
    219a:	4617      	mov	r7, r2
    219c:	d00c      	beq.n	21b8 <__mriPlatform_SetHardwareBreakpoint+0x58>
    219e:	f852 1b04 	ldr.w	r1, [r2], #4
    21a2:	07c9      	lsls	r1, r1, #31
    21a4:	d501      	bpl.n	21aa <__mriPlatform_SetHardwareBreakpoint+0x4a>
    21a6:	3301      	adds	r3, #1
    21a8:	e7f6      	b.n	2198 <__mriPlatform_SetHardwareBreakpoint+0x38>
    21aa:	b12f      	cbz	r7, 21b8 <__mriPlatform_SetHardwareBreakpoint+0x58>
    21ac:	4630      	mov	r0, r6
    21ae:	4629      	mov	r1, r5
    21b0:	f7ff fd56 	bl	1c60 <calculateFPBComparatorValue>
    21b4:	6038      	str	r0, [r7, #0]
    21b6:	bdf8      	pop	{r3, r4, r5, r6, r7, pc}
    21b8:	6823      	ldr	r3, [r4, #0]
    21ba:	2b08      	cmp	r3, #8
    21bc:	bfb8      	it	lt
    21be:	2308      	movlt	r3, #8
    21c0:	6023      	str	r3, [r4, #0]
    21c2:	bdf8      	pop	{r3, r4, r5, r6, r7, pc}
    21c4:	10000a48 	.word	0x10000a48
    21c8:	e0002008 	.word	0xe0002008

000021cc <__mriPlatform_EnableSingleStep>:
    21cc:	b5f8      	push	{r3, r4, r5, r6, r7, lr}
    21ce:	4d31      	ldr	r5, [pc, #196]	; (2294 <__mriPlatform_EnableSingleStep+0xc8>)
    21d0:	2300      	movs	r3, #0
    21d2:	602b      	str	r3, [r5, #0]
    21d4:	f7ff ff3a 	bl	204c <getFirstHalfWordOfCurrentInstruction>
    21d8:	682f      	ldr	r7, [r5, #0]
    21da:	462e      	mov	r6, r5
    21dc:	4c2e      	ldr	r4, [pc, #184]	; (2298 <__mriPlatform_EnableSingleStep+0xcc>)
    21de:	b927      	cbnz	r7, 21ea <__mriPlatform_EnableSingleStep+0x1e>
    21e0:	f400 407f 	and.w	r0, r0, #65280	; 0xff00
    21e4:	f5b0 4f5f 	cmp.w	r0, #57088	; 0xdf00
    21e8:	d02b      	beq.n	2242 <__mriPlatform_EnableSingleStep+0x76>
    21ea:	f8d4 3138 	ldr.w	r3, [r4, #312]	; 0x138
    21ee:	2500      	movs	r5, #0
    21f0:	f043 0304 	orr.w	r3, r3, #4
    21f4:	f8c4 3138 	str.w	r3, [r4, #312]	; 0x138
    21f8:	6035      	str	r5, [r6, #0]
    21fa:	f7ff ff27 	bl	204c <getFirstHalfWordOfCurrentInstruction>
    21fe:	6833      	ldr	r3, [r6, #0]
    2200:	4607      	mov	r7, r0
    2202:	b933      	cbnz	r3, 2212 <__mriPlatform_EnableSingleStep+0x46>
    2204:	4b24      	ldr	r3, [pc, #144]	; (2298 <__mriPlatform_EnableSingleStep+0xcc>)
    2206:	f8d3 0180 	ldr.w	r0, [r3, #384]	; 0x180
    220a:	3002      	adds	r0, #2
    220c:	f7ff ff0a 	bl	2024 <throwingMemRead16>
    2210:	e000      	b.n	2214 <__mriPlatform_EnableSingleStep+0x48>
    2212:	4628      	mov	r0, r5
    2214:	6833      	ldr	r3, [r6, #0]
    2216:	b11b      	cbz	r3, 2220 <__mriPlatform_EnableSingleStep+0x54>
    2218:	4b1e      	ldr	r3, [pc, #120]	; (2294 <__mriPlatform_EnableSingleStep+0xc8>)
    221a:	2200      	movs	r2, #0
    221c:	601a      	str	r2, [r3, #0]
    221e:	e021      	b.n	2264 <__mriPlatform_EnableSingleStep+0x98>
    2220:	f027 070f 	bic.w	r7, r7, #15
    2224:	b2bf      	uxth	r7, r7
    2226:	f24f 3380 	movw	r3, #62336	; 0xf380
    222a:	429f      	cmp	r7, r3
    222c:	d11a      	bne.n	2264 <__mriPlatform_EnableSingleStep+0x98>
    222e:	f500 40ef 	add.w	r0, r0, #30592	; 0x7780
    2232:	306f      	adds	r0, #111	; 0x6f
    2234:	b280      	uxth	r0, r0
    2236:	2801      	cmp	r0, #1
    2238:	d814      	bhi.n	2264 <__mriPlatform_EnableSingleStep+0x98>
    223a:	2308      	movs	r3, #8
    223c:	f383 8811 	msr	BASEPRI, r3
    2240:	e022      	b.n	2288 <__mriPlatform_EnableSingleStep+0xbc>
    2242:	4b16      	ldr	r3, [pc, #88]	; (229c <__mriPlatform_EnableSingleStep+0xd0>)
    2244:	2102      	movs	r1, #2
    2246:	689b      	ldr	r3, [r3, #8]
    2248:	6ad8      	ldr	r0, [r3, #44]	; 0x2c
    224a:	f020 0001 	bic.w	r0, r0, #1
    224e:	f7ff ff87 	bl	2160 <__mriPlatform_SetHardwareBreakpoint>
    2252:	682b      	ldr	r3, [r5, #0]
    2254:	b98b      	cbnz	r3, 227a <__mriPlatform_EnableSingleStep+0xae>
    2256:	f8d4 3138 	ldr.w	r3, [r4, #312]	; 0x138
    225a:	f043 0310 	orr.w	r3, r3, #16
    225e:	f8c4 3138 	str.w	r3, [r4, #312]	; 0x138
    2262:	bdf8      	pop	{r3, r4, r5, r6, r7, pc}
    2264:	f3ef 8312 	mrs	r3, BASEPRI_MAX
    2268:	f8c4 319c 	str.w	r3, [r4, #412]	; 0x19c
    226c:	f8d4 3138 	ldr.w	r3, [r4, #312]	; 0x138
    2270:	f043 0308 	orr.w	r3, r3, #8
    2274:	f8c4 3138 	str.w	r3, [r4, #312]	; 0x138
    2278:	e7df      	b.n	223a <__mriPlatform_EnableSingleStep+0x6e>
    227a:	f8d4 3138 	ldr.w	r3, [r4, #312]	; 0x138
    227e:	602f      	str	r7, [r5, #0]
    2280:	f043 0304 	orr.w	r3, r3, #4
    2284:	f8c4 3138 	str.w	r3, [r4, #312]	; 0x138
    2288:	4b05      	ldr	r3, [pc, #20]	; (22a0 <__mriPlatform_EnableSingleStep+0xd4>)
    228a:	68da      	ldr	r2, [r3, #12]
    228c:	f442 2280 	orr.w	r2, r2, #262144	; 0x40000
    2290:	60da      	str	r2, [r3, #12]
    2292:	bdf8      	pop	{r3, r4, r5, r6, r7, pc}
    2294:	10000a48 	.word	0x10000a48
    2298:	10000a50 	.word	0x10000a50
    229c:	e000ed00 	.word	0xe000ed00
    22a0:	e000edf0 	.word	0xe000edf0

000022a4 <__mriPlatform_ClearHardwareBreakpoint>:
    22a4:	4b0c      	ldr	r3, [pc, #48]	; (22d8 <__mriPlatform_ClearHardwareBreakpoint+0x34>)
    22a6:	2200      	movs	r2, #0
    22a8:	2902      	cmp	r1, #2
    22aa:	b510      	push	{r4, lr}
    22ac:	601a      	str	r2, [r3, #0]
    22ae:	d003      	beq.n	22b8 <__mriPlatform_ClearHardwareBreakpoint+0x14>
    22b0:	d304      	bcc.n	22bc <__mriPlatform_ClearHardwareBreakpoint+0x18>
    22b2:	2904      	cmp	r1, #4
    22b4:	d907      	bls.n	22c6 <__mriPlatform_ClearHardwareBreakpoint+0x22>
    22b6:	e001      	b.n	22bc <__mriPlatform_ClearHardwareBreakpoint+0x18>
    22b8:	4611      	mov	r1, r2
    22ba:	e005      	b.n	22c8 <__mriPlatform_ClearHardwareBreakpoint+0x24>
    22bc:	2204      	movs	r2, #4
    22be:	601a      	str	r2, [r3, #0]
    22c0:	f04f 31ff 	mov.w	r1, #4294967295
    22c4:	e000      	b.n	22c8 <__mriPlatform_ClearHardwareBreakpoint+0x24>
    22c6:	2101      	movs	r1, #1
    22c8:	681c      	ldr	r4, [r3, #0]
    22ca:	b91c      	cbnz	r4, 22d4 <__mriPlatform_ClearHardwareBreakpoint+0x30>
    22cc:	f7ff fce4 	bl	1c98 <findFPBBreakpointComparator>
    22d0:	b100      	cbz	r0, 22d4 <__mriPlatform_ClearHardwareBreakpoint+0x30>
    22d2:	6004      	str	r4, [r0, #0]
    22d4:	bd10      	pop	{r4, pc}
    22d6:	bf00      	nop
    22d8:	10000a48 	.word	0x10000a48

000022dc <__mriPlatform_EnteringDebugger>:
    22dc:	b538      	push	{r3, r4, r5, lr}
    22de:	4d3b      	ldr	r5, [pc, #236]	; (23cc <__mriPlatform_EnteringDebugger+0xf0>)
    22e0:	4c3b      	ldr	r4, [pc, #236]	; (23d0 <__mriPlatform_EnteringDebugger+0xf4>)
    22e2:	f8d5 3138 	ldr.w	r3, [r5, #312]	; 0x138
    22e6:	f023 0302 	bic.w	r3, r3, #2
    22ea:	f8c5 3138 	str.w	r3, [r5, #312]	; 0x138
    22ee:	f8d5 3180 	ldr.w	r3, [r5, #384]	; 0x180
    22f2:	f8c5 3188 	str.w	r3, [r5, #392]	; 0x188
    22f6:	f7ff fceb 	bl	1cd0 <isMPUNotPresent>
    22fa:	b908      	cbnz	r0, 2300 <__mriPlatform_EnteringDebugger+0x24>
    22fc:	6863      	ldr	r3, [r4, #4]
    22fe:	e001      	b.n	2304 <__mriPlatform_EnteringDebugger+0x28>
    2300:	f04f 33ff 	mov.w	r3, #4294967295
    2304:	f8c5 318c 	str.w	r3, [r5, #396]	; 0x18c
    2308:	68a3      	ldr	r3, [r4, #8]
    230a:	f8c5 3190 	str.w	r3, [r5, #400]	; 0x190
    230e:	6820      	ldr	r0, [r4, #0]
    2310:	f3c0 2007 	ubfx	r0, r0, #8, #8
    2314:	3801      	subs	r0, #1
    2316:	f7ff fb91 	bl	1a3c <prepareToAccessMPURegion>
    231a:	f7ff fcd9 	bl	1cd0 <isMPUNotPresent>
    231e:	b918      	cbnz	r0, 2328 <__mriPlatform_EnteringDebugger+0x4c>
    2320:	4b2b      	ldr	r3, [pc, #172]	; (23d0 <__mriPlatform_EnteringDebugger+0xf4>)
    2322:	68db      	ldr	r3, [r3, #12]
    2324:	095b      	lsrs	r3, r3, #5
    2326:	e000      	b.n	232a <__mriPlatform_EnteringDebugger+0x4e>
    2328:	2300      	movs	r3, #0
    232a:	f8c5 3194 	str.w	r3, [r5, #404]	; 0x194
    232e:	f7ff fccf 	bl	1cd0 <isMPUNotPresent>
    2332:	b908      	cbnz	r0, 2338 <__mriPlatform_EnteringDebugger+0x5c>
    2334:	6923      	ldr	r3, [r4, #16]
    2336:	e000      	b.n	233a <__mriPlatform_EnteringDebugger+0x5e>
    2338:	2300      	movs	r3, #0
    233a:	f8c5 3198 	str.w	r3, [r5, #408]	; 0x198
    233e:	f7ff fcd3 	bl	1ce8 <disableMPU>
    2342:	6820      	ldr	r0, [r4, #0]
    2344:	f3c0 2007 	ubfx	r0, r0, #8, #8
    2348:	3801      	subs	r0, #1
    234a:	f7ff fb77 	bl	1a3c <prepareToAccessMPURegion>
    234e:	f7ff fcbf 	bl	1cd0 <isMPUNotPresent>
    2352:	b908      	cbnz	r0, 2358 <__mriPlatform_EnteringDebugger+0x7c>
    2354:	4b1e      	ldr	r3, [pc, #120]	; (23d0 <__mriPlatform_EnteringDebugger+0xf4>)
    2356:	60d8      	str	r0, [r3, #12]
    2358:	f7ff fcba 	bl	1cd0 <isMPUNotPresent>
    235c:	b908      	cbnz	r0, 2362 <__mriPlatform_EnteringDebugger+0x86>
    235e:	4b1d      	ldr	r3, [pc, #116]	; (23d4 <__mriPlatform_EnteringDebugger+0xf8>)
    2360:	6123      	str	r3, [r4, #16]
    2362:	f7ff fcb5 	bl	1cd0 <isMPUNotPresent>
    2366:	b938      	cbnz	r0, 2378 <__mriPlatform_EnteringDebugger+0x9c>
    2368:	6863      	ldr	r3, [r4, #4]
    236a:	f043 0303 	orr.w	r3, r3, #3
    236e:	6063      	str	r3, [r4, #4]
    2370:	f3bf 8f4f 	dsb	sy
    2374:	f3bf 8f6f 	isb	sy
    2378:	f8d5 2138 	ldr.w	r2, [r5, #312]	; 0x138
    237c:	4b13      	ldr	r3, [pc, #76]	; (23cc <__mriPlatform_EnteringDebugger+0xf0>)
    237e:	0711      	lsls	r1, r2, #28
    2380:	d50c      	bpl.n	239c <__mriPlatform_EnteringDebugger+0xc0>
    2382:	f8d3 2138 	ldr.w	r2, [r3, #312]	; 0x138
    2386:	f022 0208 	bic.w	r2, r2, #8
    238a:	f8c3 2138 	str.w	r2, [r3, #312]	; 0x138
    238e:	f8d3 319c 	ldr.w	r3, [r3, #412]	; 0x19c
    2392:	f383 8811 	msr	BASEPRI, r3
    2396:	2300      	movs	r3, #0
    2398:	f8c5 319c 	str.w	r3, [r5, #412]	; 0x19c
    239c:	f8d5 2138 	ldr.w	r2, [r5, #312]	; 0x138
    23a0:	4b0a      	ldr	r3, [pc, #40]	; (23cc <__mriPlatform_EnteringDebugger+0xf0>)
    23a2:	06d2      	lsls	r2, r2, #27
    23a4:	d50d      	bpl.n	23c2 <__mriPlatform_EnteringDebugger+0xe6>
    23a6:	f8d3 2138 	ldr.w	r2, [r3, #312]	; 0x138
    23aa:	2102      	movs	r1, #2
    23ac:	f022 0210 	bic.w	r2, r2, #16
    23b0:	f8c3 2138 	str.w	r2, [r3, #312]	; 0x138
    23b4:	4b08      	ldr	r3, [pc, #32]	; (23d8 <__mriPlatform_EnteringDebugger+0xfc>)
    23b6:	689b      	ldr	r3, [r3, #8]
    23b8:	6ad8      	ldr	r0, [r3, #44]	; 0x2c
    23ba:	f020 0001 	bic.w	r0, r0, #1
    23be:	f7ff ff71 	bl	22a4 <__mriPlatform_ClearHardwareBreakpoint>
    23c2:	e8bd 4038 	ldmia.w	sp!, {r3, r4, r5, lr}
    23c6:	f7ff bc9f 	b.w	1d08 <__mriPlatform_DisableSingleStep>
    23ca:	bf00      	nop
    23cc:	10000a50 	.word	0x10000a50
    23d0:	e000ed90 	.word	0xe000ed90
    23d4:	0100003f 	.word	0x0100003f
    23d8:	e000ed00 	.word	0xe000ed00

000023dc <__mriPlatform_SetHardwareWatchpoint>:
    23dc:	2a02      	cmp	r2, #2
    23de:	bf98      	it	ls
    23e0:	4b20      	ldrls	r3, [pc, #128]	; (2464 <__mriPlatform_SetHardwareWatchpoint+0x88>)
    23e2:	b570      	push	{r4, r5, r6, lr}
    23e4:	bf98      	it	ls
    23e6:	5c9d      	ldrbls	r5, [r3, r2]
    23e8:	f101 33ff 	add.w	r3, r1, #4294967295
    23ec:	bf88      	it	hi
    23ee:	2500      	movhi	r5, #0
    23f0:	420b      	tst	r3, r1
    23f2:	4606      	mov	r6, r0
    23f4:	460c      	mov	r4, r1
    23f6:	d106      	bne.n	2406 <__mriPlatform_SetHardwareWatchpoint+0x2a>
    23f8:	424b      	negs	r3, r1
    23fa:	4003      	ands	r3, r0
    23fc:	4298      	cmp	r0, r3
    23fe:	d102      	bne.n	2406 <__mriPlatform_SetHardwareWatchpoint+0x2a>
    2400:	1f6b      	subs	r3, r5, #5
    2402:	2b02      	cmp	r3, #2
    2404:	d905      	bls.n	2412 <__mriPlatform_SetHardwareWatchpoint+0x36>
    2406:	4b18      	ldr	r3, [pc, #96]	; (2468 <__mriPlatform_SetHardwareWatchpoint+0x8c>)
    2408:	681a      	ldr	r2, [r3, #0]
    240a:	2a04      	cmp	r2, #4
    240c:	bfb8      	it	lt
    240e:	2204      	movlt	r2, #4
    2410:	e026      	b.n	2460 <__mriPlatform_SetHardwareWatchpoint+0x84>
    2412:	462a      	mov	r2, r5
    2414:	f7ff fadc 	bl	19d0 <findDWTComparator>
    2418:	bb18      	cbnz	r0, 2462 <__mriPlatform_SetHardwareWatchpoint+0x86>
    241a:	4b14      	ldr	r3, [pc, #80]	; (246c <__mriPlatform_SetHardwareWatchpoint+0x90>)
    241c:	6819      	ldr	r1, [r3, #0]
    241e:	0f09      	lsrs	r1, r1, #28
    2420:	f100 6360 	add.w	r3, r0, #234881024	; 0xe000000
    2424:	f503 7381 	add.w	r3, r3, #258	; 0x102
    2428:	4288      	cmp	r0, r1
    242a:	ea4f 1303 	mov.w	r3, r3, lsl #4
    242e:	d012      	beq.n	2456 <__mriPlatform_SetHardwareWatchpoint+0x7a>
    2430:	689a      	ldr	r2, [r3, #8]
    2432:	f012 020f 	ands.w	r2, r2, #15
    2436:	d001      	beq.n	243c <__mriPlatform_SetHardwareWatchpoint+0x60>
    2438:	3001      	adds	r0, #1
    243a:	e7f1      	b.n	2420 <__mriPlatform_SetHardwareWatchpoint+0x44>
    243c:	b15b      	cbz	r3, 2456 <__mriPlatform_SetHardwareWatchpoint+0x7a>
    243e:	2c01      	cmp	r4, #1
    2440:	d902      	bls.n	2448 <__mriPlatform_SetHardwareWatchpoint+0x6c>
    2442:	0864      	lsrs	r4, r4, #1
    2444:	3201      	adds	r2, #1
    2446:	e7fa      	b.n	243e <__mriPlatform_SetHardwareWatchpoint+0x62>
    2448:	605a      	str	r2, [r3, #4]
    244a:	6859      	ldr	r1, [r3, #4]
    244c:	4291      	cmp	r1, r2
    244e:	d102      	bne.n	2456 <__mriPlatform_SetHardwareWatchpoint+0x7a>
    2450:	601e      	str	r6, [r3, #0]
    2452:	609d      	str	r5, [r3, #8]
    2454:	bd70      	pop	{r4, r5, r6, pc}
    2456:	4b04      	ldr	r3, [pc, #16]	; (2468 <__mriPlatform_SetHardwareWatchpoint+0x8c>)
    2458:	681a      	ldr	r2, [r3, #0]
    245a:	2a08      	cmp	r2, #8
    245c:	bfb8      	it	lt
    245e:	2208      	movlt	r2, #8
    2460:	601a      	str	r2, [r3, #0]
    2462:	bd70      	pop	{r4, r5, r6, pc}
    2464:	0000d1cf 	.word	0x0000d1cf
    2468:	10000a48 	.word	0x10000a48
    246c:	e0001000 	.word	0xe0001000

00002470 <__mriPlatform_ClearHardwareWatchpoint>:
    2470:	2a02      	cmp	r2, #2
    2472:	bf98      	it	ls
    2474:	4b11      	ldrls	r3, [pc, #68]	; (24bc <__mriPlatform_ClearHardwareWatchpoint+0x4c>)
    2476:	b510      	push	{r4, lr}
    2478:	f101 34ff 	add.w	r4, r1, #4294967295
    247c:	bf94      	ite	ls
    247e:	5c9a      	ldrbls	r2, [r3, r2]
    2480:	2200      	movhi	r2, #0
    2482:	400c      	ands	r4, r1
    2484:	d106      	bne.n	2494 <__mriPlatform_ClearHardwareWatchpoint+0x24>
    2486:	424b      	negs	r3, r1
    2488:	4003      	ands	r3, r0
    248a:	4298      	cmp	r0, r3
    248c:	d102      	bne.n	2494 <__mriPlatform_ClearHardwareWatchpoint+0x24>
    248e:	1f53      	subs	r3, r2, #5
    2490:	2b02      	cmp	r3, #2
    2492:	d906      	bls.n	24a2 <__mriPlatform_ClearHardwareWatchpoint+0x32>
    2494:	4b0a      	ldr	r3, [pc, #40]	; (24c0 <__mriPlatform_ClearHardwareWatchpoint+0x50>)
    2496:	681a      	ldr	r2, [r3, #0]
    2498:	2a04      	cmp	r2, #4
    249a:	bfb8      	it	lt
    249c:	2204      	movlt	r2, #4
    249e:	601a      	str	r2, [r3, #0]
    24a0:	bd10      	pop	{r4, pc}
    24a2:	f7ff fa95 	bl	19d0 <findDWTComparator>
    24a6:	b140      	cbz	r0, 24ba <__mriPlatform_ClearHardwareWatchpoint+0x4a>
    24a8:	6004      	str	r4, [r0, #0]
    24aa:	6044      	str	r4, [r0, #4]
    24ac:	6883      	ldr	r3, [r0, #8]
    24ae:	f423 73d7 	bic.w	r3, r3, #430	; 0x1ae
    24b2:	f023 0301 	bic.w	r3, r3, #1
    24b6:	6083      	str	r3, [r0, #8]
    24b8:	bd10      	pop	{r4, pc}
    24ba:	bd10      	pop	{r4, pc}
    24bc:	0000d1cf 	.word	0x0000d1cf
    24c0:	10000a48 	.word	0x10000a48

000024c4 <__mriPlatform_GetTargetXmlSize>:
    24c4:	f240 20b9 	movw	r0, #697	; 0x2b9
    24c8:	4770      	bx	lr
	...

000024cc <__mriPlatform_GetTargetXml>:
    24cc:	4800      	ldr	r0, [pc, #0]	; (24d0 <__mriPlatform_GetTargetXml+0x4>)
    24ce:	4770      	bx	lr
    24d0:	0000ccd3 	.word	0x0000ccd3

000024d4 <__mriARMv7MAsmInit>:
    24d4:	4770      	bx	lr

000024d6 <mriExceptionHandler>:
    24d6:	4856      	ldr	r0, [pc, #344]	; (2630 <UART3_IRQHandler+0x6>)
    24d8:	f000 b803 	b.w	24e2 <mriGetSPAndCallHandler>

000024dc <mriFaultHandler>:
    24dc:	4855      	ldr	r0, [pc, #340]	; (2634 <UART3_IRQHandler+0xa>)
    24de:	f000 b800 	b.w	24e2 <mriGetSPAndCallHandler>

000024e2 <mriGetSPAndCallHandler>:
    24e2:	f01e 0f04 	tst.w	lr, #4
    24e6:	bf0c      	ite	eq
    24e8:	f3ef 8108 	mrseq	r1, MSP
    24ec:	f3ef 8109 	mrsne	r1, PSP
    24f0:	4a51      	ldr	r2, [pc, #324]	; (2638 <UART3_IRQHandler+0xe>)
    24f2:	6011      	str	r1, [r2, #0]
    24f4:	4687      	mov	pc, r0

000024f6 <checkForStackError>:
    24f6:	4851      	ldr	r0, [pc, #324]	; (263c <UART3_IRQHandler+0x12>)
    24f8:	4a51      	ldr	r2, [pc, #324]	; (2640 <UART3_IRQHandler+0x16>)
    24fa:	6800      	ldr	r0, [r0, #0]
    24fc:	4210      	tst	r0, r2
    24fe:	f000 8003 	beq.w	2508 <mriSaveRestoreContext>
    2502:	4950      	ldr	r1, [pc, #320]	; (2644 <UART3_IRQHandler+0x1a>)
    2504:	f000 b800 	b.w	2508 <mriSaveRestoreContext>

00002508 <mriSaveRestoreContext>:
    2508:	484f      	ldr	r0, [pc, #316]	; (2648 <UART3_IRQHandler+0x1e>)
    250a:	6802      	ldr	r2, [r0, #0]
    250c:	f012 0f01 	tst.w	r2, #1
    2510:	bf1e      	ittt	ne
    2512:	f042 0202 	orrne.w	r2, r2, #2
    2516:	6002      	strne	r2, [r0, #0]
    2518:	f000 b856 	bne.w	25c8 <mriAdvancePCAndReturn>
    251c:	f042 0201 	orr.w	r2, r2, #1
    2520:	6002      	str	r2, [r0, #0]
    2522:	2027      	movs	r0, #39	; 0x27
    2524:	f8df c120 	ldr.w	r12, [pc, #288]	; 2648 <UART3_IRQHandler+0x1e>
    2528:	4a48      	ldr	r2, [pc, #288]	; (264c <UART3_IRQHandler+0x22>)
    252a:	4613      	mov	r3, r2
    252c:	e96c 2302 	strd	r2, r3, [r12, #-8]!
    2530:	3801      	subs	r0, #1
    2532:	d1fb      	bne.n	252c <mriSaveRestoreContext+0x24>
    2534:	f3ef 8208 	mrs	r2, MSP
    2538:	4845      	ldr	r0, [pc, #276]	; (2650 <UART3_IRQHandler+0x26>)
    253a:	6002      	str	r2, [r0, #0]
    253c:	4842      	ldr	r0, [pc, #264]	; (2648 <UART3_IRQHandler+0x1e>)
    253e:	f380 8808 	msr	MSP, r0
    2542:	4844      	ldr	r0, [pc, #272]	; (2654 <UART3_IRQHandler+0x2a>)
    2544:	e92d 5000 	stmdb	sp!, {r12, lr}
    2548:	e8b1 500c 	ldmia.w	r1!, {r2, r3, r12, lr}
    254c:	e8a0 500c 	stmia.w	r0!, {r2, r3, r12, lr}
    2550:	e8a0 0ff0 	stmia.w	r0!, {r4, r5, r6, r7, r8, r9, r10, r11}
    2554:	c93c      	ldmia	r1!, {r2, r3, r4, r5}
    2556:	f840 2b08 	str.w	r2, [r0], #8
    255a:	c038      	stmia	r0!, {r3, r4, r5}
    255c:	f415 7f00 	tst.w	r5, #512	; 0x200
    2560:	bf18      	it	ne
    2562:	3104      	addne	r1, #4
    2564:	f840 1c10 	str.w	r1, [r0, #-16]
    2568:	f7fe ff24 	bl	13b4 <__mriDebugException>
    256c:	483a      	ldr	r0, [pc, #232]	; (2658 <UART3_IRQHandler+0x2e>)
    256e:	f850 1c0c 	ldr.w	r1, [r0, #-12]
    2572:	6802      	ldr	r2, [r0, #0]
    2574:	f422 7200 	bic.w	r2, r2, #512	; 0x200
    2578:	f841 2d04 	str.w	r2, [r1, #-4]!
    257c:	e930 000c 	ldmdb	r0!, {r2, r3}
    2580:	e921 000c 	stmdb	r1!, {r2, r3}
    2584:	f850 cd08 	ldr.w	r12, [r0, #-8]!
    2588:	f841 cd04 	str.w	r12, [r1, #-4]!
    258c:	e930 0ff0 	ldmdb	r0!, {r4, r5, r6, r7, r8, r9, r10, r11}
    2590:	e930 500c 	ldmdb	r0!, {r2, r3, r12, lr}
    2594:	e921 500c 	stmdb	r1!, {r2, r3, r12, lr}
    2598:	e8bd 5000 	ldmia.w	sp!, {r12, lr}
    259c:	482c      	ldr	r0, [pc, #176]	; (2650 <UART3_IRQHandler+0x26>)
    259e:	6802      	ldr	r2, [r0, #0]
    25a0:	f382 8808 	msr	MSP, r2
    25a4:	f01e 0f04 	tst.w	lr, #4
    25a8:	bf0c      	ite	eq
    25aa:	f381 8808 	msreq	MSP, r1
    25ae:	f381 8809 	msrne	PSP, r1
    25b2:	4825      	ldr	r0, [pc, #148]	; (2648 <UART3_IRQHandler+0x1e>)
    25b4:	6801      	ldr	r1, [r0, #0]
    25b6:	f021 0101 	bic.w	r1, r1, #1
    25ba:	6001      	str	r1, [r0, #0]
    25bc:	f3bf 8f4f 	dsb	sy
    25c0:	f3bf 8f6f 	isb	sy
    25c4:	f000 b81b 	b.w	25fe <mriClearFaultStatusBitsAndReturn>

000025c8 <mriAdvancePCAndReturn>:
    25c8:	481c      	ldr	r0, [pc, #112]	; (263c <UART3_IRQHandler+0x12>)
    25ca:	6800      	ldr	r0, [r0, #0]
    25cc:	f410 6f80 	tst.w	r0, #1024	; 0x400
    25d0:	f040 8015 	bne.w	25fe <mriClearFaultStatusBitsAndReturn>
    25d4:	6988      	ldr	r0, [r1, #24]
    25d6:	8802      	ldrh	r2, [r0, #0]
    25d8:	f402 4278 	and.w	r2, r2, #63488	; 0xf800
    25dc:	f5b2 4f68 	cmp.w	r2, #59392	; 0xe800
    25e0:	d008      	beq.n	25f4 <mriAdvancePCAndReturn+0x2c>
    25e2:	f5b2 4f70 	cmp.w	r2, #61440	; 0xf000
    25e6:	d005      	beq.n	25f4 <mriAdvancePCAndReturn+0x2c>
    25e8:	f5b2 4f78 	cmp.w	r2, #63488	; 0xf800
    25ec:	d002      	beq.n	25f4 <mriAdvancePCAndReturn+0x2c>
    25ee:	f100 0002 	add.w	r0, r0, #2
    25f2:	e001      	b.n	25f8 <mriAdvancePCAndReturn+0x30>
    25f4:	f100 0004 	add.w	r0, r0, #4
    25f8:	6188      	str	r0, [r1, #24]
    25fa:	f000 b800 	b.w	25fe <mriClearFaultStatusBitsAndReturn>

000025fe <mriClearFaultStatusBitsAndReturn>:
    25fe:	480f      	ldr	r0, [pc, #60]	; (263c <UART3_IRQHandler+0x12>)
    2600:	6801      	ldr	r1, [r0, #0]
    2602:	6001      	str	r1, [r0, #0]
    2604:	6841      	ldr	r1, [r0, #4]
    2606:	6041      	str	r1, [r0, #4]
    2608:	4770      	bx	lr

0000260a <HardFault_Handler>:
    260a:	f7ff bf67 	b.w	24dc <mriFaultHandler>

0000260e <MemManage_Handler>:
    260e:	f7ff bf65 	b.w	24dc <mriFaultHandler>

00002612 <BusFault_Handler>:
    2612:	f7ff bf63 	b.w	24dc <mriFaultHandler>

00002616 <UsageFault_Handler>:
    2616:	f7ff bf5e 	b.w	24d6 <mriExceptionHandler>

0000261a <DebugMon_Handler>:
    261a:	f7ff bf5c 	b.w	24d6 <mriExceptionHandler>

0000261e <UART0_IRQHandler>:
    261e:	f7ff bf5a 	b.w	24d6 <mriExceptionHandler>

00002622 <UART1_IRQHandler>:
    2622:	f7ff bf58 	b.w	24d6 <mriExceptionHandler>

00002626 <UART2_IRQHandler>:
    2626:	f7ff bf56 	b.w	24d6 <mriExceptionHandler>

0000262a <UART3_IRQHandler>:
    262a:	f7ff bf54 	b.w	24d6 <mriExceptionHandler>
    262e:	0000      	.short	0x0000
    2630:	00002509 	.word	0x00002509
    2634:	000024f7 	.word	0x000024f7
    2638:	10000b90 	.word	0x10000b90
    263c:	e000ed28 	.word	0xe000ed28
    2640:	00001818 	.word	0x00001818
    2644:	0000cfb0 	.word	0x0000cfb0
    2648:	10000b88 	.word	0x10000b88
    264c:	deadbeef 	.word	0xdeadbeef
    2650:	10000b8c 	.word	0x10000b8c
    2654:	10000b94 	.word	0x10000b94
    2658:	10000bd4 	.word	0x10000bd4

0000265c <__mriPlatform_MemRead32>:
    265c:	6800      	ldr	r0, [r0, #0]
    265e:	4770      	bx	lr

00002660 <__mriPlatform_MemRead16>:
    2660:	8800      	ldrh	r0, [r0, #0]
    2662:	b280      	uxth	r0, r0
    2664:	4770      	bx	lr

00002666 <__mriPlatform_MemRead8>:
    2666:	7800      	ldrb	r0, [r0, #0]
    2668:	4770      	bx	lr

0000266a <__mriPlatform_MemWrite32>:
    266a:	6001      	str	r1, [r0, #0]
    266c:	4770      	bx	lr

0000266e <__mriPlatform_MemWrite16>:
    266e:	8001      	strh	r1, [r0, #0]
    2670:	4770      	bx	lr

00002672 <__mriPlatform_MemWrite8>:
    2672:	7001      	strb	r1, [r0, #0]
    2674:	4770      	bx	lr
	...

00002678 <__mriPlatform_CommUartIndex>:
    2678:	4b03      	ldr	r3, [pc, #12]	; (2688 <__mriPlatform_CommUartIndex+0x10>)
    267a:	4804      	ldr	r0, [pc, #16]	; (268c <__mriPlatform_CommUartIndex+0x14>)
    267c:	681a      	ldr	r2, [r3, #0]
    267e:	4b04      	ldr	r3, [pc, #16]	; (2690 <__mriPlatform_CommUartIndex+0x18>)
    2680:	1ad3      	subs	r3, r2, r3
    2682:	109b      	asrs	r3, r3, #2
    2684:	4358      	muls	r0, r3
    2686:	4770      	bx	lr
    2688:	10000c80 	.word	0x10000c80
    268c:	38e38e39 	.word	0x38e38e39
    2690:	0000d1d4 	.word	0x0000d1d4

00002694 <__mriPlatform_CommHasReceiveData>:
    2694:	4b03      	ldr	r3, [pc, #12]	; (26a4 <__mriPlatform_CommHasReceiveData+0x10>)
    2696:	681b      	ldr	r3, [r3, #0]
    2698:	68db      	ldr	r3, [r3, #12]
    269a:	7d18      	ldrb	r0, [r3, #20]
    269c:	f000 0001 	and.w	r0, r0, #1
    26a0:	4770      	bx	lr
    26a2:	bf00      	nop
    26a4:	10000c80 	.word	0x10000c80

000026a8 <__mriPlatform_CommReceiveChar>:
    26a8:	b508      	push	{r3, lr}
    26aa:	f7ff fff3 	bl	2694 <__mriPlatform_CommHasReceiveData>
    26ae:	2800      	cmp	r0, #0
    26b0:	d0fb      	beq.n	26aa <__mriPlatform_CommReceiveChar+0x2>
    26b2:	4b02      	ldr	r3, [pc, #8]	; (26bc <__mriPlatform_CommReceiveChar+0x14>)
    26b4:	681b      	ldr	r3, [r3, #0]
    26b6:	68db      	ldr	r3, [r3, #12]
    26b8:	7818      	ldrb	r0, [r3, #0]
    26ba:	bd08      	pop	{r3, pc}
    26bc:	10000c80 	.word	0x10000c80

000026c0 <__mriPlatform_CommSendChar>:
    26c0:	4b04      	ldr	r3, [pc, #16]	; (26d4 <__mriPlatform_CommSendChar+0x14>)
    26c2:	681b      	ldr	r3, [r3, #0]
    26c4:	68db      	ldr	r3, [r3, #12]
    26c6:	7d1a      	ldrb	r2, [r3, #20]
    26c8:	0692      	lsls	r2, r2, #26
    26ca:	d5fc      	bpl.n	26c6 <__mriPlatform_CommSendChar+0x6>
    26cc:	b2c0      	uxtb	r0, r0
    26ce:	7018      	strb	r0, [r3, #0]
    26d0:	4770      	bx	lr
    26d2:	bf00      	nop
    26d4:	10000c80 	.word	0x10000c80

000026d8 <__mriPlatform_CommCausedInterrupt>:
    26d8:	b510      	push	{r4, lr}
    26da:	f3ef 8405 	mrs	r4, IPSR
    26de:	f7ff ffcb 	bl	2678 <__mriPlatform_CommUartIndex>
    26e2:	b2e3      	uxtb	r3, r4
    26e4:	3015      	adds	r0, #21
    26e6:	1a1b      	subs	r3, r3, r0
    26e8:	4258      	negs	r0, r3
    26ea:	4158      	adcs	r0, r3
    26ec:	bd10      	pop	{r4, pc}
	...

000026f0 <__mriPlatform_CommClearInterrupt>:
    26f0:	4b02      	ldr	r3, [pc, #8]	; (26fc <__mriPlatform_CommClearInterrupt+0xc>)
    26f2:	681b      	ldr	r3, [r3, #0]
    26f4:	68db      	ldr	r3, [r3, #12]
    26f6:	689b      	ldr	r3, [r3, #8]
    26f8:	4770      	bx	lr
    26fa:	bf00      	nop
    26fc:	10000c80 	.word	0x10000c80

00002700 <__mriPlatform_CommSharingWithApplication>:
    2700:	4b02      	ldr	r3, [pc, #8]	; (270c <__mriPlatform_CommSharingWithApplication+0xc>)
    2702:	6858      	ldr	r0, [r3, #4]
    2704:	f000 0001 	and.w	r0, r0, #1
    2708:	4770      	bx	lr
    270a:	bf00      	nop
    270c:	10000c80 	.word	0x10000c80

00002710 <__mriPlatform_CommShouldWaitForGdbConnect>:
    2710:	4b04      	ldr	r3, [pc, #16]	; (2724 <__mriPlatform_CommShouldWaitForGdbConnect+0x14>)
    2712:	6858      	ldr	r0, [r3, #4]
    2714:	0783      	lsls	r3, r0, #30
    2716:	bf5a      	itte	pl
    2718:	f000 0001 	andpl.w	r0, r0, #1
    271c:	f080 0001 	eorpl.w	r0, r0, #1
    2720:	2000      	movmi	r0, #0
    2722:	4770      	bx	lr
    2724:	10000c80 	.word	0x10000c80

00002728 <__mriPlatform_CommIsWaitingForGdbToConnect>:
    2728:	b508      	push	{r3, lr}
    272a:	f7ff fff1 	bl	2710 <__mriPlatform_CommShouldWaitForGdbConnect>
    272e:	b128      	cbz	r0, 273c <__mriPlatform_CommIsWaitingForGdbToConnect+0x14>
    2730:	4b03      	ldr	r3, [pc, #12]	; (2740 <__mriPlatform_CommIsWaitingForGdbToConnect+0x18>)
    2732:	681b      	ldr	r3, [r3, #0]
    2734:	68db      	ldr	r3, [r3, #12]
    2736:	6a18      	ldr	r0, [r3, #32]
    2738:	f000 0001 	and.w	r0, r0, #1
    273c:	bd08      	pop	{r3, pc}
    273e:	bf00      	nop
    2740:	10000c80 	.word	0x10000c80

00002744 <__mriPlatform_CommPrepareToWaitForGdbConnection>:
    2744:	b508      	push	{r3, lr}
    2746:	f7ff ffe3 	bl	2710 <__mriPlatform_CommShouldWaitForGdbConnect>
    274a:	b120      	cbz	r0, 2756 <__mriPlatform_CommPrepareToWaitForGdbConnection+0x12>
    274c:	4b02      	ldr	r3, [pc, #8]	; (2758 <__mriPlatform_CommPrepareToWaitForGdbConnection+0x14>)
    274e:	2207      	movs	r2, #7
    2750:	681b      	ldr	r3, [r3, #0]
    2752:	68db      	ldr	r3, [r3, #12]
    2754:	621a      	str	r2, [r3, #32]
    2756:	bd08      	pop	{r3, pc}
    2758:	10000c80 	.word	0x10000c80

0000275c <__mriLpc176xUart_Init>:
    275c:	e92d 4ff0 	stmdb	sp!, {r4, r5, r6, r7, r8, r9, r10, r11, lr}
    2760:	b087      	sub	sp, #28
    2762:	4604      	mov	r4, r0
    2764:	2100      	movs	r1, #0
    2766:	a803      	add	r0, sp, #12
    2768:	220c      	movs	r2, #12
    276a:	f005 fbec 	bl	7f46 <memset>
    276e:	4620      	mov	r0, r4
    2770:	4995      	ldr	r1, [pc, #596]	; (29c8 <__mriLpc176xUart_Init+0x26c>)
    2772:	f7fe ff99 	bl	16a8 <__mriToken_MatchingString>
    2776:	b108      	cbz	r0, 277c <__mriLpc176xUart_Init+0x20>
    2778:	2300      	movs	r3, #0
    277a:	9304      	str	r3, [sp, #16]
    277c:	4620      	mov	r0, r4
    277e:	4993      	ldr	r1, [pc, #588]	; (29cc <__mriLpc176xUart_Init+0x270>)
    2780:	f7fe ff92 	bl	16a8 <__mriToken_MatchingString>
    2784:	b108      	cbz	r0, 278a <__mriLpc176xUart_Init+0x2e>
    2786:	2303      	movs	r3, #3
    2788:	9304      	str	r3, [sp, #16]
    278a:	4620      	mov	r0, r4
    278c:	4990      	ldr	r1, [pc, #576]	; (29d0 <__mriLpc176xUart_Init+0x274>)
    278e:	f7fe ff8b 	bl	16a8 <__mriToken_MatchingString>
    2792:	b108      	cbz	r0, 2798 <__mriLpc176xUart_Init+0x3c>
    2794:	2301      	movs	r3, #1
    2796:	9304      	str	r3, [sp, #16]
    2798:	4620      	mov	r0, r4
    279a:	498e      	ldr	r1, [pc, #568]	; (29d4 <__mriLpc176xUart_Init+0x278>)
    279c:	f7fe ff84 	bl	16a8 <__mriToken_MatchingString>
    27a0:	b108      	cbz	r0, 27a6 <__mriLpc176xUart_Init+0x4a>
    27a2:	2302      	movs	r3, #2
    27a4:	9304      	str	r3, [sp, #16]
    27a6:	4620      	mov	r0, r4
    27a8:	498b      	ldr	r1, [pc, #556]	; (29d8 <__mriLpc176xUart_Init+0x27c>)
    27aa:	f7fe ff7d 	bl	16a8 <__mriToken_MatchingString>
    27ae:	b108      	cbz	r0, 27b4 <__mriLpc176xUart_Init+0x58>
    27b0:	2300      	movs	r3, #0
    27b2:	9304      	str	r3, [sp, #16]
    27b4:	4620      	mov	r0, r4
    27b6:	4989      	ldr	r1, [pc, #548]	; (29dc <__mriLpc176xUart_Init+0x280>)
    27b8:	f7fe ff76 	bl	16a8 <__mriToken_MatchingString>
    27bc:	b108      	cbz	r0, 27c2 <__mriLpc176xUart_Init+0x66>
    27be:	2301      	movs	r3, #1
    27c0:	9304      	str	r3, [sp, #16]
    27c2:	4620      	mov	r0, r4
    27c4:	4986      	ldr	r1, [pc, #536]	; (29e0 <__mriLpc176xUart_Init+0x284>)
    27c6:	f7fe ff6f 	bl	16a8 <__mriToken_MatchingString>
    27ca:	b108      	cbz	r0, 27d0 <__mriLpc176xUart_Init+0x74>
    27cc:	2302      	movs	r3, #2
    27ce:	9304      	str	r3, [sp, #16]
    27d0:	4620      	mov	r0, r4
    27d2:	4984      	ldr	r1, [pc, #528]	; (29e4 <__mriLpc176xUart_Init+0x288>)
    27d4:	f7fe ff68 	bl	16a8 <__mriToken_MatchingString>
    27d8:	b108      	cbz	r0, 27de <__mriLpc176xUart_Init+0x82>
    27da:	2303      	movs	r3, #3
    27dc:	9304      	str	r3, [sp, #16]
    27de:	4620      	mov	r0, r4
    27e0:	4981      	ldr	r1, [pc, #516]	; (29e8 <__mriLpc176xUart_Init+0x28c>)
    27e2:	f7fe ff76 	bl	16d2 <__mriToken_MatchingStringPrefix>
    27e6:	b1d8      	cbz	r0, 2820 <__mriLpc176xUart_Init+0xc4>
    27e8:	300e      	adds	r0, #14
    27ea:	2300      	movs	r3, #0
    27ec:	f810 2b01 	ldrb.w	r2, [r0], #1
    27f0:	b1aa      	cbz	r2, 281e <__mriLpc176xUart_Init+0xc2>
    27f2:	4a7e      	ldr	r2, [pc, #504]	; (29ec <__mriLpc176xUart_Init+0x290>)
    27f4:	2500      	movs	r5, #0
    27f6:	6015      	str	r5, [r2, #0]
    27f8:	f810 1c01 	ldrb.w	r1, [r0, #-1]
    27fc:	3930      	subs	r1, #48	; 0x30
    27fe:	b2ce      	uxtb	r6, r1
    2800:	2e09      	cmp	r6, #9
    2802:	d902      	bls.n	280a <__mriLpc176xUart_Init+0xae>
    2804:	2109      	movs	r1, #9
    2806:	6011      	str	r1, [r2, #0]
    2808:	4629      	mov	r1, r5
    280a:	6812      	ldr	r2, [r2, #0]
    280c:	b11a      	cbz	r2, 2816 <__mriLpc176xUart_Init+0xba>
    280e:	4a77      	ldr	r2, [pc, #476]	; (29ec <__mriLpc176xUart_Init+0x290>)
    2810:	2100      	movs	r1, #0
    2812:	6011      	str	r1, [r2, #0]
    2814:	e003      	b.n	281e <__mriLpc176xUart_Init+0xc2>
    2816:	220a      	movs	r2, #10
    2818:	fb02 1303 	mla	r3, r2, r3, r1
    281c:	e7e6      	b.n	27ec <__mriLpc176xUart_Init+0x90>
    281e:	9305      	str	r3, [sp, #20]
    2820:	4620      	mov	r0, r4
    2822:	4973      	ldr	r1, [pc, #460]	; (29f0 <__mriLpc176xUart_Init+0x294>)
    2824:	f7fe ff40 	bl	16a8 <__mriToken_MatchingString>
    2828:	b108      	cbz	r0, 282e <__mriLpc176xUart_Init+0xd2>
    282a:	2301      	movs	r3, #1
    282c:	9303      	str	r3, [sp, #12]
    282e:	9b04      	ldr	r3, [sp, #16]
    2830:	2124      	movs	r1, #36	; 0x24
    2832:	4359      	muls	r1, r3
    2834:	486f      	ldr	r0, [pc, #444]	; (29f4 <__mriLpc176xUart_Init+0x298>)
    2836:	4a70      	ldr	r2, [pc, #448]	; (29f8 <__mriLpc176xUart_Init+0x29c>)
    2838:	9f03      	ldr	r7, [sp, #12]
    283a:	1843      	adds	r3, r0, r1
    283c:	6013      	str	r3, [r2, #0]
    283e:	b127      	cbz	r7, 284a <__mriLpc176xUart_Init+0xee>
    2840:	6853      	ldr	r3, [r2, #4]
    2842:	f043 0301 	orr.w	r3, r3, #1
    2846:	6053      	str	r3, [r2, #4]
    2848:	e0ba      	b.n	29c0 <__mriLpc176xUart_Init+0x264>
    284a:	4a6c      	ldr	r2, [pc, #432]	; (29fc <__mriLpc176xUart_Init+0x2a0>)
    284c:	691c      	ldr	r4, [r3, #16]
    284e:	f8d2 50c4 	ldr.w	r5, [r2, #196]	; 0xc4
    2852:	432c      	orrs	r4, r5
    2854:	f8c2 40c4 	str.w	r4, [r2, #196]	; 0xc4
    2858:	5842      	ldr	r2, [r0, r1]
    285a:	6959      	ldr	r1, [r3, #20]
    285c:	6810      	ldr	r0, [r2, #0]
    285e:	2510      	movs	r5, #16
    2860:	ea20 0101 	bic.w	r1, r0, r1
    2864:	6011      	str	r1, [r2, #0]
    2866:	6959      	ldr	r1, [r3, #20]
    2868:	6810      	ldr	r0, [r2, #0]
    286a:	f001 3155 	and.w	r1, r1, #1431655765	; 0x55555555
    286e:	4301      	orrs	r1, r0
    2870:	6011      	str	r1, [r2, #0]
    2872:	68da      	ldr	r2, [r3, #12]
    2874:	2101      	movs	r1, #1
    2876:	f882 5028 	strb.w	r5, [r2, #40]	; 0x28
    287a:	68da      	ldr	r2, [r3, #12]
    287c:	2003      	movs	r0, #3
    287e:	7211      	strb	r1, [r2, #8]
    2880:	68da      	ldr	r2, [r3, #12]
    2882:	7310      	strb	r0, [r2, #12]
    2884:	9a05      	ldr	r2, [sp, #20]
    2886:	2a00      	cmp	r2, #0
    2888:	d05a      	beq.n	2940 <__mriLpc176xUart_Init+0x1e4>
    288a:	485d      	ldr	r0, [pc, #372]	; (2a00 <__mriLpc176xUart_Init+0x2a4>)
    288c:	6800      	ldr	r0, [r0, #0]
    288e:	ea4f 1c10 	mov.w	r12, r0, lsr #4
    2892:	fbbc f4f2 	udiv	r4, r12, r2
    2896:	fb02 f004 	mul.w	r0, r2, r4
    289a:	4560      	cmp	r0, r12
    289c:	d039      	beq.n	2912 <__mriLpc176xUart_Init+0x1b6>
    289e:	0110      	lsls	r0, r2, #4
    28a0:	ea4f 2c0c 	mov.w	r12, r12, lsl #8
    28a4:	9001      	str	r0, [sp, #4]
    28a6:	f04f 38ff 	mov.w	r8, #4294967295
    28aa:	460d      	mov	r5, r1
    28ac:	ea4f 1e01 	mov.w	lr, r1, lsl #4
    28b0:	4616      	mov	r6, r2
    28b2:	2001      	movs	r0, #1
    28b4:	4288      	cmp	r0, r1
    28b6:	d227      	bcs.n	2908 <__mriLpc176xUart_Init+0x1ac>
    28b8:	ea4f 1906 	mov.w	r9, r6, lsl #4
    28bc:	fbb9 f9fe 	udiv	r9, r9, lr
    28c0:	4491      	add	r9, r2
    28c2:	fbbc f9f9 	udiv	r9, r12, r9
    28c6:	f109 0980 	add.w	r9, r9, #128	; 0x80
    28ca:	ea4f 2919 	mov.w	r9, r9, lsr #8
    28ce:	ea4f 1a09 	mov.w	r10, r9, lsl #4
    28d2:	fb00 fb0a 	mul.w	r11, r0, r10
    28d6:	ea4f 1b0b 	mov.w	r11, r11, lsl #4
    28da:	fbbb fbfe 	udiv	r11, r11, lr
    28de:	44da      	add	r10, r11
    28e0:	f8dd b004 	ldr.w	r11, [sp, #4]
    28e4:	fbbc fafa 	udiv	r10, r12, r10
    28e8:	ebcb 0a0a 	rsb	r10, r11, r10
    28ec:	f1ba 0f00 	cmp.w	r10, #0
    28f0:	bfb8      	it	lt
    28f2:	f1ca 0a00 	rsblt	r10, r10, #0
    28f6:	45c2      	cmp	r10, r8
    28f8:	d203      	bcs.n	2902 <__mriLpc176xUart_Init+0x1a6>
    28fa:	46d0      	mov	r8, r10
    28fc:	4607      	mov	r7, r0
    28fe:	460d      	mov	r5, r1
    2900:	464c      	mov	r4, r9
    2902:	4416      	add	r6, r2
    2904:	3001      	adds	r0, #1
    2906:	e7d5      	b.n	28b4 <__mriLpc176xUart_Init+0x158>
    2908:	3101      	adds	r1, #1
    290a:	2910      	cmp	r1, #16
    290c:	d1ce      	bne.n	28ac <__mriLpc176xUart_Init+0x150>
    290e:	ea47 1505 	orr.w	r5, r7, r5, lsl #4
    2912:	68da      	ldr	r2, [r3, #12]
    2914:	b2ed      	uxtb	r5, r5
    2916:	7b11      	ldrb	r1, [r2, #12]
    2918:	f041 0180 	orr.w	r1, r1, #128	; 0x80
    291c:	7311      	strb	r1, [r2, #12]
    291e:	b2e1      	uxtb	r1, r4
    2920:	f3c4 2407 	ubfx	r4, r4, #8, #8
    2924:	7011      	strb	r1, [r2, #0]
    2926:	7114      	strb	r4, [r2, #4]
    2928:	f882 5028 	strb.w	r5, [r2, #40]	; 0x28
    292c:	68da      	ldr	r2, [r3, #12]
    292e:	7b11      	ldrb	r1, [r2, #12]
    2930:	f001 017f 	and.w	r1, r1, #127	; 0x7f
    2934:	7311      	strb	r1, [r2, #12]
    2936:	4a30      	ldr	r2, [pc, #192]	; (29f8 <__mriLpc176xUart_Init+0x29c>)
    2938:	6851      	ldr	r1, [r2, #4]
    293a:	f041 0102 	orr.w	r1, r1, #2
    293e:	6051      	str	r1, [r2, #4]
    2940:	685a      	ldr	r2, [r3, #4]
    2942:	6999      	ldr	r1, [r3, #24]
    2944:	6814      	ldr	r4, [r2, #0]
    2946:	6a18      	ldr	r0, [r3, #32]
    2948:	ea24 0401 	bic.w	r4, r4, r1
    294c:	4008      	ands	r0, r1
    294e:	ea44 0100 	orr.w	r1, r4, r0
    2952:	6011      	str	r1, [r2, #0]
    2954:	689a      	ldr	r2, [r3, #8]
    2956:	69d9      	ldr	r1, [r3, #28]
    2958:	6814      	ldr	r4, [r2, #0]
    295a:	6a18      	ldr	r0, [r3, #32]
    295c:	ea24 0401 	bic.w	r4, r4, r1
    2960:	4008      	ands	r0, r1
    2962:	ea44 0100 	orr.w	r1, r4, r0
    2966:	6011      	str	r1, [r2, #0]
    2968:	68da      	ldr	r2, [r3, #12]
    296a:	7b11      	ldrb	r1, [r2, #12]
    296c:	7b10      	ldrb	r0, [r2, #12]
    296e:	b2c9      	uxtb	r1, r1
    2970:	f000 007f 	and.w	r0, r0, #127	; 0x7f
    2974:	7310      	strb	r0, [r2, #12]
    2976:	68da      	ldr	r2, [r3, #12]
    2978:	2001      	movs	r0, #1
    297a:	6050      	str	r0, [r2, #4]
    297c:	68db      	ldr	r3, [r3, #12]
    297e:	7319      	strb	r1, [r3, #12]
    2980:	f7ff fee0 	bl	2744 <__mriPlatform_CommPrepareToWaitForGdbConnection>
    2984:	f7ff fe78 	bl	2678 <__mriPlatform_CommUartIndex>
    2988:	3005      	adds	r0, #5
    298a:	b2c0      	uxtb	r0, r0
    298c:	b243      	sxtb	r3, r0
    298e:	2b00      	cmp	r3, #0
    2990:	da06      	bge.n	29a0 <__mriLpc176xUart_Init+0x244>
    2992:	4a1c      	ldr	r2, [pc, #112]	; (2a04 <__mriLpc176xUart_Init+0x2a8>)
    2994:	f000 010f 	and.w	r1, r0, #15
    2998:	440a      	add	r2, r1
    299a:	2100      	movs	r1, #0
    299c:	7611      	strb	r1, [r2, #24]
    299e:	e006      	b.n	29ae <__mriLpc176xUart_Init+0x252>
    29a0:	f103 4260 	add.w	r2, r3, #3758096384	; 0xe0000000
    29a4:	f502 4261 	add.w	r2, r2, #57600	; 0xe100
    29a8:	2100      	movs	r1, #0
    29aa:	f882 1300 	strb.w	r1, [r2, #768]	; 0x300
    29ae:	2201      	movs	r2, #1
    29b0:	f000 001f 	and.w	r0, r0, #31
    29b4:	fa02 f000 	lsl.w	r0, r2, r0
    29b8:	4a13      	ldr	r2, [pc, #76]	; (2a08 <__mriLpc176xUart_Init+0x2ac>)
    29ba:	095b      	lsrs	r3, r3, #5
    29bc:	f842 0023 	str.w	r0, [r2, r3, lsl #2]
    29c0:	b007      	add	sp, #28
    29c2:	e8bd 8ff0 	ldmia.w	sp!, {r4, r5, r6, r7, r8, r9, r10, r11, pc}
    29c6:	bf00      	nop
    29c8:	0000d264 	.word	0x0000d264
    29cc:	0000d276 	.word	0x0000d276
    29d0:	0000d28b 	.word	0x0000d28b
    29d4:	0000d2a1 	.word	0x0000d2a1
    29d8:	0000d2b7 	.word	0x0000d2b7
    29dc:	0000d2c2 	.word	0x0000d2c2
    29e0:	0000d2cd 	.word	0x0000d2cd
    29e4:	0000d2d8 	.word	0x0000d2d8
    29e8:	0000d2f2 	.word	0x0000d2f2
    29ec:	10000a48 	.word	0x10000a48
    29f0:	0000d2e3 	.word	0x0000d2e3
    29f4:	0000d1d4 	.word	0x0000d1d4
    29f8:	10000c80 	.word	0x10000c80
    29fc:	400fc000 	.word	0x400fc000
    2a00:	100000d4 	.word	0x100000d4
    2a04:	e000ecfc 	.word	0xe000ecfc
    2a08:	e000e100 	.word	0xe000e100

00002a0c <__mriPlatform_CommWaitForReceiveDataToStop>:
    2a0c:	b538      	push	{r3, r4, r5, lr}
    2a0e:	4b13      	ldr	r3, [pc, #76]	; (2a5c <__mriPlatform_CommWaitForReceiveDataToStop+0x50>)
    2a10:	681c      	ldr	r4, [r3, #0]
    2a12:	685d      	ldr	r5, [r3, #4]
    2a14:	68da      	ldr	r2, [r3, #12]
    2a16:	f022 427f 	bic.w	r2, r2, #4278190080	; 0xff000000
    2a1a:	b142      	cbz	r2, 2a2e <__mriPlatform_CommWaitForReceiveDataToStop+0x22>
    2a1c:	2200      	movs	r2, #0
    2a1e:	601a      	str	r2, [r3, #0]
    2a20:	68d9      	ldr	r1, [r3, #12]
    2a22:	f021 417f 	bic.w	r1, r1, #4278190080	; 0xff000000
    2a26:	6059      	str	r1, [r3, #4]
    2a28:	609a      	str	r2, [r3, #8]
    2a2a:	2205      	movs	r2, #5
    2a2c:	601a      	str	r2, [r3, #0]
    2a2e:	f7ff fe31 	bl	2694 <__mriPlatform_CommHasReceiveData>
    2a32:	4b0a      	ldr	r3, [pc, #40]	; (2a5c <__mriPlatform_CommWaitForReceiveDataToStop+0x50>)
    2a34:	b930      	cbnz	r0, 2a44 <__mriPlatform_CommWaitForReceiveDataToStop+0x38>
    2a36:	68da      	ldr	r2, [r3, #12]
    2a38:	f022 427f 	bic.w	r2, r2, #4278190080	; 0xff000000
    2a3c:	b112      	cbz	r2, 2a44 <__mriPlatform_CommWaitForReceiveDataToStop+0x38>
    2a3e:	681a      	ldr	r2, [r3, #0]
    2a40:	03d2      	lsls	r2, r2, #15
    2a42:	d5f4      	bpl.n	2a2e <__mriPlatform_CommWaitForReceiveDataToStop+0x22>
    2a44:	f025 457f 	bic.w	r5, r5, #4278190080	; 0xff000000
    2a48:	605d      	str	r5, [r3, #4]
    2a4a:	601c      	str	r4, [r3, #0]
    2a4c:	f7ff fe22 	bl	2694 <__mriPlatform_CommHasReceiveData>
    2a50:	b110      	cbz	r0, 2a58 <__mriPlatform_CommWaitForReceiveDataToStop+0x4c>
    2a52:	f7ff fe29 	bl	26a8 <__mriPlatform_CommReceiveChar>
    2a56:	e7da      	b.n	2a0e <__mriPlatform_CommWaitForReceiveDataToStop+0x2>
    2a58:	bd38      	pop	{r3, r4, r5, pc}
    2a5a:	bf00      	nop
    2a5c:	e000e010 	.word	0xe000e010

00002a60 <__mriPlatform_Init>:
    2a60:	e92d 41f0 	stmdb	sp!, {r4, r5, r6, r7, r8, lr}
    2a64:	4d1d      	ldr	r5, [pc, #116]	; (2adc <__mriPlatform_Init+0x7c>)
    2a66:	2300      	movs	r3, #0
    2a68:	462a      	mov	r2, r5
    2a6a:	f842 3b04 	str.w	r3, [r2], #4
    2a6e:	4b1c      	ldr	r3, [pc, #112]	; (2ae0 <__mriPlatform_Init+0x80>)
    2a70:	4680      	mov	r8, r0
    2a72:	f103 0620 	add.w	r6, r3, #32
    2a76:	6818      	ldr	r0, [r3, #0]
    2a78:	6859      	ldr	r1, [r3, #4]
    2a7a:	4614      	mov	r4, r2
    2a7c:	c403      	stmia	r4!, {r0, r1}
    2a7e:	3308      	adds	r3, #8
    2a80:	42b3      	cmp	r3, r6
    2a82:	4622      	mov	r2, r4
    2a84:	d1f7      	bne.n	2a76 <__mriPlatform_Init+0x16>
    2a86:	6818      	ldr	r0, [r3, #0]
    2a88:	4e16      	ldr	r6, [pc, #88]	; (2ae4 <__mriPlatform_Init+0x84>)
    2a8a:	6020      	str	r0, [r4, #0]
    2a8c:	6833      	ldr	r3, [r6, #0]
    2a8e:	4c16      	ldr	r4, [pc, #88]	; (2ae8 <__mriPlatform_Init+0x88>)
    2a90:	2700      	movs	r7, #0
    2a92:	07d9      	lsls	r1, r3, #31
    2a94:	6027      	str	r7, [r4, #0]
    2a96:	d517      	bpl.n	2ac8 <__mriPlatform_Init+0x68>
    2a98:	4814      	ldr	r0, [pc, #80]	; (2aec <__mriPlatform_Init+0x8c>)
    2a9a:	f000 f839 	bl	2b10 <__mriGetMbedUid>
    2a9e:	f000 f82b 	bl	2af8 <__mriDisableMbed>
    2aa2:	6027      	str	r7, [r4, #0]
    2aa4:	f241 3389 	movw	r3, #5001	; 0x1389
    2aa8:	3b01      	subs	r3, #1
    2aaa:	d002      	beq.n	2ab2 <__mriPlatform_Init+0x52>
    2aac:	6832      	ldr	r2, [r6, #0]
    2aae:	07d2      	lsls	r2, r2, #31
    2ab0:	d4fa      	bmi.n	2aa8 <__mriPlatform_Init+0x48>
    2ab2:	6833      	ldr	r3, [r6, #0]
    2ab4:	07db      	lsls	r3, r3, #31
    2ab6:	bf44      	itt	mi
    2ab8:	2305      	movmi	r3, #5
    2aba:	6023      	strmi	r3, [r4, #0]
    2abc:	6823      	ldr	r3, [r4, #0]
    2abe:	b91b      	cbnz	r3, 2ac8 <__mriPlatform_Init+0x68>
    2ac0:	682b      	ldr	r3, [r5, #0]
    2ac2:	f043 0301 	orr.w	r3, r3, #1
    2ac6:	602b      	str	r3, [r5, #0]
    2ac8:	6823      	ldr	r3, [r4, #0]
    2aca:	b923      	cbnz	r3, 2ad6 <__mriPlatform_Init+0x76>
    2acc:	4640      	mov	r0, r8
    2ace:	e8bd 41f0 	ldmia.w	sp!, {r4, r5, r6, r7, r8, lr}
    2ad2:	f000 bfd1 	b.w	3a78 <__mriLpc176x_Init>
    2ad6:	e8bd 81f0 	ldmia.w	sp!, {r4, r5, r6, r7, r8, pc}
    2ada:	bf00      	nop
    2adc:	1000075c 	.word	0x1000075c
    2ae0:	0000d301 	.word	0x0000d301
    2ae4:	e000edf0 	.word	0xe000edf0
    2ae8:	10000a48 	.word	0x10000a48
    2aec:	10000760 	.word	0x10000760

00002af0 <__mriMbed1768_GetMbedUid>:
    2af0:	4800      	ldr	r0, [pc, #0]	; (2af4 <__mriMbed1768_GetMbedUid+0x4>)
    2af2:	4770      	bx	lr
    2af4:	10000760 	.word	0x10000760

00002af8 <__mriDisableMbed>:
    2af8:	b082      	sub	sp, #8
    2afa:	a901      	add	r1, sp, #4
    2afc:	f240 1005 	movw	r0, #261	; 0x105
    2b00:	beab      	bkpt	0x00ab
    2b02:	2800      	cmp	r0, #0
    2b04:	bf0c      	ite	eq
    2b06:	9801      	ldreq	r0, [sp, #4]
    2b08:	f04f 30ff 	movne.w	r0, #4294967295
    2b0c:	b002      	add	sp, #8
    2b0e:	4770      	bx	lr

00002b10 <__mriGetMbedUid>:
    2b10:	b082      	sub	sp, #8
    2b12:	9000      	str	r0, [sp, #0]
    2b14:	2021      	movs	r0, #33	; 0x21
    2b16:	9001      	str	r0, [sp, #4]
    2b18:	4669      	mov	r1, sp
    2b1a:	f240 1001 	movw	r0, #257	; 0x101
    2b1e:	beab      	bkpt	0x00ab
    2b20:	b002      	add	sp, #8
    2b22:	4770      	bx	lr

00002b24 <HexCharToNibble>:
    2b24:	f1a0 0361 	sub.w	r3, r0, #97	; 0x61
    2b28:	2b05      	cmp	r3, #5
    2b2a:	d801      	bhi.n	2b30 <HexCharToNibble+0xc>
    2b2c:	3857      	subs	r0, #87	; 0x57
    2b2e:	4770      	bx	lr
    2b30:	f1a0 0341 	sub.w	r3, r0, #65	; 0x41
    2b34:	2b05      	cmp	r3, #5
    2b36:	d801      	bhi.n	2b3c <HexCharToNibble+0x18>
    2b38:	3837      	subs	r0, #55	; 0x37
    2b3a:	4770      	bx	lr
    2b3c:	3830      	subs	r0, #48	; 0x30
    2b3e:	b2c3      	uxtb	r3, r0
    2b40:	2b09      	cmp	r3, #9
    2b42:	d907      	bls.n	2b54 <HexCharToNibble+0x30>
    2b44:	4b04      	ldr	r3, [pc, #16]	; (2b58 <HexCharToNibble+0x34>)
    2b46:	f04f 30ff 	mov.w	r0, #4294967295
    2b4a:	681a      	ldr	r2, [r3, #0]
    2b4c:	2a02      	cmp	r2, #2
    2b4e:	bfb8      	it	lt
    2b50:	2202      	movlt	r2, #2
    2b52:	601a      	str	r2, [r3, #0]
    2b54:	4770      	bx	lr
    2b56:	bf00      	nop
    2b58:	10000a48 	.word	0x10000a48

00002b5c <__mriBuffer_Init>:
    2b5c:	440a      	add	r2, r1
    2b5e:	6001      	str	r1, [r0, #0]
    2b60:	6042      	str	r2, [r0, #4]
    2b62:	6081      	str	r1, [r0, #8]
    2b64:	4770      	bx	lr

00002b66 <__mriBuffer_Reset>:
    2b66:	6803      	ldr	r3, [r0, #0]
    2b68:	6083      	str	r3, [r0, #8]
    2b6a:	4770      	bx	lr

00002b6c <__mriBuffer_SetEndOfBuffer>:
    2b6c:	6883      	ldr	r3, [r0, #8]
    2b6e:	6842      	ldr	r2, [r0, #4]
    2b70:	4293      	cmp	r3, r2
    2b72:	bf38      	it	cc
    2b74:	6043      	strcc	r3, [r0, #4]
    2b76:	4770      	bx	lr

00002b78 <__mriBuffer_BytesLeft>:
    2b78:	6883      	ldr	r3, [r0, #8]
    2b7a:	6840      	ldr	r0, [r0, #4]
    2b7c:	4283      	cmp	r3, r0
    2b7e:	bf94      	ite	ls
    2b80:	ebc3 0000 	rsbls	r0, r3, r0
    2b84:	2000      	movhi	r0, #0
    2b86:	4770      	bx	lr

00002b88 <throwExceptionAndFlagBufferOverrunIfBufferLeftIsSmallerThan>:
    2b88:	b538      	push	{r3, r4, r5, lr}
    2b8a:	460d      	mov	r5, r1
    2b8c:	4604      	mov	r4, r0
    2b8e:	f7ff fff3 	bl	2b78 <__mriBuffer_BytesLeft>
    2b92:	42a8      	cmp	r0, r5
    2b94:	d208      	bcs.n	2ba8 <throwExceptionAndFlagBufferOverrunIfBufferLeftIsSmallerThan+0x20>
    2b96:	6863      	ldr	r3, [r4, #4]
    2b98:	3301      	adds	r3, #1
    2b9a:	60a3      	str	r3, [r4, #8]
    2b9c:	4b03      	ldr	r3, [pc, #12]	; (2bac <throwExceptionAndFlagBufferOverrunIfBufferLeftIsSmallerThan+0x24>)
    2b9e:	681a      	ldr	r2, [r3, #0]
    2ba0:	2a01      	cmp	r2, #1
    2ba2:	bfb8      	it	lt
    2ba4:	2201      	movlt	r2, #1
    2ba6:	601a      	str	r2, [r3, #0]
    2ba8:	bd38      	pop	{r3, r4, r5, pc}
    2baa:	bf00      	nop
    2bac:	10000a48 	.word	0x10000a48

00002bb0 <__mriBuffer_OverrunDetected>:
    2bb0:	6882      	ldr	r2, [r0, #8]
    2bb2:	6840      	ldr	r0, [r0, #4]
    2bb4:	4282      	cmp	r2, r0
    2bb6:	bf94      	ite	ls
    2bb8:	2000      	movls	r0, #0
    2bba:	2001      	movhi	r0, #1
    2bbc:	4770      	bx	lr
	...

00002bc0 <__mriBuffer_WriteChar>:
    2bc0:	b570      	push	{r4, r5, r6, lr}
    2bc2:	4d07      	ldr	r5, [pc, #28]	; (2be0 <__mriBuffer_WriteChar+0x20>)
    2bc4:	2300      	movs	r3, #0
    2bc6:	460e      	mov	r6, r1
    2bc8:	2101      	movs	r1, #1
    2bca:	602b      	str	r3, [r5, #0]
    2bcc:	4604      	mov	r4, r0
    2bce:	f7ff ffdb 	bl	2b88 <throwExceptionAndFlagBufferOverrunIfBufferLeftIsSmallerThan>
    2bd2:	682b      	ldr	r3, [r5, #0]
    2bd4:	b91b      	cbnz	r3, 2bde <__mriBuffer_WriteChar+0x1e>
    2bd6:	68a3      	ldr	r3, [r4, #8]
    2bd8:	1c5a      	adds	r2, r3, #1
    2bda:	60a2      	str	r2, [r4, #8]
    2bdc:	701e      	strb	r6, [r3, #0]
    2bde:	bd70      	pop	{r4, r5, r6, pc}
    2be0:	10000a48 	.word	0x10000a48

00002be4 <__mriBuffer_ReadChar>:
    2be4:	b570      	push	{r4, r5, r6, lr}
    2be6:	4e08      	ldr	r6, [pc, #32]	; (2c08 <__mriBuffer_ReadChar+0x24>)
    2be8:	2400      	movs	r4, #0
    2bea:	2101      	movs	r1, #1
    2bec:	4605      	mov	r5, r0
    2bee:	6034      	str	r4, [r6, #0]
    2bf0:	f7ff ffca 	bl	2b88 <throwExceptionAndFlagBufferOverrunIfBufferLeftIsSmallerThan>
    2bf4:	6833      	ldr	r3, [r6, #0]
    2bf6:	b923      	cbnz	r3, 2c02 <__mriBuffer_ReadChar+0x1e>
    2bf8:	68ab      	ldr	r3, [r5, #8]
    2bfa:	1c5a      	adds	r2, r3, #1
    2bfc:	60aa      	str	r2, [r5, #8]
    2bfe:	7818      	ldrb	r0, [r3, #0]
    2c00:	bd70      	pop	{r4, r5, r6, pc}
    2c02:	4620      	mov	r0, r4
    2c04:	bd70      	pop	{r4, r5, r6, pc}
    2c06:	bf00      	nop
    2c08:	10000a48 	.word	0x10000a48

00002c0c <__mriBuffer_WriteByteAsHex>:
    2c0c:	b570      	push	{r4, r5, r6, lr}
    2c0e:	4e0c      	ldr	r6, [pc, #48]	; (2c40 <__mriBuffer_WriteByteAsHex+0x34>)
    2c10:	2300      	movs	r3, #0
    2c12:	460d      	mov	r5, r1
    2c14:	2102      	movs	r1, #2
    2c16:	6033      	str	r3, [r6, #0]
    2c18:	4604      	mov	r4, r0
    2c1a:	f7ff ffb5 	bl	2b88 <throwExceptionAndFlagBufferOverrunIfBufferLeftIsSmallerThan>
    2c1e:	6833      	ldr	r3, [r6, #0]
    2c20:	b96b      	cbnz	r3, 2c3e <__mriBuffer_WriteByteAsHex+0x32>
    2c22:	68a3      	ldr	r3, [r4, #8]
    2c24:	0929      	lsrs	r1, r5, #4
    2c26:	1c5a      	adds	r2, r3, #1
    2c28:	60a2      	str	r2, [r4, #8]
    2c2a:	4a06      	ldr	r2, [pc, #24]	; (2c44 <__mriBuffer_WriteByteAsHex+0x38>)
    2c2c:	f005 050f 	and.w	r5, r5, #15
    2c30:	5c51      	ldrb	r1, [r2, r1]
    2c32:	5d52      	ldrb	r2, [r2, r5]
    2c34:	7019      	strb	r1, [r3, #0]
    2c36:	68a3      	ldr	r3, [r4, #8]
    2c38:	1c59      	adds	r1, r3, #1
    2c3a:	60a1      	str	r1, [r4, #8]
    2c3c:	701a      	strb	r2, [r3, #0]
    2c3e:	bd70      	pop	{r4, r5, r6, pc}
    2c40:	10000a48 	.word	0x10000a48
    2c44:	0000d325 	.word	0x0000d325

00002c48 <__mriBuffer_ReadByteAsHex>:
    2c48:	b570      	push	{r4, r5, r6, lr}
    2c4a:	4d10      	ldr	r5, [pc, #64]	; (2c8c <__mriBuffer_ReadByteAsHex+0x44>)
    2c4c:	2300      	movs	r3, #0
    2c4e:	2102      	movs	r1, #2
    2c50:	602b      	str	r3, [r5, #0]
    2c52:	4604      	mov	r4, r0
    2c54:	f7ff ff98 	bl	2b88 <throwExceptionAndFlagBufferOverrunIfBufferLeftIsSmallerThan>
    2c58:	682b      	ldr	r3, [r5, #0]
    2c5a:	b10b      	cbz	r3, 2c60 <__mriBuffer_ReadByteAsHex+0x18>
    2c5c:	2000      	movs	r0, #0
    2c5e:	bd70      	pop	{r4, r5, r6, pc}
    2c60:	68a3      	ldr	r3, [r4, #8]
    2c62:	7818      	ldrb	r0, [r3, #0]
    2c64:	f7ff ff5e 	bl	2b24 <HexCharToNibble>
    2c68:	682b      	ldr	r3, [r5, #0]
    2c6a:	0100      	lsls	r0, r0, #4
    2c6c:	b2c6      	uxtb	r6, r0
    2c6e:	b92b      	cbnz	r3, 2c7c <__mriBuffer_ReadByteAsHex+0x34>
    2c70:	68a3      	ldr	r3, [r4, #8]
    2c72:	7858      	ldrb	r0, [r3, #1]
    2c74:	f7ff ff56 	bl	2b24 <HexCharToNibble>
    2c78:	4330      	orrs	r0, r6
    2c7a:	b2c6      	uxtb	r6, r0
    2c7c:	682b      	ldr	r3, [r5, #0]
    2c7e:	2b00      	cmp	r3, #0
    2c80:	d1ec      	bne.n	2c5c <__mriBuffer_ReadByteAsHex+0x14>
    2c82:	68a3      	ldr	r3, [r4, #8]
    2c84:	4630      	mov	r0, r6
    2c86:	3302      	adds	r3, #2
    2c88:	60a3      	str	r3, [r4, #8]
    2c8a:	bd70      	pop	{r4, r5, r6, pc}
    2c8c:	10000a48 	.word	0x10000a48

00002c90 <__mriBuffer_WriteSizedString>:
    2c90:	b5f8      	push	{r3, r4, r5, r6, r7, lr}
    2c92:	4f0b      	ldr	r7, [pc, #44]	; (2cc0 <__mriBuffer_WriteSizedString+0x30>)
    2c94:	2300      	movs	r3, #0
    2c96:	460c      	mov	r4, r1
    2c98:	4611      	mov	r1, r2
    2c9a:	603b      	str	r3, [r7, #0]
    2c9c:	4605      	mov	r5, r0
    2c9e:	4616      	mov	r6, r2
    2ca0:	f7ff ff72 	bl	2b88 <throwExceptionAndFlagBufferOverrunIfBufferLeftIsSmallerThan>
    2ca4:	683b      	ldr	r3, [r7, #0]
    2ca6:	b94b      	cbnz	r3, 2cbc <__mriBuffer_WriteSizedString+0x2c>
    2ca8:	4426      	add	r6, r4
    2caa:	42b4      	cmp	r4, r6
    2cac:	d006      	beq.n	2cbc <__mriBuffer_WriteSizedString+0x2c>
    2cae:	68ab      	ldr	r3, [r5, #8]
    2cb0:	1c5a      	adds	r2, r3, #1
    2cb2:	60aa      	str	r2, [r5, #8]
    2cb4:	f814 2b01 	ldrb.w	r2, [r4], #1
    2cb8:	701a      	strb	r2, [r3, #0]
    2cba:	e7f6      	b.n	2caa <__mriBuffer_WriteSizedString+0x1a>
    2cbc:	bdf8      	pop	{r3, r4, r5, r6, r7, pc}
    2cbe:	bf00      	nop
    2cc0:	10000a48 	.word	0x10000a48

00002cc4 <__mriBuffer_WriteString>:
    2cc4:	b538      	push	{r3, r4, r5, lr}
    2cc6:	4605      	mov	r5, r0
    2cc8:	4608      	mov	r0, r1
    2cca:	460c      	mov	r4, r1
    2ccc:	f005 fc23 	bl	8516 <strlen>
    2cd0:	4621      	mov	r1, r4
    2cd2:	4602      	mov	r2, r0
    2cd4:	4628      	mov	r0, r5
    2cd6:	e8bd 4038 	ldmia.w	sp!, {r3, r4, r5, lr}
    2cda:	f7ff bfd9 	b.w	2c90 <__mriBuffer_WriteSizedString>
	...

00002ce0 <__mriBuffer_ReadUIntegerAsHex>:
    2ce0:	e92d 41f0 	stmdb	sp!, {r4, r5, r6, r7, r8, lr}
    2ce4:	2600      	movs	r6, #0
    2ce6:	4604      	mov	r4, r0
    2ce8:	4637      	mov	r7, r6
    2cea:	4d16      	ldr	r5, [pc, #88]	; (2d44 <__mriBuffer_ReadUIntegerAsHex+0x64>)
    2cec:	2300      	movs	r3, #0
    2cee:	4620      	mov	r0, r4
    2cf0:	602b      	str	r3, [r5, #0]
    2cf2:	f7ff ff77 	bl	2be4 <__mriBuffer_ReadChar>
    2cf6:	682b      	ldr	r3, [r5, #0]
    2cf8:	46a8      	mov	r8, r5
    2cfa:	b963      	cbnz	r3, 2d16 <__mriBuffer_ReadUIntegerAsHex+0x36>
    2cfc:	f7ff ff12 	bl	2b24 <HexCharToNibble>
    2d00:	682b      	ldr	r3, [r5, #0]
    2d02:	b133      	cbz	r3, 2d12 <__mriBuffer_ReadUIntegerAsHex+0x32>
    2d04:	68a3      	ldr	r3, [r4, #8]
    2d06:	6822      	ldr	r2, [r4, #0]
    2d08:	4293      	cmp	r3, r2
    2d0a:	d904      	bls.n	2d16 <__mriBuffer_ReadUIntegerAsHex+0x36>
    2d0c:	3b01      	subs	r3, #1
    2d0e:	60a3      	str	r3, [r4, #8]
    2d10:	e001      	b.n	2d16 <__mriBuffer_ReadUIntegerAsHex+0x36>
    2d12:	eb00 1606 	add.w	r6, r0, r6, lsl #4
    2d16:	682b      	ldr	r3, [r5, #0]
    2d18:	b90b      	cbnz	r3, 2d1e <__mriBuffer_ReadUIntegerAsHex+0x3e>
    2d1a:	3701      	adds	r7, #1
    2d1c:	e7e5      	b.n	2cea <__mriBuffer_ReadUIntegerAsHex+0xa>
    2d1e:	4b09      	ldr	r3, [pc, #36]	; (2d44 <__mriBuffer_ReadUIntegerAsHex+0x64>)
    2d20:	2200      	movs	r2, #0
    2d22:	601a      	str	r2, [r3, #0]
    2d24:	6863      	ldr	r3, [r4, #4]
    2d26:	68a2      	ldr	r2, [r4, #8]
    2d28:	429a      	cmp	r2, r3
    2d2a:	bf88      	it	hi
    2d2c:	60a3      	strhi	r3, [r4, #8]
    2d2e:	b92f      	cbnz	r7, 2d3c <__mriBuffer_ReadUIntegerAsHex+0x5c>
    2d30:	2303      	movs	r3, #3
    2d32:	f8c8 3000 	str.w	r3, [r8]
    2d36:	4638      	mov	r0, r7
    2d38:	e8bd 81f0 	ldmia.w	sp!, {r4, r5, r6, r7, r8, pc}
    2d3c:	4630      	mov	r0, r6
    2d3e:	e8bd 81f0 	ldmia.w	sp!, {r4, r5, r6, r7, r8, pc}
    2d42:	bf00      	nop
    2d44:	10000a48 	.word	0x10000a48

00002d48 <__mriBuffer_WriteUIntegerAsHex>:
    2d48:	e92d 41f0 	stmdb	sp!, {r4, r5, r6, r7, r8, lr}
    2d4c:	4680      	mov	r8, r0
    2d4e:	460e      	mov	r6, r1
    2d50:	b119      	cbz	r1, 2d5a <__mriBuffer_WriteUIntegerAsHex+0x12>
    2d52:	f04f 437f 	mov.w	r3, #4278190080	; 0xff000000
    2d56:	2400      	movs	r4, #0
    2d58:	e008      	b.n	2d6c <__mriBuffer_WriteUIntegerAsHex+0x24>
    2d5a:	e8bd 41f0 	ldmia.w	sp!, {r4, r5, r6, r7, r8, lr}
    2d5e:	f7ff bf55 	b.w	2c0c <__mriBuffer_WriteByteAsHex>
    2d62:	3401      	adds	r4, #1
    2d64:	2c04      	cmp	r4, #4
    2d66:	ea4f 2313 	mov.w	r3, r3, lsr #8
    2d6a:	d001      	beq.n	2d70 <__mriBuffer_WriteUIntegerAsHex+0x28>
    2d6c:	4233      	tst	r3, r6
    2d6e:	d0f8      	beq.n	2d62 <__mriBuffer_WriteUIntegerAsHex+0x1a>
    2d70:	f1c4 0403 	rsb	r4, r4, #3
    2d74:	00e5      	lsls	r5, r4, #3
    2d76:	1c63      	adds	r3, r4, #1
    2d78:	d00d      	beq.n	2d96 <__mriBuffer_WriteUIntegerAsHex+0x4e>
    2d7a:	fa26 f105 	lsr.w	r1, r6, r5
    2d7e:	4f07      	ldr	r7, [pc, #28]	; (2d9c <__mriBuffer_WriteUIntegerAsHex+0x54>)
    2d80:	2300      	movs	r3, #0
    2d82:	4640      	mov	r0, r8
    2d84:	b2c9      	uxtb	r1, r1
    2d86:	603b      	str	r3, [r7, #0]
    2d88:	f7ff ff40 	bl	2c0c <__mriBuffer_WriteByteAsHex>
    2d8c:	683b      	ldr	r3, [r7, #0]
    2d8e:	3c01      	subs	r4, #1
    2d90:	3d08      	subs	r5, #8
    2d92:	2b00      	cmp	r3, #0
    2d94:	d0ef      	beq.n	2d76 <__mriBuffer_WriteUIntegerAsHex+0x2e>
    2d96:	e8bd 81f0 	ldmia.w	sp!, {r4, r5, r6, r7, r8, pc}
    2d9a:	bf00      	nop
    2d9c:	10000a48 	.word	0x10000a48

00002da0 <__mriBuffer_WriteIntegerAsHex>:
    2da0:	4b0a      	ldr	r3, [pc, #40]	; (2dcc <__mriBuffer_WriteIntegerAsHex+0x2c>)
    2da2:	b570      	push	{r4, r5, r6, lr}
    2da4:	2200      	movs	r2, #0
    2da6:	1e0c      	subs	r4, r1, #0
    2da8:	4606      	mov	r6, r0
    2daa:	601a      	str	r2, [r3, #0]
    2dac:	461d      	mov	r5, r3
    2dae:	da03      	bge.n	2db8 <__mriBuffer_WriteIntegerAsHex+0x18>
    2db0:	212d      	movs	r1, #45	; 0x2d
    2db2:	4264      	negs	r4, r4
    2db4:	f7ff ff04 	bl	2bc0 <__mriBuffer_WriteChar>
    2db8:	682b      	ldr	r3, [r5, #0]
    2dba:	b92b      	cbnz	r3, 2dc8 <__mriBuffer_WriteIntegerAsHex+0x28>
    2dbc:	4630      	mov	r0, r6
    2dbe:	4621      	mov	r1, r4
    2dc0:	e8bd 4070 	ldmia.w	sp!, {r4, r5, r6, lr}
    2dc4:	f7ff bfc0 	b.w	2d48 <__mriBuffer_WriteUIntegerAsHex>
    2dc8:	bd70      	pop	{r4, r5, r6, pc}
    2dca:	bf00      	nop
    2dcc:	10000a48 	.word	0x10000a48

00002dd0 <__mriBuffer_IsNextCharEqualTo>:
    2dd0:	b570      	push	{r4, r5, r6, lr}
    2dd2:	4d0b      	ldr	r5, [pc, #44]	; (2e00 <__mriBuffer_IsNextCharEqualTo+0x30>)
    2dd4:	2300      	movs	r3, #0
    2dd6:	602b      	str	r3, [r5, #0]
    2dd8:	4604      	mov	r4, r0
    2dda:	460e      	mov	r6, r1
    2ddc:	f7ff fecc 	bl	2b78 <__mriBuffer_BytesLeft>
    2de0:	462b      	mov	r3, r5
    2de2:	b908      	cbnz	r0, 2de8 <__mriBuffer_IsNextCharEqualTo+0x18>
    2de4:	2201      	movs	r2, #1
    2de6:	602a      	str	r2, [r5, #0]
    2de8:	6818      	ldr	r0, [r3, #0]
    2dea:	b938      	cbnz	r0, 2dfc <__mriBuffer_IsNextCharEqualTo+0x2c>
    2dec:	68a3      	ldr	r3, [r4, #8]
    2dee:	781a      	ldrb	r2, [r3, #0]
    2df0:	42b2      	cmp	r2, r6
    2df2:	d104      	bne.n	2dfe <__mriBuffer_IsNextCharEqualTo+0x2e>
    2df4:	3301      	adds	r3, #1
    2df6:	60a3      	str	r3, [r4, #8]
    2df8:	2001      	movs	r0, #1
    2dfa:	bd70      	pop	{r4, r5, r6, pc}
    2dfc:	2000      	movs	r0, #0
    2dfe:	bd70      	pop	{r4, r5, r6, pc}
    2e00:	10000a48 	.word	0x10000a48

00002e04 <__mriBuffer_ReadIntegerAsHex>:
    2e04:	b5f8      	push	{r3, r4, r5, r6, r7, lr}
    2e06:	4c12      	ldr	r4, [pc, #72]	; (2e50 <__mriBuffer_ReadIntegerAsHex+0x4c>)
    2e08:	2500      	movs	r5, #0
    2e0a:	212d      	movs	r1, #45	; 0x2d
    2e0c:	4607      	mov	r7, r0
    2e0e:	6025      	str	r5, [r4, #0]
    2e10:	f7ff ffde 	bl	2dd0 <__mriBuffer_IsNextCharEqualTo>
    2e14:	6823      	ldr	r3, [r4, #0]
    2e16:	4606      	mov	r6, r0
    2e18:	b91b      	cbnz	r3, 2e22 <__mriBuffer_ReadIntegerAsHex+0x1e>
    2e1a:	4638      	mov	r0, r7
    2e1c:	f7ff ff60 	bl	2ce0 <__mriBuffer_ReadUIntegerAsHex>
    2e20:	e000      	b.n	2e24 <__mriBuffer_ReadIntegerAsHex+0x20>
    2e22:	4628      	mov	r0, r5
    2e24:	6822      	ldr	r2, [r4, #0]
    2e26:	4b0a      	ldr	r3, [pc, #40]	; (2e50 <__mriBuffer_ReadIntegerAsHex+0x4c>)
    2e28:	b982      	cbnz	r2, 2e4c <__mriBuffer_ReadIntegerAsHex+0x48>
    2e2a:	b936      	cbnz	r6, 2e3a <__mriBuffer_ReadIntegerAsHex+0x36>
    2e2c:	2800      	cmp	r0, #0
    2e2e:	da0e      	bge.n	2e4e <__mriBuffer_ReadIntegerAsHex+0x4a>
    2e30:	2203      	movs	r2, #3
    2e32:	601a      	str	r2, [r3, #0]
    2e34:	f06f 4000 	mvn.w	r0, #2147483648	; 0x80000000
    2e38:	bdf8      	pop	{r3, r4, r5, r6, r7, pc}
    2e3a:	f1b0 4f00 	cmp.w	r0, #2147483648	; 0x80000000
    2e3e:	bf83      	ittte	hi
    2e40:	2203      	movhi	r2, #3
    2e42:	f04f 4000 	movhi.w	r0, #2147483648	; 0x80000000
    2e46:	601a      	strhi	r2, [r3, #0]
    2e48:	4240      	negls	r0, r0
    2e4a:	bdf8      	pop	{r3, r4, r5, r6, r7, pc}
    2e4c:	2000      	movs	r0, #0
    2e4e:	bdf8      	pop	{r3, r4, r5, r6, r7, pc}
    2e50:	10000a48 	.word	0x10000a48

00002e54 <__mriBuffer_MatchesString>:
    2e54:	e92d 43f8 	stmdb	sp!, {r3, r4, r5, r6, r7, r8, r9, lr}
    2e58:	4d15      	ldr	r5, [pc, #84]	; (2eb0 <__mriBuffer_MatchesString+0x5c>)
    2e5a:	2300      	movs	r3, #0
    2e5c:	4614      	mov	r4, r2
    2e5e:	602b      	str	r3, [r5, #0]
    2e60:	4606      	mov	r6, r0
    2e62:	4689      	mov	r9, r1
    2e64:	f7ff fe88 	bl	2b78 <__mriBuffer_BytesLeft>
    2e68:	42a0      	cmp	r0, r4
    2e6a:	bf3c      	itt	cc
    2e6c:	2301      	movcc	r3, #1
    2e6e:	602b      	strcc	r3, [r5, #0]
    2e70:	f8d5 8000 	ldr.w	r8, [r5]
    2e74:	f1b8 0f00 	cmp.w	r8, #0
    2e78:	d110      	bne.n	2e9c <__mriBuffer_MatchesString+0x48>
    2e7a:	68b7      	ldr	r7, [r6, #8]
    2e7c:	4649      	mov	r1, r9
    2e7e:	4638      	mov	r0, r7
    2e80:	4622      	mov	r2, r4
    2e82:	f005 fb50 	bl	8526 <strncmp>
    2e86:	4605      	mov	r5, r0
    2e88:	b950      	cbnz	r0, 2ea0 <__mriBuffer_MatchesString+0x4c>
    2e8a:	4630      	mov	r0, r6
    2e8c:	f7ff fe74 	bl	2b78 <__mriBuffer_BytesLeft>
    2e90:	42a0      	cmp	r0, r4
    2e92:	d007      	beq.n	2ea4 <__mriBuffer_MatchesString+0x50>
    2e94:	5d3b      	ldrb	r3, [r7, r4]
    2e96:	2b3a      	cmp	r3, #58	; 0x3a
    2e98:	d107      	bne.n	2eaa <__mriBuffer_MatchesString+0x56>
    2e9a:	e003      	b.n	2ea4 <__mriBuffer_MatchesString+0x50>
    2e9c:	2500      	movs	r5, #0
    2e9e:	e004      	b.n	2eaa <__mriBuffer_MatchesString+0x56>
    2ea0:	4645      	mov	r5, r8
    2ea2:	e002      	b.n	2eaa <__mriBuffer_MatchesString+0x56>
    2ea4:	443c      	add	r4, r7
    2ea6:	60b4      	str	r4, [r6, #8]
    2ea8:	2501      	movs	r5, #1
    2eaa:	4628      	mov	r0, r5
    2eac:	e8bd 83f8 	ldmia.w	sp!, {r3, r4, r5, r6, r7, r8, r9, pc}
    2eb0:	10000a48 	.word	0x10000a48

00002eb4 <handleBreakpointWatchpointException>:
    2eb4:	4b03      	ldr	r3, [pc, #12]	; (2ec4 <handleBreakpointWatchpointException+0x10>)
    2eb6:	681b      	ldr	r3, [r3, #0]
    2eb8:	2b04      	cmp	r3, #4
    2eba:	bf0c      	ite	eq
    2ebc:	4802      	ldreq	r0, [pc, #8]	; (2ec8 <handleBreakpointWatchpointException+0x14>)
    2ebe:	4803      	ldrne	r0, [pc, #12]	; (2ecc <handleBreakpointWatchpointException+0x18>)
    2ec0:	f7fe b9be 	b.w	1240 <__mriCore_PrepareStringResponse>
    2ec4:	10000a48 	.word	0x10000a48
    2ec8:	0000d335 	.word	0x0000d335
    2ecc:	0000d339 	.word	0x0000d339

00002ed0 <parseBreakpointWatchpointCommandArguments>:
    2ed0:	b570      	push	{r4, r5, r6, lr}
    2ed2:	4606      	mov	r6, r0
    2ed4:	f7fe fa16 	bl	1304 <__mriCore_GetBuffer>
    2ed8:	4c0f      	ldr	r4, [pc, #60]	; (2f18 <parseBreakpointWatchpointCommandArguments+0x48>)
    2eda:	2300      	movs	r3, #0
    2edc:	6023      	str	r3, [r4, #0]
    2ede:	4605      	mov	r5, r0
    2ee0:	f7ff fe80 	bl	2be4 <__mriBuffer_ReadChar>
    2ee4:	6823      	ldr	r3, [r4, #0]
    2ee6:	7230      	strb	r0, [r6, #8]
    2ee8:	b9ab      	cbnz	r3, 2f16 <parseBreakpointWatchpointCommandArguments+0x46>
    2eea:	4628      	mov	r0, r5
    2eec:	212c      	movs	r1, #44	; 0x2c
    2eee:	f000 f8bf 	bl	3070 <__mriCmd_ThrowIfNextCharIsNotEqualTo>
    2ef2:	6823      	ldr	r3, [r4, #0]
    2ef4:	b97b      	cbnz	r3, 2f16 <parseBreakpointWatchpointCommandArguments+0x46>
    2ef6:	4628      	mov	r0, r5
    2ef8:	f000 f8ac 	bl	3054 <__mriCmd_ReadUIntegerArgument>
    2efc:	6823      	ldr	r3, [r4, #0]
    2efe:	6030      	str	r0, [r6, #0]
    2f00:	b94b      	cbnz	r3, 2f16 <parseBreakpointWatchpointCommandArguments+0x46>
    2f02:	4628      	mov	r0, r5
    2f04:	212c      	movs	r1, #44	; 0x2c
    2f06:	f000 f8b3 	bl	3070 <__mriCmd_ThrowIfNextCharIsNotEqualTo>
    2f0a:	6823      	ldr	r3, [r4, #0]
    2f0c:	b91b      	cbnz	r3, 2f16 <parseBreakpointWatchpointCommandArguments+0x46>
    2f0e:	4628      	mov	r0, r5
    2f10:	f000 f8a0 	bl	3054 <__mriCmd_ReadUIntegerArgument>
    2f14:	6070      	str	r0, [r6, #4]
    2f16:	bd70      	pop	{r4, r5, r6, pc}
    2f18:	10000a48 	.word	0x10000a48

00002f1c <handleWatchpointSetCommand>:
    2f1c:	b510      	push	{r4, lr}
    2f1e:	4c09      	ldr	r4, [pc, #36]	; (2f44 <handleWatchpointSetCommand+0x28>)
    2f20:	2300      	movs	r3, #0
    2f22:	4602      	mov	r2, r0
    2f24:	c903      	ldmia	r1, {r0, r1}
    2f26:	6023      	str	r3, [r4, #0]
    2f28:	f7ff fa58 	bl	23dc <__mriPlatform_SetHardwareWatchpoint>
    2f2c:	6823      	ldr	r3, [r4, #0]
    2f2e:	b11b      	cbz	r3, 2f38 <handleWatchpointSetCommand+0x1c>
    2f30:	e8bd 4010 	ldmia.w	sp!, {r4, lr}
    2f34:	f7ff bfbe 	b.w	2eb4 <handleBreakpointWatchpointException>
    2f38:	4803      	ldr	r0, [pc, #12]	; (2f48 <handleWatchpointSetCommand+0x2c>)
    2f3a:	e8bd 4010 	ldmia.w	sp!, {r4, lr}
    2f3e:	f7fe b97f 	b.w	1240 <__mriCore_PrepareStringResponse>
    2f42:	bf00      	nop
    2f44:	10000a48 	.word	0x10000a48
    2f48:	0000d33d 	.word	0x0000d33d

00002f4c <handleWatchpointRemoveCommand>:
    2f4c:	b510      	push	{r4, lr}
    2f4e:	4c09      	ldr	r4, [pc, #36]	; (2f74 <handleWatchpointRemoveCommand+0x28>)
    2f50:	2300      	movs	r3, #0
    2f52:	4602      	mov	r2, r0
    2f54:	c903      	ldmia	r1, {r0, r1}
    2f56:	6023      	str	r3, [r4, #0]
    2f58:	f7ff fa8a 	bl	2470 <__mriPlatform_ClearHardwareWatchpoint>
    2f5c:	6823      	ldr	r3, [r4, #0]
    2f5e:	b11b      	cbz	r3, 2f68 <handleWatchpointRemoveCommand+0x1c>
    2f60:	e8bd 4010 	ldmia.w	sp!, {r4, lr}
    2f64:	f7ff bfa6 	b.w	2eb4 <handleBreakpointWatchpointException>
    2f68:	4803      	ldr	r0, [pc, #12]	; (2f78 <handleWatchpointRemoveCommand+0x2c>)
    2f6a:	e8bd 4010 	ldmia.w	sp!, {r4, lr}
    2f6e:	f7fe b967 	b.w	1240 <__mriCore_PrepareStringResponse>
    2f72:	bf00      	nop
    2f74:	10000a48 	.word	0x10000a48
    2f78:	0000d33d 	.word	0x0000d33d

00002f7c <__mriCmd_HandleBreakpointWatchpointSetCommand>:
    2f7c:	b51f      	push	{r0, r1, r2, r3, r4, lr}
    2f7e:	4c16      	ldr	r4, [pc, #88]	; (2fd8 <__mriCmd_HandleBreakpointWatchpointSetCommand+0x5c>)
    2f80:	2300      	movs	r3, #0
    2f82:	a801      	add	r0, sp, #4
    2f84:	6023      	str	r3, [r4, #0]
    2f86:	f7ff ffa3 	bl	2ed0 <parseBreakpointWatchpointCommandArguments>
    2f8a:	6823      	ldr	r3, [r4, #0]
    2f8c:	b10b      	cbz	r3, 2f92 <__mriCmd_HandleBreakpointWatchpointSetCommand+0x16>
    2f8e:	4813      	ldr	r0, [pc, #76]	; (2fdc <__mriCmd_HandleBreakpointWatchpointSetCommand+0x60>)
    2f90:	e01d      	b.n	2fce <__mriCmd_HandleBreakpointWatchpointSetCommand+0x52>
    2f92:	f89d 300c 	ldrb.w	r3, [sp, #12]
    2f96:	3b31      	subs	r3, #49	; 0x31
    2f98:	2b03      	cmp	r3, #3
    2f9a:	d817      	bhi.n	2fcc <__mriCmd_HandleBreakpointWatchpointSetCommand+0x50>
    2f9c:	e8df f003 	tbb	[pc, r3]
    2fa0:	110f0d02 	.word	0x110f0d02
    2fa4:	9801      	ldr	r0, [sp, #4]
    2fa6:	9902      	ldr	r1, [sp, #8]
    2fa8:	f7ff f8da 	bl	2160 <__mriPlatform_SetHardwareBreakpoint>
    2fac:	6823      	ldr	r3, [r4, #0]
    2fae:	b113      	cbz	r3, 2fb6 <__mriCmd_HandleBreakpointWatchpointSetCommand+0x3a>
    2fb0:	f7ff ff80 	bl	2eb4 <handleBreakpointWatchpointException>
    2fb4:	e00d      	b.n	2fd2 <__mriCmd_HandleBreakpointWatchpointSetCommand+0x56>
    2fb6:	480a      	ldr	r0, [pc, #40]	; (2fe0 <__mriCmd_HandleBreakpointWatchpointSetCommand+0x64>)
    2fb8:	e009      	b.n	2fce <__mriCmd_HandleBreakpointWatchpointSetCommand+0x52>
    2fba:	2000      	movs	r0, #0
    2fbc:	e002      	b.n	2fc4 <__mriCmd_HandleBreakpointWatchpointSetCommand+0x48>
    2fbe:	2001      	movs	r0, #1
    2fc0:	e000      	b.n	2fc4 <__mriCmd_HandleBreakpointWatchpointSetCommand+0x48>
    2fc2:	2002      	movs	r0, #2
    2fc4:	a901      	add	r1, sp, #4
    2fc6:	f7ff ffa9 	bl	2f1c <handleWatchpointSetCommand>
    2fca:	e002      	b.n	2fd2 <__mriCmd_HandleBreakpointWatchpointSetCommand+0x56>
    2fcc:	4805      	ldr	r0, [pc, #20]	; (2fe4 <__mriCmd_HandleBreakpointWatchpointSetCommand+0x68>)
    2fce:	f7fe f937 	bl	1240 <__mriCore_PrepareStringResponse>
    2fd2:	2000      	movs	r0, #0
    2fd4:	b004      	add	sp, #16
    2fd6:	bd10      	pop	{r4, pc}
    2fd8:	10000a48 	.word	0x10000a48
    2fdc:	0000d335 	.word	0x0000d335
    2fe0:	0000d33d 	.word	0x0000d33d
    2fe4:	0000ccd2 	.word	0x0000ccd2

00002fe8 <__mriCmd_HandleBreakpointWatchpointRemoveCommand>:
    2fe8:	b51f      	push	{r0, r1, r2, r3, r4, lr}
    2fea:	4c16      	ldr	r4, [pc, #88]	; (3044 <__mriCmd_HandleBreakpointWatchpointRemoveCommand+0x5c>)
    2fec:	2300      	movs	r3, #0
    2fee:	a801      	add	r0, sp, #4
    2ff0:	6023      	str	r3, [r4, #0]
    2ff2:	f7ff ff6d 	bl	2ed0 <parseBreakpointWatchpointCommandArguments>
    2ff6:	6823      	ldr	r3, [r4, #0]
    2ff8:	b10b      	cbz	r3, 2ffe <__mriCmd_HandleBreakpointWatchpointRemoveCommand+0x16>
    2ffa:	4813      	ldr	r0, [pc, #76]	; (3048 <__mriCmd_HandleBreakpointWatchpointRemoveCommand+0x60>)
    2ffc:	e01d      	b.n	303a <__mriCmd_HandleBreakpointWatchpointRemoveCommand+0x52>
    2ffe:	f89d 300c 	ldrb.w	r3, [sp, #12]
    3002:	3b31      	subs	r3, #49	; 0x31
    3004:	2b03      	cmp	r3, #3
    3006:	d817      	bhi.n	3038 <__mriCmd_HandleBreakpointWatchpointRemoveCommand+0x50>
    3008:	e8df f003 	tbb	[pc, r3]
    300c:	110f0d02 	.word	0x110f0d02
    3010:	9801      	ldr	r0, [sp, #4]
    3012:	9902      	ldr	r1, [sp, #8]
    3014:	f7ff f946 	bl	22a4 <__mriPlatform_ClearHardwareBreakpoint>
    3018:	6823      	ldr	r3, [r4, #0]
    301a:	b113      	cbz	r3, 3022 <__mriCmd_HandleBreakpointWatchpointRemoveCommand+0x3a>
    301c:	f7ff ff4a 	bl	2eb4 <handleBreakpointWatchpointException>
    3020:	e00d      	b.n	303e <__mriCmd_HandleBreakpointWatchpointRemoveCommand+0x56>
    3022:	480a      	ldr	r0, [pc, #40]	; (304c <__mriCmd_HandleBreakpointWatchpointRemoveCommand+0x64>)
    3024:	e009      	b.n	303a <__mriCmd_HandleBreakpointWatchpointRemoveCommand+0x52>
    3026:	2000      	movs	r0, #0
    3028:	e002      	b.n	3030 <__mriCmd_HandleBreakpointWatchpointRemoveCommand+0x48>
    302a:	2001      	movs	r0, #1
    302c:	e000      	b.n	3030 <__mriCmd_HandleBreakpointWatchpointRemoveCommand+0x48>
    302e:	2002      	movs	r0, #2
    3030:	a901      	add	r1, sp, #4
    3032:	f7ff ff8b 	bl	2f4c <handleWatchpointRemoveCommand>
    3036:	e002      	b.n	303e <__mriCmd_HandleBreakpointWatchpointRemoveCommand+0x56>
    3038:	4805      	ldr	r0, [pc, #20]	; (3050 <__mriCmd_HandleBreakpointWatchpointRemoveCommand+0x68>)
    303a:	f7fe f901 	bl	1240 <__mriCore_PrepareStringResponse>
    303e:	2000      	movs	r0, #0
    3040:	b004      	add	sp, #16
    3042:	bd10      	pop	{r4, pc}
    3044:	10000a48 	.word	0x10000a48
    3048:	0000d335 	.word	0x0000d335
    304c:	0000d33d 	.word	0x0000d33d
    3050:	0000ccd2 	.word	0x0000ccd2

00003054 <__mriCmd_ReadUIntegerArgument>:
    3054:	b510      	push	{r4, lr}
    3056:	4c05      	ldr	r4, [pc, #20]	; (306c <__mriCmd_ReadUIntegerArgument+0x18>)
    3058:	2300      	movs	r3, #0
    305a:	6023      	str	r3, [r4, #0]
    305c:	f7ff fe40 	bl	2ce0 <__mriBuffer_ReadUIntegerAsHex>
    3060:	6823      	ldr	r3, [r4, #0]
    3062:	2b00      	cmp	r3, #0
    3064:	bf18      	it	ne
    3066:	2000      	movne	r0, #0
    3068:	bd10      	pop	{r4, pc}
    306a:	bf00      	nop
    306c:	10000a48 	.word	0x10000a48

00003070 <__mriCmd_ThrowIfNextCharIsNotEqualTo>:
    3070:	b508      	push	{r3, lr}
    3072:	f7ff fead 	bl	2dd0 <__mriBuffer_IsNextCharEqualTo>
    3076:	b928      	cbnz	r0, 3084 <__mriCmd_ThrowIfNextCharIsNotEqualTo+0x14>
    3078:	4b03      	ldr	r3, [pc, #12]	; (3088 <__mriCmd_ThrowIfNextCharIsNotEqualTo+0x18>)
    307a:	681a      	ldr	r2, [r3, #0]
    307c:	2a04      	cmp	r2, #4
    307e:	bfb8      	it	lt
    3080:	2204      	movlt	r2, #4
    3082:	601a      	str	r2, [r3, #0]
    3084:	bd08      	pop	{r3, pc}
    3086:	bf00      	nop
    3088:	10000a48 	.word	0x10000a48

0000308c <__mriCmd_ReadAddressAndLengthArguments>:
    308c:	b570      	push	{r4, r5, r6, lr}
    308e:	4c0a      	ldr	r4, [pc, #40]	; (30b8 <__mriCmd_ReadAddressAndLengthArguments+0x2c>)
    3090:	2300      	movs	r3, #0
    3092:	460d      	mov	r5, r1
    3094:	6023      	str	r3, [r4, #0]
    3096:	4606      	mov	r6, r0
    3098:	f7ff ffdc 	bl	3054 <__mriCmd_ReadUIntegerArgument>
    309c:	6823      	ldr	r3, [r4, #0]
    309e:	6028      	str	r0, [r5, #0]
    30a0:	b94b      	cbnz	r3, 30b6 <__mriCmd_ReadAddressAndLengthArguments+0x2a>
    30a2:	4630      	mov	r0, r6
    30a4:	212c      	movs	r1, #44	; 0x2c
    30a6:	f7ff ffe3 	bl	3070 <__mriCmd_ThrowIfNextCharIsNotEqualTo>
    30aa:	6823      	ldr	r3, [r4, #0]
    30ac:	b91b      	cbnz	r3, 30b6 <__mriCmd_ReadAddressAndLengthArguments+0x2a>
    30ae:	4630      	mov	r0, r6
    30b0:	f7ff ffd0 	bl	3054 <__mriCmd_ReadUIntegerArgument>
    30b4:	6068      	str	r0, [r5, #4]
    30b6:	bd70      	pop	{r4, r5, r6, pc}
    30b8:	10000a48 	.word	0x10000a48

000030bc <__mriCmd_ReadAddressAndLengthArgumentsWithColon>:
    30bc:	b538      	push	{r3, r4, r5, lr}
    30be:	4c07      	ldr	r4, [pc, #28]	; (30dc <__mriCmd_ReadAddressAndLengthArgumentsWithColon+0x20>)
    30c0:	2300      	movs	r3, #0
    30c2:	6023      	str	r3, [r4, #0]
    30c4:	4605      	mov	r5, r0
    30c6:	f7ff ffe1 	bl	308c <__mriCmd_ReadAddressAndLengthArguments>
    30ca:	6823      	ldr	r3, [r4, #0]
    30cc:	b92b      	cbnz	r3, 30da <__mriCmd_ReadAddressAndLengthArgumentsWithColon+0x1e>
    30ce:	4628      	mov	r0, r5
    30d0:	213a      	movs	r1, #58	; 0x3a
    30d2:	e8bd 4038 	ldmia.w	sp!, {r3, r4, r5, lr}
    30d6:	f7ff bfcb 	b.w	3070 <__mriCmd_ThrowIfNextCharIsNotEqualTo>
    30da:	bd38      	pop	{r3, r4, r5, pc}
    30dc:	10000a48 	.word	0x10000a48

000030e0 <__mriCmd_HandleContinueCommand>:
    30e0:	b570      	push	{r4, r5, r6, lr}
    30e2:	f7fe f90f 	bl	1304 <__mriCore_GetBuffer>
    30e6:	4606      	mov	r6, r0
    30e8:	f7fe ff62 	bl	1fb0 <__mriPlatform_WasProgramCounterModifiedByUser>
    30ec:	b918      	cbnz	r0, 30f6 <__mriCmd_HandleContinueCommand+0x16>
    30ee:	f7fe ffd9 	bl	20a4 <__mriPlatform_TypeOfCurrentInstruction>
    30f2:	2803      	cmp	r0, #3
    30f4:	d012      	beq.n	311c <__mriCmd_HandleContinueCommand+0x3c>
    30f6:	2500      	movs	r5, #0
    30f8:	4c0a      	ldr	r4, [pc, #40]	; (3124 <__mriCmd_HandleContinueCommand+0x44>)
    30fa:	2300      	movs	r3, #0
    30fc:	4630      	mov	r0, r6
    30fe:	6023      	str	r3, [r4, #0]
    3100:	f7ff ffa8 	bl	3054 <__mriCmd_ReadUIntegerArgument>
    3104:	6823      	ldr	r3, [r4, #0]
    3106:	b90b      	cbnz	r3, 310c <__mriCmd_HandleContinueCommand+0x2c>
    3108:	f7fe ff4c 	bl	1fa4 <__mriPlatform_SetProgramCounter>
    310c:	6823      	ldr	r3, [r4, #0]
    310e:	b113      	cbz	r3, 3116 <__mriCmd_HandleContinueCommand+0x36>
    3110:	4b04      	ldr	r3, [pc, #16]	; (3124 <__mriCmd_HandleContinueCommand+0x44>)
    3112:	2200      	movs	r2, #0
    3114:	601a      	str	r2, [r3, #0]
    3116:	f045 0003 	orr.w	r0, r5, #3
    311a:	bd70      	pop	{r4, r5, r6, pc}
    311c:	f7fe ff9e 	bl	205c <__mriPlatform_AdvanceProgramCounterToNextInstruction>
    3120:	2504      	movs	r5, #4
    3122:	e7e9      	b.n	30f8 <__mriCmd_HandleContinueCommand+0x18>
    3124:	10000a48 	.word	0x10000a48

00003128 <processGdbFileResponseCommands>:
    3128:	b508      	push	{r3, lr}
    312a:	f7fe f913 	bl	1354 <__mriCore_GdbCommandHandlingLoop>
    312e:	f7fe f893 	bl	1258 <__mriCore_WasControlCFlagSentFromGdb>
    3132:	b148      	cbz	r0, 3148 <processGdbFileResponseCommands+0x20>
    3134:	f7fe f8b2 	bl	129c <__mriCore_WasSemihostCallCancelledByGdb>
    3138:	b908      	cbnz	r0, 313e <processGdbFileResponseCommands+0x16>
    313a:	f7fe f8b7 	bl	12ac <__mriCore_FlagSemihostCallAsHandled>
    313e:	2002      	movs	r0, #2
    3140:	f7fe f8c8 	bl	12d4 <__mriCore_SetSignalValue>
    3144:	2000      	movs	r0, #0
    3146:	bd08      	pop	{r3, pc}
    3148:	f7fe f8b0 	bl	12ac <__mriCore_FlagSemihostCallAsHandled>
    314c:	2001      	movs	r0, #1
    314e:	bd08      	pop	{r3, pc}

00003150 <__mriIssueGdbFileOpenRequest>:
    3150:	b538      	push	{r3, r4, r5, lr}
    3152:	4605      	mov	r5, r0
    3154:	f7fe f8da 	bl	130c <__mriCore_GetInitializedBuffer>
    3158:	4912      	ldr	r1, [pc, #72]	; (31a4 <__mriIssueGdbFileOpenRequest+0x54>)
    315a:	4604      	mov	r4, r0
    315c:	f7ff fdb2 	bl	2cc4 <__mriBuffer_WriteString>
    3160:	4620      	mov	r0, r4
    3162:	6829      	ldr	r1, [r5, #0]
    3164:	f7ff fdf0 	bl	2d48 <__mriBuffer_WriteUIntegerAsHex>
    3168:	4620      	mov	r0, r4
    316a:	212f      	movs	r1, #47	; 0x2f
    316c:	f7ff fd28 	bl	2bc0 <__mriBuffer_WriteChar>
    3170:	4620      	mov	r0, r4
    3172:	6869      	ldr	r1, [r5, #4]
    3174:	f7ff fde8 	bl	2d48 <__mriBuffer_WriteUIntegerAsHex>
    3178:	4620      	mov	r0, r4
    317a:	212c      	movs	r1, #44	; 0x2c
    317c:	f7ff fd20 	bl	2bc0 <__mriBuffer_WriteChar>
    3180:	4620      	mov	r0, r4
    3182:	68a9      	ldr	r1, [r5, #8]
    3184:	f7ff fde0 	bl	2d48 <__mriBuffer_WriteUIntegerAsHex>
    3188:	4620      	mov	r0, r4
    318a:	212c      	movs	r1, #44	; 0x2c
    318c:	f7ff fd18 	bl	2bc0 <__mriBuffer_WriteChar>
    3190:	4620      	mov	r0, r4
    3192:	68e9      	ldr	r1, [r5, #12]
    3194:	f7ff fdd8 	bl	2d48 <__mriBuffer_WriteUIntegerAsHex>
    3198:	f7fe f8c0 	bl	131c <__mriCore_SendPacketToGdb>
    319c:	e8bd 4038 	ldmia.w	sp!, {r3, r4, r5, lr}
    31a0:	f7ff bfc2 	b.w	3128 <processGdbFileResponseCommands>
    31a4:	0000d34b 	.word	0x0000d34b

000031a8 <__mriIssueGdbFileWriteRequest>:
    31a8:	b538      	push	{r3, r4, r5, lr}
    31aa:	4605      	mov	r5, r0
    31ac:	f7fe f8ae 	bl	130c <__mriCore_GetInitializedBuffer>
    31b0:	490e      	ldr	r1, [pc, #56]	; (31ec <__mriIssueGdbFileWriteRequest+0x44>)
    31b2:	4604      	mov	r4, r0
    31b4:	f7ff fd86 	bl	2cc4 <__mriBuffer_WriteString>
    31b8:	4620      	mov	r0, r4
    31ba:	6829      	ldr	r1, [r5, #0]
    31bc:	f7ff fdc4 	bl	2d48 <__mriBuffer_WriteUIntegerAsHex>
    31c0:	4620      	mov	r0, r4
    31c2:	212c      	movs	r1, #44	; 0x2c
    31c4:	f7ff fcfc 	bl	2bc0 <__mriBuffer_WriteChar>
    31c8:	4620      	mov	r0, r4
    31ca:	6869      	ldr	r1, [r5, #4]
    31cc:	f7ff fdbc 	bl	2d48 <__mriBuffer_WriteUIntegerAsHex>
    31d0:	4620      	mov	r0, r4
    31d2:	212c      	movs	r1, #44	; 0x2c
    31d4:	f7ff fcf4 	bl	2bc0 <__mriBuffer_WriteChar>
    31d8:	4620      	mov	r0, r4
    31da:	68a9      	ldr	r1, [r5, #8]
    31dc:	f7ff fdb4 	bl	2d48 <__mriBuffer_WriteUIntegerAsHex>
    31e0:	f7fe f89c 	bl	131c <__mriCore_SendPacketToGdb>
    31e4:	e8bd 4038 	ldmia.w	sp!, {r3, r4, r5, lr}
    31e8:	f7ff bf9e 	b.w	3128 <processGdbFileResponseCommands>
    31ec:	0000d343 	.word	0x0000d343

000031f0 <__mriIssueGdbFileReadRequest>:
    31f0:	b538      	push	{r3, r4, r5, lr}
    31f2:	4605      	mov	r5, r0
    31f4:	f7fe f88a 	bl	130c <__mriCore_GetInitializedBuffer>
    31f8:	490e      	ldr	r1, [pc, #56]	; (3234 <__mriIssueGdbFileReadRequest+0x44>)
    31fa:	4604      	mov	r4, r0
    31fc:	f7ff fd62 	bl	2cc4 <__mriBuffer_WriteString>
    3200:	4620      	mov	r0, r4
    3202:	6829      	ldr	r1, [r5, #0]
    3204:	f7ff fda0 	bl	2d48 <__mriBuffer_WriteUIntegerAsHex>
    3208:	4620      	mov	r0, r4
    320a:	212c      	movs	r1, #44	; 0x2c
    320c:	f7ff fcd8 	bl	2bc0 <__mriBuffer_WriteChar>
    3210:	4620      	mov	r0, r4
    3212:	6869      	ldr	r1, [r5, #4]
    3214:	f7ff fd98 	bl	2d48 <__mriBuffer_WriteUIntegerAsHex>
    3218:	4620      	mov	r0, r4
    321a:	212c      	movs	r1, #44	; 0x2c
    321c:	f7ff fcd0 	bl	2bc0 <__mriBuffer_WriteChar>
    3220:	4620      	mov	r0, r4
    3222:	68a9      	ldr	r1, [r5, #8]
    3224:	f7ff fd90 	bl	2d48 <__mriBuffer_WriteUIntegerAsHex>
    3228:	f7fe f878 	bl	131c <__mriCore_SendPacketToGdb>
    322c:	e8bd 4038 	ldmia.w	sp!, {r3, r4, r5, lr}
    3230:	f7ff bf7a 	b.w	3128 <processGdbFileResponseCommands>
    3234:	0000d352 	.word	0x0000d352

00003238 <__mriIssueGdbFileCloseRequest>:
    3238:	b538      	push	{r3, r4, r5, lr}
    323a:	4604      	mov	r4, r0
    323c:	f7fe f866 	bl	130c <__mriCore_GetInitializedBuffer>
    3240:	4906      	ldr	r1, [pc, #24]	; (325c <__mriIssueGdbFileCloseRequest+0x24>)
    3242:	4605      	mov	r5, r0
    3244:	f7ff fd3e 	bl	2cc4 <__mriBuffer_WriteString>
    3248:	4628      	mov	r0, r5
    324a:	4621      	mov	r1, r4
    324c:	f7ff fd7c 	bl	2d48 <__mriBuffer_WriteUIntegerAsHex>
    3250:	f7fe f864 	bl	131c <__mriCore_SendPacketToGdb>
    3254:	e8bd 4038 	ldmia.w	sp!, {r3, r4, r5, lr}
    3258:	f7ff bf66 	b.w	3128 <processGdbFileResponseCommands>
    325c:	0000d372 	.word	0x0000d372

00003260 <__mriIssueGdbFileSeekRequest>:
    3260:	b538      	push	{r3, r4, r5, lr}
    3262:	4605      	mov	r5, r0
    3264:	f7fe f852 	bl	130c <__mriCore_GetInitializedBuffer>
    3268:	490e      	ldr	r1, [pc, #56]	; (32a4 <__mriIssueGdbFileSeekRequest+0x44>)
    326a:	4604      	mov	r4, r0
    326c:	f7ff fd2a 	bl	2cc4 <__mriBuffer_WriteString>
    3270:	4620      	mov	r0, r4
    3272:	6829      	ldr	r1, [r5, #0]
    3274:	f7ff fd68 	bl	2d48 <__mriBuffer_WriteUIntegerAsHex>
    3278:	4620      	mov	r0, r4
    327a:	212c      	movs	r1, #44	; 0x2c
    327c:	f7ff fca0 	bl	2bc0 <__mriBuffer_WriteChar>
    3280:	4620      	mov	r0, r4
    3282:	6869      	ldr	r1, [r5, #4]
    3284:	f7ff fd8c 	bl	2da0 <__mriBuffer_WriteIntegerAsHex>
    3288:	4620      	mov	r0, r4
    328a:	212c      	movs	r1, #44	; 0x2c
    328c:	f7ff fc98 	bl	2bc0 <__mriBuffer_WriteChar>
    3290:	4620      	mov	r0, r4
    3292:	68a9      	ldr	r1, [r5, #8]
    3294:	f7ff fd84 	bl	2da0 <__mriBuffer_WriteIntegerAsHex>
    3298:	f7fe f840 	bl	131c <__mriCore_SendPacketToGdb>
    329c:	e8bd 4038 	ldmia.w	sp!, {r3, r4, r5, lr}
    32a0:	f7ff bf42 	b.w	3128 <processGdbFileResponseCommands>
    32a4:	0000d359 	.word	0x0000d359

000032a8 <__mriIssueGdbFileFStatRequest>:
    32a8:	b570      	push	{r4, r5, r6, lr}
    32aa:	460d      	mov	r5, r1
    32ac:	4606      	mov	r6, r0
    32ae:	f7fe f82d 	bl	130c <__mriCore_GetInitializedBuffer>
    32b2:	490b      	ldr	r1, [pc, #44]	; (32e0 <__mriIssueGdbFileFStatRequest+0x38>)
    32b4:	4604      	mov	r4, r0
    32b6:	f7ff fd05 	bl	2cc4 <__mriBuffer_WriteString>
    32ba:	4620      	mov	r0, r4
    32bc:	4631      	mov	r1, r6
    32be:	f7ff fd43 	bl	2d48 <__mriBuffer_WriteUIntegerAsHex>
    32c2:	4620      	mov	r0, r4
    32c4:	212c      	movs	r1, #44	; 0x2c
    32c6:	f7ff fc7b 	bl	2bc0 <__mriBuffer_WriteChar>
    32ca:	4620      	mov	r0, r4
    32cc:	4629      	mov	r1, r5
    32ce:	f7ff fd3b 	bl	2d48 <__mriBuffer_WriteUIntegerAsHex>
    32d2:	f7fe f823 	bl	131c <__mriCore_SendPacketToGdb>
    32d6:	e8bd 4070 	ldmia.w	sp!, {r4, r5, r6, lr}
    32da:	f7ff bf25 	b.w	3128 <processGdbFileResponseCommands>
    32de:	bf00      	nop
    32e0:	0000d361 	.word	0x0000d361

000032e4 <__mriIssueGdbFileUnlinkRequest>:
    32e4:	b538      	push	{r3, r4, r5, lr}
    32e6:	4605      	mov	r5, r0
    32e8:	f7fe f810 	bl	130c <__mriCore_GetInitializedBuffer>
    32ec:	490a      	ldr	r1, [pc, #40]	; (3318 <__mriIssueGdbFileUnlinkRequest+0x34>)
    32ee:	4604      	mov	r4, r0
    32f0:	f7ff fce8 	bl	2cc4 <__mriBuffer_WriteString>
    32f4:	4620      	mov	r0, r4
    32f6:	6829      	ldr	r1, [r5, #0]
    32f8:	f7ff fd26 	bl	2d48 <__mriBuffer_WriteUIntegerAsHex>
    32fc:	4620      	mov	r0, r4
    32fe:	212f      	movs	r1, #47	; 0x2f
    3300:	f7ff fc5e 	bl	2bc0 <__mriBuffer_WriteChar>
    3304:	4620      	mov	r0, r4
    3306:	6869      	ldr	r1, [r5, #4]
    3308:	f7ff fd1e 	bl	2d48 <__mriBuffer_WriteUIntegerAsHex>
    330c:	f7fe f806 	bl	131c <__mriCore_SendPacketToGdb>
    3310:	e8bd 4038 	ldmia.w	sp!, {r3, r4, r5, lr}
    3314:	f7ff bf08 	b.w	3128 <processGdbFileResponseCommands>
    3318:	0000d369 	.word	0x0000d369

0000331c <__mriIssueGdbFileStatRequest>:
    331c:	b538      	push	{r3, r4, r5, lr}
    331e:	4605      	mov	r5, r0
    3320:	f7fd fff4 	bl	130c <__mriCore_GetInitializedBuffer>
    3324:	490e      	ldr	r1, [pc, #56]	; (3360 <__mriIssueGdbFileStatRequest+0x44>)
    3326:	4604      	mov	r4, r0
    3328:	f7ff fccc 	bl	2cc4 <__mriBuffer_WriteString>
    332c:	4620      	mov	r0, r4
    332e:	6829      	ldr	r1, [r5, #0]
    3330:	f7ff fd0a 	bl	2d48 <__mriBuffer_WriteUIntegerAsHex>
    3334:	4620      	mov	r0, r4
    3336:	212f      	movs	r1, #47	; 0x2f
    3338:	f7ff fc42 	bl	2bc0 <__mriBuffer_WriteChar>
    333c:	4620      	mov	r0, r4
    333e:	6869      	ldr	r1, [r5, #4]
    3340:	f7ff fd02 	bl	2d48 <__mriBuffer_WriteUIntegerAsHex>
    3344:	4620      	mov	r0, r4
    3346:	212c      	movs	r1, #44	; 0x2c
    3348:	f7ff fc3a 	bl	2bc0 <__mriBuffer_WriteChar>
    334c:	4620      	mov	r0, r4
    334e:	68a9      	ldr	r1, [r5, #8]
    3350:	f7ff fcfa 	bl	2d48 <__mriBuffer_WriteUIntegerAsHex>
    3354:	f7fd ffe2 	bl	131c <__mriCore_SendPacketToGdb>
    3358:	e8bd 4038 	ldmia.w	sp!, {r3, r4, r5, lr}
    335c:	f7ff bee4 	b.w	3128 <processGdbFileResponseCommands>
    3360:	0000d37a 	.word	0x0000d37a

00003364 <__mriIssueGdbFileRenameRequest>:
    3364:	b538      	push	{r3, r4, r5, lr}
    3366:	4605      	mov	r5, r0
    3368:	f7fd ffd0 	bl	130c <__mriCore_GetInitializedBuffer>
    336c:	4912      	ldr	r1, [pc, #72]	; (33b8 <__mriIssueGdbFileRenameRequest+0x54>)
    336e:	4604      	mov	r4, r0
    3370:	f7ff fca8 	bl	2cc4 <__mriBuffer_WriteString>
    3374:	4620      	mov	r0, r4
    3376:	6829      	ldr	r1, [r5, #0]
    3378:	f7ff fce6 	bl	2d48 <__mriBuffer_WriteUIntegerAsHex>
    337c:	4620      	mov	r0, r4
    337e:	212f      	movs	r1, #47	; 0x2f
    3380:	f7ff fc1e 	bl	2bc0 <__mriBuffer_WriteChar>
    3384:	4620      	mov	r0, r4
    3386:	6869      	ldr	r1, [r5, #4]
    3388:	f7ff fcde 	bl	2d48 <__mriBuffer_WriteUIntegerAsHex>
    338c:	4620      	mov	r0, r4
    338e:	212c      	movs	r1, #44	; 0x2c
    3390:	f7ff fc16 	bl	2bc0 <__mriBuffer_WriteChar>
    3394:	4620      	mov	r0, r4
    3396:	68a9      	ldr	r1, [r5, #8]
    3398:	f7ff fcd6 	bl	2d48 <__mriBuffer_WriteUIntegerAsHex>
    339c:	4620      	mov	r0, r4
    339e:	212f      	movs	r1, #47	; 0x2f
    33a0:	f7ff fc0e 	bl	2bc0 <__mriBuffer_WriteChar>
    33a4:	4620      	mov	r0, r4
    33a6:	68e9      	ldr	r1, [r5, #12]
    33a8:	f7ff fcce 	bl	2d48 <__mriBuffer_WriteUIntegerAsHex>
    33ac:	f7fd ffb6 	bl	131c <__mriCore_SendPacketToGdb>
    33b0:	e8bd 4038 	ldmia.w	sp!, {r3, r4, r5, lr}
    33b4:	f7ff beb8 	b.w	3128 <processGdbFileResponseCommands>
    33b8:	0000d381 	.word	0x0000d381

000033bc <__mriHandleFileIOCommand>:
    33bc:	b570      	push	{r4, r5, r6, lr}
    33be:	f7fd ffa1 	bl	1304 <__mriCore_GetBuffer>
    33c2:	4604      	mov	r4, r0
    33c4:	f7ff fd1e 	bl	2e04 <__mriBuffer_ReadIntegerAsHex>
    33c8:	212c      	movs	r1, #44	; 0x2c
    33ca:	4606      	mov	r6, r0
    33cc:	4620      	mov	r0, r4
    33ce:	f7ff fcff 	bl	2dd0 <__mriBuffer_IsNextCharEqualTo>
    33d2:	b150      	cbz	r0, 33ea <__mriHandleFileIOCommand+0x2e>
    33d4:	4620      	mov	r0, r4
    33d6:	f7ff fd15 	bl	2e04 <__mriBuffer_ReadIntegerAsHex>
    33da:	490b      	ldr	r1, [pc, #44]	; (3408 <__mriHandleFileIOCommand+0x4c>)
    33dc:	4605      	mov	r5, r0
    33de:	2202      	movs	r2, #2
    33e0:	4620      	mov	r0, r4
    33e2:	f7ff fd37 	bl	2e54 <__mriBuffer_MatchesString>
    33e6:	4604      	mov	r4, r0
    33e8:	e001      	b.n	33ee <__mriHandleFileIOCommand+0x32>
    33ea:	4604      	mov	r4, r0
    33ec:	4605      	mov	r5, r0
    33ee:	4630      	mov	r0, r6
    33f0:	4629      	mov	r1, r5
    33f2:	f7fd ff7b 	bl	12ec <__mriCore_SetSemihostReturnValues>
    33f6:	4620      	mov	r0, r4
    33f8:	f7fd ff44 	bl	1284 <__mriCore_RecordControlCFlagSentFromGdb>
    33fc:	4b03      	ldr	r3, [pc, #12]	; (340c <__mriHandleFileIOCommand+0x50>)
    33fe:	2200      	movs	r2, #0
    3400:	601a      	str	r2, [r3, #0]
    3402:	2003      	movs	r0, #3
    3404:	bd70      	pop	{r4, r5, r6, pc}
    3406:	bf00      	nop
    3408:	0000d340 	.word	0x0000d340
    340c:	10000a48 	.word	0x10000a48

00003410 <__mriCmd_HandleMemoryReadCommand>:
    3410:	b537      	push	{r0, r1, r2, r4, r5, lr}
    3412:	f7fd ff77 	bl	1304 <__mriCore_GetBuffer>
    3416:	4c0b      	ldr	r4, [pc, #44]	; (3444 <__mriCmd_HandleMemoryReadCommand+0x34>)
    3418:	2300      	movs	r3, #0
    341a:	4669      	mov	r1, sp
    341c:	6023      	str	r3, [r4, #0]
    341e:	4605      	mov	r5, r0
    3420:	f7ff fe34 	bl	308c <__mriCmd_ReadAddressAndLengthArguments>
    3424:	6823      	ldr	r3, [r4, #0]
    3426:	b11b      	cbz	r3, 3430 <__mriCmd_HandleMemoryReadCommand+0x20>
    3428:	4807      	ldr	r0, [pc, #28]	; (3448 <__mriCmd_HandleMemoryReadCommand+0x38>)
    342a:	f7fd ff09 	bl	1240 <__mriCore_PrepareStringResponse>
    342e:	e006      	b.n	343e <__mriCmd_HandleMemoryReadCommand+0x2e>
    3430:	f7fd fef6 	bl	1220 <__mriCore_InitBuffer>
    3434:	e89d 0006 	ldmia.w	sp, {r1, r2}
    3438:	4628      	mov	r0, r5
    343a:	f000 fa6f 	bl	391c <__mriMem_ReadMemoryIntoHexBuffer>
    343e:	2000      	movs	r0, #0
    3440:	b003      	add	sp, #12
    3442:	bd30      	pop	{r4, r5, pc}
    3444:	10000a48 	.word	0x10000a48
    3448:	0000d335 	.word	0x0000d335

0000344c <__mriCmd_HandleMemoryWriteCommand>:
    344c:	b537      	push	{r0, r1, r2, r4, r5, lr}
    344e:	f7fd ff59 	bl	1304 <__mriCore_GetBuffer>
    3452:	4d0f      	ldr	r5, [pc, #60]	; (3490 <__mriCmd_HandleMemoryWriteCommand+0x44>)
    3454:	2300      	movs	r3, #0
    3456:	4669      	mov	r1, sp
    3458:	602b      	str	r3, [r5, #0]
    345a:	4604      	mov	r4, r0
    345c:	f7ff fe2e 	bl	30bc <__mriCmd_ReadAddressAndLengthArgumentsWithColon>
    3460:	682b      	ldr	r3, [r5, #0]
    3462:	b10b      	cbz	r3, 3468 <__mriCmd_HandleMemoryWriteCommand+0x1c>
    3464:	480b      	ldr	r0, [pc, #44]	; (3494 <__mriCmd_HandleMemoryWriteCommand+0x48>)
    3466:	e00e      	b.n	3486 <__mriCmd_HandleMemoryWriteCommand+0x3a>
    3468:	4620      	mov	r0, r4
    346a:	e89d 0006 	ldmia.w	sp, {r1, r2}
    346e:	f000 fa8f 	bl	3990 <__mriMem_WriteHexBufferToMemory>
    3472:	b108      	cbz	r0, 3478 <__mriCmd_HandleMemoryWriteCommand+0x2c>
    3474:	4808      	ldr	r0, [pc, #32]	; (3498 <__mriCmd_HandleMemoryWriteCommand+0x4c>)
    3476:	e006      	b.n	3486 <__mriCmd_HandleMemoryWriteCommand+0x3a>
    3478:	4620      	mov	r0, r4
    347a:	f7ff fb99 	bl	2bb0 <__mriBuffer_OverrunDetected>
    347e:	b108      	cbz	r0, 3484 <__mriCmd_HandleMemoryWriteCommand+0x38>
    3480:	4806      	ldr	r0, [pc, #24]	; (349c <__mriCmd_HandleMemoryWriteCommand+0x50>)
    3482:	e000      	b.n	3486 <__mriCmd_HandleMemoryWriteCommand+0x3a>
    3484:	4806      	ldr	r0, [pc, #24]	; (34a0 <__mriCmd_HandleMemoryWriteCommand+0x54>)
    3486:	f7fd fedb 	bl	1240 <__mriCore_PrepareStringResponse>
    348a:	2000      	movs	r0, #0
    348c:	b003      	add	sp, #12
    348e:	bd30      	pop	{r4, r5, pc}
    3490:	10000a48 	.word	0x10000a48
    3494:	0000d335 	.word	0x0000d335
    3498:	0000d33d 	.word	0x0000d33d
    349c:	0000ccbc 	.word	0x0000ccbc
    34a0:	0000d38a 	.word	0x0000d38a

000034a4 <__mriCmd_HandleBinaryMemoryWriteCommand>:
    34a4:	b537      	push	{r0, r1, r2, r4, r5, lr}
    34a6:	f7fd ff2d 	bl	1304 <__mriCore_GetBuffer>
    34aa:	4d0f      	ldr	r5, [pc, #60]	; (34e8 <__mriCmd_HandleBinaryMemoryWriteCommand+0x44>)
    34ac:	2300      	movs	r3, #0
    34ae:	4669      	mov	r1, sp
    34b0:	602b      	str	r3, [r5, #0]
    34b2:	4604      	mov	r4, r0
    34b4:	f7ff fe02 	bl	30bc <__mriCmd_ReadAddressAndLengthArgumentsWithColon>
    34b8:	682b      	ldr	r3, [r5, #0]
    34ba:	b10b      	cbz	r3, 34c0 <__mriCmd_HandleBinaryMemoryWriteCommand+0x1c>
    34bc:	480b      	ldr	r0, [pc, #44]	; (34ec <__mriCmd_HandleBinaryMemoryWriteCommand+0x48>)
    34be:	e00e      	b.n	34de <__mriCmd_HandleBinaryMemoryWriteCommand+0x3a>
    34c0:	4620      	mov	r0, r4
    34c2:	e89d 0006 	ldmia.w	sp, {r1, r2}
    34c6:	f000 faaf 	bl	3a28 <__mriMem_WriteBinaryBufferToMemory>
    34ca:	b108      	cbz	r0, 34d0 <__mriCmd_HandleBinaryMemoryWriteCommand+0x2c>
    34cc:	4808      	ldr	r0, [pc, #32]	; (34f0 <__mriCmd_HandleBinaryMemoryWriteCommand+0x4c>)
    34ce:	e006      	b.n	34de <__mriCmd_HandleBinaryMemoryWriteCommand+0x3a>
    34d0:	4620      	mov	r0, r4
    34d2:	f7ff fb6d 	bl	2bb0 <__mriBuffer_OverrunDetected>
    34d6:	b108      	cbz	r0, 34dc <__mriCmd_HandleBinaryMemoryWriteCommand+0x38>
    34d8:	4806      	ldr	r0, [pc, #24]	; (34f4 <__mriCmd_HandleBinaryMemoryWriteCommand+0x50>)
    34da:	e000      	b.n	34de <__mriCmd_HandleBinaryMemoryWriteCommand+0x3a>
    34dc:	4806      	ldr	r0, [pc, #24]	; (34f8 <__mriCmd_HandleBinaryMemoryWriteCommand+0x54>)
    34de:	f7fd feaf 	bl	1240 <__mriCore_PrepareStringResponse>
    34e2:	2000      	movs	r0, #0
    34e4:	b003      	add	sp, #12
    34e6:	bd30      	pop	{r4, r5, pc}
    34e8:	10000a48 	.word	0x10000a48
    34ec:	0000d335 	.word	0x0000d335
    34f0:	0000d33d 	.word	0x0000d33d
    34f4:	0000ccbc 	.word	0x0000ccbc
    34f8:	0000d38a 	.word	0x0000d38a

000034fc <handleQueryTransferReadCommand>:
    34fc:	e92d 43f8 	stmdb	sp!, {r3, r4, r5, r6, r7, r8, r9, lr}
    3500:	4605      	mov	r5, r0
    3502:	f7fd feff 	bl	1304 <__mriCore_GetBuffer>
    3506:	1d2c      	adds	r4, r5, #4
    3508:	e894 0290 	ldmia.w	r4, {r4, r7, r9}
    350c:	42a7      	cmp	r7, r4
    350e:	4606      	mov	r6, r0
    3510:	d203      	bcs.n	351a <handleQueryTransferReadCommand+0x1e>
    3512:	1be4      	subs	r4, r4, r7
    3514:	f04f 086d 	mov.w	r8, #109	; 0x6d
    3518:	e003      	b.n	3522 <handleQueryTransferReadCommand+0x26>
    351a:	2400      	movs	r4, #0
    351c:	46a1      	mov	r9, r4
    351e:	f04f 086c 	mov.w	r8, #108	; 0x6c
    3522:	f7fd fe7d 	bl	1220 <__mriCore_InitBuffer>
    3526:	4630      	mov	r0, r6
    3528:	f7ff fb26 	bl	2b78 <__mriBuffer_BytesLeft>
    352c:	4548      	cmp	r0, r9
    352e:	bf28      	it	cs
    3530:	4648      	movcs	r0, r9
    3532:	42a0      	cmp	r0, r4
    3534:	bf8c      	ite	hi
    3536:	f04f 086c 	movhi.w	r8, #108	; 0x6c
    353a:	4604      	movls	r4, r0
    353c:	4641      	mov	r1, r8
    353e:	4630      	mov	r0, r6
    3540:	f7ff fb3e 	bl	2bc0 <__mriBuffer_WriteChar>
    3544:	6829      	ldr	r1, [r5, #0]
    3546:	4630      	mov	r0, r6
    3548:	4439      	add	r1, r7
    354a:	4622      	mov	r2, r4
    354c:	e8bd 43f8 	ldmia.w	sp!, {r3, r4, r5, r6, r7, r8, r9, lr}
    3550:	f7ff bb9e 	b.w	2c90 <__mriBuffer_WriteSizedString>

00003554 <readQueryTransferReadArguments>:
    3554:	b5f7      	push	{r0, r1, r2, r4, r5, r6, r7, lr}
    3556:	4605      	mov	r5, r0
    3558:	2210      	movs	r2, #16
    355a:	4608      	mov	r0, r1
    355c:	460e      	mov	r6, r1
    355e:	2100      	movs	r1, #0
    3560:	f004 fcf1 	bl	7f46 <memset>
    3564:	4628      	mov	r0, r5
    3566:	213a      	movs	r1, #58	; 0x3a
    3568:	f7ff fc32 	bl	2dd0 <__mriBuffer_IsNextCharEqualTo>
    356c:	4c1e      	ldr	r4, [pc, #120]	; (35e8 <readQueryTransferReadArguments+0x94>)
    356e:	b928      	cbnz	r0, 357c <readQueryTransferReadArguments+0x28>
    3570:	6823      	ldr	r3, [r4, #0]
    3572:	2b04      	cmp	r3, #4
    3574:	bfb8      	it	lt
    3576:	2304      	movlt	r3, #4
    3578:	6023      	str	r3, [r4, #0]
    357a:	e032      	b.n	35e2 <readQueryTransferReadArguments+0x8e>
    357c:	4628      	mov	r0, r5
    357e:	491b      	ldr	r1, [pc, #108]	; (35ec <readQueryTransferReadArguments+0x98>)
    3580:	2204      	movs	r2, #4
    3582:	f7ff fc67 	bl	2e54 <__mriBuffer_MatchesString>
    3586:	2800      	cmp	r0, #0
    3588:	d0f2      	beq.n	3570 <readQueryTransferReadArguments+0x1c>
    358a:	4628      	mov	r0, r5
    358c:	213a      	movs	r1, #58	; 0x3a
    358e:	f7ff fc1f 	bl	2dd0 <__mriBuffer_IsNextCharEqualTo>
    3592:	2800      	cmp	r0, #0
    3594:	d0ec      	beq.n	3570 <readQueryTransferReadArguments+0x1c>
    3596:	2300      	movs	r3, #0
    3598:	4915      	ldr	r1, [pc, #84]	; (35f0 <readQueryTransferReadArguments+0x9c>)
    359a:	4628      	mov	r0, r5
    359c:	220a      	movs	r2, #10
    359e:	6023      	str	r3, [r4, #0]
    35a0:	f7ff fc58 	bl	2e54 <__mriBuffer_MatchesString>
    35a4:	4607      	mov	r7, r0
    35a6:	213a      	movs	r1, #58	; 0x3a
    35a8:	4628      	mov	r0, r5
    35aa:	b127      	cbz	r7, 35b6 <readQueryTransferReadArguments+0x62>
    35ac:	f7ff fc10 	bl	2dd0 <__mriBuffer_IsNextCharEqualTo>
    35b0:	b188      	cbz	r0, 35d6 <readQueryTransferReadArguments+0x82>
    35b2:	480f      	ldr	r0, [pc, #60]	; (35f0 <readQueryTransferReadArguments+0x9c>)
    35b4:	e003      	b.n	35be <readQueryTransferReadArguments+0x6a>
    35b6:	f7ff fc0b 	bl	2dd0 <__mriBuffer_IsNextCharEqualTo>
    35ba:	b160      	cbz	r0, 35d6 <readQueryTransferReadArguments+0x82>
    35bc:	4638      	mov	r0, r7
    35be:	6823      	ldr	r3, [r4, #0]
    35c0:	6030      	str	r0, [r6, #0]
    35c2:	b973      	cbnz	r3, 35e2 <readQueryTransferReadArguments+0x8e>
    35c4:	4628      	mov	r0, r5
    35c6:	4669      	mov	r1, sp
    35c8:	f7ff fd60 	bl	308c <__mriCmd_ReadAddressAndLengthArguments>
    35cc:	9b00      	ldr	r3, [sp, #0]
    35ce:	60b3      	str	r3, [r6, #8]
    35d0:	9b01      	ldr	r3, [sp, #4]
    35d2:	60f3      	str	r3, [r6, #12]
    35d4:	e005      	b.n	35e2 <readQueryTransferReadArguments+0x8e>
    35d6:	6823      	ldr	r3, [r4, #0]
    35d8:	2b04      	cmp	r3, #4
    35da:	bfb8      	it	lt
    35dc:	2304      	movlt	r3, #4
    35de:	6023      	str	r3, [r4, #0]
    35e0:	e7ed      	b.n	35be <readQueryTransferReadArguments+0x6a>
    35e2:	b003      	add	sp, #12
    35e4:	bdf0      	pop	{r4, r5, r6, r7, pc}
    35e6:	bf00      	nop
    35e8:	10000a48 	.word	0x10000a48
    35ec:	0000d3a2 	.word	0x0000d3a2
    35f0:	0000d3f9 	.word	0x0000d3f9

000035f4 <__mriCmd_HandleQueryCommand>:
    35f4:	b57f      	push	{r0, r1, r2, r3, r4, r5, r6, lr}
    35f6:	f7fd fe85 	bl	1304 <__mriCore_GetBuffer>
    35fa:	4935      	ldr	r1, [pc, #212]	; (36d0 <__mriCmd_HandleQueryCommand+0xdc>)
    35fc:	2209      	movs	r2, #9
    35fe:	4604      	mov	r4, r0
    3600:	f7ff fc28 	bl	2e54 <__mriBuffer_MatchesString>
    3604:	4606      	mov	r6, r0
    3606:	b168      	cbz	r0, 3624 <__mriCmd_HandleQueryCommand+0x30>
    3608:	f7fe fbf6 	bl	1df8 <__mriPlatform_GetPacketBufferSize>
    360c:	4604      	mov	r4, r0
    360e:	f7fd fe7d 	bl	130c <__mriCore_GetInitializedBuffer>
    3612:	4930      	ldr	r1, [pc, #192]	; (36d4 <__mriCmd_HandleQueryCommand+0xe0>)
    3614:	4605      	mov	r5, r0
    3616:	f7ff fb55 	bl	2cc4 <__mriBuffer_WriteString>
    361a:	4628      	mov	r0, r5
    361c:	4621      	mov	r1, r4
    361e:	f7ff fb93 	bl	2d48 <__mriBuffer_WriteUIntegerAsHex>
    3622:	e052      	b.n	36ca <__mriCmd_HandleQueryCommand+0xd6>
    3624:	4620      	mov	r0, r4
    3626:	492c      	ldr	r1, [pc, #176]	; (36d8 <__mriCmd_HandleQueryCommand+0xe4>)
    3628:	2204      	movs	r2, #4
    362a:	f7ff fc13 	bl	2e54 <__mriBuffer_MatchesString>
    362e:	2800      	cmp	r0, #0
    3630:	d048      	beq.n	36c4 <__mriCmd_HandleQueryCommand+0xd0>
    3632:	f7fd fe67 	bl	1304 <__mriCore_GetBuffer>
    3636:	213a      	movs	r1, #58	; 0x3a
    3638:	4604      	mov	r4, r0
    363a:	f7ff fbc9 	bl	2dd0 <__mriBuffer_IsNextCharEqualTo>
    363e:	2800      	cmp	r0, #0
    3640:	d034      	beq.n	36ac <__mriCmd_HandleQueryCommand+0xb8>
    3642:	4620      	mov	r0, r4
    3644:	4925      	ldr	r1, [pc, #148]	; (36dc <__mriCmd_HandleQueryCommand+0xe8>)
    3646:	220a      	movs	r2, #10
    3648:	f7ff fc04 	bl	2e54 <__mriBuffer_MatchesString>
    364c:	4605      	mov	r5, r0
    364e:	b1a0      	cbz	r0, 367a <__mriCmd_HandleQueryCommand+0x86>
    3650:	4c23      	ldr	r4, [pc, #140]	; (36e0 <__mriCmd_HandleQueryCommand+0xec>)
    3652:	f7fd fe57 	bl	1304 <__mriCore_GetBuffer>
    3656:	4669      	mov	r1, sp
    3658:	6026      	str	r6, [r4, #0]
    365a:	f7ff ff7b 	bl	3554 <readQueryTransferReadArguments>
    365e:	6823      	ldr	r3, [r4, #0]
    3660:	b91b      	cbnz	r3, 366a <__mriCmd_HandleQueryCommand+0x76>
    3662:	9b00      	ldr	r3, [sp, #0]
    3664:	b10b      	cbz	r3, 366a <__mriCmd_HandleQueryCommand+0x76>
    3666:	2304      	movs	r3, #4
    3668:	6023      	str	r3, [r4, #0]
    366a:	6823      	ldr	r3, [r4, #0]
    366c:	b9f3      	cbnz	r3, 36ac <__mriCmd_HandleQueryCommand+0xb8>
    366e:	f000 fa23 	bl	3ab8 <__mriPlatform_GetDeviceMemoryMapXml>
    3672:	9000      	str	r0, [sp, #0]
    3674:	f000 fa1c 	bl	3ab0 <__mriPlatform_GetDeviceMemoryMapXmlSize>
    3678:	e01f      	b.n	36ba <__mriCmd_HandleQueryCommand+0xc6>
    367a:	4620      	mov	r0, r4
    367c:	4919      	ldr	r1, [pc, #100]	; (36e4 <__mriCmd_HandleQueryCommand+0xf0>)
    367e:	2208      	movs	r2, #8
    3680:	f7ff fbe8 	bl	2e54 <__mriBuffer_MatchesString>
    3684:	b1f0      	cbz	r0, 36c4 <__mriCmd_HandleQueryCommand+0xd0>
    3686:	4c16      	ldr	r4, [pc, #88]	; (36e0 <__mriCmd_HandleQueryCommand+0xec>)
    3688:	f7fd fe3c 	bl	1304 <__mriCore_GetBuffer>
    368c:	4669      	mov	r1, sp
    368e:	6025      	str	r5, [r4, #0]
    3690:	f7ff ff60 	bl	3554 <readQueryTransferReadArguments>
    3694:	6823      	ldr	r3, [r4, #0]
    3696:	b93b      	cbnz	r3, 36a8 <__mriCmd_HandleQueryCommand+0xb4>
    3698:	9800      	ldr	r0, [sp, #0]
    369a:	b118      	cbz	r0, 36a4 <__mriCmd_HandleQueryCommand+0xb0>
    369c:	4912      	ldr	r1, [pc, #72]	; (36e8 <__mriCmd_HandleQueryCommand+0xf4>)
    369e:	f004 ff30 	bl	8502 <strcmp>
    36a2:	b108      	cbz	r0, 36a8 <__mriCmd_HandleQueryCommand+0xb4>
    36a4:	2304      	movs	r3, #4
    36a6:	6023      	str	r3, [r4, #0]
    36a8:	6823      	ldr	r3, [r4, #0]
    36aa:	b10b      	cbz	r3, 36b0 <__mriCmd_HandleQueryCommand+0xbc>
    36ac:	480f      	ldr	r0, [pc, #60]	; (36ec <__mriCmd_HandleQueryCommand+0xf8>)
    36ae:	e00a      	b.n	36c6 <__mriCmd_HandleQueryCommand+0xd2>
    36b0:	f7fe ff0c 	bl	24cc <__mriPlatform_GetTargetXml>
    36b4:	9000      	str	r0, [sp, #0]
    36b6:	f7fe ff05 	bl	24c4 <__mriPlatform_GetTargetXmlSize>
    36ba:	9001      	str	r0, [sp, #4]
    36bc:	4668      	mov	r0, sp
    36be:	f7ff ff1d 	bl	34fc <handleQueryTransferReadCommand>
    36c2:	e002      	b.n	36ca <__mriCmd_HandleQueryCommand+0xd6>
    36c4:	480a      	ldr	r0, [pc, #40]	; (36f0 <__mriCmd_HandleQueryCommand+0xfc>)
    36c6:	f7fd fdbb 	bl	1240 <__mriCore_PrepareStringResponse>
    36ca:	2000      	movs	r0, #0
    36cc:	b004      	add	sp, #16
    36ce:	bd70      	pop	{r4, r5, r6, pc}
    36d0:	0000d3b7 	.word	0x0000d3b7
    36d4:	0000d3c1 	.word	0x0000d3c1
    36d8:	0000d3a7 	.word	0x0000d3a7
    36dc:	0000d397 	.word	0x0000d397
    36e0:	10000a48 	.word	0x10000a48
    36e4:	0000d38e 	.word	0x0000d38e
    36e8:	0000d3ac 	.word	0x0000d3ac
    36ec:	0000d335 	.word	0x0000d335
    36f0:	0000ccd2 	.word	0x0000ccd2

000036f4 <__mriCmd_Send_T_StopResponse>:
    36f4:	b510      	push	{r4, lr}
    36f6:	f7fd fe09 	bl	130c <__mriCore_GetInitializedBuffer>
    36fa:	2154      	movs	r1, #84	; 0x54
    36fc:	4604      	mov	r4, r0
    36fe:	f7ff fa5f 	bl	2bc0 <__mriBuffer_WriteChar>
    3702:	f7fd fded 	bl	12e0 <__mriCore_GetSignalValue>
    3706:	4601      	mov	r1, r0
    3708:	4620      	mov	r0, r4
    370a:	f7ff fa7f 	bl	2c0c <__mriBuffer_WriteByteAsHex>
    370e:	4620      	mov	r0, r4
    3710:	f7fe fce8 	bl	20e4 <__mriPlatform_WriteTResponseRegistersToBuffer>
    3714:	f7fd fe02 	bl	131c <__mriCore_SendPacketToGdb>
    3718:	2002      	movs	r0, #2
    371a:	bd10      	pop	{r4, pc}

0000371c <__mriCmd_HandleRegisterReadCommand>:
    371c:	b508      	push	{r3, lr}
    371e:	f7fd fdf5 	bl	130c <__mriCore_GetInitializedBuffer>
    3722:	f7fe fcfd 	bl	2120 <__mriPlatform_CopyContextToBuffer>
    3726:	2000      	movs	r0, #0
    3728:	bd08      	pop	{r3, pc}
	...

0000372c <__mriCmd_HandleRegisterWriteCommand>:
    372c:	b510      	push	{r4, lr}
    372e:	f7fd fde9 	bl	1304 <__mriCore_GetBuffer>
    3732:	4604      	mov	r4, r0
    3734:	f7fe fd04 	bl	2140 <__mriPlatform_CopyContextFromBuffer>
    3738:	4620      	mov	r0, r4
    373a:	f7ff fa39 	bl	2bb0 <__mriBuffer_OverrunDetected>
    373e:	b108      	cbz	r0, 3744 <__mriCmd_HandleRegisterWriteCommand+0x18>
    3740:	4803      	ldr	r0, [pc, #12]	; (3750 <__mriCmd_HandleRegisterWriteCommand+0x24>)
    3742:	e000      	b.n	3746 <__mriCmd_HandleRegisterWriteCommand+0x1a>
    3744:	4803      	ldr	r0, [pc, #12]	; (3754 <__mriCmd_HandleRegisterWriteCommand+0x28>)
    3746:	f7fd fd7b 	bl	1240 <__mriCore_PrepareStringResponse>
    374a:	2000      	movs	r0, #0
    374c:	bd10      	pop	{r4, pc}
    374e:	bf00      	nop
    3750:	0000ccbc 	.word	0x0000ccbc
    3754:	0000d33d 	.word	0x0000d33d

00003758 <__mriCmd_HandleSingleStepCommand>:
    3758:	b508      	push	{r3, lr}
    375a:	f7ff fcc1 	bl	30e0 <__mriCmd_HandleContinueCommand>
    375e:	0743      	lsls	r3, r0, #29
    3760:	d503      	bpl.n	376a <__mriCmd_HandleSingleStepCommand+0x12>
    3762:	e8bd 4008 	ldmia.w	sp!, {r3, lr}
    3766:	f7ff bfc5 	b.w	36f4 <__mriCmd_Send_T_StopResponse>
    376a:	f7fe fd2f 	bl	21cc <__mriPlatform_EnableSingleStep>
    376e:	2003      	movs	r0, #3
    3770:	bd08      	pop	{r3, pc}

00003772 <__mriGdbConsole_WriteString>:
    3772:	b538      	push	{r3, r4, r5, lr}
    3774:	4605      	mov	r5, r0
    3776:	f7fe ffc3 	bl	2700 <__mriPlatform_CommSharingWithApplication>
    377a:	3d01      	subs	r5, #1
    377c:	b148      	cbz	r0, 3792 <__mriGdbConsole_WriteString+0x20>
    377e:	f7fd fda1 	bl	12c4 <__mriCore_IsFirstException>
    3782:	b130      	cbz	r0, 3792 <__mriGdbConsole_WriteString+0x20>
    3784:	f815 0f01 	ldrb.w	r0, [r5, #1]!
    3788:	b110      	cbz	r0, 3790 <__mriGdbConsole_WriteString+0x1e>
    378a:	f7fe ff99 	bl	26c0 <__mriPlatform_CommSendChar>
    378e:	e7f9      	b.n	3784 <__mriGdbConsole_WriteString+0x12>
    3790:	bd38      	pop	{r3, r4, r5, pc}
    3792:	f7fd fdbb 	bl	130c <__mriCore_GetInitializedBuffer>
    3796:	214f      	movs	r1, #79	; 0x4f
    3798:	4604      	mov	r4, r0
    379a:	f7ff fa11 	bl	2bc0 <__mriBuffer_WriteChar>
    379e:	f815 1f01 	ldrb.w	r1, [r5, #1]!
    37a2:	4620      	mov	r0, r4
    37a4:	b111      	cbz	r1, 37ac <__mriGdbConsole_WriteString+0x3a>
    37a6:	f7ff fa31 	bl	2c0c <__mriBuffer_WriteByteAsHex>
    37aa:	e7f8      	b.n	379e <__mriGdbConsole_WriteString+0x2c>
    37ac:	f7ff fa00 	bl	2bb0 <__mriBuffer_OverrunDetected>
    37b0:	b918      	cbnz	r0, 37ba <__mriGdbConsole_WriteString+0x48>
    37b2:	e8bd 4038 	ldmia.w	sp!, {r3, r4, r5, lr}
    37b6:	f7fd bdb1 	b.w	131c <__mriCore_SendPacketToGdb>
    37ba:	bd38      	pop	{r3, r4, r5, pc}

000037bc <__mriGdbConsole_WriteHexValue>:
    37bc:	b510      	push	{r4, lr}
    37be:	b086      	sub	sp, #24
    37c0:	220b      	movs	r2, #11
    37c2:	4604      	mov	r4, r0
    37c4:	4669      	mov	r1, sp
    37c6:	a803      	add	r0, sp, #12
    37c8:	f7ff f9c8 	bl	2b5c <__mriBuffer_Init>
    37cc:	a803      	add	r0, sp, #12
    37ce:	4908      	ldr	r1, [pc, #32]	; (37f0 <__mriGdbConsole_WriteHexValue+0x34>)
    37d0:	f7ff fa78 	bl	2cc4 <__mriBuffer_WriteString>
    37d4:	a803      	add	r0, sp, #12
    37d6:	4621      	mov	r1, r4
    37d8:	f7ff fab6 	bl	2d48 <__mriBuffer_WriteUIntegerAsHex>
    37dc:	a803      	add	r0, sp, #12
    37de:	2100      	movs	r1, #0
    37e0:	f7ff f9ee 	bl	2bc0 <__mriBuffer_WriteChar>
    37e4:	4668      	mov	r0, sp
    37e6:	f7ff ffc4 	bl	3772 <__mriGdbConsole_WriteString>
    37ea:	b006      	add	sp, #24
    37ec:	bd10      	pop	{r4, pc}
    37ee:	bf00      	nop
    37f0:	0000d404 	.word	0x0000d404

000037f4 <readMemoryBytesIntoHexBuffer>:
    37f4:	b5f8      	push	{r3, r4, r5, r6, r7, lr}
    37f6:	4605      	mov	r5, r0
    37f8:	188c      	adds	r4, r1, r2
    37fa:	42a1      	cmp	r1, r4
    37fc:	d00d      	beq.n	381a <readMemoryBytesIntoHexBuffer+0x26>
    37fe:	4608      	mov	r0, r1
    3800:	1c4e      	adds	r6, r1, #1
    3802:	f7fe ff30 	bl	2666 <__mriPlatform_MemRead8>
    3806:	4607      	mov	r7, r0
    3808:	f7fe fbfc 	bl	2004 <__mriPlatform_WasMemoryFaultEncountered>
    380c:	b938      	cbnz	r0, 381e <readMemoryBytesIntoHexBuffer+0x2a>
    380e:	4639      	mov	r1, r7
    3810:	4628      	mov	r0, r5
    3812:	f7ff f9fb 	bl	2c0c <__mriBuffer_WriteByteAsHex>
    3816:	4631      	mov	r1, r6
    3818:	e7ef      	b.n	37fa <readMemoryBytesIntoHexBuffer+0x6>
    381a:	2001      	movs	r0, #1
    381c:	bdf8      	pop	{r3, r4, r5, r6, r7, pc}
    381e:	2000      	movs	r0, #0
    3820:	bdf8      	pop	{r3, r4, r5, r6, r7, pc}
	...

00003824 <writeHexBufferToByteMemory>:
    3824:	b5f8      	push	{r3, r4, r5, r6, r7, lr}
    3826:	4607      	mov	r7, r0
    3828:	460c      	mov	r4, r1
    382a:	188e      	adds	r6, r1, r2
    382c:	42b4      	cmp	r4, r6
    382e:	d014      	beq.n	385a <writeHexBufferToByteMemory+0x36>
    3830:	4d0b      	ldr	r5, [pc, #44]	; (3860 <writeHexBufferToByteMemory+0x3c>)
    3832:	2300      	movs	r3, #0
    3834:	4638      	mov	r0, r7
    3836:	602b      	str	r3, [r5, #0]
    3838:	f7ff fa06 	bl	2c48 <__mriBuffer_ReadByteAsHex>
    383c:	682b      	ldr	r3, [r5, #0]
    383e:	4601      	mov	r1, r0
    3840:	b10b      	cbz	r3, 3846 <writeHexBufferToByteMemory+0x22>
    3842:	2000      	movs	r0, #0
    3844:	bdf8      	pop	{r3, r4, r5, r6, r7, pc}
    3846:	4620      	mov	r0, r4
    3848:	1c65      	adds	r5, r4, #1
    384a:	f7fe ff12 	bl	2672 <__mriPlatform_MemWrite8>
    384e:	f7fe fbd9 	bl	2004 <__mriPlatform_WasMemoryFaultEncountered>
    3852:	2800      	cmp	r0, #0
    3854:	d1f5      	bne.n	3842 <writeHexBufferToByteMemory+0x1e>
    3856:	462c      	mov	r4, r5
    3858:	e7e8      	b.n	382c <writeHexBufferToByteMemory+0x8>
    385a:	2001      	movs	r0, #1
    385c:	bdf8      	pop	{r3, r4, r5, r6, r7, pc}
    385e:	bf00      	nop
    3860:	10000a48 	.word	0x10000a48

00003864 <writeBinaryBufferToByteMemory>:
    3864:	e92d 41f0 	stmdb	sp!, {r4, r5, r6, r7, r8, lr}
    3868:	4606      	mov	r6, r0
    386a:	460c      	mov	r4, r1
    386c:	eb01 0802 	add.w	r8, r1, r2
    3870:	4544      	cmp	r4, r8
    3872:	d023      	beq.n	38bc <writeBinaryBufferToByteMemory+0x58>
    3874:	4d13      	ldr	r5, [pc, #76]	; (38c4 <writeBinaryBufferToByteMemory+0x60>)
    3876:	2300      	movs	r3, #0
    3878:	4630      	mov	r0, r6
    387a:	602b      	str	r3, [r5, #0]
    387c:	f7ff f9b2 	bl	2be4 <__mriBuffer_ReadChar>
    3880:	682f      	ldr	r7, [r5, #0]
    3882:	4601      	mov	r1, r0
    3884:	b95f      	cbnz	r7, 389e <writeBinaryBufferToByteMemory+0x3a>
    3886:	287d      	cmp	r0, #125	; 0x7d
    3888:	d109      	bne.n	389e <writeBinaryBufferToByteMemory+0x3a>
    388a:	4630      	mov	r0, r6
    388c:	f7ff f9aa 	bl	2be4 <__mriBuffer_ReadChar>
    3890:	682b      	ldr	r3, [r5, #0]
    3892:	b91b      	cbnz	r3, 389c <writeBinaryBufferToByteMemory+0x38>
    3894:	f080 0120 	eor.w	r1, r0, #32
    3898:	b2c9      	uxtb	r1, r1
    389a:	e000      	b.n	389e <writeBinaryBufferToByteMemory+0x3a>
    389c:	4639      	mov	r1, r7
    389e:	682b      	ldr	r3, [r5, #0]
    38a0:	b113      	cbz	r3, 38a8 <writeBinaryBufferToByteMemory+0x44>
    38a2:	2000      	movs	r0, #0
    38a4:	e8bd 81f0 	ldmia.w	sp!, {r4, r5, r6, r7, r8, pc}
    38a8:	4620      	mov	r0, r4
    38aa:	1c65      	adds	r5, r4, #1
    38ac:	f7fe fee1 	bl	2672 <__mriPlatform_MemWrite8>
    38b0:	f7fe fba8 	bl	2004 <__mriPlatform_WasMemoryFaultEncountered>
    38b4:	2800      	cmp	r0, #0
    38b6:	d1f4      	bne.n	38a2 <writeBinaryBufferToByteMemory+0x3e>
    38b8:	462c      	mov	r4, r5
    38ba:	e7d9      	b.n	3870 <writeBinaryBufferToByteMemory+0xc>
    38bc:	2001      	movs	r0, #1
    38be:	e8bd 81f0 	ldmia.w	sp!, {r4, r5, r6, r7, r8, pc}
    38c2:	bf00      	nop
    38c4:	10000a48 	.word	0x10000a48

000038c8 <readBytesFromBinaryBuffer>:
    38c8:	e92d 41f0 	stmdb	sp!, {r4, r5, r6, r7, r8, lr}
    38cc:	4606      	mov	r6, r0
    38ce:	460c      	mov	r4, r1
    38d0:	eb01 0802 	add.w	r8, r1, r2
    38d4:	4544      	cmp	r4, r8
    38d6:	d018      	beq.n	390a <readBytesFromBinaryBuffer+0x42>
    38d8:	4d0f      	ldr	r5, [pc, #60]	; (3918 <readBytesFromBinaryBuffer+0x50>)
    38da:	2300      	movs	r3, #0
    38dc:	4630      	mov	r0, r6
    38de:	602b      	str	r3, [r5, #0]
    38e0:	f7ff f980 	bl	2be4 <__mriBuffer_ReadChar>
    38e4:	682f      	ldr	r7, [r5, #0]
    38e6:	b95f      	cbnz	r7, 3900 <readBytesFromBinaryBuffer+0x38>
    38e8:	287d      	cmp	r0, #125	; 0x7d
    38ea:	d109      	bne.n	3900 <readBytesFromBinaryBuffer+0x38>
    38ec:	4630      	mov	r0, r6
    38ee:	f7ff f979 	bl	2be4 <__mriBuffer_ReadChar>
    38f2:	682a      	ldr	r2, [r5, #0]
    38f4:	b91a      	cbnz	r2, 38fe <readBytesFromBinaryBuffer+0x36>
    38f6:	f080 0320 	eor.w	r3, r0, #32
    38fa:	b2d8      	uxtb	r0, r3
    38fc:	e000      	b.n	3900 <readBytesFromBinaryBuffer+0x38>
    38fe:	4638      	mov	r0, r7
    3900:	682a      	ldr	r2, [r5, #0]
    3902:	b92a      	cbnz	r2, 3910 <readBytesFromBinaryBuffer+0x48>
    3904:	f804 0b01 	strb.w	r0, [r4], #1
    3908:	e7e4      	b.n	38d4 <readBytesFromBinaryBuffer+0xc>
    390a:	2001      	movs	r0, #1
    390c:	e8bd 81f0 	ldmia.w	sp!, {r4, r5, r6, r7, r8, pc}
    3910:	2000      	movs	r0, #0
    3912:	e8bd 81f0 	ldmia.w	sp!, {r4, r5, r6, r7, r8, pc}
    3916:	bf00      	nop
    3918:	10000a48 	.word	0x10000a48

0000391c <__mriMem_ReadMemoryIntoHexBuffer>:
    391c:	2a02      	cmp	r2, #2
    391e:	b537      	push	{r0, r1, r2, r4, r5, lr}
    3920:	4605      	mov	r5, r0
    3922:	d002      	beq.n	392a <__mriMem_ReadMemoryIntoHexBuffer+0xe>
    3924:	2a04      	cmp	r2, #4
    3926:	d016      	beq.n	3956 <__mriMem_ReadMemoryIntoHexBuffer+0x3a>
    3928:	e02a      	b.n	3980 <__mriMem_ReadMemoryIntoHexBuffer+0x64>
    392a:	f011 0401 	ands.w	r4, r1, #1
    392e:	d127      	bne.n	3980 <__mriMem_ReadMemoryIntoHexBuffer+0x64>
    3930:	4608      	mov	r0, r1
    3932:	f7fe fe95 	bl	2660 <__mriPlatform_MemRead16>
    3936:	f8ad 0004 	strh.w	r0, [sp, #4]
    393a:	f7fe fb63 	bl	2004 <__mriPlatform_WasMemoryFaultEncountered>
    393e:	bb20      	cbnz	r0, 398a <__mriMem_ReadMemoryIntoHexBuffer+0x6e>
    3940:	4628      	mov	r0, r5
    3942:	f89d 1004 	ldrb.w	r1, [sp, #4]
    3946:	f7ff f961 	bl	2c0c <__mriBuffer_WriteByteAsHex>
    394a:	4628      	mov	r0, r5
    394c:	f89d 1005 	ldrb.w	r1, [sp, #5]
    3950:	f7ff f95c 	bl	2c0c <__mriBuffer_WriteByteAsHex>
    3954:	e012      	b.n	397c <__mriMem_ReadMemoryIntoHexBuffer+0x60>
    3956:	f011 0403 	ands.w	r4, r1, #3
    395a:	d111      	bne.n	3980 <__mriMem_ReadMemoryIntoHexBuffer+0x64>
    395c:	4608      	mov	r0, r1
    395e:	f7fe fe7d 	bl	265c <__mriPlatform_MemRead32>
    3962:	9001      	str	r0, [sp, #4]
    3964:	f7fe fb4e 	bl	2004 <__mriPlatform_WasMemoryFaultEncountered>
    3968:	b978      	cbnz	r0, 398a <__mriMem_ReadMemoryIntoHexBuffer+0x6e>
    396a:	4604      	mov	r4, r0
    396c:	ab01      	add	r3, sp, #4
    396e:	5d19      	ldrb	r1, [r3, r4]
    3970:	4628      	mov	r0, r5
    3972:	3401      	adds	r4, #1
    3974:	f7ff f94a 	bl	2c0c <__mriBuffer_WriteByteAsHex>
    3978:	2c04      	cmp	r4, #4
    397a:	d1f7      	bne.n	396c <__mriMem_ReadMemoryIntoHexBuffer+0x50>
    397c:	2401      	movs	r4, #1
    397e:	e004      	b.n	398a <__mriMem_ReadMemoryIntoHexBuffer+0x6e>
    3980:	b003      	add	sp, #12
    3982:	e8bd 4030 	ldmia.w	sp!, {r4, r5, lr}
    3986:	f7ff bf35 	b.w	37f4 <readMemoryBytesIntoHexBuffer>
    398a:	4620      	mov	r0, r4
    398c:	b003      	add	sp, #12
    398e:	bd30      	pop	{r4, r5, pc}

00003990 <__mriMem_WriteHexBufferToMemory>:
    3990:	2a02      	cmp	r2, #2
    3992:	e92d 41f3 	stmdb	sp!, {r0, r1, r4, r5, r6, r7, r8, lr}
    3996:	4607      	mov	r7, r0
    3998:	460d      	mov	r5, r1
    399a:	d002      	beq.n	39a2 <__mriMem_WriteHexBufferToMemory+0x12>
    399c:	2a04      	cmp	r2, #4
    399e:	d019      	beq.n	39d4 <__mriMem_WriteHexBufferToMemory+0x44>
    39a0:	e01b      	b.n	39da <__mriMem_WriteHexBufferToMemory+0x4a>
    39a2:	f011 0401 	ands.w	r4, r1, #1
    39a6:	d118      	bne.n	39da <__mriMem_WriteHexBufferToMemory+0x4a>
    39a8:	4e1e      	ldr	r6, [pc, #120]	; (3a24 <__mriMem_WriteHexBufferToMemory+0x94>)
    39aa:	6034      	str	r4, [r6, #0]
    39ac:	f7ff f94c 	bl	2c48 <__mriBuffer_ReadByteAsHex>
    39b0:	6833      	ldr	r3, [r6, #0]
    39b2:	f88d 0004 	strb.w	r0, [sp, #4]
    39b6:	bb83      	cbnz	r3, 3a1a <__mriMem_WriteHexBufferToMemory+0x8a>
    39b8:	4638      	mov	r0, r7
    39ba:	6034      	str	r4, [r6, #0]
    39bc:	f7ff f944 	bl	2c48 <__mriBuffer_ReadByteAsHex>
    39c0:	6833      	ldr	r3, [r6, #0]
    39c2:	f88d 0005 	strb.w	r0, [sp, #5]
    39c6:	bb43      	cbnz	r3, 3a1a <__mriMem_WriteHexBufferToMemory+0x8a>
    39c8:	4628      	mov	r0, r5
    39ca:	f8bd 1004 	ldrh.w	r1, [sp, #4]
    39ce:	f7fe fe4e 	bl	266e <__mriPlatform_MemWrite16>
    39d2:	e01c      	b.n	3a0e <__mriMem_WriteHexBufferToMemory+0x7e>
    39d4:	f011 0403 	ands.w	r4, r1, #3
    39d8:	d004      	beq.n	39e4 <__mriMem_WriteHexBufferToMemory+0x54>
    39da:	b002      	add	sp, #8
    39dc:	e8bd 41f0 	ldmia.w	sp!, {r4, r5, r6, r7, r8, lr}
    39e0:	f7ff bf20 	b.w	3824 <writeHexBufferToByteMemory>
    39e4:	4626      	mov	r6, r4
    39e6:	f8df 803c 	ldr.w	r8, [pc, #60]	; 3a24 <__mriMem_WriteHexBufferToMemory+0x94>
    39ea:	2300      	movs	r3, #0
    39ec:	4638      	mov	r0, r7
    39ee:	f8c8 3000 	str.w	r3, [r8]
    39f2:	f7ff f929 	bl	2c48 <__mriBuffer_ReadByteAsHex>
    39f6:	ab01      	add	r3, sp, #4
    39f8:	5598      	strb	r0, [r3, r6]
    39fa:	f8d8 3000 	ldr.w	r3, [r8]
    39fe:	3601      	adds	r6, #1
    3a00:	b95b      	cbnz	r3, 3a1a <__mriMem_WriteHexBufferToMemory+0x8a>
    3a02:	2e04      	cmp	r6, #4
    3a04:	d1ef      	bne.n	39e6 <__mriMem_WriteHexBufferToMemory+0x56>
    3a06:	4628      	mov	r0, r5
    3a08:	9901      	ldr	r1, [sp, #4]
    3a0a:	f7fe fe2e 	bl	266a <__mriPlatform_MemWrite32>
    3a0e:	f7fe faf9 	bl	2004 <__mriPlatform_WasMemoryFaultEncountered>
    3a12:	f1d0 0401 	rsbs	r4, r0, #1
    3a16:	bf38      	it	cc
    3a18:	2400      	movcc	r4, #0
    3a1a:	4620      	mov	r0, r4
    3a1c:	b002      	add	sp, #8
    3a1e:	e8bd 81f0 	ldmia.w	sp!, {r4, r5, r6, r7, r8, pc}
    3a22:	bf00      	nop
    3a24:	10000a48 	.word	0x10000a48

00003a28 <__mriMem_WriteBinaryBufferToMemory>:
    3a28:	2a02      	cmp	r2, #2
    3a2a:	b513      	push	{r0, r1, r4, lr}
    3a2c:	460c      	mov	r4, r1
    3a2e:	d002      	beq.n	3a36 <__mriMem_WriteBinaryBufferToMemory+0xe>
    3a30:	2a04      	cmp	r2, #4
    3a32:	d00c      	beq.n	3a4e <__mriMem_WriteBinaryBufferToMemory+0x26>
    3a34:	e01c      	b.n	3a70 <__mriMem_WriteBinaryBufferToMemory+0x48>
    3a36:	07cb      	lsls	r3, r1, #31
    3a38:	d41a      	bmi.n	3a70 <__mriMem_WriteBinaryBufferToMemory+0x48>
    3a3a:	a901      	add	r1, sp, #4
    3a3c:	f7ff ff44 	bl	38c8 <readBytesFromBinaryBuffer>
    3a40:	b1c0      	cbz	r0, 3a74 <__mriMem_WriteBinaryBufferToMemory+0x4c>
    3a42:	4620      	mov	r0, r4
    3a44:	f8bd 1004 	ldrh.w	r1, [sp, #4]
    3a48:	f7fe fe11 	bl	266e <__mriPlatform_MemWrite16>
    3a4c:	e009      	b.n	3a62 <__mriMem_WriteBinaryBufferToMemory+0x3a>
    3a4e:	078b      	lsls	r3, r1, #30
    3a50:	d10e      	bne.n	3a70 <__mriMem_WriteBinaryBufferToMemory+0x48>
    3a52:	a901      	add	r1, sp, #4
    3a54:	f7ff ff38 	bl	38c8 <readBytesFromBinaryBuffer>
    3a58:	b160      	cbz	r0, 3a74 <__mriMem_WriteBinaryBufferToMemory+0x4c>
    3a5a:	4620      	mov	r0, r4
    3a5c:	9901      	ldr	r1, [sp, #4]
    3a5e:	f7fe fe04 	bl	266a <__mriPlatform_MemWrite32>
    3a62:	f7fe facf 	bl	2004 <__mriPlatform_WasMemoryFaultEncountered>
    3a66:	f1d0 0001 	rsbs	r0, r0, #1
    3a6a:	bf38      	it	cc
    3a6c:	2000      	movcc	r0, #0
    3a6e:	e001      	b.n	3a74 <__mriMem_WriteBinaryBufferToMemory+0x4c>
    3a70:	f7ff fef8 	bl	3864 <writeBinaryBufferToByteMemory>
    3a74:	b002      	add	sp, #8
    3a76:	bd10      	pop	{r4, pc}

00003a78 <__mriLpc176x_Init>:
    3a78:	b538      	push	{r3, r4, r5, lr}
    3a7a:	4c0c      	ldr	r4, [pc, #48]	; (3aac <__mriLpc176x_Init+0x34>)
    3a7c:	2300      	movs	r3, #0
    3a7e:	6023      	str	r3, [r4, #0]
    3a80:	4605      	mov	r5, r0
    3a82:	f7fe f953 	bl	1d2c <__mriCortexMInit>
    3a86:	6823      	ldr	r3, [r4, #0]
    3a88:	b973      	cbnz	r3, 3aa8 <__mriLpc176x_Init+0x30>
    3a8a:	f103 4260 	add.w	r2, r3, #3758096384	; 0xe0000000
    3a8e:	3301      	adds	r3, #1
    3a90:	f502 4261 	add.w	r2, r2, #57600	; 0xe100
    3a94:	2108      	movs	r1, #8
    3a96:	2b23      	cmp	r3, #35	; 0x23
    3a98:	f882 1300 	strb.w	r1, [r2, #768]	; 0x300
    3a9c:	d1f5      	bne.n	3a8a <__mriLpc176x_Init+0x12>
    3a9e:	4628      	mov	r0, r5
    3aa0:	e8bd 4038 	ldmia.w	sp!, {r3, r4, r5, lr}
    3aa4:	f7fe be5a 	b.w	275c <__mriLpc176xUart_Init>
    3aa8:	bd38      	pop	{r3, r4, r5, pc}
    3aaa:	bf00      	nop
    3aac:	10000a48 	.word	0x10000a48

00003ab0 <__mriPlatform_GetDeviceMemoryMapXmlSize>:
    3ab0:	f240 50c6 	movw	r0, #1478	; 0x5c6
    3ab4:	4770      	bx	lr
	...

00003ab8 <__mriPlatform_GetDeviceMemoryMapXml>:
    3ab8:	4800      	ldr	r0, [pc, #0]	; (3abc <__mriPlatform_GetDeviceMemoryMapXml+0x4>)
    3aba:	4770      	bx	lr
    3abc:	0000d407 	.word	0x0000d407

00003ac0 <div_round_up>:
    3ac0:	b082      	sub	sp, #8
    3ac2:	9001      	str	r0, [sp, #4]
    3ac4:	9100      	str	r1, [sp, #0]
    3ac6:	9b00      	ldr	r3, [sp, #0]
    3ac8:	1e5a      	subs	r2, r3, #1
    3aca:	9b01      	ldr	r3, [sp, #4]
    3acc:	441a      	add	r2, r3
    3ace:	9b00      	ldr	r3, [sp, #0]
    3ad0:	fb92 f3f3 	sdiv	r3, r2, r3
    3ad4:	4618      	mov	r0, r3
    3ad6:	b002      	add	sp, #8
    3ad8:	4770      	bx	lr
    3ada:	bf00      	nop

00003adc <analogin_init>:
    3adc:	b500      	push	{lr}
    3ade:	b087      	sub	sp, #28
    3ae0:	9001      	str	r0, [sp, #4]
    3ae2:	9100      	str	r1, [sp, #0]
    3ae4:	9800      	ldr	r0, [sp, #0]
    3ae6:	4920      	ldr	r1, [pc, #128]	; (3b68 <analogin_init+0x8c>)
    3ae8:	f000 fae2 	bl	40b0 <pinmap_peripheral>
    3aec:	4603      	mov	r3, r0
    3aee:	b2da      	uxtb	r2, r3
    3af0:	9b01      	ldr	r3, [sp, #4]
    3af2:	701a      	strb	r2, [r3, #0]
    3af4:	9b01      	ldr	r3, [sp, #4]
    3af6:	781b      	ldrb	r3, [r3, #0]
    3af8:	2bff      	cmp	r3, #255	; 0xff
    3afa:	d102      	bne.n	3b02 <analogin_init+0x26>
    3afc:	481b      	ldr	r0, [pc, #108]	; (3b6c <analogin_init+0x90>)
    3afe:	f000 f9b1 	bl	3e64 <error>
    3b02:	4b1b      	ldr	r3, [pc, #108]	; (3b70 <analogin_init+0x94>)
    3b04:	4a1a      	ldr	r2, [pc, #104]	; (3b70 <analogin_init+0x94>)
    3b06:	f8d2 20c4 	ldr.w	r2, [r2, #196]	; 0xc4
    3b0a:	f442 5280 	orr.w	r2, r2, #4096	; 0x1000
    3b0e:	f8c3 20c4 	str.w	r2, [r3, #196]	; 0xc4
    3b12:	4b17      	ldr	r3, [pc, #92]	; (3b70 <analogin_init+0x94>)
    3b14:	4a16      	ldr	r2, [pc, #88]	; (3b70 <analogin_init+0x94>)
    3b16:	f8d2 21a8 	ldr.w	r2, [r2, #424]	; 0x1a8
    3b1a:	f022 7240 	bic.w	r2, r2, #50331648	; 0x3000000
    3b1e:	f8c3 21a8 	str.w	r2, [r3, #424]	; 0x1a8
    3b22:	4b13      	ldr	r3, [pc, #76]	; (3b70 <analogin_init+0x94>)
    3b24:	4a12      	ldr	r2, [pc, #72]	; (3b70 <analogin_init+0x94>)
    3b26:	f8d2 21a8 	ldr.w	r2, [r2, #424]	; 0x1a8
    3b2a:	f042 7280 	orr.w	r2, r2, #16777216	; 0x1000000
    3b2e:	f8c3 21a8 	str.w	r2, [r3, #424]	; 0x1a8
    3b32:	4b10      	ldr	r3, [pc, #64]	; (3b74 <analogin_init+0x98>)
    3b34:	681b      	ldr	r3, [r3, #0]
    3b36:	9305      	str	r3, [sp, #20]
    3b38:	4b0f      	ldr	r3, [pc, #60]	; (3b78 <analogin_init+0x9c>)
    3b3a:	9304      	str	r3, [sp, #16]
    3b3c:	9a05      	ldr	r2, [sp, #20]
    3b3e:	9b04      	ldr	r3, [sp, #16]
    3b40:	4610      	mov	r0, r2
    3b42:	4619      	mov	r1, r3
    3b44:	f7ff ffbc 	bl	3ac0 <div_round_up>
    3b48:	4603      	mov	r3, r0
    3b4a:	3b01      	subs	r3, #1
    3b4c:	9303      	str	r3, [sp, #12]
    3b4e:	4b0b      	ldr	r3, [pc, #44]	; (3b7c <analogin_init+0xa0>)
    3b50:	9a03      	ldr	r2, [sp, #12]
    3b52:	0212      	lsls	r2, r2, #8
    3b54:	f442 1200 	orr.w	r2, r2, #2097152	; 0x200000
    3b58:	601a      	str	r2, [r3, #0]
    3b5a:	9800      	ldr	r0, [sp, #0]
    3b5c:	4902      	ldr	r1, [pc, #8]	; (3b68 <analogin_init+0x8c>)
    3b5e:	f000 fa41 	bl	3fe4 <pinmap_pinout>
    3b62:	b007      	add	sp, #28
    3b64:	f85d fb04 	ldr.w	pc, [sp], #4
    3b68:	0000d9d0 	.word	0x0000d9d0
    3b6c:	0000da3c 	.word	0x0000da3c
    3b70:	400fc000 	.word	0x400fc000
    3b74:	100000d4 	.word	0x100000d4
    3b78:	00c65d40 	.word	0x00c65d40
    3b7c:	40034000 	.word	0x40034000

00003b80 <adc_read>:
    3b80:	b084      	sub	sp, #16
    3b82:	9001      	str	r0, [sp, #4]
    3b84:	4b14      	ldr	r3, [pc, #80]	; (3bd8 <adc_read+0x58>)
    3b86:	4a14      	ldr	r2, [pc, #80]	; (3bd8 <adc_read+0x58>)
    3b88:	6812      	ldr	r2, [r2, #0]
    3b8a:	f022 02ff 	bic.w	r2, r2, #255	; 0xff
    3b8e:	601a      	str	r2, [r3, #0]
    3b90:	4b11      	ldr	r3, [pc, #68]	; (3bd8 <adc_read+0x58>)
    3b92:	4a11      	ldr	r2, [pc, #68]	; (3bd8 <adc_read+0x58>)
    3b94:	6811      	ldr	r1, [r2, #0]
    3b96:	9a01      	ldr	r2, [sp, #4]
    3b98:	7812      	ldrb	r2, [r2, #0]
    3b9a:	2001      	movs	r0, #1
    3b9c:	fa00 f202 	lsl.w	r2, r0, r2
    3ba0:	430a      	orrs	r2, r1
    3ba2:	601a      	str	r2, [r3, #0]
    3ba4:	4b0c      	ldr	r3, [pc, #48]	; (3bd8 <adc_read+0x58>)
    3ba6:	4a0c      	ldr	r2, [pc, #48]	; (3bd8 <adc_read+0x58>)
    3ba8:	6812      	ldr	r2, [r2, #0]
    3baa:	f042 7280 	orr.w	r2, r2, #16777216	; 0x1000000
    3bae:	601a      	str	r2, [r3, #0]
    3bb0:	4b09      	ldr	r3, [pc, #36]	; (3bd8 <adc_read+0x58>)
    3bb2:	685b      	ldr	r3, [r3, #4]
    3bb4:	9303      	str	r3, [sp, #12]
    3bb6:	9b03      	ldr	r3, [sp, #12]
    3bb8:	2b00      	cmp	r3, #0
    3bba:	daf9      	bge.n	3bb0 <adc_read+0x30>
    3bbc:	4b06      	ldr	r3, [pc, #24]	; (3bd8 <adc_read+0x58>)
    3bbe:	4a06      	ldr	r2, [pc, #24]	; (3bd8 <adc_read+0x58>)
    3bc0:	6812      	ldr	r2, [r2, #0]
    3bc2:	f022 7280 	bic.w	r2, r2, #16777216	; 0x1000000
    3bc6:	601a      	str	r2, [r3, #0]
    3bc8:	9b03      	ldr	r3, [sp, #12]
    3bca:	091b      	lsrs	r3, r3, #4
    3bcc:	f3c3 030b 	ubfx	r3, r3, #0, #12
    3bd0:	4618      	mov	r0, r3
    3bd2:	b004      	add	sp, #16
    3bd4:	4770      	bx	lr
    3bd6:	bf00      	nop
    3bd8:	40034000 	.word	0x40034000

00003bdc <order>:
    3bdc:	b084      	sub	sp, #16
    3bde:	9001      	str	r0, [sp, #4]
    3be0:	9100      	str	r1, [sp, #0]
    3be2:	9b01      	ldr	r3, [sp, #4]
    3be4:	681a      	ldr	r2, [r3, #0]
    3be6:	9b00      	ldr	r3, [sp, #0]
    3be8:	681b      	ldr	r3, [r3, #0]
    3bea:	429a      	cmp	r2, r3
    3bec:	d909      	bls.n	3c02 <order+0x26>
    3bee:	9b01      	ldr	r3, [sp, #4]
    3bf0:	681b      	ldr	r3, [r3, #0]
    3bf2:	9303      	str	r3, [sp, #12]
    3bf4:	9b00      	ldr	r3, [sp, #0]
    3bf6:	681a      	ldr	r2, [r3, #0]
    3bf8:	9b01      	ldr	r3, [sp, #4]
    3bfa:	601a      	str	r2, [r3, #0]
    3bfc:	9b00      	ldr	r3, [sp, #0]
    3bfe:	9a03      	ldr	r2, [sp, #12]
    3c00:	601a      	str	r2, [r3, #0]
    3c02:	b004      	add	sp, #16
    3c04:	4770      	bx	lr
    3c06:	bf00      	nop

00003c08 <adc_read_u32>:
    3c08:	b500      	push	{lr}
    3c0a:	b087      	sub	sp, #28
    3c0c:	9001      	str	r0, [sp, #4]
    3c0e:	9801      	ldr	r0, [sp, #4]
    3c10:	f7ff ffb6 	bl	3b80 <adc_read>
    3c14:	4603      	mov	r3, r0
    3c16:	9304      	str	r3, [sp, #16]
    3c18:	9801      	ldr	r0, [sp, #4]
    3c1a:	f7ff ffb1 	bl	3b80 <adc_read>
    3c1e:	4603      	mov	r3, r0
    3c20:	9303      	str	r3, [sp, #12]
    3c22:	9801      	ldr	r0, [sp, #4]
    3c24:	f7ff ffac 	bl	3b80 <adc_read>
    3c28:	4603      	mov	r3, r0
    3c2a:	9302      	str	r3, [sp, #8]
    3c2c:	aa04      	add	r2, sp, #16
    3c2e:	ab03      	add	r3, sp, #12
    3c30:	4610      	mov	r0, r2
    3c32:	4619      	mov	r1, r3
    3c34:	f7ff ffd2 	bl	3bdc <order>
    3c38:	aa03      	add	r2, sp, #12
    3c3a:	ab02      	add	r3, sp, #8
    3c3c:	4610      	mov	r0, r2
    3c3e:	4619      	mov	r1, r3
    3c40:	f7ff ffcc 	bl	3bdc <order>
    3c44:	aa04      	add	r2, sp, #16
    3c46:	ab03      	add	r3, sp, #12
    3c48:	4610      	mov	r0, r2
    3c4a:	4619      	mov	r1, r3
    3c4c:	f7ff ffc6 	bl	3bdc <order>
    3c50:	9b03      	ldr	r3, [sp, #12]
    3c52:	9305      	str	r3, [sp, #20]
    3c54:	9b05      	ldr	r3, [sp, #20]
    3c56:	4618      	mov	r0, r3
    3c58:	b007      	add	sp, #28
    3c5a:	f85d fb04 	ldr.w	pc, [sp], #4
    3c5e:	bf00      	nop

00003c60 <analogin_read>:
    3c60:	b500      	push	{lr}
    3c62:	b085      	sub	sp, #20
    3c64:	9001      	str	r0, [sp, #4]
    3c66:	9801      	ldr	r0, [sp, #4]
    3c68:	f7ff ffce 	bl	3c08 <adc_read_u32>
    3c6c:	9003      	str	r0, [sp, #12]
    3c6e:	9803      	ldr	r0, [sp, #12]
    3c70:	f003 fb06 	bl	7280 <__aeabi_ui2f>
    3c74:	4603      	mov	r3, r0
    3c76:	4618      	mov	r0, r3
    3c78:	4903      	ldr	r1, [pc, #12]	; (3c88 <analogin_read+0x28>)
    3c7a:	f003 fb59 	bl	7330 <__aeabi_fmul>
    3c7e:	4603      	mov	r3, r0
    3c80:	4618      	mov	r0, r3
    3c82:	b005      	add	sp, #20
    3c84:	f85d fb04 	ldr.w	pc, [sp], #4
    3c88:	39800801 	.word	0x39800801

00003c8c <analogout_init>:
    3c8c:	b500      	push	{lr}
    3c8e:	b083      	sub	sp, #12
    3c90:	9001      	str	r0, [sp, #4]
    3c92:	9100      	str	r1, [sp, #0]
    3c94:	9800      	ldr	r0, [sp, #0]
    3c96:	4910      	ldr	r1, [pc, #64]	; (3cd8 <analogout_init+0x4c>)
    3c98:	f000 fa0a 	bl	40b0 <pinmap_peripheral>
    3c9c:	4603      	mov	r3, r0
    3c9e:	b2da      	uxtb	r2, r3
    3ca0:	9b01      	ldr	r3, [sp, #4]
    3ca2:	701a      	strb	r2, [r3, #0]
    3ca4:	9b01      	ldr	r3, [sp, #4]
    3ca6:	781b      	ldrb	r3, [r3, #0]
    3ca8:	2bff      	cmp	r3, #255	; 0xff
    3caa:	d102      	bne.n	3cb2 <analogout_init+0x26>
    3cac:	480b      	ldr	r0, [pc, #44]	; (3cdc <analogout_init+0x50>)
    3cae:	f000 f8d9 	bl	3e64 <error>
    3cb2:	4b0b      	ldr	r3, [pc, #44]	; (3ce0 <analogout_init+0x54>)
    3cb4:	4a0a      	ldr	r2, [pc, #40]	; (3ce0 <analogout_init+0x54>)
    3cb6:	f8d2 21a8 	ldr.w	r2, [r2, #424]	; 0x1a8
    3cba:	f422 0240 	bic.w	r2, r2, #12582912	; 0xc00000
    3cbe:	f8c3 21a8 	str.w	r2, [r3, #424]	; 0x1a8
    3cc2:	9800      	ldr	r0, [sp, #0]
    3cc4:	4904      	ldr	r1, [pc, #16]	; (3cd8 <analogout_init+0x4c>)
    3cc6:	f000 f98d 	bl	3fe4 <pinmap_pinout>
    3cca:	9801      	ldr	r0, [sp, #4]
    3ccc:	2100      	movs	r1, #0
    3cce:	f000 f845 	bl	3d5c <analogout_write_u16>
    3cd2:	b003      	add	sp, #12
    3cd4:	f85d fb04 	ldr.w	pc, [sp], #4
    3cd8:	0000da54 	.word	0x0000da54
    3cdc:	0000da6c 	.word	0x0000da6c
    3ce0:	400fc000 	.word	0x400fc000

00003ce4 <dac_write>:
    3ce4:	b082      	sub	sp, #8
    3ce6:	9001      	str	r0, [sp, #4]
    3ce8:	9b01      	ldr	r3, [sp, #4]
    3cea:	f3c3 0309 	ubfx	r3, r3, #0, #10
    3cee:	9301      	str	r3, [sp, #4]
    3cf0:	4b02      	ldr	r3, [pc, #8]	; (3cfc <dac_write+0x18>)
    3cf2:	9a01      	ldr	r2, [sp, #4]
    3cf4:	0192      	lsls	r2, r2, #6
    3cf6:	601a      	str	r2, [r3, #0]
    3cf8:	b002      	add	sp, #8
    3cfa:	4770      	bx	lr
    3cfc:	4008c000 	.word	0x4008c000

00003d00 <analogout_write>:
    3d00:	b500      	push	{lr}
    3d02:	b083      	sub	sp, #12
    3d04:	9001      	str	r0, [sp, #4]
    3d06:	9100      	str	r1, [sp, #0]
    3d08:	9800      	ldr	r0, [sp, #0]
    3d0a:	f04f 0100 	mov.w	r1, #0
    3d0e:	f003 fcad 	bl	766c <__aeabi_fcmplt>
    3d12:	4603      	mov	r3, r0
    3d14:	2b00      	cmp	r3, #0
    3d16:	d003      	beq.n	3d20 <analogout_write+0x20>
    3d18:	2000      	movs	r0, #0
    3d1a:	f7ff ffe3 	bl	3ce4 <dac_write>
    3d1e:	e018      	b.n	3d52 <analogout_write+0x52>
    3d20:	9800      	ldr	r0, [sp, #0]
    3d22:	f04f 517e 	mov.w	r1, #1065353216	; 0x3f800000
    3d26:	f003 fcbf 	bl	76a8 <__aeabi_fcmpgt>
    3d2a:	4603      	mov	r3, r0
    3d2c:	2b00      	cmp	r3, #0
    3d2e:	d004      	beq.n	3d3a <analogout_write+0x3a>
    3d30:	f240 30ff 	movw	r0, #1023	; 0x3ff
    3d34:	f7ff ffd6 	bl	3ce4 <dac_write>
    3d38:	e00b      	b.n	3d52 <analogout_write+0x52>
    3d3a:	9800      	ldr	r0, [sp, #0]
    3d3c:	4906      	ldr	r1, [pc, #24]	; (3d58 <analogout_write+0x58>)
    3d3e:	f003 faf7 	bl	7330 <__aeabi_fmul>
    3d42:	4603      	mov	r3, r0
    3d44:	4618      	mov	r0, r3
    3d46:	f003 fcb9 	bl	76bc <__aeabi_f2iz>
    3d4a:	4603      	mov	r3, r0
    3d4c:	4618      	mov	r0, r3
    3d4e:	f7ff ffc9 	bl	3ce4 <dac_write>
    3d52:	b003      	add	sp, #12
    3d54:	f85d fb04 	ldr.w	pc, [sp], #4
    3d58:	447fc000 	.word	0x447fc000

00003d5c <analogout_write_u16>:
    3d5c:	b500      	push	{lr}
    3d5e:	b083      	sub	sp, #12
    3d60:	9001      	str	r0, [sp, #4]
    3d62:	460b      	mov	r3, r1
    3d64:	f8ad 3002 	strh.w	r3, [sp, #2]
    3d68:	f8bd 3002 	ldrh.w	r3, [sp, #2]
    3d6c:	099b      	lsrs	r3, r3, #6
    3d6e:	b29b      	uxth	r3, r3
    3d70:	4618      	mov	r0, r3
    3d72:	f7ff ffb7 	bl	3ce4 <dac_write>
    3d76:	b003      	add	sp, #12
    3d78:	f85d fb04 	ldr.w	pc, [sp], #4

00003d7c <SystemInit>:
    3d7c:	4b37      	ldr	r3, [pc, #220]	; (3e5c <SystemInit+0xe0>)
    3d7e:	2220      	movs	r2, #32
    3d80:	f8c3 21a0 	str.w	r2, [r3, #416]	; 0x1a0
    3d84:	4b35      	ldr	r3, [pc, #212]	; (3e5c <SystemInit+0xe0>)
    3d86:	f8d3 31a0 	ldr.w	r3, [r3, #416]	; 0x1a0
    3d8a:	f003 0320 	and.w	r3, r3, #32
    3d8e:	2b00      	cmp	r3, #0
    3d90:	d007      	beq.n	3da2 <SystemInit+0x26>
    3d92:	bf00      	nop
    3d94:	4b31      	ldr	r3, [pc, #196]	; (3e5c <SystemInit+0xe0>)
    3d96:	f8d3 31a0 	ldr.w	r3, [r3, #416]	; 0x1a0
    3d9a:	f003 0340 	and.w	r3, r3, #64	; 0x40
    3d9e:	2b00      	cmp	r3, #0
    3da0:	d0f8      	beq.n	3d94 <SystemInit+0x18>
    3da2:	4b2e      	ldr	r3, [pc, #184]	; (3e5c <SystemInit+0xe0>)
    3da4:	2202      	movs	r2, #2
    3da6:	f8c3 2104 	str.w	r2, [r3, #260]	; 0x104
    3daa:	4b2c      	ldr	r3, [pc, #176]	; (3e5c <SystemInit+0xe0>)
    3dac:	2200      	movs	r2, #0
    3dae:	f8c3 21a8 	str.w	r2, [r3, #424]	; 0x1a8
    3db2:	4b2a      	ldr	r3, [pc, #168]	; (3e5c <SystemInit+0xe0>)
    3db4:	2200      	movs	r2, #0
    3db6:	f8c3 21ac 	str.w	r2, [r3, #428]	; 0x1ac
    3dba:	4b28      	ldr	r3, [pc, #160]	; (3e5c <SystemInit+0xe0>)
    3dbc:	2201      	movs	r2, #1
    3dbe:	f8c3 210c 	str.w	r2, [r3, #268]	; 0x10c
    3dc2:	4b26      	ldr	r3, [pc, #152]	; (3e5c <SystemInit+0xe0>)
    3dc4:	220b      	movs	r2, #11
    3dc6:	f8c3 2084 	str.w	r2, [r3, #132]	; 0x84
    3dca:	4b24      	ldr	r3, [pc, #144]	; (3e5c <SystemInit+0xe0>)
    3dcc:	22aa      	movs	r2, #170	; 0xaa
    3dce:	f8c3 208c 	str.w	r2, [r3, #140]	; 0x8c
    3dd2:	4b22      	ldr	r3, [pc, #136]	; (3e5c <SystemInit+0xe0>)
    3dd4:	2255      	movs	r2, #85	; 0x55
    3dd6:	f8c3 208c 	str.w	r2, [r3, #140]	; 0x8c
    3dda:	4b20      	ldr	r3, [pc, #128]	; (3e5c <SystemInit+0xe0>)
    3ddc:	2201      	movs	r2, #1
    3dde:	f8c3 2080 	str.w	r2, [r3, #128]	; 0x80
    3de2:	4b1e      	ldr	r3, [pc, #120]	; (3e5c <SystemInit+0xe0>)
    3de4:	22aa      	movs	r2, #170	; 0xaa
    3de6:	f8c3 208c 	str.w	r2, [r3, #140]	; 0x8c
    3dea:	4b1c      	ldr	r3, [pc, #112]	; (3e5c <SystemInit+0xe0>)
    3dec:	2255      	movs	r2, #85	; 0x55
    3dee:	f8c3 208c 	str.w	r2, [r3, #140]	; 0x8c
    3df2:	bf00      	nop
    3df4:	4b19      	ldr	r3, [pc, #100]	; (3e5c <SystemInit+0xe0>)
    3df6:	f8d3 3088 	ldr.w	r3, [r3, #136]	; 0x88
    3dfa:	f003 6380 	and.w	r3, r3, #67108864	; 0x4000000
    3dfe:	2b00      	cmp	r3, #0
    3e00:	d0f8      	beq.n	3df4 <SystemInit+0x78>
    3e02:	4b16      	ldr	r3, [pc, #88]	; (3e5c <SystemInit+0xe0>)
    3e04:	2203      	movs	r2, #3
    3e06:	f8c3 2080 	str.w	r2, [r3, #128]	; 0x80
    3e0a:	4b14      	ldr	r3, [pc, #80]	; (3e5c <SystemInit+0xe0>)
    3e0c:	22aa      	movs	r2, #170	; 0xaa
    3e0e:	f8c3 208c 	str.w	r2, [r3, #140]	; 0x8c
    3e12:	4b12      	ldr	r3, [pc, #72]	; (3e5c <SystemInit+0xe0>)
    3e14:	2255      	movs	r2, #85	; 0x55
    3e16:	f8c3 208c 	str.w	r2, [r3, #140]	; 0x8c
    3e1a:	bf00      	nop
    3e1c:	4b0f      	ldr	r3, [pc, #60]	; (3e5c <SystemInit+0xe0>)
    3e1e:	f8d3 3088 	ldr.w	r3, [r3, #136]	; 0x88
    3e22:	f003 7340 	and.w	r3, r3, #50331648	; 0x3000000
    3e26:	2b00      	cmp	r3, #0
    3e28:	d0f8      	beq.n	3e1c <SystemInit+0xa0>
    3e2a:	4b0c      	ldr	r3, [pc, #48]	; (3e5c <SystemInit+0xe0>)
    3e2c:	2205      	movs	r2, #5
    3e2e:	f8c3 2108 	str.w	r2, [r3, #264]	; 0x108
    3e32:	4b0a      	ldr	r3, [pc, #40]	; (3e5c <SystemInit+0xe0>)
    3e34:	4a0a      	ldr	r2, [pc, #40]	; (3e60 <SystemInit+0xe4>)
    3e36:	f8c3 20c4 	str.w	r2, [r3, #196]	; 0xc4
    3e3a:	4b08      	ldr	r3, [pc, #32]	; (3e5c <SystemInit+0xe0>)
    3e3c:	2200      	movs	r2, #0
    3e3e:	f8c3 21c8 	str.w	r2, [r3, #456]	; 0x1c8
    3e42:	4a06      	ldr	r2, [pc, #24]	; (3e5c <SystemInit+0xe0>)
    3e44:	4b05      	ldr	r3, [pc, #20]	; (3e5c <SystemInit+0xe0>)
    3e46:	681b      	ldr	r3, [r3, #0]
    3e48:	f423 4370 	bic.w	r3, r3, #61440	; 0xf000
    3e4c:	f023 033a 	bic.w	r3, r3, #58	; 0x3a
    3e50:	f443 5340 	orr.w	r3, r3, #12288	; 0x3000
    3e54:	f043 033a 	orr.w	r3, r3, #58	; 0x3a
    3e58:	6013      	str	r3, [r2, #0]
    3e5a:	4770      	bx	lr
    3e5c:	400fc000 	.word	0x400fc000
    3e60:	042887de 	.word	0x042887de

00003e64 <error>:
    3e64:	b40f      	push	{r0, r1, r2, r3}
    3e66:	b500      	push	{lr}
    3e68:	b083      	sub	sp, #12
    3e6a:	ab05      	add	r3, sp, #20
    3e6c:	9301      	str	r3, [sp, #4]
    3e6e:	4b05      	ldr	r3, [pc, #20]	; (3e84 <error+0x20>)
    3e70:	681b      	ldr	r3, [r3, #0]
    3e72:	68db      	ldr	r3, [r3, #12]
    3e74:	4618      	mov	r0, r3
    3e76:	9904      	ldr	r1, [sp, #16]
    3e78:	9a01      	ldr	r2, [sp, #4]
    3e7a:	f004 ffd9 	bl	8e30 <vfiprintf>
    3e7e:	2001      	movs	r0, #1
    3e80:	f000 f802 	bl	3e88 <exit>
    3e84:	1000013c 	.word	0x1000013c

00003e88 <exit>:
    3e88:	b500      	push	{lr}
    3e8a:	b083      	sub	sp, #12
    3e8c:	9001      	str	r0, [sp, #4]
    3e8e:	4b0c      	ldr	r3, [pc, #48]	; (3ec0 <exit+0x38>)
    3e90:	681b      	ldr	r3, [r3, #0]
    3e92:	689b      	ldr	r3, [r3, #8]
    3e94:	4618      	mov	r0, r3
    3e96:	f003 fd75 	bl	7984 <fflush>
    3e9a:	4b09      	ldr	r3, [pc, #36]	; (3ec0 <exit+0x38>)
    3e9c:	681b      	ldr	r3, [r3, #0]
    3e9e:	68db      	ldr	r3, [r3, #12]
    3ea0:	4618      	mov	r0, r3
    3ea2:	f003 fd6f 	bl	7984 <fflush>
    3ea6:	f000 f897 	bl	3fd8 <mbed_interface_connected>
    3eaa:	4603      	mov	r3, r0
    3eac:	2b00      	cmp	r3, #0
    3eae:	d001      	beq.n	3eb4 <exit+0x2c>
    3eb0:	f000 f930 	bl	4114 <semihost_exit>
    3eb4:	9b01      	ldr	r3, [sp, #4]
    3eb6:	2b00      	cmp	r3, #0
    3eb8:	d001      	beq.n	3ebe <exit+0x36>
    3eba:	f002 fa2b 	bl	6314 <mbed_die>
    3ebe:	e7fe      	b.n	3ebe <exit+0x36>
    3ec0:	1000013c 	.word	0x1000013c

00003ec4 <gpio_write>:
    3ec4:	b082      	sub	sp, #8
    3ec6:	9001      	str	r0, [sp, #4]
    3ec8:	9100      	str	r1, [sp, #0]
    3eca:	9b00      	ldr	r3, [sp, #0]
    3ecc:	2b00      	cmp	r3, #0
    3ece:	d005      	beq.n	3edc <gpio_write+0x18>
    3ed0:	9b01      	ldr	r3, [sp, #4]
    3ed2:	68db      	ldr	r3, [r3, #12]
    3ed4:	9a01      	ldr	r2, [sp, #4]
    3ed6:	6852      	ldr	r2, [r2, #4]
    3ed8:	601a      	str	r2, [r3, #0]
    3eda:	e004      	b.n	3ee6 <gpio_write+0x22>
    3edc:	9b01      	ldr	r3, [sp, #4]
    3ede:	691b      	ldr	r3, [r3, #16]
    3ee0:	9a01      	ldr	r2, [sp, #4]
    3ee2:	6852      	ldr	r2, [r2, #4]
    3ee4:	601a      	str	r2, [r3, #0]
    3ee6:	b002      	add	sp, #8
    3ee8:	4770      	bx	lr
    3eea:	bf00      	nop

00003eec <_gpio_init_in>:
    3eec:	b500      	push	{lr}
    3eee:	b085      	sub	sp, #20
    3ef0:	9003      	str	r0, [sp, #12]
    3ef2:	9102      	str	r1, [sp, #8]
    3ef4:	4613      	mov	r3, r2
    3ef6:	f88d 3007 	strb.w	r3, [sp, #7]
    3efa:	9803      	ldr	r0, [sp, #12]
    3efc:	9902      	ldr	r1, [sp, #8]
    3efe:	f000 ffff 	bl	4f00 <gpio_init>
    3f02:	9b02      	ldr	r3, [sp, #8]
    3f04:	f1b3 3fff 	cmp.w	r3, #4294967295
    3f08:	d009      	beq.n	3f1e <_gpio_init_in+0x32>
    3f0a:	9803      	ldr	r0, [sp, #12]
    3f0c:	2100      	movs	r1, #0
    3f0e:	f001 f835 	bl	4f7c <gpio_dir>
    3f12:	f89d 3007 	ldrb.w	r3, [sp, #7]
    3f16:	9803      	ldr	r0, [sp, #12]
    3f18:	4619      	mov	r1, r3
    3f1a:	f001 f81d 	bl	4f58 <gpio_mode>
    3f1e:	b005      	add	sp, #20
    3f20:	f85d fb04 	ldr.w	pc, [sp], #4

00003f24 <_gpio_init_out>:
    3f24:	b500      	push	{lr}
    3f26:	b085      	sub	sp, #20
    3f28:	9003      	str	r0, [sp, #12]
    3f2a:	9102      	str	r1, [sp, #8]
    3f2c:	9300      	str	r3, [sp, #0]
    3f2e:	4613      	mov	r3, r2
    3f30:	f88d 3007 	strb.w	r3, [sp, #7]
    3f34:	9803      	ldr	r0, [sp, #12]
    3f36:	9902      	ldr	r1, [sp, #8]
    3f38:	f000 ffe2 	bl	4f00 <gpio_init>
    3f3c:	9b02      	ldr	r3, [sp, #8]
    3f3e:	f1b3 3fff 	cmp.w	r3, #4294967295
    3f42:	d00d      	beq.n	3f60 <_gpio_init_out+0x3c>
    3f44:	9803      	ldr	r0, [sp, #12]
    3f46:	9900      	ldr	r1, [sp, #0]
    3f48:	f7ff ffbc 	bl	3ec4 <gpio_write>
    3f4c:	9803      	ldr	r0, [sp, #12]
    3f4e:	2101      	movs	r1, #1
    3f50:	f001 f814 	bl	4f7c <gpio_dir>
    3f54:	f89d 3007 	ldrb.w	r3, [sp, #7]
    3f58:	9803      	ldr	r0, [sp, #12]
    3f5a:	4619      	mov	r1, r3
    3f5c:	f000 fffc 	bl	4f58 <gpio_mode>
    3f60:	b005      	add	sp, #20
    3f62:	f85d fb04 	ldr.w	pc, [sp], #4
    3f66:	bf00      	nop

00003f68 <gpio_init_in>:
    3f68:	b500      	push	{lr}
    3f6a:	b083      	sub	sp, #12
    3f6c:	9001      	str	r0, [sp, #4]
    3f6e:	9100      	str	r1, [sp, #0]
    3f70:	9801      	ldr	r0, [sp, #4]
    3f72:	9900      	ldr	r1, [sp, #0]
    3f74:	2203      	movs	r2, #3
    3f76:	f000 f803 	bl	3f80 <gpio_init_in_ex>
    3f7a:	b003      	add	sp, #12
    3f7c:	f85d fb04 	ldr.w	pc, [sp], #4

00003f80 <gpio_init_in_ex>:
    3f80:	b500      	push	{lr}
    3f82:	b085      	sub	sp, #20
    3f84:	9003      	str	r0, [sp, #12]
    3f86:	9102      	str	r1, [sp, #8]
    3f88:	4613      	mov	r3, r2
    3f8a:	f88d 3007 	strb.w	r3, [sp, #7]
    3f8e:	f89d 3007 	ldrb.w	r3, [sp, #7]
    3f92:	9803      	ldr	r0, [sp, #12]
    3f94:	9902      	ldr	r1, [sp, #8]
    3f96:	461a      	mov	r2, r3
    3f98:	f7ff ffa8 	bl	3eec <_gpio_init_in>
    3f9c:	b005      	add	sp, #20
    3f9e:	f85d fb04 	ldr.w	pc, [sp], #4
    3fa2:	bf00      	nop

00003fa4 <gpio_init_out>:
    3fa4:	b500      	push	{lr}
    3fa6:	b083      	sub	sp, #12
    3fa8:	9001      	str	r0, [sp, #4]
    3faa:	9100      	str	r1, [sp, #0]
    3fac:	9801      	ldr	r0, [sp, #4]
    3fae:	9900      	ldr	r1, [sp, #0]
    3fb0:	2200      	movs	r2, #0
    3fb2:	f000 f803 	bl	3fbc <gpio_init_out_ex>
    3fb6:	b003      	add	sp, #12
    3fb8:	f85d fb04 	ldr.w	pc, [sp], #4

00003fbc <gpio_init_out_ex>:
    3fbc:	b500      	push	{lr}
    3fbe:	b085      	sub	sp, #20
    3fc0:	9003      	str	r0, [sp, #12]
    3fc2:	9102      	str	r1, [sp, #8]
    3fc4:	9201      	str	r2, [sp, #4]
    3fc6:	9803      	ldr	r0, [sp, #12]
    3fc8:	9902      	ldr	r1, [sp, #8]
    3fca:	2202      	movs	r2, #2
    3fcc:	9b01      	ldr	r3, [sp, #4]
    3fce:	f7ff ffa9 	bl	3f24 <_gpio_init_out>
    3fd2:	b005      	add	sp, #20
    3fd4:	f85d fb04 	ldr.w	pc, [sp], #4

00003fd8 <mbed_interface_connected>:
    3fd8:	b508      	push	{r3, lr}
    3fda:	f7fd f8ed 	bl	11b8 <__wrap_semihost_connected>
    3fde:	4603      	mov	r3, r0
    3fe0:	4618      	mov	r0, r3
    3fe2:	bd08      	pop	{r3, pc}

00003fe4 <pinmap_pinout>:
    3fe4:	b500      	push	{lr}
    3fe6:	b083      	sub	sp, #12
    3fe8:	9001      	str	r0, [sp, #4]
    3fea:	9100      	str	r1, [sp, #0]
    3fec:	9b01      	ldr	r3, [sp, #4]
    3fee:	f1b3 3fff 	cmp.w	r3, #4294967295
    3ff2:	d100      	bne.n	3ff6 <pinmap_pinout+0x12>
    3ff4:	e01b      	b.n	402e <pinmap_pinout+0x4a>
    3ff6:	e012      	b.n	401e <pinmap_pinout+0x3a>
    3ff8:	9b00      	ldr	r3, [sp, #0]
    3ffa:	681a      	ldr	r2, [r3, #0]
    3ffc:	9b01      	ldr	r3, [sp, #4]
    3ffe:	429a      	cmp	r2, r3
    4000:	d10a      	bne.n	4018 <pinmap_pinout+0x34>
    4002:	9b00      	ldr	r3, [sp, #0]
    4004:	689b      	ldr	r3, [r3, #8]
    4006:	9801      	ldr	r0, [sp, #4]
    4008:	4619      	mov	r1, r3
    400a:	f001 f9df 	bl	53cc <pin_function>
    400e:	9801      	ldr	r0, [sp, #4]
    4010:	2102      	movs	r1, #2
    4012:	f001 fa11 	bl	5438 <pin_mode>
    4016:	e00a      	b.n	402e <pinmap_pinout+0x4a>
    4018:	9b00      	ldr	r3, [sp, #0]
    401a:	330c      	adds	r3, #12
    401c:	9300      	str	r3, [sp, #0]
    401e:	9b00      	ldr	r3, [sp, #0]
    4020:	681b      	ldr	r3, [r3, #0]
    4022:	f1b3 3fff 	cmp.w	r3, #4294967295
    4026:	d1e7      	bne.n	3ff8 <pinmap_pinout+0x14>
    4028:	4802      	ldr	r0, [pc, #8]	; (4034 <pinmap_pinout+0x50>)
    402a:	f7ff ff1b 	bl	3e64 <error>
    402e:	b003      	add	sp, #12
    4030:	f85d fb04 	ldr.w	pc, [sp], #4
    4034:	0000da84 	.word	0x0000da84

00004038 <pinmap_merge>:
    4038:	b500      	push	{lr}
    403a:	b083      	sub	sp, #12
    403c:	9001      	str	r0, [sp, #4]
    403e:	9100      	str	r1, [sp, #0]
    4040:	9a01      	ldr	r2, [sp, #4]
    4042:	9b00      	ldr	r3, [sp, #0]
    4044:	429a      	cmp	r2, r3
    4046:	d101      	bne.n	404c <pinmap_merge+0x14>
    4048:	9b01      	ldr	r3, [sp, #4]
    404a:	e010      	b.n	406e <pinmap_merge+0x36>
    404c:	9b01      	ldr	r3, [sp, #4]
    404e:	f1b3 3fff 	cmp.w	r3, #4294967295
    4052:	d101      	bne.n	4058 <pinmap_merge+0x20>
    4054:	9b00      	ldr	r3, [sp, #0]
    4056:	e00a      	b.n	406e <pinmap_merge+0x36>
    4058:	9b00      	ldr	r3, [sp, #0]
    405a:	f1b3 3fff 	cmp.w	r3, #4294967295
    405e:	d101      	bne.n	4064 <pinmap_merge+0x2c>
    4060:	9b01      	ldr	r3, [sp, #4]
    4062:	e004      	b.n	406e <pinmap_merge+0x36>
    4064:	4804      	ldr	r0, [pc, #16]	; (4078 <pinmap_merge+0x40>)
    4066:	f7ff fefd 	bl	3e64 <error>
    406a:	f04f 33ff 	mov.w	r3, #4294967295
    406e:	4618      	mov	r0, r3
    4070:	b003      	add	sp, #12
    4072:	f85d fb04 	ldr.w	pc, [sp], #4
    4076:	bf00      	nop
    4078:	0000da98 	.word	0x0000da98

0000407c <pinmap_find_peripheral>:
    407c:	b082      	sub	sp, #8
    407e:	9001      	str	r0, [sp, #4]
    4080:	9100      	str	r1, [sp, #0]
    4082:	e00a      	b.n	409a <pinmap_find_peripheral+0x1e>
    4084:	9b00      	ldr	r3, [sp, #0]
    4086:	681a      	ldr	r2, [r3, #0]
    4088:	9b01      	ldr	r3, [sp, #4]
    408a:	429a      	cmp	r2, r3
    408c:	d102      	bne.n	4094 <pinmap_find_peripheral+0x18>
    408e:	9b00      	ldr	r3, [sp, #0]
    4090:	685b      	ldr	r3, [r3, #4]
    4092:	e009      	b.n	40a8 <pinmap_find_peripheral+0x2c>
    4094:	9b00      	ldr	r3, [sp, #0]
    4096:	330c      	adds	r3, #12
    4098:	9300      	str	r3, [sp, #0]
    409a:	9b00      	ldr	r3, [sp, #0]
    409c:	681b      	ldr	r3, [r3, #0]
    409e:	f1b3 3fff 	cmp.w	r3, #4294967295
    40a2:	d1ef      	bne.n	4084 <pinmap_find_peripheral+0x8>
    40a4:	f04f 33ff 	mov.w	r3, #4294967295
    40a8:	4618      	mov	r0, r3
    40aa:	b002      	add	sp, #8
    40ac:	4770      	bx	lr
    40ae:	bf00      	nop

000040b0 <pinmap_peripheral>:
    40b0:	b500      	push	{lr}
    40b2:	b085      	sub	sp, #20
    40b4:	9001      	str	r0, [sp, #4]
    40b6:	9100      	str	r1, [sp, #0]
    40b8:	f04f 33ff 	mov.w	r3, #4294967295
    40bc:	9303      	str	r3, [sp, #12]
    40be:	9b01      	ldr	r3, [sp, #4]
    40c0:	f1b3 3fff 	cmp.w	r3, #4294967295
    40c4:	d102      	bne.n	40cc <pinmap_peripheral+0x1c>
    40c6:	f04f 33ff 	mov.w	r3, #4294967295
    40ca:	e00c      	b.n	40e6 <pinmap_peripheral+0x36>
    40cc:	9801      	ldr	r0, [sp, #4]
    40ce:	9900      	ldr	r1, [sp, #0]
    40d0:	f7ff ffd4 	bl	407c <pinmap_find_peripheral>
    40d4:	9003      	str	r0, [sp, #12]
    40d6:	9b03      	ldr	r3, [sp, #12]
    40d8:	f1b3 3fff 	cmp.w	r3, #4294967295
    40dc:	d102      	bne.n	40e4 <pinmap_peripheral+0x34>
    40de:	4804      	ldr	r0, [pc, #16]	; (40f0 <pinmap_peripheral+0x40>)
    40e0:	f7ff fec0 	bl	3e64 <error>
    40e4:	9b03      	ldr	r3, [sp, #12]
    40e6:	4618      	mov	r0, r3
    40e8:	b005      	add	sp, #20
    40ea:	f85d fb04 	ldr.w	pc, [sp], #4
    40ee:	bf00      	nop
    40f0:	0000daac 	.word	0x0000daac

000040f4 <__semihost>:
    40f4:	b530      	push	{r4, r5, lr}
    40f6:	b085      	sub	sp, #20
    40f8:	9001      	str	r0, [sp, #4]
    40fa:	9100      	str	r1, [sp, #0]
    40fc:	9c01      	ldr	r4, [sp, #4]
    40fe:	9d00      	ldr	r5, [sp, #0]
    4100:	4620      	mov	r0, r4
    4102:	4629      	mov	r1, r5
    4104:	beab      	bkpt	0x00ab
    4106:	4604      	mov	r4, r0
    4108:	9403      	str	r4, [sp, #12]
    410a:	9b03      	ldr	r3, [sp, #12]
    410c:	4618      	mov	r0, r3
    410e:	b005      	add	sp, #20
    4110:	bd30      	pop	{r4, r5, pc}
    4112:	bf00      	nop

00004114 <semihost_exit>:
    4114:	b500      	push	{lr}
    4116:	b085      	sub	sp, #20
    4118:	466b      	mov	r3, sp
    411a:	2018      	movs	r0, #24
    411c:	4619      	mov	r1, r3
    411e:	f7ff ffe9 	bl	40f4 <__semihost>
    4122:	4603      	mov	r3, r0
    4124:	4618      	mov	r0, r3
    4126:	b005      	add	sp, #20
    4128:	f85d fb04 	ldr.w	pc, [sp], #4

0000412c <wait>:
    412c:	b500      	push	{lr}
    412e:	b083      	sub	sp, #12
    4130:	9001      	str	r0, [sp, #4]
    4132:	9801      	ldr	r0, [sp, #4]
    4134:	4906      	ldr	r1, [pc, #24]	; (4150 <wait+0x24>)
    4136:	f003 f8fb 	bl	7330 <__aeabi_fmul>
    413a:	4603      	mov	r3, r0
    413c:	4618      	mov	r0, r3
    413e:	f003 fabd 	bl	76bc <__aeabi_f2iz>
    4142:	4603      	mov	r3, r0
    4144:	4618      	mov	r0, r3
    4146:	f000 f813 	bl	4170 <wait_us>
    414a:	b003      	add	sp, #12
    414c:	f85d fb04 	ldr.w	pc, [sp], #4
    4150:	49742400 	.word	0x49742400

00004154 <wait_ms>:
    4154:	b500      	push	{lr}
    4156:	b083      	sub	sp, #12
    4158:	9001      	str	r0, [sp, #4]
    415a:	9b01      	ldr	r3, [sp, #4]
    415c:	f44f 727a 	mov.w	r2, #1000	; 0x3e8
    4160:	fb02 f303 	mul.w	r3, r2, r3
    4164:	4618      	mov	r0, r3
    4166:	f000 f803 	bl	4170 <wait_us>
    416a:	b003      	add	sp, #12
    416c:	f85d fb04 	ldr.w	pc, [sp], #4

00004170 <wait_us>:
    4170:	b500      	push	{lr}
    4172:	b085      	sub	sp, #20
    4174:	9001      	str	r0, [sp, #4]
    4176:	f002 f853 	bl	6220 <us_ticker_read>
    417a:	9003      	str	r0, [sp, #12]
    417c:	bf00      	nop
    417e:	f002 f84f 	bl	6220 <us_ticker_read>
    4182:	4602      	mov	r2, r0
    4184:	9b03      	ldr	r3, [sp, #12]
    4186:	1ad2      	subs	r2, r2, r3
    4188:	9b01      	ldr	r3, [sp, #4]
    418a:	429a      	cmp	r2, r3
    418c:	d3f7      	bcc.n	417e <wait_us+0xe>
    418e:	b005      	add	sp, #20
    4190:	f85d fb04 	ldr.w	pc, [sp], #4

00004194 <mbed::FunctionPointer::FunctionPointer(void (*)())>:
    4194:	b500      	push	{lr}
    4196:	b083      	sub	sp, #12
    4198:	9001      	str	r0, [sp, #4]
    419a:	9100      	str	r1, [sp, #0]
    419c:	9b01      	ldr	r3, [sp, #4]
    419e:	2200      	movs	r2, #0
    41a0:	601a      	str	r2, [r3, #0]
    41a2:	9b01      	ldr	r3, [sp, #4]
    41a4:	2200      	movs	r2, #0
    41a6:	605a      	str	r2, [r3, #4]
    41a8:	9b01      	ldr	r3, [sp, #4]
    41aa:	2200      	movs	r2, #0
    41ac:	619a      	str	r2, [r3, #24]
    41ae:	9801      	ldr	r0, [sp, #4]
    41b0:	9900      	ldr	r1, [sp, #0]
    41b2:	f000 f805 	bl	41c0 <mbed::FunctionPointer::attach(void (*)())>
    41b6:	9b01      	ldr	r3, [sp, #4]
    41b8:	4618      	mov	r0, r3
    41ba:	b003      	add	sp, #12
    41bc:	f85d fb04 	ldr.w	pc, [sp], #4

000041c0 <mbed::FunctionPointer::attach(void (*)())>:
    41c0:	b082      	sub	sp, #8
    41c2:	9001      	str	r0, [sp, #4]
    41c4:	9100      	str	r1, [sp, #0]
    41c6:	9b01      	ldr	r3, [sp, #4]
    41c8:	9a00      	ldr	r2, [sp, #0]
    41ca:	601a      	str	r2, [r3, #0]
    41cc:	9b01      	ldr	r3, [sp, #4]
    41ce:	2200      	movs	r2, #0
    41d0:	605a      	str	r2, [r3, #4]
    41d2:	b002      	add	sp, #8
    41d4:	4770      	bx	lr
    41d6:	bf00      	nop

000041d8 <mbed::FunctionPointer::call()>:
    41d8:	b500      	push	{lr}
    41da:	b083      	sub	sp, #12
    41dc:	9001      	str	r0, [sp, #4]
    41de:	9b01      	ldr	r3, [sp, #4]
    41e0:	681b      	ldr	r3, [r3, #0]
    41e2:	2b00      	cmp	r3, #0
    41e4:	d003      	beq.n	41ee <mbed::FunctionPointer::call()+0x16>
    41e6:	9b01      	ldr	r3, [sp, #4]
    41e8:	681b      	ldr	r3, [r3, #0]
    41ea:	4798      	blx	r3
    41ec:	e00c      	b.n	4208 <mbed::FunctionPointer::call()+0x30>
    41ee:	9b01      	ldr	r3, [sp, #4]
    41f0:	685b      	ldr	r3, [r3, #4]
    41f2:	2b00      	cmp	r3, #0
    41f4:	d008      	beq.n	4208 <mbed::FunctionPointer::call()+0x30>
    41f6:	9b01      	ldr	r3, [sp, #4]
    41f8:	699b      	ldr	r3, [r3, #24]
    41fa:	9a01      	ldr	r2, [sp, #4]
    41fc:	6851      	ldr	r1, [r2, #4]
    41fe:	9a01      	ldr	r2, [sp, #4]
    4200:	3208      	adds	r2, #8
    4202:	4608      	mov	r0, r1
    4204:	4611      	mov	r1, r2
    4206:	4798      	blx	r3
    4208:	b003      	add	sp, #12
    420a:	f85d fb04 	ldr.w	pc, [sp], #4
    420e:	bf00      	nop

00004210 <mbed::InterruptIn::InterruptIn(PinName)>:
    4210:	b500      	push	{lr}
    4212:	b083      	sub	sp, #12
    4214:	9001      	str	r0, [sp, #4]
    4216:	9100      	str	r1, [sp, #0]
    4218:	9b01      	ldr	r3, [sp, #4]
    421a:	4a1e      	ldr	r2, [pc, #120]	; (4294 <mbed::InterruptIn::InterruptIn(PinName)+0x84>)
    421c:	601a      	str	r2, [r3, #0]
    421e:	9b01      	ldr	r3, [sp, #4]
    4220:	2200      	movs	r2, #0
    4222:	605a      	str	r2, [r3, #4]
    4224:	9b01      	ldr	r3, [sp, #4]
    4226:	2200      	movs	r2, #0
    4228:	609a      	str	r2, [r3, #8]
    422a:	9b01      	ldr	r3, [sp, #4]
    422c:	2200      	movs	r2, #0
    422e:	60da      	str	r2, [r3, #12]
    4230:	9b01      	ldr	r3, [sp, #4]
    4232:	2200      	movs	r2, #0
    4234:	611a      	str	r2, [r3, #16]
    4236:	9b01      	ldr	r3, [sp, #4]
    4238:	2200      	movs	r2, #0
    423a:	615a      	str	r2, [r3, #20]
    423c:	9b01      	ldr	r3, [sp, #4]
    423e:	2200      	movs	r2, #0
    4240:	619a      	str	r2, [r3, #24]
    4242:	9b01      	ldr	r3, [sp, #4]
    4244:	2200      	movs	r2, #0
    4246:	61da      	str	r2, [r3, #28]
    4248:	9b01      	ldr	r3, [sp, #4]
    424a:	2200      	movs	r2, #0
    424c:	621a      	str	r2, [r3, #32]
    424e:	9b01      	ldr	r3, [sp, #4]
    4250:	2200      	movs	r2, #0
    4252:	625a      	str	r2, [r3, #36]	; 0x24
    4254:	9b01      	ldr	r3, [sp, #4]
    4256:	3328      	adds	r3, #40	; 0x28
    4258:	4618      	mov	r0, r3
    425a:	2100      	movs	r1, #0
    425c:	f7ff ff9a 	bl	4194 <mbed::FunctionPointer::FunctionPointer(void (*)())>
    4260:	9b01      	ldr	r3, [sp, #4]
    4262:	3344      	adds	r3, #68	; 0x44
    4264:	4618      	mov	r0, r3
    4266:	2100      	movs	r1, #0
    4268:	f7ff ff94 	bl	4194 <mbed::FunctionPointer::FunctionPointer(void (*)())>
    426c:	9b01      	ldr	r3, [sp, #4]
    426e:	f103 021c 	add.w	r2, r3, #28
    4272:	9b01      	ldr	r3, [sp, #4]
    4274:	4610      	mov	r0, r2
    4276:	9900      	ldr	r1, [sp, #0]
    4278:	4a07      	ldr	r2, [pc, #28]	; (4298 <mbed::InterruptIn::InterruptIn(PinName)+0x88>)
    427a:	f000 ffa1 	bl	51c0 <gpio_irq_init>
    427e:	9b01      	ldr	r3, [sp, #4]
    4280:	3304      	adds	r3, #4
    4282:	4618      	mov	r0, r3
    4284:	9900      	ldr	r1, [sp, #0]
    4286:	f7ff fe6f 	bl	3f68 <gpio_init_in>
    428a:	9b01      	ldr	r3, [sp, #4]
    428c:	4618      	mov	r0, r3
    428e:	b003      	add	sp, #12
    4290:	f85d fb04 	ldr.w	pc, [sp], #4
    4294:	0000dad8 	.word	0x0000dad8
    4298:	00004369 	.word	0x00004369

0000429c <mbed::InterruptIn::~InterruptIn()>:
    429c:	b500      	push	{lr}
    429e:	b083      	sub	sp, #12
    42a0:	9001      	str	r0, [sp, #4]
    42a2:	9b01      	ldr	r3, [sp, #4]
    42a4:	4a08      	ldr	r2, [pc, #32]	; (42c8 <mbed::InterruptIn::~InterruptIn()+0x2c>)
    42a6:	601a      	str	r2, [r3, #0]
    42a8:	9b01      	ldr	r3, [sp, #4]
    42aa:	331c      	adds	r3, #28
    42ac:	4618      	mov	r0, r3
    42ae:	f000 ffdb 	bl	5268 <gpio_irq_free>
    42b2:	2300      	movs	r3, #0
    42b4:	2b00      	cmp	r3, #0
    42b6:	d002      	beq.n	42be <mbed::InterruptIn::~InterruptIn()+0x22>
    42b8:	9801      	ldr	r0, [sp, #4]
    42ba:	f002 fadf 	bl	687c <operator delete(void*)>
    42be:	9b01      	ldr	r3, [sp, #4]
    42c0:	4618      	mov	r0, r3
    42c2:	b003      	add	sp, #12
    42c4:	f85d fb04 	ldr.w	pc, [sp], #4
    42c8:	0000dad8 	.word	0x0000dad8

000042cc <mbed::InterruptIn::~InterruptIn()>:
    42cc:	b500      	push	{lr}
    42ce:	b083      	sub	sp, #12
    42d0:	9001      	str	r0, [sp, #4]
    42d2:	9801      	ldr	r0, [sp, #4]
    42d4:	f7ff ffe2 	bl	429c <mbed::InterruptIn::~InterruptIn()>
    42d8:	9801      	ldr	r0, [sp, #4]
    42da:	f002 facf 	bl	687c <operator delete(void*)>
    42de:	9b01      	ldr	r3, [sp, #4]
    42e0:	4618      	mov	r0, r3
    42e2:	b003      	add	sp, #12
    42e4:	f85d fb04 	ldr.w	pc, [sp], #4

000042e8 <mbed::InterruptIn::rise(void (*)())>:
    42e8:	b500      	push	{lr}
    42ea:	b083      	sub	sp, #12
    42ec:	9001      	str	r0, [sp, #4]
    42ee:	9100      	str	r1, [sp, #0]
    42f0:	9b00      	ldr	r3, [sp, #0]
    42f2:	2b00      	cmp	r3, #0
    42f4:	d00d      	beq.n	4312 <mbed::InterruptIn::rise(void (*)())+0x2a>
    42f6:	9b01      	ldr	r3, [sp, #4]
    42f8:	3328      	adds	r3, #40	; 0x28
    42fa:	4618      	mov	r0, r3
    42fc:	9900      	ldr	r1, [sp, #0]
    42fe:	f7ff ff5f 	bl	41c0 <mbed::FunctionPointer::attach(void (*)())>
    4302:	9b01      	ldr	r3, [sp, #4]
    4304:	331c      	adds	r3, #28
    4306:	4618      	mov	r0, r3
    4308:	2101      	movs	r1, #1
    430a:	2201      	movs	r2, #1
    430c:	f000 ffb8 	bl	5280 <gpio_irq_set>
    4310:	e006      	b.n	4320 <mbed::InterruptIn::rise(void (*)())+0x38>
    4312:	9b01      	ldr	r3, [sp, #4]
    4314:	331c      	adds	r3, #28
    4316:	4618      	mov	r0, r3
    4318:	2101      	movs	r1, #1
    431a:	2200      	movs	r2, #0
    431c:	f000 ffb0 	bl	5280 <gpio_irq_set>
    4320:	b003      	add	sp, #12
    4322:	f85d fb04 	ldr.w	pc, [sp], #4
    4326:	bf00      	nop

00004328 <mbed::InterruptIn::fall(void (*)())>:
    4328:	b500      	push	{lr}
    432a:	b083      	sub	sp, #12
    432c:	9001      	str	r0, [sp, #4]
    432e:	9100      	str	r1, [sp, #0]
    4330:	9b00      	ldr	r3, [sp, #0]
    4332:	2b00      	cmp	r3, #0
    4334:	d00d      	beq.n	4352 <mbed::InterruptIn::fall(void (*)())+0x2a>
    4336:	9b01      	ldr	r3, [sp, #4]
    4338:	3344      	adds	r3, #68	; 0x44
    433a:	4618      	mov	r0, r3
    433c:	9900      	ldr	r1, [sp, #0]
    433e:	f7ff ff3f 	bl	41c0 <mbed::FunctionPointer::attach(void (*)())>
    4342:	9b01      	ldr	r3, [sp, #4]
    4344:	331c      	adds	r3, #28
    4346:	4618      	mov	r0, r3
    4348:	2102      	movs	r1, #2
    434a:	2201      	movs	r2, #1
    434c:	f000 ff98 	bl	5280 <gpio_irq_set>
    4350:	e006      	b.n	4360 <mbed::InterruptIn::fall(void (*)())+0x38>
    4352:	9b01      	ldr	r3, [sp, #4]
    4354:	331c      	adds	r3, #28
    4356:	4618      	mov	r0, r3
    4358:	2102      	movs	r1, #2
    435a:	2200      	movs	r2, #0
    435c:	f000 ff90 	bl	5280 <gpio_irq_set>
    4360:	b003      	add	sp, #12
    4362:	f85d fb04 	ldr.w	pc, [sp], #4
    4366:	bf00      	nop

00004368 <mbed::InterruptIn::_irq_handler(unsigned long, gpio_irq_event)>:
    4368:	b500      	push	{lr}
    436a:	b085      	sub	sp, #20
    436c:	9001      	str	r0, [sp, #4]
    436e:	460b      	mov	r3, r1
    4370:	f88d 3003 	strb.w	r3, [sp, #3]
    4374:	9b01      	ldr	r3, [sp, #4]
    4376:	9303      	str	r3, [sp, #12]
    4378:	f89d 3003 	ldrb.w	r3, [sp, #3]
    437c:	2b01      	cmp	r3, #1
    437e:	d003      	beq.n	4388 <mbed::InterruptIn::_irq_handler(unsigned long, gpio_irq_event)+0x20>
    4380:	2b02      	cmp	r3, #2
    4382:	d007      	beq.n	4394 <mbed::InterruptIn::_irq_handler(unsigned long, gpio_irq_event)+0x2c>
    4384:	2b00      	cmp	r3, #0
    4386:	e00b      	b.n	43a0 <mbed::InterruptIn::_irq_handler(unsigned long, gpio_irq_event)+0x38>
    4388:	9b03      	ldr	r3, [sp, #12]
    438a:	3328      	adds	r3, #40	; 0x28
    438c:	4618      	mov	r0, r3
    438e:	f7ff ff23 	bl	41d8 <mbed::FunctionPointer::call()>
    4392:	e005      	b.n	43a0 <mbed::InterruptIn::_irq_handler(unsigned long, gpio_irq_event)+0x38>
    4394:	9b03      	ldr	r3, [sp, #12]
    4396:	3344      	adds	r3, #68	; 0x44
    4398:	4618      	mov	r0, r3
    439a:	f7ff ff1d 	bl	41d8 <mbed::FunctionPointer::call()>
    439e:	bf00      	nop
    43a0:	b005      	add	sp, #20
    43a2:	f85d fb04 	ldr.w	pc, [sp], #4
    43a6:	bf00      	nop

000043a8 <mbed::FileHandle::flen()>:
    43a8:	b500      	push	{lr}
    43aa:	b085      	sub	sp, #20
    43ac:	9001      	str	r0, [sp, #4]
    43ae:	9b01      	ldr	r3, [sp, #4]
    43b0:	681b      	ldr	r3, [r3, #0]
    43b2:	3310      	adds	r3, #16
    43b4:	681b      	ldr	r3, [r3, #0]
    43b6:	9801      	ldr	r0, [sp, #4]
    43b8:	2100      	movs	r1, #0
    43ba:	2201      	movs	r2, #1
    43bc:	4798      	blx	r3
    43be:	9003      	str	r0, [sp, #12]
    43c0:	9b03      	ldr	r3, [sp, #12]
    43c2:	f1b3 3fff 	cmp.w	r3, #4294967295
    43c6:	d102      	bne.n	43ce <mbed::FileHandle::flen()+0x26>
    43c8:	f04f 33ff 	mov.w	r3, #4294967295
    43cc:	e011      	b.n	43f2 <mbed::FileHandle::flen()+0x4a>
    43ce:	9b01      	ldr	r3, [sp, #4]
    43d0:	681b      	ldr	r3, [r3, #0]
    43d2:	3310      	adds	r3, #16
    43d4:	681b      	ldr	r3, [r3, #0]
    43d6:	9801      	ldr	r0, [sp, #4]
    43d8:	2100      	movs	r1, #0
    43da:	2202      	movs	r2, #2
    43dc:	4798      	blx	r3
    43de:	9002      	str	r0, [sp, #8]
    43e0:	9b01      	ldr	r3, [sp, #4]
    43e2:	681b      	ldr	r3, [r3, #0]
    43e4:	3310      	adds	r3, #16
    43e6:	681b      	ldr	r3, [r3, #0]
    43e8:	9801      	ldr	r0, [sp, #4]
    43ea:	9903      	ldr	r1, [sp, #12]
    43ec:	2200      	movs	r2, #0
    43ee:	4798      	blx	r3
    43f0:	9b02      	ldr	r3, [sp, #8]
    43f2:	4618      	mov	r0, r3
    43f4:	b005      	add	sp, #20
    43f6:	f85d fb04 	ldr.w	pc, [sp], #4
    43fa:	bf00      	nop

000043fc <mbed::FileHandle::~FileHandle()>:
    43fc:	b500      	push	{lr}
    43fe:	b085      	sub	sp, #20
    4400:	9001      	str	r0, [sp, #4]
    4402:	9b01      	ldr	r3, [sp, #4]
    4404:	4a11      	ldr	r2, [pc, #68]	; (444c <mbed::FileHandle::~FileHandle()+0x50>)
    4406:	601a      	str	r2, [r3, #0]
    4408:	2300      	movs	r3, #0
    440a:	9303      	str	r3, [sp, #12]
    440c:	e00e      	b.n	442c <mbed::FileHandle::~FileHandle()+0x30>
    440e:	4b10      	ldr	r3, [pc, #64]	; (4450 <mbed::FileHandle::~FileHandle()+0x54>)
    4410:	9a03      	ldr	r2, [sp, #12]
    4412:	f853 2022 	ldr.w	r2, [r3, r2, lsl #2]
    4416:	9b01      	ldr	r3, [sp, #4]
    4418:	429a      	cmp	r2, r3
    441a:	d104      	bne.n	4426 <mbed::FileHandle::~FileHandle()+0x2a>
    441c:	4b0c      	ldr	r3, [pc, #48]	; (4450 <mbed::FileHandle::~FileHandle()+0x54>)
    441e:	9a03      	ldr	r2, [sp, #12]
    4420:	2100      	movs	r1, #0
    4422:	f843 1022 	str.w	r1, [r3, r2, lsl #2]
    4426:	9b03      	ldr	r3, [sp, #12]
    4428:	3301      	adds	r3, #1
    442a:	9303      	str	r3, [sp, #12]
    442c:	2240      	movs	r2, #64	; 0x40
    442e:	9b03      	ldr	r3, [sp, #12]
    4430:	429a      	cmp	r2, r3
    4432:	d8ec      	bhi.n	440e <mbed::FileHandle::~FileHandle()+0x12>
    4434:	2300      	movs	r3, #0
    4436:	2b00      	cmp	r3, #0
    4438:	d002      	beq.n	4440 <mbed::FileHandle::~FileHandle()+0x44>
    443a:	9801      	ldr	r0, [sp, #4]
    443c:	f002 fa1e 	bl	687c <operator delete(void*)>
    4440:	9b01      	ldr	r3, [sp, #4]
    4442:	4618      	mov	r0, r3
    4444:	b005      	add	sp, #20
    4446:	f85d fb04 	ldr.w	pc, [sp], #4
    444a:	bf00      	nop
    444c:	0000db10 	.word	0x0000db10
    4450:	10000784 	.word	0x10000784

00004454 <mbed::FileHandle::~FileHandle()>:
    4454:	b500      	push	{lr}
    4456:	b083      	sub	sp, #12
    4458:	9001      	str	r0, [sp, #4]
    445a:	9801      	ldr	r0, [sp, #4]
    445c:	f7ff ffce 	bl	43fc <mbed::FileHandle::~FileHandle()>
    4460:	9801      	ldr	r0, [sp, #4]
    4462:	f002 fa0b 	bl	687c <operator delete(void*)>
    4466:	9b01      	ldr	r3, [sp, #4]
    4468:	4618      	mov	r0, r3
    446a:	b003      	add	sp, #12
    446c:	f85d fb04 	ldr.w	pc, [sp], #4

00004470 <init_serial()>:
    4470:	b508      	push	{r3, lr}
    4472:	4b05      	ldr	r3, [pc, #20]	; (4488 <init_serial()+0x18>)
    4474:	681b      	ldr	r3, [r3, #0]
    4476:	2b00      	cmp	r3, #0
    4478:	d000      	beq.n	447c <init_serial()+0xc>
    447a:	e004      	b.n	4486 <init_serial()+0x16>
    447c:	4803      	ldr	r0, [pc, #12]	; (448c <init_serial()+0x1c>)
    447e:	4904      	ldr	r1, [pc, #16]	; (4490 <init_serial()+0x20>)
    4480:	4a04      	ldr	r2, [pc, #16]	; (4494 <init_serial()+0x24>)
    4482:	f001 f895 	bl	55b0 <serial_init>
    4486:	bd08      	pop	{r3, pc}
    4488:	1000094c 	.word	0x1000094c
    448c:	10000c88 	.word	0x10000c88
    4490:	2009c002 	.word	0x2009c002
    4494:	2009c003 	.word	0x2009c003

00004498 <openmode_to_posix(int)>:
    4498:	b084      	sub	sp, #16
    449a:	9001      	str	r0, [sp, #4]
    449c:	9b01      	ldr	r3, [sp, #4]
    449e:	9303      	str	r3, [sp, #12]
    44a0:	9b03      	ldr	r3, [sp, #12]
    44a2:	4618      	mov	r0, r3
    44a4:	b004      	add	sp, #16
    44a6:	4770      	bx	lr

000044a8 <_open>:
    44a8:	b510      	push	{r4, lr}
    44aa:	b08a      	sub	sp, #40	; 0x28
    44ac:	9001      	str	r0, [sp, #4]
    44ae:	9100      	str	r1, [sp, #0]
    44b0:	9801      	ldr	r0, [sp, #4]
    44b2:	4948      	ldr	r1, [pc, #288]	; (45d4 <_open+0x12c>)
    44b4:	f004 f825 	bl	8502 <strcmp>
    44b8:	4603      	mov	r3, r0
    44ba:	2b00      	cmp	r3, #0
    44bc:	d103      	bne.n	44c6 <_open+0x1e>
    44be:	f7ff ffd7 	bl	4470 <init_serial()>
    44c2:	2300      	movs	r3, #0
    44c4:	e083      	b.n	45ce <_open+0x126>
    44c6:	9801      	ldr	r0, [sp, #4]
    44c8:	4943      	ldr	r1, [pc, #268]	; (45d8 <_open+0x130>)
    44ca:	f004 f81a 	bl	8502 <strcmp>
    44ce:	4603      	mov	r3, r0
    44d0:	2b00      	cmp	r3, #0
    44d2:	d103      	bne.n	44dc <_open+0x34>
    44d4:	f7ff ffcc 	bl	4470 <init_serial()>
    44d8:	2301      	movs	r3, #1
    44da:	e078      	b.n	45ce <_open+0x126>
    44dc:	9801      	ldr	r0, [sp, #4]
    44de:	493f      	ldr	r1, [pc, #252]	; (45dc <_open+0x134>)
    44e0:	f004 f80f 	bl	8502 <strcmp>
    44e4:	4603      	mov	r3, r0
    44e6:	2b00      	cmp	r3, #0
    44e8:	d103      	bne.n	44f2 <_open+0x4a>
    44ea:	f7ff ffc1 	bl	4470 <init_serial()>
    44ee:	2302      	movs	r3, #2
    44f0:	e06d      	b.n	45ce <_open+0x126>
    44f2:	2300      	movs	r3, #0
    44f4:	9309      	str	r3, [sp, #36]	; 0x24
    44f6:	e009      	b.n	450c <_open+0x64>
    44f8:	4b39      	ldr	r3, [pc, #228]	; (45e0 <_open+0x138>)
    44fa:	9a09      	ldr	r2, [sp, #36]	; 0x24
    44fc:	f853 3022 	ldr.w	r3, [r3, r2, lsl #2]
    4500:	2b00      	cmp	r3, #0
    4502:	d100      	bne.n	4506 <_open+0x5e>
    4504:	e006      	b.n	4514 <_open+0x6c>
    4506:	9b09      	ldr	r3, [sp, #36]	; 0x24
    4508:	3301      	adds	r3, #1
    450a:	9309      	str	r3, [sp, #36]	; 0x24
    450c:	2240      	movs	r2, #64	; 0x40
    450e:	9b09      	ldr	r3, [sp, #36]	; 0x24
    4510:	429a      	cmp	r2, r3
    4512:	d8f1      	bhi.n	44f8 <_open+0x50>
    4514:	2240      	movs	r2, #64	; 0x40
    4516:	9b09      	ldr	r3, [sp, #36]	; 0x24
    4518:	429a      	cmp	r2, r3
    451a:	d802      	bhi.n	4522 <_open+0x7a>
    451c:	f04f 33ff 	mov.w	r3, #4294967295
    4520:	e055      	b.n	45ce <_open+0x126>
    4522:	9b01      	ldr	r3, [sp, #4]
    4524:	781b      	ldrb	r3, [r3, #0]
    4526:	2b3a      	cmp	r3, #58	; 0x3a
    4528:	d108      	bne.n	453c <_open+0x94>
    452a:	ab05      	add	r3, sp, #20
    452c:	9801      	ldr	r0, [sp, #4]
    452e:	492d      	ldr	r1, [pc, #180]	; (45e4 <_open+0x13c>)
    4530:	461a      	mov	r2, r3
    4532:	f003 ff77 	bl	8424 <siscanf>
    4536:	9b05      	ldr	r3, [sp, #20]
    4538:	9308      	str	r3, [sp, #32]
    453a:	e03b      	b.n	45b4 <_open+0x10c>
    453c:	ab03      	add	r3, sp, #12
    453e:	4618      	mov	r0, r3
    4540:	9901      	ldr	r1, [sp, #4]
    4542:	f002 f845 	bl	65d0 <mbed::FilePath::FilePath(char const*)>
    4546:	ab03      	add	r3, sp, #12
    4548:	4618      	mov	r0, r3
    454a:	f002 f8e9 	bl	6720 <mbed::FilePath::exists()>
    454e:	4603      	mov	r3, r0
    4550:	f083 0301 	eor.w	r3, r3, #1
    4554:	b2db      	uxtb	r3, r3
    4556:	2b00      	cmp	r3, #0
    4558:	d002      	beq.n	4560 <_open+0xb8>
    455a:	f04f 33ff 	mov.w	r3, #4294967295
    455e:	e036      	b.n	45ce <_open+0x126>
    4560:	ab03      	add	r3, sp, #12
    4562:	4618      	mov	r0, r3
    4564:	f002 f8ac 	bl	66c0 <mbed::FilePath::isFile()>
    4568:	4603      	mov	r3, r0
    456a:	2b00      	cmp	r3, #0
    456c:	d005      	beq.n	457a <_open+0xd2>
    456e:	ab03      	add	r3, sp, #12
    4570:	4618      	mov	r0, r3
    4572:	f002 f8bd 	bl	66f0 <mbed::FilePath::file()>
    4576:	9008      	str	r0, [sp, #32]
    4578:	e01c      	b.n	45b4 <_open+0x10c>
    457a:	ab03      	add	r3, sp, #12
    457c:	4618      	mov	r0, r3
    457e:	f002 f88d 	bl	669c <mbed::FilePath::fileSystem()>
    4582:	9007      	str	r0, [sp, #28]
    4584:	9b07      	ldr	r3, [sp, #28]
    4586:	2b00      	cmp	r3, #0
    4588:	d102      	bne.n	4590 <_open+0xe8>
    458a:	f04f 33ff 	mov.w	r3, #4294967295
    458e:	e01e      	b.n	45ce <_open+0x126>
    4590:	9800      	ldr	r0, [sp, #0]
    4592:	f7ff ff81 	bl	4498 <openmode_to_posix(int)>
    4596:	9006      	str	r0, [sp, #24]
    4598:	9b07      	ldr	r3, [sp, #28]
    459a:	681b      	ldr	r3, [r3, #0]
    459c:	3308      	adds	r3, #8
    459e:	681c      	ldr	r4, [r3, #0]
    45a0:	ab03      	add	r3, sp, #12
    45a2:	4618      	mov	r0, r3
    45a4:	f002 f85a 	bl	665c <mbed::FilePath::fileName()>
    45a8:	4603      	mov	r3, r0
    45aa:	9807      	ldr	r0, [sp, #28]
    45ac:	4619      	mov	r1, r3
    45ae:	9a06      	ldr	r2, [sp, #24]
    45b0:	47a0      	blx	r4
    45b2:	9008      	str	r0, [sp, #32]
    45b4:	9b08      	ldr	r3, [sp, #32]
    45b6:	2b00      	cmp	r3, #0
    45b8:	d102      	bne.n	45c0 <_open+0x118>
    45ba:	f04f 33ff 	mov.w	r3, #4294967295
    45be:	e006      	b.n	45ce <_open+0x126>
    45c0:	4b07      	ldr	r3, [pc, #28]	; (45e0 <_open+0x138>)
    45c2:	9a09      	ldr	r2, [sp, #36]	; 0x24
    45c4:	9908      	ldr	r1, [sp, #32]
    45c6:	f843 1022 	str.w	r1, [r3, r2, lsl #2]
    45ca:	9b09      	ldr	r3, [sp, #36]	; 0x24
    45cc:	3303      	adds	r3, #3
    45ce:	4618      	mov	r0, r3
    45d0:	b00a      	add	sp, #40	; 0x28
    45d2:	bd10      	pop	{r4, pc}
    45d4:	0000dae0 	.word	0x0000dae0
    45d8:	0000dae8 	.word	0x0000dae8
    45dc:	0000daf0 	.word	0x0000daf0
    45e0:	10000784 	.word	0x10000784
    45e4:	0000daf8 	.word	0x0000daf8

000045e8 <_close>:
    45e8:	b500      	push	{lr}
    45ea:	b085      	sub	sp, #20
    45ec:	9001      	str	r0, [sp, #4]
    45ee:	9b01      	ldr	r3, [sp, #4]
    45f0:	2b02      	cmp	r3, #2
    45f2:	dc01      	bgt.n	45f8 <_close+0x10>
    45f4:	2300      	movs	r3, #0
    45f6:	e018      	b.n	462a <_close+0x42>
    45f8:	9b01      	ldr	r3, [sp, #4]
    45fa:	1eda      	subs	r2, r3, #3
    45fc:	4b0d      	ldr	r3, [pc, #52]	; (4634 <_close+0x4c>)
    45fe:	f853 3022 	ldr.w	r3, [r3, r2, lsl #2]
    4602:	9303      	str	r3, [sp, #12]
    4604:	9b01      	ldr	r3, [sp, #4]
    4606:	1eda      	subs	r2, r3, #3
    4608:	4b0a      	ldr	r3, [pc, #40]	; (4634 <_close+0x4c>)
    460a:	2100      	movs	r1, #0
    460c:	f843 1022 	str.w	r1, [r3, r2, lsl #2]
    4610:	9b03      	ldr	r3, [sp, #12]
    4612:	2b00      	cmp	r3, #0
    4614:	d102      	bne.n	461c <_close+0x34>
    4616:	f04f 33ff 	mov.w	r3, #4294967295
    461a:	e006      	b.n	462a <_close+0x42>
    461c:	9b03      	ldr	r3, [sp, #12]
    461e:	681b      	ldr	r3, [r3, #0]
    4620:	3304      	adds	r3, #4
    4622:	681b      	ldr	r3, [r3, #0]
    4624:	9803      	ldr	r0, [sp, #12]
    4626:	4798      	blx	r3
    4628:	4603      	mov	r3, r0
    462a:	4618      	mov	r0, r3
    462c:	b005      	add	sp, #20
    462e:	f85d fb04 	ldr.w	pc, [sp], #4
    4632:	bf00      	nop
    4634:	10000784 	.word	0x10000784

00004638 <_write>:
    4638:	b500      	push	{lr}
    463a:	b089      	sub	sp, #36	; 0x24
    463c:	9003      	str	r0, [sp, #12]
    463e:	9102      	str	r1, [sp, #8]
    4640:	9201      	str	r2, [sp, #4]
    4642:	9300      	str	r3, [sp, #0]
    4644:	9b03      	ldr	r3, [sp, #12]
    4646:	2b02      	cmp	r3, #2
    4648:	dc1a      	bgt.n	4680 <_write+0x48>
    464a:	4b1a      	ldr	r3, [pc, #104]	; (46b4 <_write+0x7c>)
    464c:	681b      	ldr	r3, [r3, #0]
    464e:	2b00      	cmp	r3, #0
    4650:	d101      	bne.n	4656 <_write+0x1e>
    4652:	f7ff ff0d 	bl	4470 <init_serial()>
    4656:	2300      	movs	r3, #0
    4658:	9306      	str	r3, [sp, #24]
    465a:	e00a      	b.n	4672 <_write+0x3a>
    465c:	9a02      	ldr	r2, [sp, #8]
    465e:	9b06      	ldr	r3, [sp, #24]
    4660:	4413      	add	r3, r2
    4662:	781b      	ldrb	r3, [r3, #0]
    4664:	4814      	ldr	r0, [pc, #80]	; (46b8 <_write+0x80>)
    4666:	4619      	mov	r1, r3
    4668:	f001 fc36 	bl	5ed8 <serial_putc>
    466c:	9b06      	ldr	r3, [sp, #24]
    466e:	3301      	adds	r3, #1
    4670:	9306      	str	r3, [sp, #24]
    4672:	9a06      	ldr	r2, [sp, #24]
    4674:	9b01      	ldr	r3, [sp, #4]
    4676:	429a      	cmp	r2, r3
    4678:	d3f0      	bcc.n	465c <_write+0x24>
    467a:	9b01      	ldr	r3, [sp, #4]
    467c:	9307      	str	r3, [sp, #28]
    467e:	e013      	b.n	46a8 <_write+0x70>
    4680:	9b03      	ldr	r3, [sp, #12]
    4682:	1eda      	subs	r2, r3, #3
    4684:	4b0d      	ldr	r3, [pc, #52]	; (46bc <_write+0x84>)
    4686:	f853 3022 	ldr.w	r3, [r3, r2, lsl #2]
    468a:	9305      	str	r3, [sp, #20]
    468c:	9b05      	ldr	r3, [sp, #20]
    468e:	2b00      	cmp	r3, #0
    4690:	d102      	bne.n	4698 <_write+0x60>
    4692:	f04f 33ff 	mov.w	r3, #4294967295
    4696:	e008      	b.n	46aa <_write+0x72>
    4698:	9b05      	ldr	r3, [sp, #20]
    469a:	681b      	ldr	r3, [r3, #0]
    469c:	681b      	ldr	r3, [r3, #0]
    469e:	9805      	ldr	r0, [sp, #20]
    46a0:	9902      	ldr	r1, [sp, #8]
    46a2:	9a01      	ldr	r2, [sp, #4]
    46a4:	4798      	blx	r3
    46a6:	9007      	str	r0, [sp, #28]
    46a8:	9b07      	ldr	r3, [sp, #28]
    46aa:	4618      	mov	r0, r3
    46ac:	b009      	add	sp, #36	; 0x24
    46ae:	f85d fb04 	ldr.w	pc, [sp], #4
    46b2:	bf00      	nop
    46b4:	1000094c 	.word	0x1000094c
    46b8:	10000c88 	.word	0x10000c88
    46bc:	10000784 	.word	0x10000784

000046c0 <_read>:
    46c0:	b500      	push	{lr}
    46c2:	b087      	sub	sp, #28
    46c4:	9003      	str	r0, [sp, #12]
    46c6:	9102      	str	r1, [sp, #8]
    46c8:	9201      	str	r2, [sp, #4]
    46ca:	9300      	str	r3, [sp, #0]
    46cc:	9b03      	ldr	r3, [sp, #12]
    46ce:	2b02      	cmp	r3, #2
    46d0:	dc09      	bgt.n	46e6 <_read+0x26>
    46d2:	4812      	ldr	r0, [pc, #72]	; (471c <_read+0x5c>)
    46d4:	f001 fbc8 	bl	5e68 <serial_getc>
    46d8:	4603      	mov	r3, r0
    46da:	b2da      	uxtb	r2, r3
    46dc:	9b02      	ldr	r3, [sp, #8]
    46de:	701a      	strb	r2, [r3, #0]
    46e0:	2301      	movs	r3, #1
    46e2:	9305      	str	r3, [sp, #20]
    46e4:	e014      	b.n	4710 <_read+0x50>
    46e6:	9b03      	ldr	r3, [sp, #12]
    46e8:	1eda      	subs	r2, r3, #3
    46ea:	4b0d      	ldr	r3, [pc, #52]	; (4720 <_read+0x60>)
    46ec:	f853 3022 	ldr.w	r3, [r3, r2, lsl #2]
    46f0:	9304      	str	r3, [sp, #16]
    46f2:	9b04      	ldr	r3, [sp, #16]
    46f4:	2b00      	cmp	r3, #0
    46f6:	d102      	bne.n	46fe <_read+0x3e>
    46f8:	f04f 33ff 	mov.w	r3, #4294967295
    46fc:	e009      	b.n	4712 <_read+0x52>
    46fe:	9b04      	ldr	r3, [sp, #16]
    4700:	681b      	ldr	r3, [r3, #0]
    4702:	3308      	adds	r3, #8
    4704:	681b      	ldr	r3, [r3, #0]
    4706:	9804      	ldr	r0, [sp, #16]
    4708:	9902      	ldr	r1, [sp, #8]
    470a:	9a01      	ldr	r2, [sp, #4]
    470c:	4798      	blx	r3
    470e:	9005      	str	r0, [sp, #20]
    4710:	9b05      	ldr	r3, [sp, #20]
    4712:	4618      	mov	r0, r3
    4714:	b007      	add	sp, #28
    4716:	f85d fb04 	ldr.w	pc, [sp], #4
    471a:	bf00      	nop
    471c:	10000c88 	.word	0x10000c88
    4720:	10000784 	.word	0x10000784

00004724 <_isatty>:
    4724:	b500      	push	{lr}
    4726:	b085      	sub	sp, #20
    4728:	9001      	str	r0, [sp, #4]
    472a:	9b01      	ldr	r3, [sp, #4]
    472c:	2b02      	cmp	r3, #2
    472e:	dc01      	bgt.n	4734 <_isatty+0x10>
    4730:	2301      	movs	r3, #1
    4732:	e012      	b.n	475a <_isatty+0x36>
    4734:	9b01      	ldr	r3, [sp, #4]
    4736:	1eda      	subs	r2, r3, #3
    4738:	4b0a      	ldr	r3, [pc, #40]	; (4764 <_isatty+0x40>)
    473a:	f853 3022 	ldr.w	r3, [r3, r2, lsl #2]
    473e:	9303      	str	r3, [sp, #12]
    4740:	9b03      	ldr	r3, [sp, #12]
    4742:	2b00      	cmp	r3, #0
    4744:	d102      	bne.n	474c <_isatty+0x28>
    4746:	f04f 33ff 	mov.w	r3, #4294967295
    474a:	e006      	b.n	475a <_isatty+0x36>
    474c:	9b03      	ldr	r3, [sp, #12]
    474e:	681b      	ldr	r3, [r3, #0]
    4750:	330c      	adds	r3, #12
    4752:	681b      	ldr	r3, [r3, #0]
    4754:	9803      	ldr	r0, [sp, #12]
    4756:	4798      	blx	r3
    4758:	4603      	mov	r3, r0
    475a:	4618      	mov	r0, r3
    475c:	b005      	add	sp, #20
    475e:	f85d fb04 	ldr.w	pc, [sp], #4
    4762:	bf00      	nop
    4764:	10000784 	.word	0x10000784

00004768 <_lseek>:
    4768:	b500      	push	{lr}
    476a:	b087      	sub	sp, #28
    476c:	9003      	str	r0, [sp, #12]
    476e:	9102      	str	r1, [sp, #8]
    4770:	9201      	str	r2, [sp, #4]
    4772:	9b03      	ldr	r3, [sp, #12]
    4774:	2b02      	cmp	r3, #2
    4776:	dc01      	bgt.n	477c <_lseek+0x14>
    4778:	2300      	movs	r3, #0
    477a:	e014      	b.n	47a6 <_lseek+0x3e>
    477c:	9b03      	ldr	r3, [sp, #12]
    477e:	1eda      	subs	r2, r3, #3
    4780:	4b0b      	ldr	r3, [pc, #44]	; (47b0 <_lseek+0x48>)
    4782:	f853 3022 	ldr.w	r3, [r3, r2, lsl #2]
    4786:	9305      	str	r3, [sp, #20]
    4788:	9b05      	ldr	r3, [sp, #20]
    478a:	2b00      	cmp	r3, #0
    478c:	d102      	bne.n	4794 <_lseek+0x2c>
    478e:	f04f 33ff 	mov.w	r3, #4294967295
    4792:	e008      	b.n	47a6 <_lseek+0x3e>
    4794:	9b05      	ldr	r3, [sp, #20]
    4796:	681b      	ldr	r3, [r3, #0]
    4798:	3310      	adds	r3, #16
    479a:	681b      	ldr	r3, [r3, #0]
    479c:	9805      	ldr	r0, [sp, #20]
    479e:	9902      	ldr	r1, [sp, #8]
    47a0:	9a01      	ldr	r2, [sp, #4]
    47a2:	4798      	blx	r3
    47a4:	4603      	mov	r3, r0
    47a6:	4618      	mov	r0, r3
    47a8:	b007      	add	sp, #28
    47aa:	f85d fb04 	ldr.w	pc, [sp], #4
    47ae:	bf00      	nop
    47b0:	10000784 	.word	0x10000784

000047b4 <_fstat>:
    47b4:	b500      	push	{lr}
    47b6:	b083      	sub	sp, #12
    47b8:	9001      	str	r0, [sp, #4]
    47ba:	9100      	str	r1, [sp, #0]
    47bc:	9b01      	ldr	r3, [sp, #4]
    47be:	2b01      	cmp	r3, #1
    47c0:	d005      	beq.n	47ce <_fstat+0x1a>
    47c2:	9b01      	ldr	r3, [sp, #4]
    47c4:	2b02      	cmp	r3, #2
    47c6:	d002      	beq.n	47ce <_fstat+0x1a>
    47c8:	9b01      	ldr	r3, [sp, #4]
    47ca:	2b00      	cmp	r3, #0
    47cc:	d105      	bne.n	47da <_fstat+0x26>
    47ce:	9b00      	ldr	r3, [sp, #0]
    47d0:	f44f 5200 	mov.w	r2, #8192	; 0x2000
    47d4:	605a      	str	r2, [r3, #4]
    47d6:	2300      	movs	r3, #0
    47d8:	e006      	b.n	47e8 <_fstat+0x34>
    47da:	f002 ffc5 	bl	7768 <__errno>
    47de:	4603      	mov	r3, r0
    47e0:	2209      	movs	r2, #9
    47e2:	601a      	str	r2, [r3, #0]
    47e4:	f04f 33ff 	mov.w	r3, #4294967295
    47e8:	4618      	mov	r0, r3
    47ea:	b003      	add	sp, #12
    47ec:	f85d fb04 	ldr.w	pc, [sp], #4

000047f0 <_sbrk>:
    47f0:	b410      	push	{r4}
    47f2:	b085      	sub	sp, #20
    47f4:	9001      	str	r0, [sp, #4]
    47f6:	4b12      	ldr	r3, [pc, #72]	; (4840 <_sbrk+0x50>)
    47f8:	681b      	ldr	r3, [r3, #0]
    47fa:	9303      	str	r3, [sp, #12]
    47fc:	4b10      	ldr	r3, [pc, #64]	; (4840 <_sbrk+0x50>)
    47fe:	681a      	ldr	r2, [r3, #0]
    4800:	9b01      	ldr	r3, [sp, #4]
    4802:	4413      	add	r3, r2
    4804:	9302      	str	r3, [sp, #8]
    4806:	f3ef 8308 	mrs	r3, MSP
    480a:	461c      	mov	r4, r3
    480c:	4623      	mov	r3, r4
    480e:	461a      	mov	r2, r3
    4810:	9b02      	ldr	r3, [sp, #8]
    4812:	429a      	cmp	r2, r3
    4814:	bf8c      	ite	hi
    4816:	2300      	movhi	r3, #0
    4818:	2301      	movls	r3, #1
    481a:	b2db      	uxtb	r3, r3
    481c:	2b00      	cmp	r3, #0
    481e:	d005      	beq.n	482c <_sbrk+0x3c>
    4820:	4b08      	ldr	r3, [pc, #32]	; (4844 <_sbrk+0x54>)
    4822:	220c      	movs	r2, #12
    4824:	601a      	str	r2, [r3, #0]
    4826:	f04f 33ff 	mov.w	r3, #4294967295
    482a:	e003      	b.n	4834 <_sbrk+0x44>
    482c:	4b04      	ldr	r3, [pc, #16]	; (4840 <_sbrk+0x50>)
    482e:	9a02      	ldr	r2, [sp, #8]
    4830:	601a      	str	r2, [r3, #0]
    4832:	9b03      	ldr	r3, [sp, #12]
    4834:	4618      	mov	r0, r3
    4836:	b005      	add	sp, #20
    4838:	f85d 4b04 	ldr.w	r4, [sp], #4
    483c:	4770      	bx	lr
    483e:	bf00      	nop
    4840:	100000d8 	.word	0x100000d8
    4844:	10000c90 	.word	0x10000c90

00004848 <mbed::Serial::Serial(PinName, PinName, char const*)>:
    4848:	b500      	push	{lr}
    484a:	b085      	sub	sp, #20
    484c:	9003      	str	r0, [sp, #12]
    484e:	9102      	str	r1, [sp, #8]
    4850:	9201      	str	r2, [sp, #4]
    4852:	9300      	str	r3, [sp, #0]
    4854:	9b03      	ldr	r3, [sp, #12]
    4856:	4618      	mov	r0, r3
    4858:	9902      	ldr	r1, [sp, #8]
    485a:	9a01      	ldr	r2, [sp, #4]
    485c:	f000 f83c 	bl	48d8 <mbed::SerialBase::SerialBase(PinName, PinName)>
    4860:	9b03      	ldr	r3, [sp, #12]
    4862:	3348      	adds	r3, #72	; 0x48
    4864:	4618      	mov	r0, r3
    4866:	9900      	ldr	r1, [sp, #0]
    4868:	f000 f8fe 	bl	4a68 <mbed::Stream::Stream(char const*)>
    486c:	9b03      	ldr	r3, [sp, #12]
    486e:	4a06      	ldr	r2, [pc, #24]	; (4888 <mbed::Serial::Serial(PinName, PinName, char const*)+0x40>)
    4870:	601a      	str	r2, [r3, #0]
    4872:	9b03      	ldr	r3, [sp, #12]
    4874:	4a05      	ldr	r2, [pc, #20]	; (488c <mbed::Serial::Serial(PinName, PinName, char const*)+0x44>)
    4876:	649a      	str	r2, [r3, #72]	; 0x48
    4878:	9b03      	ldr	r3, [sp, #12]
    487a:	4a05      	ldr	r2, [pc, #20]	; (4890 <mbed::Serial::Serial(PinName, PinName, char const*)+0x48>)
    487c:	64da      	str	r2, [r3, #76]	; 0x4c
    487e:	9b03      	ldr	r3, [sp, #12]
    4880:	4618      	mov	r0, r3
    4882:	b005      	add	sp, #20
    4884:	f85d fb04 	ldr.w	pc, [sp], #4
    4888:	0000db40 	.word	0x0000db40
    488c:	0000db58 	.word	0x0000db58
    4890:	0000db8c 	.word	0x0000db8c

00004894 <mbed::Serial::_getc()>:
    4894:	b500      	push	{lr}
    4896:	b083      	sub	sp, #12
    4898:	9001      	str	r0, [sp, #4]
    489a:	9b01      	ldr	r3, [sp, #4]
    489c:	4618      	mov	r0, r3
    489e:	f000 f8c5 	bl	4a2c <mbed::SerialBase::_base_getc()>
    48a2:	4603      	mov	r3, r0
    48a4:	4618      	mov	r0, r3
    48a6:	b003      	add	sp, #12
    48a8:	f85d fb04 	ldr.w	pc, [sp], #4

000048ac <non-virtual thunk to mbed::Serial::_getc()>:
    48ac:	f1a0 0048 	sub.w	r0, r0, #72	; 0x48
    48b0:	f7ff bff0 	b.w	4894 <mbed::Serial::_getc()>

000048b4 <mbed::Serial::_putc(int)>:
    48b4:	b500      	push	{lr}
    48b6:	b083      	sub	sp, #12
    48b8:	9001      	str	r0, [sp, #4]
    48ba:	9100      	str	r1, [sp, #0]
    48bc:	9b01      	ldr	r3, [sp, #4]
    48be:	4618      	mov	r0, r3
    48c0:	9900      	ldr	r1, [sp, #0]
    48c2:	f000 f8c1 	bl	4a48 <mbed::SerialBase::_base_putc(int)>
    48c6:	4603      	mov	r3, r0
    48c8:	4618      	mov	r0, r3
    48ca:	b003      	add	sp, #12
    48cc:	f85d fb04 	ldr.w	pc, [sp], #4

000048d0 <non-virtual thunk to mbed::Serial::_putc(int)>:
    48d0:	f1a0 0048 	sub.w	r0, r0, #72	; 0x48
    48d4:	f7ff bfee 	b.w	48b4 <mbed::Serial::_putc(int)>

000048d8 <mbed::SerialBase::SerialBase(PinName, PinName)>:
    48d8:	b530      	push	{r4, r5, lr}
    48da:	b085      	sub	sp, #20
    48dc:	9003      	str	r0, [sp, #12]
    48de:	9102      	str	r1, [sp, #8]
    48e0:	9201      	str	r2, [sp, #4]
    48e2:	9b03      	ldr	r3, [sp, #12]
    48e4:	4a16      	ldr	r2, [pc, #88]	; (4940 <mbed::SerialBase::SerialBase(PinName, PinName)+0x68>)
    48e6:	601a      	str	r2, [r3, #0]
    48e8:	9b03      	ldr	r3, [sp, #12]
    48ea:	2200      	movs	r2, #0
    48ec:	605a      	str	r2, [r3, #4]
    48ee:	9b03      	ldr	r3, [sp, #12]
    48f0:	2200      	movs	r2, #0
    48f2:	609a      	str	r2, [r3, #8]
    48f4:	9b03      	ldr	r3, [sp, #12]
    48f6:	330c      	adds	r3, #12
    48f8:	2401      	movs	r4, #1
    48fa:	461d      	mov	r5, r3
    48fc:	e005      	b.n	490a <mbed::SerialBase::SerialBase(PinName, PinName)+0x32>
    48fe:	4628      	mov	r0, r5
    4900:	2100      	movs	r1, #0
    4902:	f7ff fc47 	bl	4194 <mbed::FunctionPointer::FunctionPointer(void (*)())>
    4906:	351c      	adds	r5, #28
    4908:	3c01      	subs	r4, #1
    490a:	f1b4 3fff 	cmp.w	r4, #4294967295
    490e:	d1f6      	bne.n	48fe <mbed::SerialBase::SerialBase(PinName, PinName)+0x26>
    4910:	9b03      	ldr	r3, [sp, #12]
    4912:	f44f 5216 	mov.w	r2, #9600	; 0x2580
    4916:	645a      	str	r2, [r3, #68]	; 0x44
    4918:	9b03      	ldr	r3, [sp, #12]
    491a:	3304      	adds	r3, #4
    491c:	4618      	mov	r0, r3
    491e:	9902      	ldr	r1, [sp, #8]
    4920:	9a01      	ldr	r2, [sp, #4]
    4922:	f000 fe45 	bl	55b0 <serial_init>
    4926:	9b03      	ldr	r3, [sp, #12]
    4928:	1d1a      	adds	r2, r3, #4
    492a:	9b03      	ldr	r3, [sp, #12]
    492c:	4610      	mov	r0, r2
    492e:	4905      	ldr	r1, [pc, #20]	; (4944 <mbed::SerialBase::SerialBase(PinName, PinName)+0x6c>)
    4930:	461a      	mov	r2, r3
    4932:	f001 f98f 	bl	5c54 <serial_irq_handler>
    4936:	9b03      	ldr	r3, [sp, #12]
    4938:	4618      	mov	r0, r3
    493a:	b005      	add	sp, #20
    493c:	bd30      	pop	{r4, r5, pc}
    493e:	bf00      	nop
    4940:	0000cc40 	.word	0x0000cc40
    4944:	000049fd 	.word	0x000049fd

00004948 <mbed::SerialBase::baud(int)>:
    4948:	b500      	push	{lr}
    494a:	b083      	sub	sp, #12
    494c:	9001      	str	r0, [sp, #4]
    494e:	9100      	str	r1, [sp, #0]
    4950:	9b01      	ldr	r3, [sp, #4]
    4952:	3304      	adds	r3, #4
    4954:	4618      	mov	r0, r3
    4956:	9900      	ldr	r1, [sp, #0]
    4958:	f000 ff10 	bl	577c <serial_baud>
    495c:	9b01      	ldr	r3, [sp, #4]
    495e:	9a00      	ldr	r2, [sp, #0]
    4960:	645a      	str	r2, [r3, #68]	; 0x44
    4962:	b003      	add	sp, #12
    4964:	f85d fb04 	ldr.w	pc, [sp], #4

00004968 <mbed::SerialBase::readable()>:
    4968:	b500      	push	{lr}
    496a:	b083      	sub	sp, #12
    496c:	9001      	str	r0, [sp, #4]
    496e:	9b01      	ldr	r3, [sp, #4]
    4970:	3304      	adds	r3, #4
    4972:	4618      	mov	r0, r3
    4974:	f001 fada 	bl	5f2c <serial_readable>
    4978:	4603      	mov	r3, r0
    497a:	4618      	mov	r0, r3
    497c:	b003      	add	sp, #12
    497e:	f85d fb04 	ldr.w	pc, [sp], #4
    4982:	bf00      	nop

00004984 <mbed::SerialBase::writeable()>:
    4984:	b500      	push	{lr}
    4986:	b083      	sub	sp, #12
    4988:	9001      	str	r0, [sp, #4]
    498a:	9b01      	ldr	r3, [sp, #4]
    498c:	3304      	adds	r3, #4
    498e:	4618      	mov	r0, r3
    4990:	f001 fad8 	bl	5f44 <serial_writable>
    4994:	4603      	mov	r3, r0
    4996:	4618      	mov	r0, r3
    4998:	b003      	add	sp, #12
    499a:	f85d fb04 	ldr.w	pc, [sp], #4
    499e:	bf00      	nop

000049a0 <mbed::SerialBase::attach(void (*)(), mbed::SerialBase::IrqType)>:
    49a0:	b500      	push	{lr}
    49a2:	b085      	sub	sp, #20
    49a4:	9003      	str	r0, [sp, #12]
    49a6:	9102      	str	r1, [sp, #8]
    49a8:	4613      	mov	r3, r2
    49aa:	f88d 3007 	strb.w	r3, [sp, #7]
    49ae:	9b02      	ldr	r3, [sp, #8]
    49b0:	2b00      	cmp	r3, #0
    49b2:	d017      	beq.n	49e4 <mbed::SerialBase::attach(void (*)(), mbed::SerialBase::IrqType)+0x44>
    49b4:	f89d 2007 	ldrb.w	r2, [sp, #7]
    49b8:	4613      	mov	r3, r2
    49ba:	00db      	lsls	r3, r3, #3
    49bc:	1a9b      	subs	r3, r3, r2
    49be:	009b      	lsls	r3, r3, #2
    49c0:	3308      	adds	r3, #8
    49c2:	9a03      	ldr	r2, [sp, #12]
    49c4:	4413      	add	r3, r2
    49c6:	3304      	adds	r3, #4
    49c8:	4618      	mov	r0, r3
    49ca:	9902      	ldr	r1, [sp, #8]
    49cc:	f7ff fbf8 	bl	41c0 <mbed::FunctionPointer::attach(void (*)())>
    49d0:	9b03      	ldr	r3, [sp, #12]
    49d2:	1d1a      	adds	r2, r3, #4
    49d4:	f89d 3007 	ldrb.w	r3, [sp, #7]
    49d8:	4610      	mov	r0, r2
    49da:	4619      	mov	r1, r3
    49dc:	2201      	movs	r2, #1
    49de:	f001 fa03 	bl	5de8 <serial_irq_set>
    49e2:	e008      	b.n	49f6 <mbed::SerialBase::attach(void (*)(), mbed::SerialBase::IrqType)+0x56>
    49e4:	9b03      	ldr	r3, [sp, #12]
    49e6:	1d1a      	adds	r2, r3, #4
    49e8:	f89d 3007 	ldrb.w	r3, [sp, #7]
    49ec:	4610      	mov	r0, r2
    49ee:	4619      	mov	r1, r3
    49f0:	2200      	movs	r2, #0
    49f2:	f001 f9f9 	bl	5de8 <serial_irq_set>
    49f6:	b005      	add	sp, #20
    49f8:	f85d fb04 	ldr.w	pc, [sp], #4

000049fc <mbed::SerialBase::_irq_handler(unsigned long, SerialIrq)>:
    49fc:	b500      	push	{lr}
    49fe:	b085      	sub	sp, #20
    4a00:	9001      	str	r0, [sp, #4]
    4a02:	460b      	mov	r3, r1
    4a04:	f88d 3003 	strb.w	r3, [sp, #3]
    4a08:	9b01      	ldr	r3, [sp, #4]
    4a0a:	9303      	str	r3, [sp, #12]
    4a0c:	f89d 2003 	ldrb.w	r2, [sp, #3]
    4a10:	4613      	mov	r3, r2
    4a12:	00db      	lsls	r3, r3, #3
    4a14:	1a9b      	subs	r3, r3, r2
    4a16:	009b      	lsls	r3, r3, #2
    4a18:	3308      	adds	r3, #8
    4a1a:	9a03      	ldr	r2, [sp, #12]
    4a1c:	4413      	add	r3, r2
    4a1e:	3304      	adds	r3, #4
    4a20:	4618      	mov	r0, r3
    4a22:	f7ff fbd9 	bl	41d8 <mbed::FunctionPointer::call()>
    4a26:	b005      	add	sp, #20
    4a28:	f85d fb04 	ldr.w	pc, [sp], #4

00004a2c <mbed::SerialBase::_base_getc()>:
    4a2c:	b500      	push	{lr}
    4a2e:	b083      	sub	sp, #12
    4a30:	9001      	str	r0, [sp, #4]
    4a32:	9b01      	ldr	r3, [sp, #4]
    4a34:	3304      	adds	r3, #4
    4a36:	4618      	mov	r0, r3
    4a38:	f001 fa16 	bl	5e68 <serial_getc>
    4a3c:	4603      	mov	r3, r0
    4a3e:	4618      	mov	r0, r3
    4a40:	b003      	add	sp, #12
    4a42:	f85d fb04 	ldr.w	pc, [sp], #4
    4a46:	bf00      	nop

00004a48 <mbed::SerialBase::_base_putc(int)>:
    4a48:	b500      	push	{lr}
    4a4a:	b083      	sub	sp, #12
    4a4c:	9001      	str	r0, [sp, #4]
    4a4e:	9100      	str	r1, [sp, #0]
    4a50:	9b01      	ldr	r3, [sp, #4]
    4a52:	3304      	adds	r3, #4
    4a54:	4618      	mov	r0, r3
    4a56:	9900      	ldr	r1, [sp, #0]
    4a58:	f001 fa3e 	bl	5ed8 <serial_putc>
    4a5c:	9b00      	ldr	r3, [sp, #0]
    4a5e:	4618      	mov	r0, r3
    4a60:	b003      	add	sp, #12
    4a62:	f85d fb04 	ldr.w	pc, [sp], #4
    4a66:	bf00      	nop

00004a68 <mbed::Stream::Stream(char const*)>:
    4a68:	b500      	push	{lr}
    4a6a:	b087      	sub	sp, #28
    4a6c:	9001      	str	r0, [sp, #4]
    4a6e:	9100      	str	r1, [sp, #0]
    4a70:	9b01      	ldr	r3, [sp, #4]
    4a72:	4618      	mov	r0, r3
    4a74:	9900      	ldr	r1, [sp, #0]
    4a76:	f001 fd55 	bl	6524 <mbed::FileLike::FileLike(char const*)>
    4a7a:	9b01      	ldr	r3, [sp, #4]
    4a7c:	4a10      	ldr	r2, [pc, #64]	; (4ac0 <mbed::Stream::Stream(char const*)+0x58>)
    4a7e:	601a      	str	r2, [r3, #0]
    4a80:	9b01      	ldr	r3, [sp, #4]
    4a82:	4a10      	ldr	r2, [pc, #64]	; (4ac4 <mbed::Stream::Stream(char const*)+0x5c>)
    4a84:	605a      	str	r2, [r3, #4]
    4a86:	9b01      	ldr	r3, [sp, #4]
    4a88:	2200      	movs	r2, #0
    4a8a:	615a      	str	r2, [r3, #20]
    4a8c:	ab03      	add	r3, sp, #12
    4a8e:	4618      	mov	r0, r3
    4a90:	490d      	ldr	r1, [pc, #52]	; (4ac8 <mbed::Stream::Stream(char const*)+0x60>)
    4a92:	9a01      	ldr	r2, [sp, #4]
    4a94:	f003 fca2 	bl	83dc <siprintf>
    4a98:	ab03      	add	r3, sp, #12
    4a9a:	4618      	mov	r0, r3
    4a9c:	490b      	ldr	r1, [pc, #44]	; (4acc <mbed::Stream::Stream(char const*)+0x64>)
    4a9e:	f003 f8b7 	bl	7c10 <fopen>
    4aa2:	4602      	mov	r2, r0
    4aa4:	9b01      	ldr	r3, [sp, #4]
    4aa6:	615a      	str	r2, [r3, #20]
    4aa8:	9b01      	ldr	r3, [sp, #4]
    4aaa:	695b      	ldr	r3, [r3, #20]
    4aac:	4618      	mov	r0, r3
    4aae:	2100      	movs	r1, #0
    4ab0:	f003 fc04 	bl	82bc <setbuf>
    4ab4:	9b01      	ldr	r3, [sp, #4]
    4ab6:	4618      	mov	r0, r3
    4ab8:	b007      	add	sp, #28
    4aba:	f85d fb04 	ldr.w	pc, [sp], #4
    4abe:	bf00      	nop
    4ac0:	0000dba8 	.word	0x0000dba8
    4ac4:	0000dbdc 	.word	0x0000dbdc
    4ac8:	0000db98 	.word	0x0000db98
    4acc:	0000db9c 	.word	0x0000db9c

00004ad0 <mbed::Stream::~Stream()>:
    4ad0:	b500      	push	{lr}
    4ad2:	b083      	sub	sp, #12
    4ad4:	9001      	str	r0, [sp, #4]
    4ad6:	9b01      	ldr	r3, [sp, #4]
    4ad8:	4a0c      	ldr	r2, [pc, #48]	; (4b0c <mbed::Stream::~Stream()+0x3c>)
    4ada:	601a      	str	r2, [r3, #0]
    4adc:	9b01      	ldr	r3, [sp, #4]
    4ade:	4a0c      	ldr	r2, [pc, #48]	; (4b10 <mbed::Stream::~Stream()+0x40>)
    4ae0:	605a      	str	r2, [r3, #4]
    4ae2:	9b01      	ldr	r3, [sp, #4]
    4ae4:	695b      	ldr	r3, [r3, #20]
    4ae6:	4618      	mov	r0, r3
    4ae8:	f002 fe96 	bl	7818 <fclose>
    4aec:	9b01      	ldr	r3, [sp, #4]
    4aee:	4618      	mov	r0, r3
    4af0:	f001 fd36 	bl	6560 <mbed::FileLike::~FileLike()>
    4af4:	2300      	movs	r3, #0
    4af6:	2b00      	cmp	r3, #0
    4af8:	d002      	beq.n	4b00 <mbed::Stream::~Stream()+0x30>
    4afa:	9801      	ldr	r0, [sp, #4]
    4afc:	f001 febe 	bl	687c <operator delete(void*)>
    4b00:	9b01      	ldr	r3, [sp, #4]
    4b02:	4618      	mov	r0, r3
    4b04:	b003      	add	sp, #12
    4b06:	f85d fb04 	ldr.w	pc, [sp], #4
    4b0a:	bf00      	nop
    4b0c:	0000dba8 	.word	0x0000dba8
    4b10:	0000dbdc 	.word	0x0000dbdc

00004b14 <non-virtual thunk to mbed::Stream::~Stream()>:
    4b14:	f1a0 0004 	sub.w	r0, r0, #4
    4b18:	f7ff bfda 	b.w	4ad0 <mbed::Stream::~Stream()>

00004b1c <mbed::Stream::~Stream()>:
    4b1c:	b500      	push	{lr}
    4b1e:	b083      	sub	sp, #12
    4b20:	9001      	str	r0, [sp, #4]
    4b22:	9801      	ldr	r0, [sp, #4]
    4b24:	f7ff ffd4 	bl	4ad0 <mbed::Stream::~Stream()>
    4b28:	9801      	ldr	r0, [sp, #4]
    4b2a:	f001 fea7 	bl	687c <operator delete(void*)>
    4b2e:	9b01      	ldr	r3, [sp, #4]
    4b30:	4618      	mov	r0, r3
    4b32:	b003      	add	sp, #12
    4b34:	f85d fb04 	ldr.w	pc, [sp], #4

00004b38 <non-virtual thunk to mbed::Stream::~Stream()>:
    4b38:	f1a0 0004 	sub.w	r0, r0, #4
    4b3c:	f7ff bfee 	b.w	4b1c <mbed::Stream::~Stream()>

00004b40 <mbed::Stream::putc(int)>:
    4b40:	b500      	push	{lr}
    4b42:	b083      	sub	sp, #12
    4b44:	9001      	str	r0, [sp, #4]
    4b46:	9100      	str	r1, [sp, #0]
    4b48:	9b01      	ldr	r3, [sp, #4]
    4b4a:	695b      	ldr	r3, [r3, #20]
    4b4c:	4618      	mov	r0, r3
    4b4e:	f002 ff19 	bl	7984 <fflush>
    4b52:	9b01      	ldr	r3, [sp, #4]
    4b54:	695b      	ldr	r3, [r3, #20]
    4b56:	9800      	ldr	r0, [sp, #0]
    4b58:	4619      	mov	r1, r3
    4b5a:	f003 f887 	bl	7c6c <fputc>
    4b5e:	4603      	mov	r3, r0
    4b60:	4618      	mov	r0, r3
    4b62:	b003      	add	sp, #12
    4b64:	f85d fb04 	ldr.w	pc, [sp], #4

00004b68 <mbed::Stream::getc()>:
    4b68:	b500      	push	{lr}
    4b6a:	b083      	sub	sp, #12
    4b6c:	9001      	str	r0, [sp, #4]
    4b6e:	9b01      	ldr	r3, [sp, #4]
    4b70:	695b      	ldr	r3, [r3, #20]
    4b72:	4618      	mov	r0, r3
    4b74:	f002 ff06 	bl	7984 <fflush>
    4b78:	9b01      	ldr	r3, [sp, #4]
    4b7a:	695b      	ldr	r3, [r3, #20]
    4b7c:	4618      	mov	r0, r3
    4b7e:	f002 ff3f 	bl	7a00 <fgetc>
    4b82:	4603      	mov	r3, r0
    4b84:	4618      	mov	r0, r3
    4b86:	b003      	add	sp, #12
    4b88:	f85d fb04 	ldr.w	pc, [sp], #4

00004b8c <mbed::Stream::close()>:
    4b8c:	b082      	sub	sp, #8
    4b8e:	9001      	str	r0, [sp, #4]
    4b90:	2300      	movs	r3, #0
    4b92:	4618      	mov	r0, r3
    4b94:	b002      	add	sp, #8
    4b96:	4770      	bx	lr

00004b98 <mbed::Stream::write(void const*, unsigned int)>:
    4b98:	b500      	push	{lr}
    4b9a:	b087      	sub	sp, #28
    4b9c:	9003      	str	r0, [sp, #12]
    4b9e:	9102      	str	r1, [sp, #8]
    4ba0:	9201      	str	r2, [sp, #4]
    4ba2:	9b02      	ldr	r3, [sp, #8]
    4ba4:	9305      	str	r3, [sp, #20]
    4ba6:	9a05      	ldr	r2, [sp, #20]
    4ba8:	9b01      	ldr	r3, [sp, #4]
    4baa:	4413      	add	r3, r2
    4bac:	9304      	str	r3, [sp, #16]
    4bae:	e014      	b.n	4bda <mbed::Stream::write(void const*, unsigned int)+0x42>
    4bb0:	9b03      	ldr	r3, [sp, #12]
    4bb2:	681b      	ldr	r3, [r3, #0]
    4bb4:	3324      	adds	r3, #36	; 0x24
    4bb6:	681a      	ldr	r2, [r3, #0]
    4bb8:	9b05      	ldr	r3, [sp, #20]
    4bba:	1c59      	adds	r1, r3, #1
    4bbc:	9105      	str	r1, [sp, #20]
    4bbe:	781b      	ldrb	r3, [r3, #0]
    4bc0:	9803      	ldr	r0, [sp, #12]
    4bc2:	4619      	mov	r1, r3
    4bc4:	4790      	blx	r2
    4bc6:	4603      	mov	r3, r0
    4bc8:	f1b3 3fff 	cmp.w	r3, #4294967295
    4bcc:	bf14      	ite	ne
    4bce:	2300      	movne	r3, #0
    4bd0:	2301      	moveq	r3, #1
    4bd2:	b2db      	uxtb	r3, r3
    4bd4:	2b00      	cmp	r3, #0
    4bd6:	d000      	beq.n	4bda <mbed::Stream::write(void const*, unsigned int)+0x42>
    4bd8:	e003      	b.n	4be2 <mbed::Stream::write(void const*, unsigned int)+0x4a>
    4bda:	9a05      	ldr	r2, [sp, #20]
    4bdc:	9b04      	ldr	r3, [sp, #16]
    4bde:	429a      	cmp	r2, r3
    4be0:	d1e6      	bne.n	4bb0 <mbed::Stream::write(void const*, unsigned int)+0x18>
    4be2:	9a05      	ldr	r2, [sp, #20]
    4be4:	9b02      	ldr	r3, [sp, #8]
    4be6:	1ad3      	subs	r3, r2, r3
    4be8:	4618      	mov	r0, r3
    4bea:	b007      	add	sp, #28
    4bec:	f85d fb04 	ldr.w	pc, [sp], #4

00004bf0 <mbed::Stream::read(void*, unsigned int)>:
    4bf0:	b500      	push	{lr}
    4bf2:	b089      	sub	sp, #36	; 0x24
    4bf4:	9003      	str	r0, [sp, #12]
    4bf6:	9102      	str	r1, [sp, #8]
    4bf8:	9201      	str	r2, [sp, #4]
    4bfa:	9b02      	ldr	r3, [sp, #8]
    4bfc:	9307      	str	r3, [sp, #28]
    4bfe:	9a07      	ldr	r2, [sp, #28]
    4c00:	9b01      	ldr	r3, [sp, #4]
    4c02:	4413      	add	r3, r2
    4c04:	9306      	str	r3, [sp, #24]
    4c06:	e011      	b.n	4c2c <mbed::Stream::read(void*, unsigned int)+0x3c>
    4c08:	9b03      	ldr	r3, [sp, #12]
    4c0a:	681b      	ldr	r3, [r3, #0]
    4c0c:	3328      	adds	r3, #40	; 0x28
    4c0e:	681b      	ldr	r3, [r3, #0]
    4c10:	9803      	ldr	r0, [sp, #12]
    4c12:	4798      	blx	r3
    4c14:	9005      	str	r0, [sp, #20]
    4c16:	9b05      	ldr	r3, [sp, #20]
    4c18:	f1b3 3fff 	cmp.w	r3, #4294967295
    4c1c:	d100      	bne.n	4c20 <mbed::Stream::read(void*, unsigned int)+0x30>
    4c1e:	e009      	b.n	4c34 <mbed::Stream::read(void*, unsigned int)+0x44>
    4c20:	9b07      	ldr	r3, [sp, #28]
    4c22:	1c5a      	adds	r2, r3, #1
    4c24:	9207      	str	r2, [sp, #28]
    4c26:	9a05      	ldr	r2, [sp, #20]
    4c28:	b2d2      	uxtb	r2, r2
    4c2a:	701a      	strb	r2, [r3, #0]
    4c2c:	9a07      	ldr	r2, [sp, #28]
    4c2e:	9b06      	ldr	r3, [sp, #24]
    4c30:	429a      	cmp	r2, r3
    4c32:	d1e9      	bne.n	4c08 <mbed::Stream::read(void*, unsigned int)+0x18>
    4c34:	9a07      	ldr	r2, [sp, #28]
    4c36:	9b02      	ldr	r3, [sp, #8]
    4c38:	1ad3      	subs	r3, r2, r3
    4c3a:	4618      	mov	r0, r3
    4c3c:	b009      	add	sp, #36	; 0x24
    4c3e:	f85d fb04 	ldr.w	pc, [sp], #4
    4c42:	bf00      	nop

00004c44 <mbed::Stream::lseek(long, int)>:
    4c44:	b084      	sub	sp, #16
    4c46:	9003      	str	r0, [sp, #12]
    4c48:	9102      	str	r1, [sp, #8]
    4c4a:	9201      	str	r2, [sp, #4]
    4c4c:	2300      	movs	r3, #0
    4c4e:	4618      	mov	r0, r3
    4c50:	b004      	add	sp, #16
    4c52:	4770      	bx	lr

00004c54 <mbed::Stream::isatty()>:
    4c54:	b082      	sub	sp, #8
    4c56:	9001      	str	r0, [sp, #4]
    4c58:	2300      	movs	r3, #0
    4c5a:	4618      	mov	r0, r3
    4c5c:	b002      	add	sp, #8
    4c5e:	4770      	bx	lr

00004c60 <mbed::Stream::fsync()>:
    4c60:	b082      	sub	sp, #8
    4c62:	9001      	str	r0, [sp, #4]
    4c64:	2300      	movs	r3, #0
    4c66:	4618      	mov	r0, r3
    4c68:	b002      	add	sp, #8
    4c6a:	4770      	bx	lr

00004c6c <mbed::Stream::flen()>:
    4c6c:	b082      	sub	sp, #8
    4c6e:	9001      	str	r0, [sp, #4]
    4c70:	2300      	movs	r3, #0
    4c72:	4618      	mov	r0, r3
    4c74:	b002      	add	sp, #8
    4c76:	4770      	bx	lr

00004c78 <mbed::Ticker::setup(unsigned int)>:
    4c78:	b530      	push	{r4, r5, lr}
    4c7a:	b083      	sub	sp, #12
    4c7c:	9001      	str	r0, [sp, #4]
    4c7e:	9100      	str	r1, [sp, #0]
    4c80:	9b01      	ldr	r3, [sp, #4]
    4c82:	4618      	mov	r0, r3
    4c84:	f000 f8fc 	bl	4e80 <mbed::TimerEvent::remove()>
    4c88:	9b01      	ldr	r3, [sp, #4]
    4c8a:	9a00      	ldr	r2, [sp, #0]
    4c8c:	611a      	str	r2, [r3, #16]
    4c8e:	9c01      	ldr	r4, [sp, #4]
    4c90:	9b01      	ldr	r3, [sp, #4]
    4c92:	691d      	ldr	r5, [r3, #16]
    4c94:	f001 fac4 	bl	6220 <us_ticker_read>
    4c98:	4603      	mov	r3, r0
    4c9a:	442b      	add	r3, r5
    4c9c:	4620      	mov	r0, r4
    4c9e:	4619      	mov	r1, r3
    4ca0:	f000 f8de 	bl	4e60 <mbed::TimerEvent::insert(unsigned int)>
    4ca4:	b003      	add	sp, #12
    4ca6:	bd30      	pop	{r4, r5, pc}

00004ca8 <mbed::Ticker::handler()>:
    4ca8:	b500      	push	{lr}
    4caa:	b083      	sub	sp, #12
    4cac:	9001      	str	r0, [sp, #4]
    4cae:	9a01      	ldr	r2, [sp, #4]
    4cb0:	9b01      	ldr	r3, [sp, #4]
    4cb2:	6859      	ldr	r1, [r3, #4]
    4cb4:	9b01      	ldr	r3, [sp, #4]
    4cb6:	691b      	ldr	r3, [r3, #16]
    4cb8:	440b      	add	r3, r1
    4cba:	4610      	mov	r0, r2
    4cbc:	4619      	mov	r1, r3
    4cbe:	f000 f8cf 	bl	4e60 <mbed::TimerEvent::insert(unsigned int)>
    4cc2:	9b01      	ldr	r3, [sp, #4]
    4cc4:	3314      	adds	r3, #20
    4cc6:	4618      	mov	r0, r3
    4cc8:	f7ff fa86 	bl	41d8 <mbed::FunctionPointer::call()>
    4ccc:	b003      	add	sp, #12
    4cce:	f85d fb04 	ldr.w	pc, [sp], #4
    4cd2:	bf00      	nop

00004cd4 <mbed::Timer::Timer()>:
    4cd4:	b500      	push	{lr}
    4cd6:	b083      	sub	sp, #12
    4cd8:	9001      	str	r0, [sp, #4]
    4cda:	9b01      	ldr	r3, [sp, #4]
    4cdc:	2200      	movs	r2, #0
    4cde:	601a      	str	r2, [r3, #0]
    4ce0:	9b01      	ldr	r3, [sp, #4]
    4ce2:	2200      	movs	r2, #0
    4ce4:	605a      	str	r2, [r3, #4]
    4ce6:	9b01      	ldr	r3, [sp, #4]
    4ce8:	2200      	movs	r2, #0
    4cea:	609a      	str	r2, [r3, #8]
    4cec:	9801      	ldr	r0, [sp, #4]
    4cee:	f000 f85b 	bl	4da8 <mbed::Timer::reset()>
    4cf2:	9b01      	ldr	r3, [sp, #4]
    4cf4:	4618      	mov	r0, r3
    4cf6:	b003      	add	sp, #12
    4cf8:	f85d fb04 	ldr.w	pc, [sp], #4

00004cfc <mbed::Timer::start()>:
    4cfc:	b500      	push	{lr}
    4cfe:	b083      	sub	sp, #12
    4d00:	9001      	str	r0, [sp, #4]
    4d02:	f001 fa8d 	bl	6220 <us_ticker_read>
    4d06:	4602      	mov	r2, r0
    4d08:	9b01      	ldr	r3, [sp, #4]
    4d0a:	605a      	str	r2, [r3, #4]
    4d0c:	9b01      	ldr	r3, [sp, #4]
    4d0e:	2201      	movs	r2, #1
    4d10:	601a      	str	r2, [r3, #0]
    4d12:	b003      	add	sp, #12
    4d14:	f85d fb04 	ldr.w	pc, [sp], #4

00004d18 <mbed::Timer::stop()>:
    4d18:	b500      	push	{lr}
    4d1a:	b083      	sub	sp, #12
    4d1c:	9001      	str	r0, [sp, #4]
    4d1e:	9801      	ldr	r0, [sp, #4]
    4d20:	f000 f82e 	bl	4d80 <mbed::Timer::slicetime()>
    4d24:	4603      	mov	r3, r0
    4d26:	9a01      	ldr	r2, [sp, #4]
    4d28:	6892      	ldr	r2, [r2, #8]
    4d2a:	441a      	add	r2, r3
    4d2c:	9b01      	ldr	r3, [sp, #4]
    4d2e:	609a      	str	r2, [r3, #8]
    4d30:	9b01      	ldr	r3, [sp, #4]
    4d32:	2200      	movs	r2, #0
    4d34:	601a      	str	r2, [r3, #0]
    4d36:	b003      	add	sp, #12
    4d38:	f85d fb04 	ldr.w	pc, [sp], #4

00004d3c <mbed::Timer::read_us()>:
    4d3c:	b510      	push	{r4, lr}
    4d3e:	b082      	sub	sp, #8
    4d40:	9001      	str	r0, [sp, #4]
    4d42:	9b01      	ldr	r3, [sp, #4]
    4d44:	689c      	ldr	r4, [r3, #8]
    4d46:	9801      	ldr	r0, [sp, #4]
    4d48:	f000 f81a 	bl	4d80 <mbed::Timer::slicetime()>
    4d4c:	4603      	mov	r3, r0
    4d4e:	4423      	add	r3, r4
    4d50:	4618      	mov	r0, r3
    4d52:	b002      	add	sp, #8
    4d54:	bd10      	pop	{r4, pc}
    4d56:	bf00      	nop

00004d58 <mbed::Timer::read_ms()>:
    4d58:	b500      	push	{lr}
    4d5a:	b083      	sub	sp, #12
    4d5c:	9001      	str	r0, [sp, #4]
    4d5e:	9801      	ldr	r0, [sp, #4]
    4d60:	f7ff ffec 	bl	4d3c <mbed::Timer::read_us()>
    4d64:	4603      	mov	r3, r0
    4d66:	4a05      	ldr	r2, [pc, #20]	; (4d7c <mbed::Timer::read_ms()+0x24>)
    4d68:	fb82 1203 	smull	r1, r2, r2, r3
    4d6c:	1192      	asrs	r2, r2, #6
    4d6e:	17db      	asrs	r3, r3, #31
    4d70:	1ad3      	subs	r3, r2, r3
    4d72:	4618      	mov	r0, r3
    4d74:	b003      	add	sp, #12
    4d76:	f85d fb04 	ldr.w	pc, [sp], #4
    4d7a:	bf00      	nop
    4d7c:	10624dd3 	.word	0x10624dd3

00004d80 <mbed::Timer::slicetime()>:
    4d80:	b500      	push	{lr}
    4d82:	b083      	sub	sp, #12
    4d84:	9001      	str	r0, [sp, #4]
    4d86:	9b01      	ldr	r3, [sp, #4]
    4d88:	681b      	ldr	r3, [r3, #0]
    4d8a:	2b00      	cmp	r3, #0
    4d8c:	d006      	beq.n	4d9c <mbed::Timer::slicetime()+0x1c>
    4d8e:	f001 fa47 	bl	6220 <us_ticker_read>
    4d92:	4602      	mov	r2, r0
    4d94:	9b01      	ldr	r3, [sp, #4]
    4d96:	685b      	ldr	r3, [r3, #4]
    4d98:	1ad3      	subs	r3, r2, r3
    4d9a:	e000      	b.n	4d9e <mbed::Timer::slicetime()+0x1e>
    4d9c:	2300      	movs	r3, #0
    4d9e:	4618      	mov	r0, r3
    4da0:	b003      	add	sp, #12
    4da2:	f85d fb04 	ldr.w	pc, [sp], #4
    4da6:	bf00      	nop

00004da8 <mbed::Timer::reset()>:
    4da8:	b500      	push	{lr}
    4daa:	b083      	sub	sp, #12
    4dac:	9001      	str	r0, [sp, #4]
    4dae:	f001 fa37 	bl	6220 <us_ticker_read>
    4db2:	4602      	mov	r2, r0
    4db4:	9b01      	ldr	r3, [sp, #4]
    4db6:	605a      	str	r2, [r3, #4]
    4db8:	9b01      	ldr	r3, [sp, #4]
    4dba:	2200      	movs	r2, #0
    4dbc:	609a      	str	r2, [r3, #8]
    4dbe:	b003      	add	sp, #12
    4dc0:	f85d fb04 	ldr.w	pc, [sp], #4

00004dc4 <mbed::TimerEvent::TimerEvent()>:
    4dc4:	b500      	push	{lr}
    4dc6:	b083      	sub	sp, #12
    4dc8:	9001      	str	r0, [sp, #4]
    4dca:	9b01      	ldr	r3, [sp, #4]
    4dcc:	4a09      	ldr	r2, [pc, #36]	; (4df4 <mbed::TimerEvent::TimerEvent()+0x30>)
    4dce:	601a      	str	r2, [r3, #0]
    4dd0:	9b01      	ldr	r3, [sp, #4]
    4dd2:	2200      	movs	r2, #0
    4dd4:	605a      	str	r2, [r3, #4]
    4dd6:	9b01      	ldr	r3, [sp, #4]
    4dd8:	2200      	movs	r2, #0
    4dda:	609a      	str	r2, [r3, #8]
    4ddc:	9b01      	ldr	r3, [sp, #4]
    4dde:	2200      	movs	r2, #0
    4de0:	60da      	str	r2, [r3, #12]
    4de2:	4805      	ldr	r0, [pc, #20]	; (4df8 <mbed::TimerEvent::TimerEvent()+0x34>)
    4de4:	f001 fae4 	bl	63b0 <us_ticker_set_handler>
    4de8:	9b01      	ldr	r3, [sp, #4]
    4dea:	4618      	mov	r0, r3
    4dec:	b003      	add	sp, #12
    4dee:	f85d fb04 	ldr.w	pc, [sp], #4
    4df2:	bf00      	nop
    4df4:	0000dc08 	.word	0x0000dc08
    4df8:	00004dfd 	.word	0x00004dfd

00004dfc <mbed::TimerEvent::irq(unsigned long)>:
    4dfc:	b500      	push	{lr}
    4dfe:	b085      	sub	sp, #20
    4e00:	9001      	str	r0, [sp, #4]
    4e02:	9b01      	ldr	r3, [sp, #4]
    4e04:	9303      	str	r3, [sp, #12]
    4e06:	9b03      	ldr	r3, [sp, #12]
    4e08:	681b      	ldr	r3, [r3, #0]
    4e0a:	3308      	adds	r3, #8
    4e0c:	681b      	ldr	r3, [r3, #0]
    4e0e:	9803      	ldr	r0, [sp, #12]
    4e10:	4798      	blx	r3
    4e12:	b005      	add	sp, #20
    4e14:	f85d fb04 	ldr.w	pc, [sp], #4

00004e18 <mbed::TimerEvent::~TimerEvent()>:
    4e18:	b500      	push	{lr}
    4e1a:	b083      	sub	sp, #12
    4e1c:	9001      	str	r0, [sp, #4]
    4e1e:	9b01      	ldr	r3, [sp, #4]
    4e20:	4a07      	ldr	r2, [pc, #28]	; (4e40 <mbed::TimerEvent::~TimerEvent()+0x28>)
    4e22:	601a      	str	r2, [r3, #0]
    4e24:	9801      	ldr	r0, [sp, #4]
    4e26:	f000 f82b 	bl	4e80 <mbed::TimerEvent::remove()>
    4e2a:	2300      	movs	r3, #0
    4e2c:	2b00      	cmp	r3, #0
    4e2e:	d002      	beq.n	4e36 <mbed::TimerEvent::~TimerEvent()+0x1e>
    4e30:	9801      	ldr	r0, [sp, #4]
    4e32:	f001 fd23 	bl	687c <operator delete(void*)>
    4e36:	9b01      	ldr	r3, [sp, #4]
    4e38:	4618      	mov	r0, r3
    4e3a:	b003      	add	sp, #12
    4e3c:	f85d fb04 	ldr.w	pc, [sp], #4
    4e40:	0000dc08 	.word	0x0000dc08

00004e44 <mbed::TimerEvent::~TimerEvent()>:
    4e44:	b500      	push	{lr}
    4e46:	b083      	sub	sp, #12
    4e48:	9001      	str	r0, [sp, #4]
    4e4a:	9801      	ldr	r0, [sp, #4]
    4e4c:	f7ff ffe4 	bl	4e18 <mbed::TimerEvent::~TimerEvent()>
    4e50:	9801      	ldr	r0, [sp, #4]
    4e52:	f001 fd13 	bl	687c <operator delete(void*)>
    4e56:	9b01      	ldr	r3, [sp, #4]
    4e58:	4618      	mov	r0, r3
    4e5a:	b003      	add	sp, #12
    4e5c:	f85d fb04 	ldr.w	pc, [sp], #4

00004e60 <mbed::TimerEvent::insert(unsigned int)>:
    4e60:	b500      	push	{lr}
    4e62:	b083      	sub	sp, #12
    4e64:	9001      	str	r0, [sp, #4]
    4e66:	9100      	str	r1, [sp, #0]
    4e68:	9b01      	ldr	r3, [sp, #4]
    4e6a:	1d1a      	adds	r2, r3, #4
    4e6c:	9b01      	ldr	r3, [sp, #4]
    4e6e:	4610      	mov	r0, r2
    4e70:	9900      	ldr	r1, [sp, #0]
    4e72:	461a      	mov	r2, r3
    4e74:	f001 fae0 	bl	6438 <us_ticker_insert_event>
    4e78:	b003      	add	sp, #12
    4e7a:	f85d fb04 	ldr.w	pc, [sp], #4
    4e7e:	bf00      	nop

00004e80 <mbed::TimerEvent::remove()>:
    4e80:	b500      	push	{lr}
    4e82:	b083      	sub	sp, #12
    4e84:	9001      	str	r0, [sp, #4]
    4e86:	9b01      	ldr	r3, [sp, #4]
    4e88:	3304      	adds	r3, #4
    4e8a:	4618      	mov	r0, r3
    4e8c:	f001 fb0c 	bl	64a8 <us_ticker_remove_event>
    4e90:	b003      	add	sp, #12
    4e92:	f85d fb04 	ldr.w	pc, [sp], #4
    4e96:	bf00      	nop

00004e98 <Reset_Handler>:
    4e98:	4906      	ldr	r1, [pc, #24]	; (4eb4 <Reset_Handler+0x1c>)
    4e9a:	4a07      	ldr	r2, [pc, #28]	; (4eb8 <Reset_Handler+0x20>)
    4e9c:	4b07      	ldr	r3, [pc, #28]	; (4ebc <Reset_Handler+0x24>)
    4e9e:	429a      	cmp	r2, r3
    4ea0:	bfbe      	ittt	lt
    4ea2:	f851 0b04 	ldrlt.w	r0, [r1], #4
    4ea6:	f842 0b04 	strlt.w	r0, [r2], #4
    4eaa:	e7f8      	blt.n	4e9e <Reset_Handler+0x6>
    4eac:	4804      	ldr	r0, [pc, #16]	; (4ec0 <Reset_Handler+0x28>)
    4eae:	4780      	blx	r0
    4eb0:	4804      	ldr	r0, [pc, #16]	; (4ec4 <Reset_Handler+0x2c>)
    4eb2:	4700      	bx	r0
    4eb4:	0000e1a0 	.word	0x0000e1a0
    4eb8:	100000c8 	.word	0x100000c8
    4ebc:	10000188 	.word	0x10000188
    4ec0:	00003d7d 	.word	0x00003d7d
    4ec4:	000010a9 	.word	0x000010a9

00004ec8 <NMI_Handler>:
    4ec8:	e7fe      	b.n	4ec8 <NMI_Handler>
    4eca:	e7fe      	b.n	4eca <NMI_Handler+0x2>
    4ecc:	e7fe      	b.n	4ecc <NMI_Handler+0x4>
    4ece:	e7fe      	b.n	4ece <NMI_Handler+0x6>
    4ed0:	e7fe      	b.n	4ed0 <NMI_Handler+0x8>

00004ed2 <SVC_Handler>:
    4ed2:	e7fe      	b.n	4ed2 <SVC_Handler>
    4ed4:	e7fe      	b.n	4ed4 <SVC_Handler+0x2>

00004ed6 <PendSV_Handler>:
    4ed6:	e7fe      	b.n	4ed6 <PendSV_Handler>

00004ed8 <SysTick_Handler>:
    4ed8:	e7fe      	b.n	4ed8 <SysTick_Handler>

00004eda <ADC_IRQHandler>:
    4eda:	e7fe      	b.n	4eda <ADC_IRQHandler>

00004edc <gpio_set>:
    4edc:	b500      	push	{lr}
    4ede:	b083      	sub	sp, #12
    4ee0:	9001      	str	r0, [sp, #4]
    4ee2:	9801      	ldr	r0, [sp, #4]
    4ee4:	2100      	movs	r1, #0
    4ee6:	f000 fa71 	bl	53cc <pin_function>
    4eea:	9b01      	ldr	r3, [sp, #4]
    4eec:	f003 031f 	and.w	r3, r3, #31
    4ef0:	2201      	movs	r2, #1
    4ef2:	fa02 f303 	lsl.w	r3, r2, r3
    4ef6:	4618      	mov	r0, r3
    4ef8:	b003      	add	sp, #12
    4efa:	f85d fb04 	ldr.w	pc, [sp], #4
    4efe:	bf00      	nop

00004f00 <gpio_init>:
    4f00:	b500      	push	{lr}
    4f02:	b085      	sub	sp, #20
    4f04:	9001      	str	r0, [sp, #4]
    4f06:	9100      	str	r1, [sp, #0]
    4f08:	9b00      	ldr	r3, [sp, #0]
    4f0a:	f1b3 3fff 	cmp.w	r3, #4294967295
    4f0e:	d100      	bne.n	4f12 <gpio_init+0x12>
    4f10:	e01e      	b.n	4f50 <gpio_init+0x50>
    4f12:	9b01      	ldr	r3, [sp, #4]
    4f14:	9a00      	ldr	r2, [sp, #0]
    4f16:	601a      	str	r2, [r3, #0]
    4f18:	9800      	ldr	r0, [sp, #0]
    4f1a:	f7ff ffdf 	bl	4edc <gpio_set>
    4f1e:	4602      	mov	r2, r0
    4f20:	9b01      	ldr	r3, [sp, #4]
    4f22:	605a      	str	r2, [r3, #4]
    4f24:	9b00      	ldr	r3, [sp, #0]
    4f26:	f023 031f 	bic.w	r3, r3, #31
    4f2a:	9303      	str	r3, [sp, #12]
    4f2c:	9b03      	ldr	r3, [sp, #12]
    4f2e:	f103 0218 	add.w	r2, r3, #24
    4f32:	9b01      	ldr	r3, [sp, #4]
    4f34:	60da      	str	r2, [r3, #12]
    4f36:	9b03      	ldr	r3, [sp, #12]
    4f38:	f103 021c 	add.w	r2, r3, #28
    4f3c:	9b01      	ldr	r3, [sp, #4]
    4f3e:	611a      	str	r2, [r3, #16]
    4f40:	9b03      	ldr	r3, [sp, #12]
    4f42:	f103 0214 	add.w	r2, r3, #20
    4f46:	9b01      	ldr	r3, [sp, #4]
    4f48:	615a      	str	r2, [r3, #20]
    4f4a:	9a03      	ldr	r2, [sp, #12]
    4f4c:	9b01      	ldr	r3, [sp, #4]
    4f4e:	609a      	str	r2, [r3, #8]
    4f50:	b005      	add	sp, #20
    4f52:	f85d fb04 	ldr.w	pc, [sp], #4
    4f56:	bf00      	nop

00004f58 <gpio_mode>:
    4f58:	b500      	push	{lr}
    4f5a:	b083      	sub	sp, #12
    4f5c:	9001      	str	r0, [sp, #4]
    4f5e:	460b      	mov	r3, r1
    4f60:	f88d 3003 	strb.w	r3, [sp, #3]
    4f64:	9b01      	ldr	r3, [sp, #4]
    4f66:	681a      	ldr	r2, [r3, #0]
    4f68:	f89d 3003 	ldrb.w	r3, [sp, #3]
    4f6c:	4610      	mov	r0, r2
    4f6e:	4619      	mov	r1, r3
    4f70:	f000 fa62 	bl	5438 <pin_mode>
    4f74:	b003      	add	sp, #12
    4f76:	f85d fb04 	ldr.w	pc, [sp], #4
    4f7a:	bf00      	nop

00004f7c <gpio_dir>:
    4f7c:	b082      	sub	sp, #8
    4f7e:	9001      	str	r0, [sp, #4]
    4f80:	460b      	mov	r3, r1
    4f82:	f88d 3003 	strb.w	r3, [sp, #3]
    4f86:	f89d 3003 	ldrb.w	r3, [sp, #3]
    4f8a:	2b00      	cmp	r3, #0
    4f8c:	d002      	beq.n	4f94 <gpio_dir+0x18>
    4f8e:	2b01      	cmp	r3, #1
    4f90:	d00b      	beq.n	4faa <gpio_dir+0x2e>
    4f92:	e014      	b.n	4fbe <gpio_dir+0x42>
    4f94:	9b01      	ldr	r3, [sp, #4]
    4f96:	689b      	ldr	r3, [r3, #8]
    4f98:	9a01      	ldr	r2, [sp, #4]
    4f9a:	6892      	ldr	r2, [r2, #8]
    4f9c:	6811      	ldr	r1, [r2, #0]
    4f9e:	9a01      	ldr	r2, [sp, #4]
    4fa0:	6852      	ldr	r2, [r2, #4]
    4fa2:	43d2      	mvns	r2, r2
    4fa4:	400a      	ands	r2, r1
    4fa6:	601a      	str	r2, [r3, #0]
    4fa8:	e009      	b.n	4fbe <gpio_dir+0x42>
    4faa:	9b01      	ldr	r3, [sp, #4]
    4fac:	689b      	ldr	r3, [r3, #8]
    4fae:	9a01      	ldr	r2, [sp, #4]
    4fb0:	6892      	ldr	r2, [r2, #8]
    4fb2:	6811      	ldr	r1, [r2, #0]
    4fb4:	9a01      	ldr	r2, [sp, #4]
    4fb6:	6852      	ldr	r2, [r2, #4]
    4fb8:	430a      	orrs	r2, r1
    4fba:	601a      	str	r2, [r3, #0]
    4fbc:	bf00      	nop
    4fbe:	b002      	add	sp, #8
    4fc0:	4770      	bx	lr
    4fc2:	bf00      	nop

00004fc4 <NVIC_EnableIRQ>:
    4fc4:	b082      	sub	sp, #8
    4fc6:	4603      	mov	r3, r0
    4fc8:	f88d 3007 	strb.w	r3, [sp, #7]
    4fcc:	4b07      	ldr	r3, [pc, #28]	; (4fec <NVIC_EnableIRQ+0x28>)
    4fce:	f99d 2007 	ldrsb.w	r2, [sp, #7]
    4fd2:	0952      	lsrs	r2, r2, #5
    4fd4:	f89d 1007 	ldrb.w	r1, [sp, #7]
    4fd8:	f001 011f 	and.w	r1, r1, #31
    4fdc:	2001      	movs	r0, #1
    4fde:	fa00 f101 	lsl.w	r1, r0, r1
    4fe2:	f843 1022 	str.w	r1, [r3, r2, lsl #2]
    4fe6:	b002      	add	sp, #8
    4fe8:	4770      	bx	lr
    4fea:	bf00      	nop
    4fec:	e000e100 	.word	0xe000e100

00004ff0 <handle_interrupt_in>:
    4ff0:	b500      	push	{lr}
    4ff2:	b08f      	sub	sp, #60	; 0x3c
    4ff4:	4b6f      	ldr	r3, [pc, #444]	; (51b4 <handle_interrupt_in+0x1c4>)
    4ff6:	685b      	ldr	r3, [r3, #4]
    4ff8:	930d      	str	r3, [sp, #52]	; 0x34
    4ffa:	4b6e      	ldr	r3, [pc, #440]	; (51b4 <handle_interrupt_in+0x1c4>)
    4ffc:	689b      	ldr	r3, [r3, #8]
    4ffe:	930c      	str	r3, [sp, #48]	; 0x30
    5000:	4b6c      	ldr	r3, [pc, #432]	; (51b4 <handle_interrupt_in+0x1c4>)
    5002:	6a5b      	ldr	r3, [r3, #36]	; 0x24
    5004:	930b      	str	r3, [sp, #44]	; 0x2c
    5006:	4b6b      	ldr	r3, [pc, #428]	; (51b4 <handle_interrupt_in+0x1c4>)
    5008:	6a9b      	ldr	r3, [r3, #40]	; 0x28
    500a:	930a      	str	r3, [sp, #40]	; 0x28
    500c:	e02b      	b.n	5066 <handle_interrupt_in+0x76>
    500e:	9b0d      	ldr	r3, [sp, #52]	; 0x34
    5010:	9308      	str	r3, [sp, #32]
    5012:	9b08      	ldr	r3, [sp, #32]
    5014:	fab3 f383 	clz	r3, r3
    5018:	9307      	str	r3, [sp, #28]
    501a:	9b07      	ldr	r3, [sp, #28]
    501c:	b2db      	uxtb	r3, r3
    501e:	f1c3 031f 	rsb	r3, r3, #31
    5022:	f88d 3027 	strb.w	r3, [sp, #39]	; 0x27
    5026:	f89d 2027 	ldrb.w	r2, [sp, #39]	; 0x27
    502a:	4b63      	ldr	r3, [pc, #396]	; (51b8 <handle_interrupt_in+0x1c8>)
    502c:	f853 3022 	ldr.w	r3, [r3, r2, lsl #2]
    5030:	2b00      	cmp	r3, #0
    5032:	d009      	beq.n	5048 <handle_interrupt_in+0x58>
    5034:	4b61      	ldr	r3, [pc, #388]	; (51bc <handle_interrupt_in+0x1cc>)
    5036:	681b      	ldr	r3, [r3, #0]
    5038:	f89d 1027 	ldrb.w	r1, [sp, #39]	; 0x27
    503c:	4a5e      	ldr	r2, [pc, #376]	; (51b8 <handle_interrupt_in+0x1c8>)
    503e:	f852 2021 	ldr.w	r2, [r2, r1, lsl #2]
    5042:	4610      	mov	r0, r2
    5044:	2101      	movs	r1, #1
    5046:	4798      	blx	r3
    5048:	4b5a      	ldr	r3, [pc, #360]	; (51b4 <handle_interrupt_in+0x1c4>)
    504a:	f89d 2027 	ldrb.w	r2, [sp, #39]	; 0x27
    504e:	2101      	movs	r1, #1
    5050:	fa01 f202 	lsl.w	r2, r1, r2
    5054:	60da      	str	r2, [r3, #12]
    5056:	f89d 3027 	ldrb.w	r3, [sp, #39]	; 0x27
    505a:	2201      	movs	r2, #1
    505c:	fa02 f303 	lsl.w	r3, r2, r3
    5060:	9a0d      	ldr	r2, [sp, #52]	; 0x34
    5062:	1ad3      	subs	r3, r2, r3
    5064:	930d      	str	r3, [sp, #52]	; 0x34
    5066:	9b0d      	ldr	r3, [sp, #52]	; 0x34
    5068:	2b00      	cmp	r3, #0
    506a:	d1d0      	bne.n	500e <handle_interrupt_in+0x1e>
    506c:	e02b      	b.n	50c6 <handle_interrupt_in+0xd6>
    506e:	9b0c      	ldr	r3, [sp, #48]	; 0x30
    5070:	9306      	str	r3, [sp, #24]
    5072:	9b06      	ldr	r3, [sp, #24]
    5074:	fab3 f383 	clz	r3, r3
    5078:	9305      	str	r3, [sp, #20]
    507a:	9b05      	ldr	r3, [sp, #20]
    507c:	b2db      	uxtb	r3, r3
    507e:	f1c3 031f 	rsb	r3, r3, #31
    5082:	f88d 3027 	strb.w	r3, [sp, #39]	; 0x27
    5086:	f89d 2027 	ldrb.w	r2, [sp, #39]	; 0x27
    508a:	4b4b      	ldr	r3, [pc, #300]	; (51b8 <handle_interrupt_in+0x1c8>)
    508c:	f853 3022 	ldr.w	r3, [r3, r2, lsl #2]
    5090:	2b00      	cmp	r3, #0
    5092:	d009      	beq.n	50a8 <handle_interrupt_in+0xb8>
    5094:	4b49      	ldr	r3, [pc, #292]	; (51bc <handle_interrupt_in+0x1cc>)
    5096:	681b      	ldr	r3, [r3, #0]
    5098:	f89d 1027 	ldrb.w	r1, [sp, #39]	; 0x27
    509c:	4a46      	ldr	r2, [pc, #280]	; (51b8 <handle_interrupt_in+0x1c8>)
    509e:	f852 2021 	ldr.w	r2, [r2, r1, lsl #2]
    50a2:	4610      	mov	r0, r2
    50a4:	2102      	movs	r1, #2
    50a6:	4798      	blx	r3
    50a8:	4b42      	ldr	r3, [pc, #264]	; (51b4 <handle_interrupt_in+0x1c4>)
    50aa:	f89d 2027 	ldrb.w	r2, [sp, #39]	; 0x27
    50ae:	2101      	movs	r1, #1
    50b0:	fa01 f202 	lsl.w	r2, r1, r2
    50b4:	60da      	str	r2, [r3, #12]
    50b6:	f89d 3027 	ldrb.w	r3, [sp, #39]	; 0x27
    50ba:	2201      	movs	r2, #1
    50bc:	fa02 f303 	lsl.w	r3, r2, r3
    50c0:	9a0c      	ldr	r2, [sp, #48]	; 0x30
    50c2:	1ad3      	subs	r3, r2, r3
    50c4:	930c      	str	r3, [sp, #48]	; 0x30
    50c6:	9b0c      	ldr	r3, [sp, #48]	; 0x30
    50c8:	2b00      	cmp	r3, #0
    50ca:	d1d0      	bne.n	506e <handle_interrupt_in+0x7e>
    50cc:	e033      	b.n	5136 <handle_interrupt_in+0x146>
    50ce:	9b0b      	ldr	r3, [sp, #44]	; 0x2c
    50d0:	9304      	str	r3, [sp, #16]
    50d2:	9b04      	ldr	r3, [sp, #16]
    50d4:	fab3 f383 	clz	r3, r3
    50d8:	9303      	str	r3, [sp, #12]
    50da:	9b03      	ldr	r3, [sp, #12]
    50dc:	b2db      	uxtb	r3, r3
    50de:	f1c3 031f 	rsb	r3, r3, #31
    50e2:	f88d 3027 	strb.w	r3, [sp, #39]	; 0x27
    50e6:	f89d 3027 	ldrb.w	r3, [sp, #39]	; 0x27
    50ea:	2b0f      	cmp	r3, #15
    50ec:	d814      	bhi.n	5118 <handle_interrupt_in+0x128>
    50ee:	f89d 3027 	ldrb.w	r3, [sp, #39]	; 0x27
    50f2:	f103 0220 	add.w	r2, r3, #32
    50f6:	4b30      	ldr	r3, [pc, #192]	; (51b8 <handle_interrupt_in+0x1c8>)
    50f8:	f853 3022 	ldr.w	r3, [r3, r2, lsl #2]
    50fc:	2b00      	cmp	r3, #0
    50fe:	d00b      	beq.n	5118 <handle_interrupt_in+0x128>
    5100:	4b2e      	ldr	r3, [pc, #184]	; (51bc <handle_interrupt_in+0x1cc>)
    5102:	681b      	ldr	r3, [r3, #0]
    5104:	f89d 2027 	ldrb.w	r2, [sp, #39]	; 0x27
    5108:	f102 0120 	add.w	r1, r2, #32
    510c:	4a2a      	ldr	r2, [pc, #168]	; (51b8 <handle_interrupt_in+0x1c8>)
    510e:	f852 2021 	ldr.w	r2, [r2, r1, lsl #2]
    5112:	4610      	mov	r0, r2
    5114:	2101      	movs	r1, #1
    5116:	4798      	blx	r3
    5118:	4b26      	ldr	r3, [pc, #152]	; (51b4 <handle_interrupt_in+0x1c4>)
    511a:	f89d 2027 	ldrb.w	r2, [sp, #39]	; 0x27
    511e:	2101      	movs	r1, #1
    5120:	fa01 f202 	lsl.w	r2, r1, r2
    5124:	62da      	str	r2, [r3, #44]	; 0x2c
    5126:	f89d 3027 	ldrb.w	r3, [sp, #39]	; 0x27
    512a:	2201      	movs	r2, #1
    512c:	fa02 f303 	lsl.w	r3, r2, r3
    5130:	9a0b      	ldr	r2, [sp, #44]	; 0x2c
    5132:	1ad3      	subs	r3, r2, r3
    5134:	930b      	str	r3, [sp, #44]	; 0x2c
    5136:	9b0b      	ldr	r3, [sp, #44]	; 0x2c
    5138:	2b00      	cmp	r3, #0
    513a:	d1c8      	bne.n	50ce <handle_interrupt_in+0xde>
    513c:	e033      	b.n	51a6 <handle_interrupt_in+0x1b6>
    513e:	9b0a      	ldr	r3, [sp, #40]	; 0x28
    5140:	9302      	str	r3, [sp, #8]
    5142:	9b02      	ldr	r3, [sp, #8]
    5144:	fab3 f383 	clz	r3, r3
    5148:	9301      	str	r3, [sp, #4]
    514a:	9b01      	ldr	r3, [sp, #4]
    514c:	b2db      	uxtb	r3, r3
    514e:	f1c3 031f 	rsb	r3, r3, #31
    5152:	f88d 3027 	strb.w	r3, [sp, #39]	; 0x27
    5156:	f89d 3027 	ldrb.w	r3, [sp, #39]	; 0x27
    515a:	2b0f      	cmp	r3, #15
    515c:	d814      	bhi.n	5188 <handle_interrupt_in+0x198>
    515e:	f89d 3027 	ldrb.w	r3, [sp, #39]	; 0x27
    5162:	f103 0220 	add.w	r2, r3, #32
    5166:	4b14      	ldr	r3, [pc, #80]	; (51b8 <handle_interrupt_in+0x1c8>)
    5168:	f853 3022 	ldr.w	r3, [r3, r2, lsl #2]
    516c:	2b00      	cmp	r3, #0
    516e:	d00b      	beq.n	5188 <handle_interrupt_in+0x198>
    5170:	4b12      	ldr	r3, [pc, #72]	; (51bc <handle_interrupt_in+0x1cc>)
    5172:	681b      	ldr	r3, [r3, #0]
    5174:	f89d 2027 	ldrb.w	r2, [sp, #39]	; 0x27
    5178:	f102 0120 	add.w	r1, r2, #32
    517c:	4a0e      	ldr	r2, [pc, #56]	; (51b8 <handle_interrupt_in+0x1c8>)
    517e:	f852 2021 	ldr.w	r2, [r2, r1, lsl #2]
    5182:	4610      	mov	r0, r2
    5184:	2102      	movs	r1, #2
    5186:	4798      	blx	r3
    5188:	4b0a      	ldr	r3, [pc, #40]	; (51b4 <handle_interrupt_in+0x1c4>)
    518a:	f89d 2027 	ldrb.w	r2, [sp, #39]	; 0x27
    518e:	2101      	movs	r1, #1
    5190:	fa01 f202 	lsl.w	r2, r1, r2
    5194:	62da      	str	r2, [r3, #44]	; 0x2c
    5196:	f89d 3027 	ldrb.w	r3, [sp, #39]	; 0x27
    519a:	2201      	movs	r2, #1
    519c:	fa02 f303 	lsl.w	r3, r2, r3
    51a0:	9a0a      	ldr	r2, [sp, #40]	; 0x28
    51a2:	1ad3      	subs	r3, r2, r3
    51a4:	930a      	str	r3, [sp, #40]	; 0x28
    51a6:	9b0a      	ldr	r3, [sp, #40]	; 0x28
    51a8:	2b00      	cmp	r3, #0
    51aa:	d1c8      	bne.n	513e <handle_interrupt_in+0x14e>
    51ac:	b00f      	add	sp, #60	; 0x3c
    51ae:	f85d fb04 	ldr.w	pc, [sp], #4
    51b2:	bf00      	nop
    51b4:	40028080 	.word	0x40028080
    51b8:	10000884 	.word	0x10000884
    51bc:	10000944 	.word	0x10000944

000051c0 <gpio_irq_init>:
    51c0:	b500      	push	{lr}
    51c2:	b087      	sub	sp, #28
    51c4:	9003      	str	r0, [sp, #12]
    51c6:	9102      	str	r1, [sp, #8]
    51c8:	9201      	str	r2, [sp, #4]
    51ca:	9300      	str	r3, [sp, #0]
    51cc:	9b02      	ldr	r3, [sp, #8]
    51ce:	f1b3 3fff 	cmp.w	r3, #4294967295
    51d2:	d102      	bne.n	51da <gpio_irq_init+0x1a>
    51d4:	f04f 33ff 	mov.w	r3, #4294967295
    51d8:	e036      	b.n	5248 <gpio_irq_init+0x88>
    51da:	4b1d      	ldr	r3, [pc, #116]	; (5250 <gpio_irq_init+0x90>)
    51dc:	9a01      	ldr	r2, [sp, #4]
    51de:	601a      	str	r2, [r3, #0]
    51e0:	9b02      	ldr	r3, [sp, #8]
    51e2:	f023 021f 	bic.w	r2, r3, #31
    51e6:	9b03      	ldr	r3, [sp, #12]
    51e8:	601a      	str	r2, [r3, #0]
    51ea:	9b02      	ldr	r3, [sp, #8]
    51ec:	f003 021f 	and.w	r2, r3, #31
    51f0:	9b03      	ldr	r3, [sp, #12]
    51f2:	605a      	str	r2, [r3, #4]
    51f4:	9b03      	ldr	r3, [sp, #12]
    51f6:	681a      	ldr	r2, [r3, #0]
    51f8:	4b16      	ldr	r3, [pc, #88]	; (5254 <gpio_irq_init+0x94>)
    51fa:	429a      	cmp	r2, r3
    51fc:	d007      	beq.n	520e <gpio_irq_init+0x4e>
    51fe:	9b03      	ldr	r3, [sp, #12]
    5200:	681a      	ldr	r2, [r3, #0]
    5202:	4b15      	ldr	r3, [pc, #84]	; (5258 <gpio_irq_init+0x98>)
    5204:	429a      	cmp	r2, r3
    5206:	d002      	beq.n	520e <gpio_irq_init+0x4e>
    5208:	4814      	ldr	r0, [pc, #80]	; (525c <gpio_irq_init+0x9c>)
    520a:	f7fe fe2b 	bl	3e64 <error>
    520e:	9b03      	ldr	r3, [sp, #12]
    5210:	681a      	ldr	r2, [r3, #0]
    5212:	4b10      	ldr	r3, [pc, #64]	; (5254 <gpio_irq_init+0x94>)
    5214:	429a      	cmp	r2, r3
    5216:	d102      	bne.n	521e <gpio_irq_init+0x5e>
    5218:	9b03      	ldr	r3, [sp, #12]
    521a:	685b      	ldr	r3, [r3, #4]
    521c:	e002      	b.n	5224 <gpio_irq_init+0x64>
    521e:	9b03      	ldr	r3, [sp, #12]
    5220:	685b      	ldr	r3, [r3, #4]
    5222:	3320      	adds	r3, #32
    5224:	9305      	str	r3, [sp, #20]
    5226:	4b0e      	ldr	r3, [pc, #56]	; (5260 <gpio_irq_init+0xa0>)
    5228:	9a05      	ldr	r2, [sp, #20]
    522a:	9900      	ldr	r1, [sp, #0]
    522c:	f843 1022 	str.w	r1, [r3, r2, lsl #2]
    5230:	9a05      	ldr	r2, [sp, #20]
    5232:	9b03      	ldr	r3, [sp, #12]
    5234:	609a      	str	r2, [r3, #8]
    5236:	4b0b      	ldr	r3, [pc, #44]	; (5264 <gpio_irq_init+0xa4>)
    5238:	2015      	movs	r0, #21
    523a:	4619      	mov	r1, r3
    523c:	f001 f820 	bl	6280 <NVIC_SetVector>
    5240:	2015      	movs	r0, #21
    5242:	f7ff febf 	bl	4fc4 <NVIC_EnableIRQ>
    5246:	2300      	movs	r3, #0
    5248:	4618      	mov	r0, r3
    524a:	b007      	add	sp, #28
    524c:	f85d fb04 	ldr.w	pc, [sp], #4
    5250:	10000944 	.word	0x10000944
    5254:	2009c000 	.word	0x2009c000
    5258:	2009c040 	.word	0x2009c040
    525c:	0000dc18 	.word	0x0000dc18
    5260:	10000884 	.word	0x10000884
    5264:	00004ff1 	.word	0x00004ff1

00005268 <gpio_irq_free>:
    5268:	b082      	sub	sp, #8
    526a:	9001      	str	r0, [sp, #4]
    526c:	9b01      	ldr	r3, [sp, #4]
    526e:	689a      	ldr	r2, [r3, #8]
    5270:	4b02      	ldr	r3, [pc, #8]	; (527c <gpio_irq_free+0x14>)
    5272:	2100      	movs	r1, #0
    5274:	f843 1022 	str.w	r1, [r3, r2, lsl #2]
    5278:	b002      	add	sp, #8
    527a:	4770      	bx	lr
    527c:	10000884 	.word	0x10000884

00005280 <gpio_irq_set>:
    5280:	b084      	sub	sp, #16
    5282:	9003      	str	r0, [sp, #12]
    5284:	460b      	mov	r3, r1
    5286:	9201      	str	r2, [sp, #4]
    5288:	f88d 300b 	strb.w	r3, [sp, #11]
    528c:	9b03      	ldr	r3, [sp, #12]
    528e:	681b      	ldr	r3, [r3, #0]
    5290:	4a4b      	ldr	r2, [pc, #300]	; (53c0 <gpio_irq_set+0x140>)
    5292:	4293      	cmp	r3, r2
    5294:	d003      	beq.n	529e <gpio_irq_set+0x1e>
    5296:	4a4b      	ldr	r2, [pc, #300]	; (53c4 <gpio_irq_set+0x144>)
    5298:	4293      	cmp	r3, r2
    529a:	d008      	beq.n	52ae <gpio_irq_set+0x2e>
    529c:	e00f      	b.n	52be <gpio_irq_set+0x3e>
    529e:	4b4a      	ldr	r3, [pc, #296]	; (53c8 <gpio_irq_set+0x148>)
    52a0:	9a03      	ldr	r2, [sp, #12]
    52a2:	6852      	ldr	r2, [r2, #4]
    52a4:	2101      	movs	r1, #1
    52a6:	fa01 f202 	lsl.w	r2, r1, r2
    52aa:	60da      	str	r2, [r3, #12]
    52ac:	e007      	b.n	52be <gpio_irq_set+0x3e>
    52ae:	4b46      	ldr	r3, [pc, #280]	; (53c8 <gpio_irq_set+0x148>)
    52b0:	9a03      	ldr	r2, [sp, #12]
    52b2:	6852      	ldr	r2, [r2, #4]
    52b4:	2101      	movs	r1, #1
    52b6:	fa01 f202 	lsl.w	r2, r1, r2
    52ba:	62da      	str	r2, [r3, #44]	; 0x2c
    52bc:	bf00      	nop
    52be:	f89d 300b 	ldrb.w	r3, [sp, #11]
    52c2:	2b01      	cmp	r3, #1
    52c4:	d13d      	bne.n	5342 <gpio_irq_set+0xc2>
    52c6:	9b03      	ldr	r3, [sp, #12]
    52c8:	681b      	ldr	r3, [r3, #0]
    52ca:	4a3d      	ldr	r2, [pc, #244]	; (53c0 <gpio_irq_set+0x140>)
    52cc:	4293      	cmp	r3, r2
    52ce:	d003      	beq.n	52d8 <gpio_irq_set+0x58>
    52d0:	4a3c      	ldr	r2, [pc, #240]	; (53c4 <gpio_irq_set+0x144>)
    52d2:	4293      	cmp	r3, r2
    52d4:	d01a      	beq.n	530c <gpio_irq_set+0x8c>
    52d6:	e071      	b.n	53bc <gpio_irq_set+0x13c>
    52d8:	9b01      	ldr	r3, [sp, #4]
    52da:	2b00      	cmp	r3, #0
    52dc:	d00a      	beq.n	52f4 <gpio_irq_set+0x74>
    52de:	4b3a      	ldr	r3, [pc, #232]	; (53c8 <gpio_irq_set+0x148>)
    52e0:	4a39      	ldr	r2, [pc, #228]	; (53c8 <gpio_irq_set+0x148>)
    52e2:	6911      	ldr	r1, [r2, #16]
    52e4:	9a03      	ldr	r2, [sp, #12]
    52e6:	6852      	ldr	r2, [r2, #4]
    52e8:	2001      	movs	r0, #1
    52ea:	fa00 f202 	lsl.w	r2, r0, r2
    52ee:	430a      	orrs	r2, r1
    52f0:	611a      	str	r2, [r3, #16]
    52f2:	e025      	b.n	5340 <gpio_irq_set+0xc0>
    52f4:	4b34      	ldr	r3, [pc, #208]	; (53c8 <gpio_irq_set+0x148>)
    52f6:	4a34      	ldr	r2, [pc, #208]	; (53c8 <gpio_irq_set+0x148>)
    52f8:	6911      	ldr	r1, [r2, #16]
    52fa:	9a03      	ldr	r2, [sp, #12]
    52fc:	6852      	ldr	r2, [r2, #4]
    52fe:	2001      	movs	r0, #1
    5300:	fa00 f202 	lsl.w	r2, r0, r2
    5304:	43d2      	mvns	r2, r2
    5306:	400a      	ands	r2, r1
    5308:	611a      	str	r2, [r3, #16]
    530a:	e019      	b.n	5340 <gpio_irq_set+0xc0>
    530c:	9b01      	ldr	r3, [sp, #4]
    530e:	2b00      	cmp	r3, #0
    5310:	d00a      	beq.n	5328 <gpio_irq_set+0xa8>
    5312:	4b2d      	ldr	r3, [pc, #180]	; (53c8 <gpio_irq_set+0x148>)
    5314:	4a2c      	ldr	r2, [pc, #176]	; (53c8 <gpio_irq_set+0x148>)
    5316:	6b11      	ldr	r1, [r2, #48]	; 0x30
    5318:	9a03      	ldr	r2, [sp, #12]
    531a:	6852      	ldr	r2, [r2, #4]
    531c:	2001      	movs	r0, #1
    531e:	fa00 f202 	lsl.w	r2, r0, r2
    5322:	430a      	orrs	r2, r1
    5324:	631a      	str	r2, [r3, #48]	; 0x30
    5326:	e00a      	b.n	533e <gpio_irq_set+0xbe>
    5328:	4b27      	ldr	r3, [pc, #156]	; (53c8 <gpio_irq_set+0x148>)
    532a:	4a27      	ldr	r2, [pc, #156]	; (53c8 <gpio_irq_set+0x148>)
    532c:	6b11      	ldr	r1, [r2, #48]	; 0x30
    532e:	9a03      	ldr	r2, [sp, #12]
    5330:	6852      	ldr	r2, [r2, #4]
    5332:	2001      	movs	r0, #1
    5334:	fa00 f202 	lsl.w	r2, r0, r2
    5338:	43d2      	mvns	r2, r2
    533a:	400a      	ands	r2, r1
    533c:	631a      	str	r2, [r3, #48]	; 0x30
    533e:	bf00      	nop
    5340:	e03c      	b.n	53bc <gpio_irq_set+0x13c>
    5342:	9b03      	ldr	r3, [sp, #12]
    5344:	681b      	ldr	r3, [r3, #0]
    5346:	4a1e      	ldr	r2, [pc, #120]	; (53c0 <gpio_irq_set+0x140>)
    5348:	4293      	cmp	r3, r2
    534a:	d003      	beq.n	5354 <gpio_irq_set+0xd4>
    534c:	4a1d      	ldr	r2, [pc, #116]	; (53c4 <gpio_irq_set+0x144>)
    534e:	4293      	cmp	r3, r2
    5350:	d01a      	beq.n	5388 <gpio_irq_set+0x108>
    5352:	e033      	b.n	53bc <gpio_irq_set+0x13c>
    5354:	9b01      	ldr	r3, [sp, #4]
    5356:	2b00      	cmp	r3, #0
    5358:	d00a      	beq.n	5370 <gpio_irq_set+0xf0>
    535a:	4b1b      	ldr	r3, [pc, #108]	; (53c8 <gpio_irq_set+0x148>)
    535c:	4a1a      	ldr	r2, [pc, #104]	; (53c8 <gpio_irq_set+0x148>)
    535e:	6951      	ldr	r1, [r2, #20]
    5360:	9a03      	ldr	r2, [sp, #12]
    5362:	6852      	ldr	r2, [r2, #4]
    5364:	2001      	movs	r0, #1
    5366:	fa00 f202 	lsl.w	r2, r0, r2
    536a:	430a      	orrs	r2, r1
    536c:	615a      	str	r2, [r3, #20]
    536e:	e025      	b.n	53bc <gpio_irq_set+0x13c>
    5370:	4b15      	ldr	r3, [pc, #84]	; (53c8 <gpio_irq_set+0x148>)
    5372:	4a15      	ldr	r2, [pc, #84]	; (53c8 <gpio_irq_set+0x148>)
    5374:	6951      	ldr	r1, [r2, #20]
    5376:	9a03      	ldr	r2, [sp, #12]
    5378:	6852      	ldr	r2, [r2, #4]
    537a:	2001      	movs	r0, #1
    537c:	fa00 f202 	lsl.w	r2, r0, r2
    5380:	43d2      	mvns	r2, r2
    5382:	400a      	ands	r2, r1
    5384:	615a      	str	r2, [r3, #20]
    5386:	e019      	b.n	53bc <gpio_irq_set+0x13c>
    5388:	9b01      	ldr	r3, [sp, #4]
    538a:	2b00      	cmp	r3, #0
    538c:	d00a      	beq.n	53a4 <gpio_irq_set+0x124>
    538e:	4b0e      	ldr	r3, [pc, #56]	; (53c8 <gpio_irq_set+0x148>)
    5390:	4a0d      	ldr	r2, [pc, #52]	; (53c8 <gpio_irq_set+0x148>)
    5392:	6b51      	ldr	r1, [r2, #52]	; 0x34
    5394:	9a03      	ldr	r2, [sp, #12]
    5396:	6852      	ldr	r2, [r2, #4]
    5398:	2001      	movs	r0, #1
    539a:	fa00 f202 	lsl.w	r2, r0, r2
    539e:	430a      	orrs	r2, r1
    53a0:	635a      	str	r2, [r3, #52]	; 0x34
    53a2:	e00a      	b.n	53ba <gpio_irq_set+0x13a>
    53a4:	4b08      	ldr	r3, [pc, #32]	; (53c8 <gpio_irq_set+0x148>)
    53a6:	4a08      	ldr	r2, [pc, #32]	; (53c8 <gpio_irq_set+0x148>)
    53a8:	6b51      	ldr	r1, [r2, #52]	; 0x34
    53aa:	9a03      	ldr	r2, [sp, #12]
    53ac:	6852      	ldr	r2, [r2, #4]
    53ae:	2001      	movs	r0, #1
    53b0:	fa00 f202 	lsl.w	r2, r0, r2
    53b4:	43d2      	mvns	r2, r2
    53b6:	400a      	ands	r2, r1
    53b8:	635a      	str	r2, [r3, #52]	; 0x34
    53ba:	bf00      	nop
    53bc:	b004      	add	sp, #16
    53be:	4770      	bx	lr
    53c0:	2009c000 	.word	0x2009c000
    53c4:	2009c040 	.word	0x2009c040
    53c8:	40028080 	.word	0x40028080

000053cc <pin_function>:
    53cc:	b086      	sub	sp, #24
    53ce:	9001      	str	r0, [sp, #4]
    53d0:	9100      	str	r1, [sp, #0]
    53d2:	9b01      	ldr	r3, [sp, #4]
    53d4:	f1b3 3fff 	cmp.w	r3, #4294967295
    53d8:	d100      	bne.n	53dc <pin_function+0x10>
    53da:	e028      	b.n	542e <pin_function+0x62>
    53dc:	9b01      	ldr	r3, [sp, #4]
    53de:	f103 4360 	add.w	r3, r3, #3758096384	; 0xe0000000
    53e2:	f5a3 231c 	sub.w	r3, r3, #638976	; 0x9c000
    53e6:	9305      	str	r3, [sp, #20]
    53e8:	9b05      	ldr	r3, [sp, #20]
    53ea:	091b      	lsrs	r3, r3, #4
    53ec:	9304      	str	r3, [sp, #16]
    53ee:	9b05      	ldr	r3, [sp, #20]
    53f0:	f003 030f 	and.w	r3, r3, #15
    53f4:	005b      	lsls	r3, r3, #1
    53f6:	9303      	str	r3, [sp, #12]
    53f8:	4b0e      	ldr	r3, [pc, #56]	; (5434 <pin_function+0x68>)
    53fa:	4a0e      	ldr	r2, [pc, #56]	; (5434 <pin_function+0x68>)
    53fc:	9904      	ldr	r1, [sp, #16]
    53fe:	f852 1021 	ldr.w	r1, [r2, r1, lsl #2]
    5402:	2003      	movs	r0, #3
    5404:	9a03      	ldr	r2, [sp, #12]
    5406:	fa00 f202 	lsl.w	r2, r0, r2
    540a:	43d2      	mvns	r2, r2
    540c:	4011      	ands	r1, r2
    540e:	9a04      	ldr	r2, [sp, #16]
    5410:	f843 1022 	str.w	r1, [r3, r2, lsl #2]
    5414:	4b07      	ldr	r3, [pc, #28]	; (5434 <pin_function+0x68>)
    5416:	4a07      	ldr	r2, [pc, #28]	; (5434 <pin_function+0x68>)
    5418:	9904      	ldr	r1, [sp, #16]
    541a:	f852 1021 	ldr.w	r1, [r2, r1, lsl #2]
    541e:	9800      	ldr	r0, [sp, #0]
    5420:	9a03      	ldr	r2, [sp, #12]
    5422:	fa00 f202 	lsl.w	r2, r0, r2
    5426:	4311      	orrs	r1, r2
    5428:	9a04      	ldr	r2, [sp, #16]
    542a:	f843 1022 	str.w	r1, [r3, r2, lsl #2]
    542e:	b006      	add	sp, #24
    5430:	4770      	bx	lr
    5432:	bf00      	nop
    5434:	4002c000 	.word	0x4002c000

00005438 <pin_mode>:
    5438:	b086      	sub	sp, #24
    543a:	9001      	str	r0, [sp, #4]
    543c:	460b      	mov	r3, r1
    543e:	f88d 3003 	strb.w	r3, [sp, #3]
    5442:	9b01      	ldr	r3, [sp, #4]
    5444:	f1b3 3fff 	cmp.w	r3, #4294967295
    5448:	d100      	bne.n	544c <pin_mode+0x14>
    544a:	e05c      	b.n	5506 <pin_mode+0xce>
    544c:	9b01      	ldr	r3, [sp, #4]
    544e:	f103 4360 	add.w	r3, r3, #3758096384	; 0xe0000000
    5452:	f5a3 231c 	sub.w	r3, r3, #638976	; 0x9c000
    5456:	9305      	str	r3, [sp, #20]
    5458:	9b05      	ldr	r3, [sp, #20]
    545a:	095b      	lsrs	r3, r3, #5
    545c:	9304      	str	r3, [sp, #16]
    545e:	9b05      	ldr	r3, [sp, #20]
    5460:	f003 031f 	and.w	r3, r3, #31
    5464:	9303      	str	r3, [sp, #12]
    5466:	f89d 3003 	ldrb.w	r3, [sp, #3]
    546a:	f003 0304 	and.w	r3, r3, #4
    546e:	089b      	lsrs	r3, r3, #2
    5470:	9302      	str	r3, [sp, #8]
    5472:	4b26      	ldr	r3, [pc, #152]	; (550c <pin_mode+0xd4>)
    5474:	4a25      	ldr	r2, [pc, #148]	; (550c <pin_mode+0xd4>)
    5476:	9904      	ldr	r1, [sp, #16]
    5478:	311a      	adds	r1, #26
    547a:	f852 1021 	ldr.w	r1, [r2, r1, lsl #2]
    547e:	9802      	ldr	r0, [sp, #8]
    5480:	9a03      	ldr	r2, [sp, #12]
    5482:	fa00 f202 	lsl.w	r2, r0, r2
    5486:	43d2      	mvns	r2, r2
    5488:	4011      	ands	r1, r2
    548a:	9a04      	ldr	r2, [sp, #16]
    548c:	321a      	adds	r2, #26
    548e:	f843 1022 	str.w	r1, [r3, r2, lsl #2]
    5492:	4b1e      	ldr	r3, [pc, #120]	; (550c <pin_mode+0xd4>)
    5494:	4a1d      	ldr	r2, [pc, #116]	; (550c <pin_mode+0xd4>)
    5496:	9904      	ldr	r1, [sp, #16]
    5498:	311a      	adds	r1, #26
    549a:	f852 1021 	ldr.w	r1, [r2, r1, lsl #2]
    549e:	9802      	ldr	r0, [sp, #8]
    54a0:	9a03      	ldr	r2, [sp, #12]
    54a2:	fa00 f202 	lsl.w	r2, r0, r2
    54a6:	4311      	orrs	r1, r2
    54a8:	9a04      	ldr	r2, [sp, #16]
    54aa:	321a      	adds	r2, #26
    54ac:	f843 1022 	str.w	r1, [r3, r2, lsl #2]
    54b0:	9b02      	ldr	r3, [sp, #8]
    54b2:	2b00      	cmp	r3, #0
    54b4:	d127      	bne.n	5506 <pin_mode+0xce>
    54b6:	9b05      	ldr	r3, [sp, #20]
    54b8:	091b      	lsrs	r3, r3, #4
    54ba:	9304      	str	r3, [sp, #16]
    54bc:	9b05      	ldr	r3, [sp, #20]
    54be:	f003 030f 	and.w	r3, r3, #15
    54c2:	005b      	lsls	r3, r3, #1
    54c4:	9303      	str	r3, [sp, #12]
    54c6:	4b11      	ldr	r3, [pc, #68]	; (550c <pin_mode+0xd4>)
    54c8:	4a10      	ldr	r2, [pc, #64]	; (550c <pin_mode+0xd4>)
    54ca:	9904      	ldr	r1, [sp, #16]
    54cc:	3110      	adds	r1, #16
    54ce:	f852 1021 	ldr.w	r1, [r2, r1, lsl #2]
    54d2:	2003      	movs	r0, #3
    54d4:	9a03      	ldr	r2, [sp, #12]
    54d6:	fa00 f202 	lsl.w	r2, r0, r2
    54da:	43d2      	mvns	r2, r2
    54dc:	4011      	ands	r1, r2
    54de:	9a04      	ldr	r2, [sp, #16]
    54e0:	3210      	adds	r2, #16
    54e2:	f843 1022 	str.w	r1, [r3, r2, lsl #2]
    54e6:	4b09      	ldr	r3, [pc, #36]	; (550c <pin_mode+0xd4>)
    54e8:	4a08      	ldr	r2, [pc, #32]	; (550c <pin_mode+0xd4>)
    54ea:	9904      	ldr	r1, [sp, #16]
    54ec:	3110      	adds	r1, #16
    54ee:	f852 1021 	ldr.w	r1, [r2, r1, lsl #2]
    54f2:	f89d 0003 	ldrb.w	r0, [sp, #3]
    54f6:	9a03      	ldr	r2, [sp, #12]
    54f8:	fa00 f202 	lsl.w	r2, r0, r2
    54fc:	4311      	orrs	r1, r2
    54fe:	9a04      	ldr	r2, [sp, #16]
    5500:	3210      	adds	r2, #16
    5502:	f843 1022 	str.w	r1, [r3, r2, lsl #2]
    5506:	b006      	add	sp, #24
    5508:	4770      	bx	lr
    550a:	bf00      	nop
    550c:	4002c000 	.word	0x4002c000

00005510 <NVIC_EnableIRQ>:
    5510:	b082      	sub	sp, #8
    5512:	4603      	mov	r3, r0
    5514:	f88d 3007 	strb.w	r3, [sp, #7]
    5518:	4b07      	ldr	r3, [pc, #28]	; (5538 <NVIC_EnableIRQ+0x28>)
    551a:	f99d 2007 	ldrsb.w	r2, [sp, #7]
    551e:	0952      	lsrs	r2, r2, #5
    5520:	f89d 1007 	ldrb.w	r1, [sp, #7]
    5524:	f001 011f 	and.w	r1, r1, #31
    5528:	2001      	movs	r0, #1
    552a:	fa00 f101 	lsl.w	r1, r0, r1
    552e:	f843 1022 	str.w	r1, [r3, r2, lsl #2]
    5532:	b002      	add	sp, #8
    5534:	4770      	bx	lr
    5536:	bf00      	nop
    5538:	e000e100 	.word	0xe000e100

0000553c <NVIC_DisableIRQ>:
    553c:	b082      	sub	sp, #8
    553e:	4603      	mov	r3, r0
    5540:	f88d 3007 	strb.w	r3, [sp, #7]
    5544:	4b07      	ldr	r3, [pc, #28]	; (5564 <NVIC_DisableIRQ+0x28>)
    5546:	f99d 2007 	ldrsb.w	r2, [sp, #7]
    554a:	0952      	lsrs	r2, r2, #5
    554c:	f89d 1007 	ldrb.w	r1, [sp, #7]
    5550:	f001 011f 	and.w	r1, r1, #31
    5554:	2001      	movs	r0, #1
    5556:	fa00 f101 	lsl.w	r1, r0, r1
    555a:	3220      	adds	r2, #32
    555c:	f843 1022 	str.w	r1, [r3, r2, lsl #2]
    5560:	b002      	add	sp, #8
    5562:	4770      	bx	lr
    5564:	e000e100 	.word	0xe000e100

00005568 <gpio_write>:
    5568:	b082      	sub	sp, #8
    556a:	9001      	str	r0, [sp, #4]
    556c:	9100      	str	r1, [sp, #0]
    556e:	9b00      	ldr	r3, [sp, #0]
    5570:	2b00      	cmp	r3, #0
    5572:	d005      	beq.n	5580 <gpio_write+0x18>
    5574:	9b01      	ldr	r3, [sp, #4]
    5576:	68db      	ldr	r3, [r3, #12]
    5578:	9a01      	ldr	r2, [sp, #4]
    557a:	6852      	ldr	r2, [r2, #4]
    557c:	601a      	str	r2, [r3, #0]
    557e:	e004      	b.n	558a <gpio_write+0x22>
    5580:	9b01      	ldr	r3, [sp, #4]
    5582:	691b      	ldr	r3, [r3, #16]
    5584:	9a01      	ldr	r2, [sp, #4]
    5586:	6852      	ldr	r2, [r2, #4]
    5588:	601a      	str	r2, [r3, #0]
    558a:	b002      	add	sp, #8
    558c:	4770      	bx	lr
    558e:	bf00      	nop

00005590 <gpio_read>:
    5590:	b082      	sub	sp, #8
    5592:	9001      	str	r0, [sp, #4]
    5594:	9b01      	ldr	r3, [sp, #4]
    5596:	695b      	ldr	r3, [r3, #20]
    5598:	681a      	ldr	r2, [r3, #0]
    559a:	9b01      	ldr	r3, [sp, #4]
    559c:	685b      	ldr	r3, [r3, #4]
    559e:	4013      	ands	r3, r2
    55a0:	2b00      	cmp	r3, #0
    55a2:	bf0c      	ite	eq
    55a4:	2300      	moveq	r3, #0
    55a6:	2301      	movne	r3, #1
    55a8:	b2db      	uxtb	r3, r3
    55aa:	4618      	mov	r0, r3
    55ac:	b002      	add	sp, #8
    55ae:	4770      	bx	lr

000055b0 <serial_init>:
    55b0:	b500      	push	{lr}
    55b2:	b089      	sub	sp, #36	; 0x24
    55b4:	9003      	str	r0, [sp, #12]
    55b6:	9102      	str	r1, [sp, #8]
    55b8:	9201      	str	r2, [sp, #4]
    55ba:	2300      	movs	r3, #0
    55bc:	9307      	str	r3, [sp, #28]
    55be:	9802      	ldr	r0, [sp, #8]
    55c0:	4963      	ldr	r1, [pc, #396]	; (5750 <serial_init+0x1a0>)
    55c2:	f7fe fd75 	bl	40b0 <pinmap_peripheral>
    55c6:	9006      	str	r0, [sp, #24]
    55c8:	9801      	ldr	r0, [sp, #4]
    55ca:	4962      	ldr	r1, [pc, #392]	; (5754 <serial_init+0x1a4>)
    55cc:	f7fe fd70 	bl	40b0 <pinmap_peripheral>
    55d0:	9005      	str	r0, [sp, #20]
    55d2:	9806      	ldr	r0, [sp, #24]
    55d4:	9905      	ldr	r1, [sp, #20]
    55d6:	f7fe fd2f 	bl	4038 <pinmap_merge>
    55da:	9004      	str	r0, [sp, #16]
    55dc:	9b04      	ldr	r3, [sp, #16]
    55de:	f1b3 3fff 	cmp.w	r3, #4294967295
    55e2:	d102      	bne.n	55ea <serial_init+0x3a>
    55e4:	485c      	ldr	r0, [pc, #368]	; (5758 <serial_init+0x1a8>)
    55e6:	f7fe fc3d 	bl	3e64 <error>
    55ea:	9a04      	ldr	r2, [sp, #16]
    55ec:	9b03      	ldr	r3, [sp, #12]
    55ee:	601a      	str	r2, [r3, #0]
    55f0:	9b04      	ldr	r3, [sp, #16]
    55f2:	4a5a      	ldr	r2, [pc, #360]	; (575c <serial_init+0x1ac>)
    55f4:	4293      	cmp	r3, r2
    55f6:	d016      	beq.n	5626 <serial_init+0x76>
    55f8:	4a58      	ldr	r2, [pc, #352]	; (575c <serial_init+0x1ac>)
    55fa:	4293      	cmp	r3, r2
    55fc:	d803      	bhi.n	5606 <serial_init+0x56>
    55fe:	4a58      	ldr	r2, [pc, #352]	; (5760 <serial_init+0x1b0>)
    5600:	4293      	cmp	r3, r2
    5602:	d007      	beq.n	5614 <serial_init+0x64>
    5604:	e02a      	b.n	565c <serial_init+0xac>
    5606:	4a57      	ldr	r2, [pc, #348]	; (5764 <serial_init+0x1b4>)
    5608:	4293      	cmp	r3, r2
    560a:	d015      	beq.n	5638 <serial_init+0x88>
    560c:	4a56      	ldr	r2, [pc, #344]	; (5768 <serial_init+0x1b8>)
    560e:	4293      	cmp	r3, r2
    5610:	d01b      	beq.n	564a <serial_init+0x9a>
    5612:	e023      	b.n	565c <serial_init+0xac>
    5614:	4b55      	ldr	r3, [pc, #340]	; (576c <serial_init+0x1bc>)
    5616:	4a55      	ldr	r2, [pc, #340]	; (576c <serial_init+0x1bc>)
    5618:	f8d2 20c4 	ldr.w	r2, [r2, #196]	; 0xc4
    561c:	f042 0208 	orr.w	r2, r2, #8
    5620:	f8c3 20c4 	str.w	r2, [r3, #196]	; 0xc4
    5624:	e01a      	b.n	565c <serial_init+0xac>
    5626:	4b51      	ldr	r3, [pc, #324]	; (576c <serial_init+0x1bc>)
    5628:	4a50      	ldr	r2, [pc, #320]	; (576c <serial_init+0x1bc>)
    562a:	f8d2 20c4 	ldr.w	r2, [r2, #196]	; 0xc4
    562e:	f042 0210 	orr.w	r2, r2, #16
    5632:	f8c3 20c4 	str.w	r2, [r3, #196]	; 0xc4
    5636:	e011      	b.n	565c <serial_init+0xac>
    5638:	4b4c      	ldr	r3, [pc, #304]	; (576c <serial_init+0x1bc>)
    563a:	4a4c      	ldr	r2, [pc, #304]	; (576c <serial_init+0x1bc>)
    563c:	f8d2 20c4 	ldr.w	r2, [r2, #196]	; 0xc4
    5640:	f042 7280 	orr.w	r2, r2, #16777216	; 0x1000000
    5644:	f8c3 20c4 	str.w	r2, [r3, #196]	; 0xc4
    5648:	e008      	b.n	565c <serial_init+0xac>
    564a:	4b48      	ldr	r3, [pc, #288]	; (576c <serial_init+0x1bc>)
    564c:	4a47      	ldr	r2, [pc, #284]	; (576c <serial_init+0x1bc>)
    564e:	f8d2 20c4 	ldr.w	r2, [r2, #196]	; 0xc4
    5652:	f042 7200 	orr.w	r2, r2, #33554432	; 0x2000000
    5656:	f8c3 20c4 	str.w	r2, [r3, #196]	; 0xc4
    565a:	bf00      	nop
    565c:	9b03      	ldr	r3, [sp, #12]
    565e:	681b      	ldr	r3, [r3, #0]
    5660:	2201      	movs	r2, #1
    5662:	721a      	strb	r2, [r3, #8]
    5664:	9b03      	ldr	r3, [sp, #12]
    5666:	681b      	ldr	r3, [r3, #0]
    5668:	2200      	movs	r2, #0
    566a:	605a      	str	r2, [r3, #4]
    566c:	9803      	ldr	r0, [sp, #12]
    566e:	f44f 5116 	mov.w	r1, #9600	; 0x2580
    5672:	f000 f883 	bl	577c <serial_baud>
    5676:	9803      	ldr	r0, [sp, #12]
    5678:	2108      	movs	r1, #8
    567a:	2200      	movs	r2, #0
    567c:	2301      	movs	r3, #1
    567e:	f000 f9d5 	bl	5a2c <serial_format>
    5682:	9802      	ldr	r0, [sp, #8]
    5684:	4932      	ldr	r1, [pc, #200]	; (5750 <serial_init+0x1a0>)
    5686:	f7fe fcad 	bl	3fe4 <pinmap_pinout>
    568a:	9801      	ldr	r0, [sp, #4]
    568c:	4931      	ldr	r1, [pc, #196]	; (5754 <serial_init+0x1a4>)
    568e:	f7fe fca9 	bl	3fe4 <pinmap_pinout>
    5692:	9802      	ldr	r0, [sp, #8]
    5694:	2100      	movs	r1, #0
    5696:	f7ff fecf 	bl	5438 <pin_mode>
    569a:	9801      	ldr	r0, [sp, #4]
    569c:	2100      	movs	r1, #0
    569e:	f7ff fecb 	bl	5438 <pin_mode>
    56a2:	9b04      	ldr	r3, [sp, #16]
    56a4:	4a2d      	ldr	r2, [pc, #180]	; (575c <serial_init+0x1ac>)
    56a6:	4293      	cmp	r3, r2
    56a8:	d011      	beq.n	56ce <serial_init+0x11e>
    56aa:	4a2c      	ldr	r2, [pc, #176]	; (575c <serial_init+0x1ac>)
    56ac:	4293      	cmp	r3, r2
    56ae:	d803      	bhi.n	56b8 <serial_init+0x108>
    56b0:	4a2b      	ldr	r2, [pc, #172]	; (5760 <serial_init+0x1b0>)
    56b2:	4293      	cmp	r3, r2
    56b4:	d007      	beq.n	56c6 <serial_init+0x116>
    56b6:	e016      	b.n	56e6 <serial_init+0x136>
    56b8:	4a2a      	ldr	r2, [pc, #168]	; (5764 <serial_init+0x1b4>)
    56ba:	4293      	cmp	r3, r2
    56bc:	d00b      	beq.n	56d6 <serial_init+0x126>
    56be:	4a2a      	ldr	r2, [pc, #168]	; (5768 <serial_init+0x1b8>)
    56c0:	4293      	cmp	r3, r2
    56c2:	d00c      	beq.n	56de <serial_init+0x12e>
    56c4:	e00f      	b.n	56e6 <serial_init+0x136>
    56c6:	9b03      	ldr	r3, [sp, #12]
    56c8:	2200      	movs	r2, #0
    56ca:	605a      	str	r2, [r3, #4]
    56cc:	e00b      	b.n	56e6 <serial_init+0x136>
    56ce:	9b03      	ldr	r3, [sp, #12]
    56d0:	2201      	movs	r2, #1
    56d2:	605a      	str	r2, [r3, #4]
    56d4:	e007      	b.n	56e6 <serial_init+0x136>
    56d6:	9b03      	ldr	r3, [sp, #12]
    56d8:	2202      	movs	r2, #2
    56da:	605a      	str	r2, [r3, #4]
    56dc:	e003      	b.n	56e6 <serial_init+0x136>
    56de:	9b03      	ldr	r3, [sp, #12]
    56e0:	2203      	movs	r2, #3
    56e2:	605a      	str	r2, [r3, #4]
    56e4:	bf00      	nop
    56e6:	9b03      	ldr	r3, [sp, #12]
    56e8:	685a      	ldr	r2, [r3, #4]
    56ea:	4921      	ldr	r1, [pc, #132]	; (5770 <serial_init+0x1c0>)
    56ec:	4613      	mov	r3, r2
    56ee:	00db      	lsls	r3, r3, #3
    56f0:	1a9b      	subs	r3, r3, r2
    56f2:	00db      	lsls	r3, r3, #3
    56f4:	440b      	add	r3, r1
    56f6:	f04f 32ff 	mov.w	r2, #4294967295
    56fa:	605a      	str	r2, [r3, #4]
    56fc:	9b03      	ldr	r3, [sp, #12]
    56fe:	685a      	ldr	r2, [r3, #4]
    5700:	491b      	ldr	r1, [pc, #108]	; (5770 <serial_init+0x1c0>)
    5702:	4613      	mov	r3, r2
    5704:	00db      	lsls	r3, r3, #3
    5706:	1a9b      	subs	r3, r3, r2
    5708:	00db      	lsls	r3, r3, #3
    570a:	440b      	add	r3, r1
    570c:	3318      	adds	r3, #24
    570e:	f04f 32ff 	mov.w	r2, #4294967295
    5712:	605a      	str	r2, [r3, #4]
    5714:	9803      	ldr	r0, [sp, #12]
    5716:	2100      	movs	r1, #0
    5718:	f04f 32ff 	mov.w	r2, #4294967295
    571c:	f04f 33ff 	mov.w	r3, #4294967295
    5720:	f000 fc6a 	bl	5ff8 <serial_set_flow_control>
    5724:	9a04      	ldr	r2, [sp, #16]
    5726:	4b0e      	ldr	r3, [pc, #56]	; (5760 <serial_init+0x1b0>)
    5728:	429a      	cmp	r2, r3
    572a:	bf14      	ite	ne
    572c:	2300      	movne	r3, #0
    572e:	2301      	moveq	r3, #1
    5730:	b2db      	uxtb	r3, r3
    5732:	9307      	str	r3, [sp, #28]
    5734:	9b07      	ldr	r3, [sp, #28]
    5736:	2b00      	cmp	r3, #0
    5738:	d007      	beq.n	574a <serial_init+0x19a>
    573a:	4b0e      	ldr	r3, [pc, #56]	; (5774 <serial_init+0x1c4>)
    573c:	2201      	movs	r2, #1
    573e:	601a      	str	r2, [r3, #0]
    5740:	480d      	ldr	r0, [pc, #52]	; (5778 <serial_init+0x1c8>)
    5742:	9903      	ldr	r1, [sp, #12]
    5744:	2208      	movs	r2, #8
    5746:	f002 fbf5 	bl	7f34 <memcpy>
    574a:	b009      	add	sp, #36	; 0x24
    574c:	f85d fb04 	ldr.w	pc, [sp], #4
    5750:	0000dc48 	.word	0x0000dc48
    5754:	0000dcb4 	.word	0x0000dcb4
    5758:	0000dd68 	.word	0x0000dd68
    575c:	40010000 	.word	0x40010000
    5760:	4000c000 	.word	0x4000c000
    5764:	40098000 	.word	0x40098000
    5768:	4009c000 	.word	0x4009c000
    576c:	400fc000 	.word	0x400fc000
    5770:	10000950 	.word	0x10000950
    5774:	1000094c 	.word	0x1000094c
    5778:	10000c88 	.word	0x10000c88

0000577c <serial_baud>:
    577c:	b500      	push	{lr}
    577e:	b089      	sub	sp, #36	; 0x24
    5780:	9001      	str	r0, [sp, #4]
    5782:	9100      	str	r1, [sp, #0]
    5784:	9b01      	ldr	r3, [sp, #4]
    5786:	681b      	ldr	r3, [r3, #0]
    5788:	4aa1      	ldr	r2, [pc, #644]	; (5a10 <serial_baud+0x294>)
    578a:	4293      	cmp	r3, r2
    578c:	d01e      	beq.n	57cc <serial_baud+0x50>
    578e:	4aa0      	ldr	r2, [pc, #640]	; (5a10 <serial_baud+0x294>)
    5790:	4293      	cmp	r3, r2
    5792:	dc03      	bgt.n	579c <serial_baud+0x20>
    5794:	4a9f      	ldr	r2, [pc, #636]	; (5a14 <serial_baud+0x298>)
    5796:	4293      	cmp	r3, r2
    5798:	d007      	beq.n	57aa <serial_baud+0x2e>
    579a:	e04a      	b.n	5832 <serial_baud+0xb6>
    579c:	4a9e      	ldr	r2, [pc, #632]	; (5a18 <serial_baud+0x29c>)
    579e:	4293      	cmp	r3, r2
    57a0:	d025      	beq.n	57ee <serial_baud+0x72>
    57a2:	4a9e      	ldr	r2, [pc, #632]	; (5a1c <serial_baud+0x2a0>)
    57a4:	4293      	cmp	r3, r2
    57a6:	d033      	beq.n	5810 <serial_baud+0x94>
    57a8:	e043      	b.n	5832 <serial_baud+0xb6>
    57aa:	4b9d      	ldr	r3, [pc, #628]	; (5a20 <serial_baud+0x2a4>)
    57ac:	4a9c      	ldr	r2, [pc, #624]	; (5a20 <serial_baud+0x2a4>)
    57ae:	f8d2 21a8 	ldr.w	r2, [r2, #424]	; 0x1a8
    57b2:	f022 02c0 	bic.w	r2, r2, #192	; 0xc0
    57b6:	f8c3 21a8 	str.w	r2, [r3, #424]	; 0x1a8
    57ba:	4b99      	ldr	r3, [pc, #612]	; (5a20 <serial_baud+0x2a4>)
    57bc:	4a98      	ldr	r2, [pc, #608]	; (5a20 <serial_baud+0x2a4>)
    57be:	f8d2 21a8 	ldr.w	r2, [r2, #424]	; 0x1a8
    57c2:	f042 0240 	orr.w	r2, r2, #64	; 0x40
    57c6:	f8c3 21a8 	str.w	r2, [r3, #424]	; 0x1a8
    57ca:	e036      	b.n	583a <serial_baud+0xbe>
    57cc:	4b94      	ldr	r3, [pc, #592]	; (5a20 <serial_baud+0x2a4>)
    57ce:	4a94      	ldr	r2, [pc, #592]	; (5a20 <serial_baud+0x2a4>)
    57d0:	f8d2 21a8 	ldr.w	r2, [r2, #424]	; 0x1a8
    57d4:	f422 7240 	bic.w	r2, r2, #768	; 0x300
    57d8:	f8c3 21a8 	str.w	r2, [r3, #424]	; 0x1a8
    57dc:	4b90      	ldr	r3, [pc, #576]	; (5a20 <serial_baud+0x2a4>)
    57de:	4a90      	ldr	r2, [pc, #576]	; (5a20 <serial_baud+0x2a4>)
    57e0:	f8d2 21a8 	ldr.w	r2, [r2, #424]	; 0x1a8
    57e4:	f442 7280 	orr.w	r2, r2, #256	; 0x100
    57e8:	f8c3 21a8 	str.w	r2, [r3, #424]	; 0x1a8
    57ec:	e025      	b.n	583a <serial_baud+0xbe>
    57ee:	4b8c      	ldr	r3, [pc, #560]	; (5a20 <serial_baud+0x2a4>)
    57f0:	4a8b      	ldr	r2, [pc, #556]	; (5a20 <serial_baud+0x2a4>)
    57f2:	f8d2 21ac 	ldr.w	r2, [r2, #428]	; 0x1ac
    57f6:	f422 3240 	bic.w	r2, r2, #196608	; 0x30000
    57fa:	f8c3 21ac 	str.w	r2, [r3, #428]	; 0x1ac
    57fe:	4b88      	ldr	r3, [pc, #544]	; (5a20 <serial_baud+0x2a4>)
    5800:	4a87      	ldr	r2, [pc, #540]	; (5a20 <serial_baud+0x2a4>)
    5802:	f8d2 21ac 	ldr.w	r2, [r2, #428]	; 0x1ac
    5806:	f442 3280 	orr.w	r2, r2, #65536	; 0x10000
    580a:	f8c3 21ac 	str.w	r2, [r3, #428]	; 0x1ac
    580e:	e014      	b.n	583a <serial_baud+0xbe>
    5810:	4b83      	ldr	r3, [pc, #524]	; (5a20 <serial_baud+0x2a4>)
    5812:	4a83      	ldr	r2, [pc, #524]	; (5a20 <serial_baud+0x2a4>)
    5814:	f8d2 21ac 	ldr.w	r2, [r2, #428]	; 0x1ac
    5818:	f422 2240 	bic.w	r2, r2, #786432	; 0xc0000
    581c:	f8c3 21ac 	str.w	r2, [r3, #428]	; 0x1ac
    5820:	4b7f      	ldr	r3, [pc, #508]	; (5a20 <serial_baud+0x2a4>)
    5822:	4a7f      	ldr	r2, [pc, #508]	; (5a20 <serial_baud+0x2a4>)
    5824:	f8d2 21ac 	ldr.w	r2, [r2, #428]	; 0x1ac
    5828:	f442 2280 	orr.w	r2, r2, #262144	; 0x40000
    582c:	f8c3 21ac 	str.w	r2, [r3, #428]	; 0x1ac
    5830:	e003      	b.n	583a <serial_baud+0xbe>
    5832:	487c      	ldr	r0, [pc, #496]	; (5a24 <serial_baud+0x2a8>)
    5834:	f7fe fb16 	bl	3e64 <error>
    5838:	bf00      	nop
    583a:	4b7b      	ldr	r3, [pc, #492]	; (5a28 <serial_baud+0x2ac>)
    583c:	681b      	ldr	r3, [r3, #0]
    583e:	9303      	str	r3, [sp, #12]
    5840:	9b00      	ldr	r3, [sp, #0]
    5842:	011b      	lsls	r3, r3, #4
    5844:	9a03      	ldr	r2, [sp, #12]
    5846:	fbb2 f3f3 	udiv	r3, r2, r3
    584a:	f8ad 301e 	strh.w	r3, [sp, #30]
    584e:	2300      	movs	r3, #0
    5850:	f88d 301d 	strb.w	r3, [sp, #29]
    5854:	2301      	movs	r3, #1
    5856:	f88d 301c 	strb.w	r3, [sp, #28]
    585a:	2300      	movs	r3, #0
    585c:	9306      	str	r3, [sp, #24]
    585e:	9b00      	ldr	r3, [sp, #0]
    5860:	011b      	lsls	r3, r3, #4
    5862:	461a      	mov	r2, r3
    5864:	9b03      	ldr	r3, [sp, #12]
    5866:	fbb3 f1f2 	udiv	r1, r3, r2
    586a:	fb02 f201 	mul.w	r2, r2, r1
    586e:	1a9b      	subs	r3, r3, r2
    5870:	2b00      	cmp	r3, #0
    5872:	f000 809c 	beq.w	59ae <serial_baud+0x232>
    5876:	9b00      	ldr	r3, [sp, #0]
    5878:	9304      	str	r3, [sp, #16]
    587a:	2301      	movs	r3, #1
    587c:	f88d 3015 	strb.w	r3, [sp, #21]
    5880:	e08d      	b.n	599e <serial_baud+0x222>
    5882:	2300      	movs	r3, #0
    5884:	f88d 3014 	strb.w	r3, [sp, #20]
    5888:	e07d      	b.n	5986 <serial_baud+0x20a>
    588a:	f89d 3015 	ldrb.w	r3, [sp, #21]
    588e:	9a03      	ldr	r2, [sp, #12]
    5890:	fb02 f303 	mul.w	r3, r2, r3
    5894:	005b      	lsls	r3, r3, #1
    5896:	2b00      	cmp	r3, #0
    5898:	da15      	bge.n	58c6 <serial_baud+0x14a>
    589a:	f89d 3015 	ldrb.w	r3, [sp, #21]
    589e:	9a03      	ldr	r2, [sp, #12]
    58a0:	fb02 f303 	mul.w	r3, r2, r3
    58a4:	005a      	lsls	r2, r3, #1
    58a6:	f89d 1014 	ldrb.w	r1, [sp, #20]
    58aa:	f89d 3015 	ldrb.w	r3, [sp, #21]
    58ae:	440b      	add	r3, r1
    58b0:	9900      	ldr	r1, [sp, #0]
    58b2:	fb01 f303 	mul.w	r3, r1, r3
    58b6:	fbb2 f3f3 	udiv	r3, r2, r3
    58ba:	091b      	lsrs	r3, r3, #4
    58bc:	3301      	adds	r3, #1
    58be:	085b      	lsrs	r3, r3, #1
    58c0:	f8ad 3016 	strh.w	r3, [sp, #22]
    58c4:	e014      	b.n	58f0 <serial_baud+0x174>
    58c6:	f89d 3015 	ldrb.w	r3, [sp, #21]
    58ca:	9a03      	ldr	r2, [sp, #12]
    58cc:	fb02 f303 	mul.w	r3, r2, r3
    58d0:	009a      	lsls	r2, r3, #2
    58d2:	f89d 1014 	ldrb.w	r1, [sp, #20]
    58d6:	f89d 3015 	ldrb.w	r3, [sp, #21]
    58da:	440b      	add	r3, r1
    58dc:	9900      	ldr	r1, [sp, #0]
    58de:	fb01 f303 	mul.w	r3, r1, r3
    58e2:	fbb2 f3f3 	udiv	r3, r2, r3
    58e6:	095b      	lsrs	r3, r3, #5
    58e8:	3301      	adds	r3, #1
    58ea:	085b      	lsrs	r3, r3, #1
    58ec:	f8ad 3016 	strh.w	r3, [sp, #22]
    58f0:	f8bd 3016 	ldrh.w	r3, [sp, #22]
    58f4:	2b00      	cmp	r3, #0
    58f6:	d102      	bne.n	58fe <serial_baud+0x182>
    58f8:	2301      	movs	r3, #1
    58fa:	f8ad 3016 	strh.w	r3, [sp, #22]
    58fe:	f89d 3014 	ldrb.w	r3, [sp, #20]
    5902:	2b00      	cmp	r3, #0
    5904:	d006      	beq.n	5914 <serial_baud+0x198>
    5906:	f8bd 3016 	ldrh.w	r3, [sp, #22]
    590a:	2b01      	cmp	r3, #1
    590c:	d802      	bhi.n	5914 <serial_baud+0x198>
    590e:	2302      	movs	r3, #2
    5910:	f8ad 3016 	strh.w	r3, [sp, #22]
    5914:	f89d 3015 	ldrb.w	r3, [sp, #21]
    5918:	9a03      	ldr	r2, [sp, #12]
    591a:	fb02 f203 	mul.w	r2, r2, r3
    591e:	f8bd 3016 	ldrh.w	r3, [sp, #22]
    5922:	f89d 0014 	ldrb.w	r0, [sp, #20]
    5926:	f89d 1015 	ldrb.w	r1, [sp, #21]
    592a:	4401      	add	r1, r0
    592c:	fb01 f303 	mul.w	r3, r1, r3
    5930:	00db      	lsls	r3, r3, #3
    5932:	fbb2 f3f3 	udiv	r3, r2, r3
    5936:	3301      	adds	r3, #1
    5938:	085b      	lsrs	r3, r3, #1
    593a:	9302      	str	r3, [sp, #8]
    593c:	9a02      	ldr	r2, [sp, #8]
    593e:	9b00      	ldr	r3, [sp, #0]
    5940:	1ad3      	subs	r3, r2, r3
    5942:	2b00      	cmp	r3, #0
    5944:	bfb8      	it	lt
    5946:	425b      	neglt	r3, r3
    5948:	9302      	str	r3, [sp, #8]
    594a:	9a02      	ldr	r2, [sp, #8]
    594c:	9b04      	ldr	r3, [sp, #16]
    594e:	429a      	cmp	r2, r3
    5950:	da14      	bge.n	597c <serial_baud+0x200>
    5952:	9b02      	ldr	r3, [sp, #8]
    5954:	9304      	str	r3, [sp, #16]
    5956:	f8bd 3016 	ldrh.w	r3, [sp, #22]
    595a:	f8ad 301e 	strh.w	r3, [sp, #30]
    595e:	f89d 3015 	ldrb.w	r3, [sp, #21]
    5962:	f88d 301c 	strb.w	r3, [sp, #28]
    5966:	f89d 3014 	ldrb.w	r3, [sp, #20]
    596a:	f88d 301d 	strb.w	r3, [sp, #29]
    596e:	9a02      	ldr	r2, [sp, #8]
    5970:	9b00      	ldr	r3, [sp, #0]
    5972:	429a      	cmp	r2, r3
    5974:	d102      	bne.n	597c <serial_baud+0x200>
    5976:	2301      	movs	r3, #1
    5978:	9306      	str	r3, [sp, #24]
    597a:	e00b      	b.n	5994 <serial_baud+0x218>
    597c:	f89d 3014 	ldrb.w	r3, [sp, #20]
    5980:	3301      	adds	r3, #1
    5982:	f88d 3014 	strb.w	r3, [sp, #20]
    5986:	f89d 2014 	ldrb.w	r2, [sp, #20]
    598a:	f89d 3015 	ldrb.w	r3, [sp, #21]
    598e:	429a      	cmp	r2, r3
    5990:	f4ff af7b 	bcc.w	588a <serial_baud+0x10e>
    5994:	f89d 3015 	ldrb.w	r3, [sp, #21]
    5998:	3301      	adds	r3, #1
    599a:	f88d 3015 	strb.w	r3, [sp, #21]
    599e:	f89d 3015 	ldrb.w	r3, [sp, #21]
    59a2:	2b0f      	cmp	r3, #15
    59a4:	d803      	bhi.n	59ae <serial_baud+0x232>
    59a6:	9b06      	ldr	r3, [sp, #24]
    59a8:	2b00      	cmp	r3, #0
    59aa:	f43f af6a 	beq.w	5882 <serial_baud+0x106>
    59ae:	9b01      	ldr	r3, [sp, #4]
    59b0:	681b      	ldr	r3, [r3, #0]
    59b2:	9a01      	ldr	r2, [sp, #4]
    59b4:	6812      	ldr	r2, [r2, #0]
    59b6:	7b12      	ldrb	r2, [r2, #12]
    59b8:	b2d2      	uxtb	r2, r2
    59ba:	f062 027f 	orn	r2, r2, #127	; 0x7f
    59be:	b2d2      	uxtb	r2, r2
    59c0:	731a      	strb	r2, [r3, #12]
    59c2:	9b01      	ldr	r3, [sp, #4]
    59c4:	681b      	ldr	r3, [r3, #0]
    59c6:	f8bd 201e 	ldrh.w	r2, [sp, #30]
    59ca:	0a12      	lsrs	r2, r2, #8
    59cc:	b292      	uxth	r2, r2
    59ce:	b2d2      	uxtb	r2, r2
    59d0:	711a      	strb	r2, [r3, #4]
    59d2:	9b01      	ldr	r3, [sp, #4]
    59d4:	681b      	ldr	r3, [r3, #0]
    59d6:	f8bd 201e 	ldrh.w	r2, [sp, #30]
    59da:	b2d2      	uxtb	r2, r2
    59dc:	701a      	strb	r2, [r3, #0]
    59de:	9b01      	ldr	r3, [sp, #4]
    59e0:	681b      	ldr	r3, [r3, #0]
    59e2:	f89d 201c 	ldrb.w	r2, [sp, #28]
    59e6:	0112      	lsls	r2, r2, #4
    59e8:	b2d1      	uxtb	r1, r2
    59ea:	f89d 201d 	ldrb.w	r2, [sp, #29]
    59ee:	430a      	orrs	r2, r1
    59f0:	b2d2      	uxtb	r2, r2
    59f2:	f883 2028 	strb.w	r2, [r3, #40]	; 0x28
    59f6:	9b01      	ldr	r3, [sp, #4]
    59f8:	681b      	ldr	r3, [r3, #0]
    59fa:	9a01      	ldr	r2, [sp, #4]
    59fc:	6812      	ldr	r2, [r2, #0]
    59fe:	7b12      	ldrb	r2, [r2, #12]
    5a00:	b2d2      	uxtb	r2, r2
    5a02:	f002 027f 	and.w	r2, r2, #127	; 0x7f
    5a06:	b2d2      	uxtb	r2, r2
    5a08:	731a      	strb	r2, [r3, #12]
    5a0a:	b009      	add	sp, #36	; 0x24
    5a0c:	f85d fb04 	ldr.w	pc, [sp], #4
    5a10:	40010000 	.word	0x40010000
    5a14:	4000c000 	.word	0x4000c000
    5a18:	40098000 	.word	0x40098000
    5a1c:	4009c000 	.word	0x4009c000
    5a20:	400fc000 	.word	0x400fc000
    5a24:	0000dd88 	.word	0x0000dd88
    5a28:	100000d4 	.word	0x100000d4

00005a2c <serial_format>:
    5a2c:	b500      	push	{lr}
    5a2e:	b087      	sub	sp, #28
    5a30:	9003      	str	r0, [sp, #12]
    5a32:	9102      	str	r1, [sp, #8]
    5a34:	9300      	str	r3, [sp, #0]
    5a36:	4613      	mov	r3, r2
    5a38:	f88d 3007 	strb.w	r3, [sp, #7]
    5a3c:	9b00      	ldr	r3, [sp, #0]
    5a3e:	2b01      	cmp	r3, #1
    5a40:	d005      	beq.n	5a4e <serial_format+0x22>
    5a42:	9b00      	ldr	r3, [sp, #0]
    5a44:	2b02      	cmp	r3, #2
    5a46:	d002      	beq.n	5a4e <serial_format+0x22>
    5a48:	482c      	ldr	r0, [pc, #176]	; (5afc <serial_format+0xd0>)
    5a4a:	f7fe fa0b 	bl	3e64 <error>
    5a4e:	9b00      	ldr	r3, [sp, #0]
    5a50:	3b01      	subs	r3, #1
    5a52:	9300      	str	r3, [sp, #0]
    5a54:	9b02      	ldr	r3, [sp, #8]
    5a56:	2b04      	cmp	r3, #4
    5a58:	dd02      	ble.n	5a60 <serial_format+0x34>
    5a5a:	9b02      	ldr	r3, [sp, #8]
    5a5c:	2b08      	cmp	r3, #8
    5a5e:	dd03      	ble.n	5a68 <serial_format+0x3c>
    5a60:	4827      	ldr	r0, [pc, #156]	; (5b00 <serial_format+0xd4>)
    5a62:	9902      	ldr	r1, [sp, #8]
    5a64:	f7fe f9fe 	bl	3e64 <error>
    5a68:	9b02      	ldr	r3, [sp, #8]
    5a6a:	3b05      	subs	r3, #5
    5a6c:	9302      	str	r3, [sp, #8]
    5a6e:	f89d 3007 	ldrb.w	r3, [sp, #7]
    5a72:	2b04      	cmp	r3, #4
    5a74:	d825      	bhi.n	5ac2 <serial_format+0x96>
    5a76:	a201      	add	r2, pc, #4	; (adr r2, 5a7c <serial_format+0x50>)
    5a78:	f852 f023 	ldr.w	pc, [r2, r3, lsl #2]
    5a7c:	00005a91 	.word	0x00005a91
    5a80:	00005a9b 	.word	0x00005a9b
    5a84:	00005aa5 	.word	0x00005aa5
    5a88:	00005aaf 	.word	0x00005aaf
    5a8c:	00005ab9 	.word	0x00005ab9
    5a90:	2300      	movs	r3, #0
    5a92:	9305      	str	r3, [sp, #20]
    5a94:	2300      	movs	r3, #0
    5a96:	9304      	str	r3, [sp, #16]
    5a98:	e017      	b.n	5aca <serial_format+0x9e>
    5a9a:	2301      	movs	r3, #1
    5a9c:	9305      	str	r3, [sp, #20]
    5a9e:	2300      	movs	r3, #0
    5aa0:	9304      	str	r3, [sp, #16]
    5aa2:	e012      	b.n	5aca <serial_format+0x9e>
    5aa4:	2301      	movs	r3, #1
    5aa6:	9305      	str	r3, [sp, #20]
    5aa8:	2301      	movs	r3, #1
    5aaa:	9304      	str	r3, [sp, #16]
    5aac:	e00d      	b.n	5aca <serial_format+0x9e>
    5aae:	2301      	movs	r3, #1
    5ab0:	9305      	str	r3, [sp, #20]
    5ab2:	2302      	movs	r3, #2
    5ab4:	9304      	str	r3, [sp, #16]
    5ab6:	e008      	b.n	5aca <serial_format+0x9e>
    5ab8:	2301      	movs	r3, #1
    5aba:	9305      	str	r3, [sp, #20]
    5abc:	2303      	movs	r3, #3
    5abe:	9304      	str	r3, [sp, #16]
    5ac0:	e003      	b.n	5aca <serial_format+0x9e>
    5ac2:	4810      	ldr	r0, [pc, #64]	; (5b04 <serial_format+0xd8>)
    5ac4:	f7fe f9ce 	bl	3e64 <error>
    5ac8:	e014      	b.n	5af4 <serial_format+0xc8>
    5aca:	9b03      	ldr	r3, [sp, #12]
    5acc:	681b      	ldr	r3, [r3, #0]
    5ace:	9a00      	ldr	r2, [sp, #0]
    5ad0:	0092      	lsls	r2, r2, #2
    5ad2:	b2d1      	uxtb	r1, r2
    5ad4:	9a02      	ldr	r2, [sp, #8]
    5ad6:	b2d2      	uxtb	r2, r2
    5ad8:	430a      	orrs	r2, r1
    5ada:	b2d1      	uxtb	r1, r2
    5adc:	9a05      	ldr	r2, [sp, #20]
    5ade:	00d2      	lsls	r2, r2, #3
    5ae0:	b2d2      	uxtb	r2, r2
    5ae2:	430a      	orrs	r2, r1
    5ae4:	b2d1      	uxtb	r1, r2
    5ae6:	9a04      	ldr	r2, [sp, #16]
    5ae8:	0112      	lsls	r2, r2, #4
    5aea:	b2d2      	uxtb	r2, r2
    5aec:	430a      	orrs	r2, r1
    5aee:	b2d2      	uxtb	r2, r2
    5af0:	b2d2      	uxtb	r2, r2
    5af2:	731a      	strb	r2, [r3, #12]
    5af4:	b007      	add	sp, #28
    5af6:	f85d fb04 	ldr.w	pc, [sp], #4
    5afa:	bf00      	nop
    5afc:	0000dd94 	.word	0x0000dd94
    5b00:	0000ddb0 	.word	0x0000ddb0
    5b04:	0000ddf0 	.word	0x0000ddf0

00005b08 <uart_irq>:
    5b08:	b510      	push	{r4, lr}
    5b0a:	b086      	sub	sp, #24
    5b0c:	9003      	str	r0, [sp, #12]
    5b0e:	9102      	str	r1, [sp, #8]
    5b10:	9201      	str	r2, [sp, #4]
    5b12:	9b03      	ldr	r3, [sp, #12]
    5b14:	2b01      	cmp	r3, #1
    5b16:	d002      	beq.n	5b1e <uart_irq+0x16>
    5b18:	2b02      	cmp	r3, #2
    5b1a:	d004      	beq.n	5b26 <uart_irq+0x1e>
    5b1c:	e05b      	b.n	5bd6 <uart_irq+0xce>
    5b1e:	2301      	movs	r3, #1
    5b20:	f88d 3017 	strb.w	r3, [sp, #23]
    5b24:	e003      	b.n	5b2e <uart_irq+0x26>
    5b26:	2300      	movs	r3, #0
    5b28:	f88d 3017 	strb.w	r3, [sp, #23]
    5b2c:	bf00      	nop
    5b2e:	f89d 3017 	ldrb.w	r3, [sp, #23]
    5b32:	2b00      	cmp	r3, #0
    5b34:	d127      	bne.n	5b86 <uart_irq+0x7e>
    5b36:	4929      	ldr	r1, [pc, #164]	; (5bdc <uart_irq+0xd4>)
    5b38:	9a02      	ldr	r2, [sp, #8]
    5b3a:	4613      	mov	r3, r2
    5b3c:	00db      	lsls	r3, r3, #3
    5b3e:	1a9b      	subs	r3, r3, r2
    5b40:	00db      	lsls	r3, r3, #3
    5b42:	440b      	add	r3, r1
    5b44:	685b      	ldr	r3, [r3, #4]
    5b46:	f1b3 3fff 	cmp.w	r3, #4294967295
    5b4a:	d01c      	beq.n	5b86 <uart_irq+0x7e>
    5b4c:	9a02      	ldr	r2, [sp, #8]
    5b4e:	4613      	mov	r3, r2
    5b50:	00db      	lsls	r3, r3, #3
    5b52:	1a9b      	subs	r3, r3, r2
    5b54:	00db      	lsls	r3, r3, #3
    5b56:	4a21      	ldr	r2, [pc, #132]	; (5bdc <uart_irq+0xd4>)
    5b58:	4413      	add	r3, r2
    5b5a:	3304      	adds	r3, #4
    5b5c:	4618      	mov	r0, r3
    5b5e:	2101      	movs	r1, #1
    5b60:	f7ff fd02 	bl	5568 <gpio_write>
    5b64:	491d      	ldr	r1, [pc, #116]	; (5bdc <uart_irq+0xd4>)
    5b66:	9a02      	ldr	r2, [sp, #8]
    5b68:	4613      	mov	r3, r2
    5b6a:	00db      	lsls	r3, r3, #3
    5b6c:	1a9b      	subs	r3, r3, r2
    5b6e:	00db      	lsls	r3, r3, #3
    5b70:	440b      	add	r3, r1
    5b72:	3330      	adds	r3, #48	; 0x30
    5b74:	799b      	ldrb	r3, [r3, #6]
    5b76:	2b00      	cmp	r3, #0
    5b78:	d105      	bne.n	5b86 <uart_irq+0x7e>
    5b7a:	9b01      	ldr	r3, [sp, #4]
    5b7c:	685b      	ldr	r3, [r3, #4]
    5b7e:	f023 0201 	bic.w	r2, r3, #1
    5b82:	9b01      	ldr	r3, [sp, #4]
    5b84:	605a      	str	r2, [r3, #4]
    5b86:	4915      	ldr	r1, [pc, #84]	; (5bdc <uart_irq+0xd4>)
    5b88:	9a02      	ldr	r2, [sp, #8]
    5b8a:	4613      	mov	r3, r2
    5b8c:	00db      	lsls	r3, r3, #3
    5b8e:	1a9b      	subs	r3, r3, r2
    5b90:	00db      	lsls	r3, r3, #3
    5b92:	440b      	add	r3, r1
    5b94:	681b      	ldr	r3, [r3, #0]
    5b96:	2b00      	cmp	r3, #0
    5b98:	d01d      	beq.n	5bd6 <uart_irq+0xce>
    5b9a:	f89d 3017 	ldrb.w	r3, [sp, #23]
    5b9e:	2b00      	cmp	r3, #0
    5ba0:	d10a      	bne.n	5bb8 <uart_irq+0xb0>
    5ba2:	490e      	ldr	r1, [pc, #56]	; (5bdc <uart_irq+0xd4>)
    5ba4:	9a02      	ldr	r2, [sp, #8]
    5ba6:	4613      	mov	r3, r2
    5ba8:	00db      	lsls	r3, r3, #3
    5baa:	1a9b      	subs	r3, r3, r2
    5bac:	00db      	lsls	r3, r3, #3
    5bae:	440b      	add	r3, r1
    5bb0:	3330      	adds	r3, #48	; 0x30
    5bb2:	799b      	ldrb	r3, [r3, #6]
    5bb4:	2b00      	cmp	r3, #0
    5bb6:	d00e      	beq.n	5bd6 <uart_irq+0xce>
    5bb8:	4b09      	ldr	r3, [pc, #36]	; (5be0 <uart_irq+0xd8>)
    5bba:	681c      	ldr	r4, [r3, #0]
    5bbc:	4907      	ldr	r1, [pc, #28]	; (5bdc <uart_irq+0xd4>)
    5bbe:	9a02      	ldr	r2, [sp, #8]
    5bc0:	4613      	mov	r3, r2
    5bc2:	00db      	lsls	r3, r3, #3
    5bc4:	1a9b      	subs	r3, r3, r2
    5bc6:	00db      	lsls	r3, r3, #3
    5bc8:	440b      	add	r3, r1
    5bca:	681a      	ldr	r2, [r3, #0]
    5bcc:	f89d 3017 	ldrb.w	r3, [sp, #23]
    5bd0:	4610      	mov	r0, r2
    5bd2:	4619      	mov	r1, r3
    5bd4:	47a0      	blx	r4
    5bd6:	b006      	add	sp, #24
    5bd8:	bd10      	pop	{r4, pc}
    5bda:	bf00      	nop
    5bdc:	10000950 	.word	0x10000950
    5be0:	10000948 	.word	0x10000948

00005be4 <uart0_irq>:
    5be4:	b508      	push	{r3, lr}
    5be6:	4b05      	ldr	r3, [pc, #20]	; (5bfc <uart0_irq+0x18>)
    5be8:	689b      	ldr	r3, [r3, #8]
    5bea:	085b      	lsrs	r3, r3, #1
    5bec:	f003 0307 	and.w	r3, r3, #7
    5bf0:	4618      	mov	r0, r3
    5bf2:	2100      	movs	r1, #0
    5bf4:	4a01      	ldr	r2, [pc, #4]	; (5bfc <uart0_irq+0x18>)
    5bf6:	f7ff ff87 	bl	5b08 <uart_irq>
    5bfa:	bd08      	pop	{r3, pc}
    5bfc:	4000c000 	.word	0x4000c000

00005c00 <uart1_irq>:
    5c00:	b508      	push	{r3, lr}
    5c02:	4b05      	ldr	r3, [pc, #20]	; (5c18 <uart1_irq+0x18>)
    5c04:	689b      	ldr	r3, [r3, #8]
    5c06:	085b      	lsrs	r3, r3, #1
    5c08:	f003 0307 	and.w	r3, r3, #7
    5c0c:	4618      	mov	r0, r3
    5c0e:	2101      	movs	r1, #1
    5c10:	4a01      	ldr	r2, [pc, #4]	; (5c18 <uart1_irq+0x18>)
    5c12:	f7ff ff79 	bl	5b08 <uart_irq>
    5c16:	bd08      	pop	{r3, pc}
    5c18:	40010000 	.word	0x40010000

00005c1c <uart2_irq>:
    5c1c:	b508      	push	{r3, lr}
    5c1e:	4b05      	ldr	r3, [pc, #20]	; (5c34 <uart2_irq+0x18>)
    5c20:	689b      	ldr	r3, [r3, #8]
    5c22:	085b      	lsrs	r3, r3, #1
    5c24:	f003 0307 	and.w	r3, r3, #7
    5c28:	4618      	mov	r0, r3
    5c2a:	2102      	movs	r1, #2
    5c2c:	4a01      	ldr	r2, [pc, #4]	; (5c34 <uart2_irq+0x18>)
    5c2e:	f7ff ff6b 	bl	5b08 <uart_irq>
    5c32:	bd08      	pop	{r3, pc}
    5c34:	40098000 	.word	0x40098000

00005c38 <uart3_irq>:
    5c38:	b508      	push	{r3, lr}
    5c3a:	4b05      	ldr	r3, [pc, #20]	; (5c50 <uart3_irq+0x18>)
    5c3c:	689b      	ldr	r3, [r3, #8]
    5c3e:	085b      	lsrs	r3, r3, #1
    5c40:	f003 0307 	and.w	r3, r3, #7
    5c44:	4618      	mov	r0, r3
    5c46:	2103      	movs	r1, #3
    5c48:	4a01      	ldr	r2, [pc, #4]	; (5c50 <uart3_irq+0x18>)
    5c4a:	f7ff ff5d 	bl	5b08 <uart_irq>
    5c4e:	bd08      	pop	{r3, pc}
    5c50:	4009c000 	.word	0x4009c000

00005c54 <serial_irq_handler>:
    5c54:	b084      	sub	sp, #16
    5c56:	9003      	str	r0, [sp, #12]
    5c58:	9102      	str	r1, [sp, #8]
    5c5a:	9201      	str	r2, [sp, #4]
    5c5c:	4b07      	ldr	r3, [pc, #28]	; (5c7c <serial_irq_handler+0x28>)
    5c5e:	9a02      	ldr	r2, [sp, #8]
    5c60:	601a      	str	r2, [r3, #0]
    5c62:	9b03      	ldr	r3, [sp, #12]
    5c64:	685a      	ldr	r2, [r3, #4]
    5c66:	4906      	ldr	r1, [pc, #24]	; (5c80 <serial_irq_handler+0x2c>)
    5c68:	4613      	mov	r3, r2
    5c6a:	00db      	lsls	r3, r3, #3
    5c6c:	1a9b      	subs	r3, r3, r2
    5c6e:	00db      	lsls	r3, r3, #3
    5c70:	440b      	add	r3, r1
    5c72:	9a01      	ldr	r2, [sp, #4]
    5c74:	601a      	str	r2, [r3, #0]
    5c76:	b004      	add	sp, #16
    5c78:	4770      	bx	lr
    5c7a:	bf00      	nop
    5c7c:	10000948 	.word	0x10000948
    5c80:	10000950 	.word	0x10000950

00005c84 <serial_irq_set_internal>:
    5c84:	b500      	push	{lr}
    5c86:	b089      	sub	sp, #36	; 0x24
    5c88:	9003      	str	r0, [sp, #12]
    5c8a:	460b      	mov	r3, r1
    5c8c:	9201      	str	r2, [sp, #4]
    5c8e:	f88d 300b 	strb.w	r3, [sp, #11]
    5c92:	2300      	movs	r3, #0
    5c94:	f88d 301f 	strb.w	r3, [sp, #31]
    5c98:	2300      	movs	r3, #0
    5c9a:	9306      	str	r3, [sp, #24]
    5c9c:	9b03      	ldr	r3, [sp, #12]
    5c9e:	681b      	ldr	r3, [r3, #0]
    5ca0:	4a48      	ldr	r2, [pc, #288]	; (5dc4 <serial_irq_set_internal+0x140>)
    5ca2:	4293      	cmp	r3, r2
    5ca4:	d013      	beq.n	5cce <serial_irq_set_internal+0x4a>
    5ca6:	4a47      	ldr	r2, [pc, #284]	; (5dc4 <serial_irq_set_internal+0x140>)
    5ca8:	4293      	cmp	r3, r2
    5caa:	dc03      	bgt.n	5cb4 <serial_irq_set_internal+0x30>
    5cac:	4a46      	ldr	r2, [pc, #280]	; (5dc8 <serial_irq_set_internal+0x144>)
    5cae:	4293      	cmp	r3, r2
    5cb0:	d007      	beq.n	5cc2 <serial_irq_set_internal+0x3e>
    5cb2:	e01e      	b.n	5cf2 <serial_irq_set_internal+0x6e>
    5cb4:	4a45      	ldr	r2, [pc, #276]	; (5dcc <serial_irq_set_internal+0x148>)
    5cb6:	4293      	cmp	r3, r2
    5cb8:	d00f      	beq.n	5cda <serial_irq_set_internal+0x56>
    5cba:	4a45      	ldr	r2, [pc, #276]	; (5dd0 <serial_irq_set_internal+0x14c>)
    5cbc:	4293      	cmp	r3, r2
    5cbe:	d012      	beq.n	5ce6 <serial_irq_set_internal+0x62>
    5cc0:	e017      	b.n	5cf2 <serial_irq_set_internal+0x6e>
    5cc2:	2305      	movs	r3, #5
    5cc4:	f88d 301f 	strb.w	r3, [sp, #31]
    5cc8:	4b42      	ldr	r3, [pc, #264]	; (5dd4 <serial_irq_set_internal+0x150>)
    5cca:	9306      	str	r3, [sp, #24]
    5ccc:	e011      	b.n	5cf2 <serial_irq_set_internal+0x6e>
    5cce:	2306      	movs	r3, #6
    5cd0:	f88d 301f 	strb.w	r3, [sp, #31]
    5cd4:	4b40      	ldr	r3, [pc, #256]	; (5dd8 <serial_irq_set_internal+0x154>)
    5cd6:	9306      	str	r3, [sp, #24]
    5cd8:	e00b      	b.n	5cf2 <serial_irq_set_internal+0x6e>
    5cda:	2307      	movs	r3, #7
    5cdc:	f88d 301f 	strb.w	r3, [sp, #31]
    5ce0:	4b3e      	ldr	r3, [pc, #248]	; (5ddc <serial_irq_set_internal+0x158>)
    5ce2:	9306      	str	r3, [sp, #24]
    5ce4:	e005      	b.n	5cf2 <serial_irq_set_internal+0x6e>
    5ce6:	2308      	movs	r3, #8
    5ce8:	f88d 301f 	strb.w	r3, [sp, #31]
    5cec:	4b3c      	ldr	r3, [pc, #240]	; (5de0 <serial_irq_set_internal+0x15c>)
    5cee:	9306      	str	r3, [sp, #24]
    5cf0:	bf00      	nop
    5cf2:	9b01      	ldr	r3, [sp, #4]
    5cf4:	2b00      	cmp	r3, #0
    5cf6:	d017      	beq.n	5d28 <serial_irq_set_internal+0xa4>
    5cf8:	9b03      	ldr	r3, [sp, #12]
    5cfa:	681b      	ldr	r3, [r3, #0]
    5cfc:	9a03      	ldr	r2, [sp, #12]
    5cfe:	6812      	ldr	r2, [r2, #0]
    5d00:	6851      	ldr	r1, [r2, #4]
    5d02:	f89d 200b 	ldrb.w	r2, [sp, #11]
    5d06:	2001      	movs	r0, #1
    5d08:	fa00 f202 	lsl.w	r2, r0, r2
    5d0c:	430a      	orrs	r2, r1
    5d0e:	605a      	str	r2, [r3, #4]
    5d10:	f99d 301f 	ldrsb.w	r3, [sp, #31]
    5d14:	4618      	mov	r0, r3
    5d16:	9906      	ldr	r1, [sp, #24]
    5d18:	f000 fab2 	bl	6280 <NVIC_SetVector>
    5d1c:	f99d 301f 	ldrsb.w	r3, [sp, #31]
    5d20:	4618      	mov	r0, r3
    5d22:	f7ff fbf5 	bl	5510 <NVIC_EnableIRQ>
    5d26:	e04a      	b.n	5dbe <serial_irq_set_internal+0x13a>
    5d28:	f89d 300b 	ldrb.w	r3, [sp, #11]
    5d2c:	2b01      	cmp	r3, #1
    5d2e:	d017      	beq.n	5d60 <serial_irq_set_internal+0xdc>
    5d30:	9b03      	ldr	r3, [sp, #12]
    5d32:	685a      	ldr	r2, [r3, #4]
    5d34:	492b      	ldr	r1, [pc, #172]	; (5de4 <serial_irq_set_internal+0x160>)
    5d36:	4613      	mov	r3, r2
    5d38:	00db      	lsls	r3, r3, #3
    5d3a:	1a9b      	subs	r3, r3, r2
    5d3c:	00db      	lsls	r3, r3, #3
    5d3e:	440b      	add	r3, r1
    5d40:	3330      	adds	r3, #48	; 0x30
    5d42:	799b      	ldrb	r3, [r3, #6]
    5d44:	4619      	mov	r1, r3
    5d46:	9b03      	ldr	r3, [sp, #12]
    5d48:	685a      	ldr	r2, [r3, #4]
    5d4a:	4826      	ldr	r0, [pc, #152]	; (5de4 <serial_irq_set_internal+0x160>)
    5d4c:	4613      	mov	r3, r2
    5d4e:	00db      	lsls	r3, r3, #3
    5d50:	1a9b      	subs	r3, r3, r2
    5d52:	00db      	lsls	r3, r3, #3
    5d54:	4403      	add	r3, r0
    5d56:	3330      	adds	r3, #48	; 0x30
    5d58:	795b      	ldrb	r3, [r3, #5]
    5d5a:	440b      	add	r3, r1
    5d5c:	2b00      	cmp	r3, #0
    5d5e:	d12e      	bne.n	5dbe <serial_irq_set_internal+0x13a>
    5d60:	2300      	movs	r3, #0
    5d62:	9305      	str	r3, [sp, #20]
    5d64:	f89d 300b 	ldrb.w	r3, [sp, #11]
    5d68:	2b00      	cmp	r3, #0
    5d6a:	bf14      	ite	ne
    5d6c:	2300      	movne	r3, #0
    5d6e:	2301      	moveq	r3, #1
    5d70:	b2db      	uxtb	r3, r3
    5d72:	f88d 3013 	strb.w	r3, [sp, #19]
    5d76:	9b03      	ldr	r3, [sp, #12]
    5d78:	681b      	ldr	r3, [r3, #0]
    5d7a:	9a03      	ldr	r2, [sp, #12]
    5d7c:	6812      	ldr	r2, [r2, #0]
    5d7e:	6851      	ldr	r1, [r2, #4]
    5d80:	f89d 200b 	ldrb.w	r2, [sp, #11]
    5d84:	2001      	movs	r0, #1
    5d86:	fa00 f202 	lsl.w	r2, r0, r2
    5d8a:	43d2      	mvns	r2, r2
    5d8c:	400a      	ands	r2, r1
    5d8e:	605a      	str	r2, [r3, #4]
    5d90:	9b03      	ldr	r3, [sp, #12]
    5d92:	681b      	ldr	r3, [r3, #0]
    5d94:	685a      	ldr	r2, [r3, #4]
    5d96:	f89d 3013 	ldrb.w	r3, [sp, #19]
    5d9a:	2101      	movs	r1, #1
    5d9c:	fa01 f303 	lsl.w	r3, r1, r3
    5da0:	4013      	ands	r3, r2
    5da2:	2b00      	cmp	r3, #0
    5da4:	bf14      	ite	ne
    5da6:	2300      	movne	r3, #0
    5da8:	2301      	moveq	r3, #1
    5daa:	b2db      	uxtb	r3, r3
    5dac:	9305      	str	r3, [sp, #20]
    5dae:	9b05      	ldr	r3, [sp, #20]
    5db0:	2b00      	cmp	r3, #0
    5db2:	d004      	beq.n	5dbe <serial_irq_set_internal+0x13a>
    5db4:	f99d 301f 	ldrsb.w	r3, [sp, #31]
    5db8:	4618      	mov	r0, r3
    5dba:	f7ff fbbf 	bl	553c <NVIC_DisableIRQ>
    5dbe:	b009      	add	sp, #36	; 0x24
    5dc0:	f85d fb04 	ldr.w	pc, [sp], #4
    5dc4:	40010000 	.word	0x40010000
    5dc8:	4000c000 	.word	0x4000c000
    5dcc:	40098000 	.word	0x40098000
    5dd0:	4009c000 	.word	0x4009c000
    5dd4:	00005be5 	.word	0x00005be5
    5dd8:	00005c01 	.word	0x00005c01
    5ddc:	00005c1d 	.word	0x00005c1d
    5de0:	00005c39 	.word	0x00005c39
    5de4:	10000950 	.word	0x10000950

00005de8 <serial_irq_set>:
    5de8:	b500      	push	{lr}
    5dea:	b085      	sub	sp, #20
    5dec:	9003      	str	r0, [sp, #12]
    5dee:	460b      	mov	r3, r1
    5df0:	9201      	str	r2, [sp, #4]
    5df2:	f88d 300b 	strb.w	r3, [sp, #11]
    5df6:	f89d 300b 	ldrb.w	r3, [sp, #11]
    5dfa:	2b00      	cmp	r3, #0
    5dfc:	d10c      	bne.n	5e18 <serial_irq_set+0x30>
    5dfe:	9b03      	ldr	r3, [sp, #12]
    5e00:	685a      	ldr	r2, [r3, #4]
    5e02:	9b01      	ldr	r3, [sp, #4]
    5e04:	b2d9      	uxtb	r1, r3
    5e06:	4809      	ldr	r0, [pc, #36]	; (5e2c <serial_irq_set+0x44>)
    5e08:	4613      	mov	r3, r2
    5e0a:	00db      	lsls	r3, r3, #3
    5e0c:	1a9b      	subs	r3, r3, r2
    5e0e:	00db      	lsls	r3, r3, #3
    5e10:	4403      	add	r3, r0
    5e12:	3330      	adds	r3, #48	; 0x30
    5e14:	460a      	mov	r2, r1
    5e16:	719a      	strb	r2, [r3, #6]
    5e18:	f89d 300b 	ldrb.w	r3, [sp, #11]
    5e1c:	9803      	ldr	r0, [sp, #12]
    5e1e:	4619      	mov	r1, r3
    5e20:	9a01      	ldr	r2, [sp, #4]
    5e22:	f7ff ff2f 	bl	5c84 <serial_irq_set_internal>
    5e26:	b005      	add	sp, #20
    5e28:	f85d fb04 	ldr.w	pc, [sp], #4
    5e2c:	10000950 	.word	0x10000950

00005e30 <serial_flow_irq_set>:
    5e30:	b500      	push	{lr}
    5e32:	b083      	sub	sp, #12
    5e34:	9001      	str	r0, [sp, #4]
    5e36:	9100      	str	r1, [sp, #0]
    5e38:	9b01      	ldr	r3, [sp, #4]
    5e3a:	685a      	ldr	r2, [r3, #4]
    5e3c:	9b00      	ldr	r3, [sp, #0]
    5e3e:	b2d9      	uxtb	r1, r3
    5e40:	4808      	ldr	r0, [pc, #32]	; (5e64 <serial_flow_irq_set+0x34>)
    5e42:	4613      	mov	r3, r2
    5e44:	00db      	lsls	r3, r3, #3
    5e46:	1a9b      	subs	r3, r3, r2
    5e48:	00db      	lsls	r3, r3, #3
    5e4a:	4403      	add	r3, r0
    5e4c:	3330      	adds	r3, #48	; 0x30
    5e4e:	460a      	mov	r2, r1
    5e50:	715a      	strb	r2, [r3, #5]
    5e52:	9801      	ldr	r0, [sp, #4]
    5e54:	2100      	movs	r1, #0
    5e56:	9a00      	ldr	r2, [sp, #0]
    5e58:	f7ff ff14 	bl	5c84 <serial_irq_set_internal>
    5e5c:	b003      	add	sp, #12
    5e5e:	f85d fb04 	ldr.w	pc, [sp], #4
    5e62:	bf00      	nop
    5e64:	10000950 	.word	0x10000950

00005e68 <serial_getc>:
    5e68:	b500      	push	{lr}
    5e6a:	b085      	sub	sp, #20
    5e6c:	9001      	str	r0, [sp, #4]
    5e6e:	bf00      	nop
    5e70:	9801      	ldr	r0, [sp, #4]
    5e72:	f000 f85b 	bl	5f2c <serial_readable>
    5e76:	4603      	mov	r3, r0
    5e78:	2b00      	cmp	r3, #0
    5e7a:	d0f9      	beq.n	5e70 <serial_getc+0x8>
    5e7c:	9b01      	ldr	r3, [sp, #4]
    5e7e:	681b      	ldr	r3, [r3, #0]
    5e80:	781b      	ldrb	r3, [r3, #0]
    5e82:	b2db      	uxtb	r3, r3
    5e84:	9303      	str	r3, [sp, #12]
    5e86:	9b01      	ldr	r3, [sp, #4]
    5e88:	685a      	ldr	r2, [r3, #4]
    5e8a:	4912      	ldr	r1, [pc, #72]	; (5ed4 <serial_getc+0x6c>)
    5e8c:	4613      	mov	r3, r2
    5e8e:	00db      	lsls	r3, r3, #3
    5e90:	1a9b      	subs	r3, r3, r2
    5e92:	00db      	lsls	r3, r3, #3
    5e94:	440b      	add	r3, r1
    5e96:	685b      	ldr	r3, [r3, #4]
    5e98:	f1b3 3fff 	cmp.w	r3, #4294967295
    5e9c:	d014      	beq.n	5ec8 <serial_getc+0x60>
    5e9e:	9b01      	ldr	r3, [sp, #4]
    5ea0:	685a      	ldr	r2, [r3, #4]
    5ea2:	4613      	mov	r3, r2
    5ea4:	00db      	lsls	r3, r3, #3
    5ea6:	1a9b      	subs	r3, r3, r2
    5ea8:	00db      	lsls	r3, r3, #3
    5eaa:	4a0a      	ldr	r2, [pc, #40]	; (5ed4 <serial_getc+0x6c>)
    5eac:	4413      	add	r3, r2
    5eae:	3304      	adds	r3, #4
    5eb0:	4618      	mov	r0, r3
    5eb2:	2100      	movs	r1, #0
    5eb4:	f7ff fb58 	bl	5568 <gpio_write>
    5eb8:	9b01      	ldr	r3, [sp, #4]
    5eba:	681b      	ldr	r3, [r3, #0]
    5ebc:	9a01      	ldr	r2, [sp, #4]
    5ebe:	6812      	ldr	r2, [r2, #0]
    5ec0:	6852      	ldr	r2, [r2, #4]
    5ec2:	f042 0201 	orr.w	r2, r2, #1
    5ec6:	605a      	str	r2, [r3, #4]
    5ec8:	9b03      	ldr	r3, [sp, #12]
    5eca:	4618      	mov	r0, r3
    5ecc:	b005      	add	sp, #20
    5ece:	f85d fb04 	ldr.w	pc, [sp], #4
    5ed2:	bf00      	nop
    5ed4:	10000950 	.word	0x10000950

00005ed8 <serial_putc>:
    5ed8:	b500      	push	{lr}
    5eda:	b083      	sub	sp, #12
    5edc:	9001      	str	r0, [sp, #4]
    5ede:	9100      	str	r1, [sp, #0]
    5ee0:	bf00      	nop
    5ee2:	9801      	ldr	r0, [sp, #4]
    5ee4:	f000 f82e 	bl	5f44 <serial_writable>
    5ee8:	4603      	mov	r3, r0
    5eea:	2b00      	cmp	r3, #0
    5eec:	d0f9      	beq.n	5ee2 <serial_putc+0xa>
    5eee:	9b01      	ldr	r3, [sp, #4]
    5ef0:	681b      	ldr	r3, [r3, #0]
    5ef2:	9a00      	ldr	r2, [sp, #0]
    5ef4:	b2d2      	uxtb	r2, r2
    5ef6:	701a      	strb	r2, [r3, #0]
    5ef8:	9b01      	ldr	r3, [sp, #4]
    5efa:	685a      	ldr	r2, [r3, #4]
    5efc:	490a      	ldr	r1, [pc, #40]	; (5f28 <serial_putc+0x50>)
    5efe:	4613      	mov	r3, r2
    5f00:	00db      	lsls	r3, r3, #3
    5f02:	1a9b      	subs	r3, r3, r2
    5f04:	00db      	lsls	r3, r3, #3
    5f06:	440b      	add	r3, r1
    5f08:	3330      	adds	r3, #48	; 0x30
    5f0a:	791b      	ldrb	r3, [r3, #4]
    5f0c:	3301      	adds	r3, #1
    5f0e:	b2d9      	uxtb	r1, r3
    5f10:	4805      	ldr	r0, [pc, #20]	; (5f28 <serial_putc+0x50>)
    5f12:	4613      	mov	r3, r2
    5f14:	00db      	lsls	r3, r3, #3
    5f16:	1a9b      	subs	r3, r3, r2
    5f18:	00db      	lsls	r3, r3, #3
    5f1a:	4403      	add	r3, r0
    5f1c:	3330      	adds	r3, #48	; 0x30
    5f1e:	460a      	mov	r2, r1
    5f20:	711a      	strb	r2, [r3, #4]
    5f22:	b003      	add	sp, #12
    5f24:	f85d fb04 	ldr.w	pc, [sp], #4
    5f28:	10000950 	.word	0x10000950

00005f2c <serial_readable>:
    5f2c:	b082      	sub	sp, #8
    5f2e:	9001      	str	r0, [sp, #4]
    5f30:	9b01      	ldr	r3, [sp, #4]
    5f32:	681b      	ldr	r3, [r3, #0]
    5f34:	7d1b      	ldrb	r3, [r3, #20]
    5f36:	b2db      	uxtb	r3, r3
    5f38:	f003 0301 	and.w	r3, r3, #1
    5f3c:	4618      	mov	r0, r3
    5f3e:	b002      	add	sp, #8
    5f40:	4770      	bx	lr
    5f42:	bf00      	nop

00005f44 <serial_writable>:
    5f44:	b500      	push	{lr}
    5f46:	b085      	sub	sp, #20
    5f48:	9001      	str	r0, [sp, #4]
    5f4a:	2301      	movs	r3, #1
    5f4c:	9303      	str	r3, [sp, #12]
    5f4e:	9b01      	ldr	r3, [sp, #4]
    5f50:	685a      	ldr	r2, [r3, #4]
    5f52:	4928      	ldr	r1, [pc, #160]	; (5ff4 <serial_writable+0xb0>)
    5f54:	4613      	mov	r3, r2
    5f56:	00db      	lsls	r3, r3, #3
    5f58:	1a9b      	subs	r3, r3, r2
    5f5a:	00db      	lsls	r3, r3, #3
    5f5c:	440b      	add	r3, r1
    5f5e:	3318      	adds	r3, #24
    5f60:	685b      	ldr	r3, [r3, #4]
    5f62:	f1b3 3fff 	cmp.w	r3, #4294967295
    5f66:	d01d      	beq.n	5fa4 <serial_writable+0x60>
    5f68:	9b01      	ldr	r3, [sp, #4]
    5f6a:	685a      	ldr	r2, [r3, #4]
    5f6c:	4613      	mov	r3, r2
    5f6e:	00db      	lsls	r3, r3, #3
    5f70:	1a9b      	subs	r3, r3, r2
    5f72:	00db      	lsls	r3, r3, #3
    5f74:	f103 0218 	add.w	r2, r3, #24
    5f78:	4b1e      	ldr	r3, [pc, #120]	; (5ff4 <serial_writable+0xb0>)
    5f7a:	4413      	add	r3, r2
    5f7c:	3304      	adds	r3, #4
    5f7e:	4618      	mov	r0, r3
    5f80:	f7ff fb06 	bl	5590 <gpio_read>
    5f84:	4603      	mov	r3, r0
    5f86:	2b00      	cmp	r3, #0
    5f88:	d109      	bne.n	5f9e <serial_writable+0x5a>
    5f8a:	9b01      	ldr	r3, [sp, #4]
    5f8c:	681b      	ldr	r3, [r3, #0]
    5f8e:	7d1b      	ldrb	r3, [r3, #20]
    5f90:	b2db      	uxtb	r3, r3
    5f92:	f003 0340 	and.w	r3, r3, #64	; 0x40
    5f96:	2b00      	cmp	r3, #0
    5f98:	d001      	beq.n	5f9e <serial_writable+0x5a>
    5f9a:	2301      	movs	r3, #1
    5f9c:	e000      	b.n	5fa0 <serial_writable+0x5c>
    5f9e:	2300      	movs	r3, #0
    5fa0:	9303      	str	r3, [sp, #12]
    5fa2:	e021      	b.n	5fe8 <serial_writable+0xa4>
    5fa4:	9b01      	ldr	r3, [sp, #4]
    5fa6:	681b      	ldr	r3, [r3, #0]
    5fa8:	7d1b      	ldrb	r3, [r3, #20]
    5faa:	b2db      	uxtb	r3, r3
    5fac:	f003 0320 	and.w	r3, r3, #32
    5fb0:	2b00      	cmp	r3, #0
    5fb2:	d00b      	beq.n	5fcc <serial_writable+0x88>
    5fb4:	9b01      	ldr	r3, [sp, #4]
    5fb6:	685a      	ldr	r2, [r3, #4]
    5fb8:	490e      	ldr	r1, [pc, #56]	; (5ff4 <serial_writable+0xb0>)
    5fba:	4613      	mov	r3, r2
    5fbc:	00db      	lsls	r3, r3, #3
    5fbe:	1a9b      	subs	r3, r3, r2
    5fc0:	00db      	lsls	r3, r3, #3
    5fc2:	440b      	add	r3, r1
    5fc4:	3330      	adds	r3, #48	; 0x30
    5fc6:	2200      	movs	r2, #0
    5fc8:	711a      	strb	r2, [r3, #4]
    5fca:	e00d      	b.n	5fe8 <serial_writable+0xa4>
    5fcc:	9b01      	ldr	r3, [sp, #4]
    5fce:	685a      	ldr	r2, [r3, #4]
    5fd0:	4908      	ldr	r1, [pc, #32]	; (5ff4 <serial_writable+0xb0>)
    5fd2:	4613      	mov	r3, r2
    5fd4:	00db      	lsls	r3, r3, #3
    5fd6:	1a9b      	subs	r3, r3, r2
    5fd8:	00db      	lsls	r3, r3, #3
    5fda:	440b      	add	r3, r1
    5fdc:	3330      	adds	r3, #48	; 0x30
    5fde:	791b      	ldrb	r3, [r3, #4]
    5fe0:	2b0f      	cmp	r3, #15
    5fe2:	d901      	bls.n	5fe8 <serial_writable+0xa4>
    5fe4:	2300      	movs	r3, #0
    5fe6:	9303      	str	r3, [sp, #12]
    5fe8:	9b03      	ldr	r3, [sp, #12]
    5fea:	4618      	mov	r0, r3
    5fec:	b005      	add	sp, #20
    5fee:	f85d fb04 	ldr.w	pc, [sp], #4
    5ff2:	bf00      	nop
    5ff4:	10000950 	.word	0x10000950

00005ff8 <serial_set_flow_control>:
    5ff8:	b500      	push	{lr}
    5ffa:	b089      	sub	sp, #36	; 0x24
    5ffc:	9003      	str	r0, [sp, #12]
    5ffe:	9201      	str	r2, [sp, #4]
    6000:	9300      	str	r3, [sp, #0]
    6002:	460b      	mov	r3, r1
    6004:	f88d 300b 	strb.w	r3, [sp, #11]
    6008:	9b03      	ldr	r3, [sp, #12]
    600a:	681b      	ldr	r3, [r3, #0]
    600c:	461a      	mov	r2, r3
    600e:	4b55      	ldr	r3, [pc, #340]	; (6164 <serial_set_flow_control+0x16c>)
    6010:	429a      	cmp	r2, r3
    6012:	d101      	bne.n	6018 <serial_set_flow_control+0x20>
    6014:	4b53      	ldr	r3, [pc, #332]	; (6164 <serial_set_flow_control+0x16c>)
    6016:	e000      	b.n	601a <serial_set_flow_control+0x22>
    6018:	2300      	movs	r3, #0
    601a:	9307      	str	r3, [sp, #28]
    601c:	9b03      	ldr	r3, [sp, #12]
    601e:	685b      	ldr	r3, [r3, #4]
    6020:	9306      	str	r3, [sp, #24]
    6022:	9b07      	ldr	r3, [sp, #28]
    6024:	2b00      	cmp	r3, #0
    6026:	d007      	beq.n	6038 <serial_set_flow_control+0x40>
    6028:	9b07      	ldr	r3, [sp, #28]
    602a:	7c1b      	ldrb	r3, [r3, #16]
    602c:	b2db      	uxtb	r3, r3
    602e:	f003 033f 	and.w	r3, r3, #63	; 0x3f
    6032:	b2da      	uxtb	r2, r3
    6034:	9b07      	ldr	r3, [sp, #28]
    6036:	741a      	strb	r2, [r3, #16]
    6038:	494b      	ldr	r1, [pc, #300]	; (6168 <serial_set_flow_control+0x170>)
    603a:	9a06      	ldr	r2, [sp, #24]
    603c:	4613      	mov	r3, r2
    603e:	00db      	lsls	r3, r3, #3
    6040:	1a9b      	subs	r3, r3, r2
    6042:	00db      	lsls	r3, r3, #3
    6044:	440b      	add	r3, r1
    6046:	3318      	adds	r3, #24
    6048:	f04f 32ff 	mov.w	r2, #4294967295
    604c:	605a      	str	r2, [r3, #4]
    604e:	4946      	ldr	r1, [pc, #280]	; (6168 <serial_set_flow_control+0x170>)
    6050:	9a06      	ldr	r2, [sp, #24]
    6052:	4613      	mov	r3, r2
    6054:	00db      	lsls	r3, r3, #3
    6056:	1a9b      	subs	r3, r3, r2
    6058:	00db      	lsls	r3, r3, #3
    605a:	440b      	add	r3, r1
    605c:	3318      	adds	r3, #24
    605e:	6859      	ldr	r1, [r3, #4]
    6060:	4841      	ldr	r0, [pc, #260]	; (6168 <serial_set_flow_control+0x170>)
    6062:	9a06      	ldr	r2, [sp, #24]
    6064:	4613      	mov	r3, r2
    6066:	00db      	lsls	r3, r3, #3
    6068:	1a9b      	subs	r3, r3, r2
    606a:	00db      	lsls	r3, r3, #3
    606c:	4403      	add	r3, r0
    606e:	6059      	str	r1, [r3, #4]
    6070:	9803      	ldr	r0, [sp, #12]
    6072:	2100      	movs	r1, #0
    6074:	f7ff fedc 	bl	5e30 <serial_flow_irq_set>
    6078:	f89d 300b 	ldrb.w	r3, [sp, #11]
    607c:	2b00      	cmp	r3, #0
    607e:	d100      	bne.n	6082 <serial_set_flow_control+0x8a>
    6080:	e06c      	b.n	615c <serial_set_flow_control+0x164>
    6082:	9801      	ldr	r0, [sp, #4]
    6084:	4939      	ldr	r1, [pc, #228]	; (616c <serial_set_flow_control+0x174>)
    6086:	f7fd fff9 	bl	407c <pinmap_find_peripheral>
    608a:	9005      	str	r0, [sp, #20]
    608c:	9800      	ldr	r0, [sp, #0]
    608e:	4938      	ldr	r1, [pc, #224]	; (6170 <serial_set_flow_control+0x178>)
    6090:	f7fd fff4 	bl	407c <pinmap_find_peripheral>
    6094:	9004      	str	r0, [sp, #16]
    6096:	f89d 300b 	ldrb.w	r3, [sp, #11]
    609a:	2b02      	cmp	r3, #2
    609c:	d003      	beq.n	60a6 <serial_set_flow_control+0xae>
    609e:	f89d 300b 	ldrb.w	r3, [sp, #11]
    60a2:	2b03      	cmp	r3, #3
    60a4:	d125      	bne.n	60f2 <serial_set_flow_control+0xfa>
    60a6:	9b00      	ldr	r3, [sp, #0]
    60a8:	f1b3 3fff 	cmp.w	r3, #4294967295
    60ac:	d021      	beq.n	60f2 <serial_set_flow_control+0xfa>
    60ae:	9a04      	ldr	r2, [sp, #16]
    60b0:	4b2c      	ldr	r3, [pc, #176]	; (6164 <serial_set_flow_control+0x16c>)
    60b2:	429a      	cmp	r2, r3
    60b4:	d10f      	bne.n	60d6 <serial_set_flow_control+0xde>
    60b6:	9b07      	ldr	r3, [sp, #28]
    60b8:	2b00      	cmp	r3, #0
    60ba:	d00c      	beq.n	60d6 <serial_set_flow_control+0xde>
    60bc:	9b07      	ldr	r3, [sp, #28]
    60be:	7c1b      	ldrb	r3, [r3, #16]
    60c0:	b2db      	uxtb	r3, r3
    60c2:	f063 037f 	orn	r3, r3, #127	; 0x7f
    60c6:	b2da      	uxtb	r2, r3
    60c8:	9b07      	ldr	r3, [sp, #28]
    60ca:	741a      	strb	r2, [r3, #16]
    60cc:	9800      	ldr	r0, [sp, #0]
    60ce:	4928      	ldr	r1, [pc, #160]	; (6170 <serial_set_flow_control+0x178>)
    60d0:	f7fd ff88 	bl	3fe4 <pinmap_pinout>
    60d4:	e00d      	b.n	60f2 <serial_set_flow_control+0xfa>
    60d6:	9a06      	ldr	r2, [sp, #24]
    60d8:	4613      	mov	r3, r2
    60da:	00db      	lsls	r3, r3, #3
    60dc:	1a9b      	subs	r3, r3, r2
    60de:	00db      	lsls	r3, r3, #3
    60e0:	f103 0218 	add.w	r2, r3, #24
    60e4:	4b20      	ldr	r3, [pc, #128]	; (6168 <serial_set_flow_control+0x170>)
    60e6:	4413      	add	r3, r2
    60e8:	3304      	adds	r3, #4
    60ea:	4618      	mov	r0, r3
    60ec:	9900      	ldr	r1, [sp, #0]
    60ee:	f7fd ff3b 	bl	3f68 <gpio_init_in>
    60f2:	f89d 300b 	ldrb.w	r3, [sp, #11]
    60f6:	2b01      	cmp	r3, #1
    60f8:	d003      	beq.n	6102 <serial_set_flow_control+0x10a>
    60fa:	f89d 300b 	ldrb.w	r3, [sp, #11]
    60fe:	2b03      	cmp	r3, #3
    6100:	d12c      	bne.n	615c <serial_set_flow_control+0x164>
    6102:	9b01      	ldr	r3, [sp, #4]
    6104:	f1b3 3fff 	cmp.w	r3, #4294967295
    6108:	d028      	beq.n	615c <serial_set_flow_control+0x164>
    610a:	9b03      	ldr	r3, [sp, #12]
    610c:	681b      	ldr	r3, [r3, #0]
    610e:	2207      	movs	r2, #7
    6110:	721a      	strb	r2, [r3, #8]
    6112:	9a05      	ldr	r2, [sp, #20]
    6114:	4b13      	ldr	r3, [pc, #76]	; (6164 <serial_set_flow_control+0x16c>)
    6116:	429a      	cmp	r2, r3
    6118:	d10f      	bne.n	613a <serial_set_flow_control+0x142>
    611a:	9b07      	ldr	r3, [sp, #28]
    611c:	2b00      	cmp	r3, #0
    611e:	d00c      	beq.n	613a <serial_set_flow_control+0x142>
    6120:	9b07      	ldr	r3, [sp, #28]
    6122:	7c1b      	ldrb	r3, [r3, #16]
    6124:	b2db      	uxtb	r3, r3
    6126:	f043 0340 	orr.w	r3, r3, #64	; 0x40
    612a:	b2da      	uxtb	r2, r3
    612c:	9b07      	ldr	r3, [sp, #28]
    612e:	741a      	strb	r2, [r3, #16]
    6130:	9801      	ldr	r0, [sp, #4]
    6132:	490e      	ldr	r1, [pc, #56]	; (616c <serial_set_flow_control+0x174>)
    6134:	f7fd ff56 	bl	3fe4 <pinmap_pinout>
    6138:	e010      	b.n	615c <serial_set_flow_control+0x164>
    613a:	9a06      	ldr	r2, [sp, #24]
    613c:	4613      	mov	r3, r2
    613e:	00db      	lsls	r3, r3, #3
    6140:	1a9b      	subs	r3, r3, r2
    6142:	00db      	lsls	r3, r3, #3
    6144:	4a08      	ldr	r2, [pc, #32]	; (6168 <serial_set_flow_control+0x170>)
    6146:	4413      	add	r3, r2
    6148:	3304      	adds	r3, #4
    614a:	4618      	mov	r0, r3
    614c:	9901      	ldr	r1, [sp, #4]
    614e:	2200      	movs	r2, #0
    6150:	f7fd ff34 	bl	3fbc <gpio_init_out_ex>
    6154:	9803      	ldr	r0, [sp, #12]
    6156:	2101      	movs	r1, #1
    6158:	f7ff fe6a 	bl	5e30 <serial_flow_irq_set>
    615c:	b009      	add	sp, #36	; 0x24
    615e:	f85d fb04 	ldr.w	pc, [sp], #4
    6162:	bf00      	nop
    6164:	40010000 	.word	0x40010000
    6168:	10000950 	.word	0x10000950
    616c:	0000dd20 	.word	0x0000dd20
    6170:	0000dd44 	.word	0x0000dd44

00006174 <NVIC_EnableIRQ>:
    6174:	b082      	sub	sp, #8
    6176:	4603      	mov	r3, r0
    6178:	f88d 3007 	strb.w	r3, [sp, #7]
    617c:	4b07      	ldr	r3, [pc, #28]	; (619c <NVIC_EnableIRQ+0x28>)
    617e:	f99d 2007 	ldrsb.w	r2, [sp, #7]
    6182:	0952      	lsrs	r2, r2, #5
    6184:	f89d 1007 	ldrb.w	r1, [sp, #7]
    6188:	f001 011f 	and.w	r1, r1, #31
    618c:	2001      	movs	r0, #1
    618e:	fa00 f101 	lsl.w	r1, r0, r1
    6192:	f843 1022 	str.w	r1, [r3, r2, lsl #2]
    6196:	b002      	add	sp, #8
    6198:	4770      	bx	lr
    619a:	bf00      	nop
    619c:	e000e100 	.word	0xe000e100

000061a0 <us_ticker_init>:
    61a0:	b500      	push	{lr}
    61a2:	b083      	sub	sp, #12
    61a4:	4b18      	ldr	r3, [pc, #96]	; (6208 <us_ticker_init+0x68>)
    61a6:	681b      	ldr	r3, [r3, #0]
    61a8:	2b00      	cmp	r3, #0
    61aa:	d000      	beq.n	61ae <us_ticker_init+0xe>
    61ac:	e029      	b.n	6202 <us_ticker_init+0x62>
    61ae:	4b16      	ldr	r3, [pc, #88]	; (6208 <us_ticker_init+0x68>)
    61b0:	2201      	movs	r2, #1
    61b2:	601a      	str	r2, [r3, #0]
    61b4:	4b15      	ldr	r3, [pc, #84]	; (620c <us_ticker_init+0x6c>)
    61b6:	4a15      	ldr	r2, [pc, #84]	; (620c <us_ticker_init+0x6c>)
    61b8:	f8d2 20c4 	ldr.w	r2, [r2, #196]	; 0xc4
    61bc:	f442 0200 	orr.w	r2, r2, #8388608	; 0x800000
    61c0:	f8c3 20c4 	str.w	r2, [r3, #196]	; 0xc4
    61c4:	4b12      	ldr	r3, [pc, #72]	; (6210 <us_ticker_init+0x70>)
    61c6:	2200      	movs	r2, #0
    61c8:	671a      	str	r2, [r3, #112]	; 0x70
    61ca:	4b12      	ldr	r3, [pc, #72]	; (6214 <us_ticker_init+0x74>)
    61cc:	681b      	ldr	r3, [r3, #0]
    61ce:	089b      	lsrs	r3, r3, #2
    61d0:	9301      	str	r3, [sp, #4]
    61d2:	4b0f      	ldr	r3, [pc, #60]	; (6210 <us_ticker_init+0x70>)
    61d4:	2202      	movs	r2, #2
    61d6:	605a      	str	r2, [r3, #4]
    61d8:	9a01      	ldr	r2, [sp, #4]
    61da:	4b0f      	ldr	r3, [pc, #60]	; (6218 <us_ticker_init+0x78>)
    61dc:	fba3 1302 	umull	r1, r3, r3, r2
    61e0:	0c9b      	lsrs	r3, r3, #18
    61e2:	9300      	str	r3, [sp, #0]
    61e4:	4b0a      	ldr	r3, [pc, #40]	; (6210 <us_ticker_init+0x70>)
    61e6:	9a00      	ldr	r2, [sp, #0]
    61e8:	3a01      	subs	r2, #1
    61ea:	60da      	str	r2, [r3, #12]
    61ec:	4b08      	ldr	r3, [pc, #32]	; (6210 <us_ticker_init+0x70>)
    61ee:	2201      	movs	r2, #1
    61f0:	605a      	str	r2, [r3, #4]
    61f2:	4b0a      	ldr	r3, [pc, #40]	; (621c <us_ticker_init+0x7c>)
    61f4:	2004      	movs	r0, #4
    61f6:	4619      	mov	r1, r3
    61f8:	f000 f842 	bl	6280 <NVIC_SetVector>
    61fc:	2004      	movs	r0, #4
    61fe:	f7ff ffb9 	bl	6174 <NVIC_EnableIRQ>
    6202:	b003      	add	sp, #12
    6204:	f85d fb04 	ldr.w	pc, [sp], #4
    6208:	10000a30 	.word	0x10000a30
    620c:	400fc000 	.word	0x400fc000
    6210:	40094000 	.word	0x40094000
    6214:	100000d4 	.word	0x100000d4
    6218:	431bde83 	.word	0x431bde83
    621c:	000063cd 	.word	0x000063cd

00006220 <us_ticker_read>:
    6220:	b508      	push	{r3, lr}
    6222:	4b05      	ldr	r3, [pc, #20]	; (6238 <us_ticker_read+0x18>)
    6224:	681b      	ldr	r3, [r3, #0]
    6226:	2b00      	cmp	r3, #0
    6228:	d101      	bne.n	622e <us_ticker_read+0xe>
    622a:	f7ff ffb9 	bl	61a0 <us_ticker_init>
    622e:	4b03      	ldr	r3, [pc, #12]	; (623c <us_ticker_read+0x1c>)
    6230:	689b      	ldr	r3, [r3, #8]
    6232:	4618      	mov	r0, r3
    6234:	bd08      	pop	{r3, pc}
    6236:	bf00      	nop
    6238:	10000a30 	.word	0x10000a30
    623c:	40094000 	.word	0x40094000

00006240 <us_ticker_set_interrupt>:
    6240:	b082      	sub	sp, #8
    6242:	9001      	str	r0, [sp, #4]
    6244:	4b05      	ldr	r3, [pc, #20]	; (625c <us_ticker_set_interrupt+0x1c>)
    6246:	9a01      	ldr	r2, [sp, #4]
    6248:	619a      	str	r2, [r3, #24]
    624a:	4b04      	ldr	r3, [pc, #16]	; (625c <us_ticker_set_interrupt+0x1c>)
    624c:	4a03      	ldr	r2, [pc, #12]	; (625c <us_ticker_set_interrupt+0x1c>)
    624e:	6952      	ldr	r2, [r2, #20]
    6250:	f042 0201 	orr.w	r2, r2, #1
    6254:	615a      	str	r2, [r3, #20]
    6256:	b002      	add	sp, #8
    6258:	4770      	bx	lr
    625a:	bf00      	nop
    625c:	40094000 	.word	0x40094000

00006260 <us_ticker_disable_interrupt>:
    6260:	4b03      	ldr	r3, [pc, #12]	; (6270 <us_ticker_disable_interrupt+0x10>)
    6262:	4a03      	ldr	r2, [pc, #12]	; (6270 <us_ticker_disable_interrupt+0x10>)
    6264:	6952      	ldr	r2, [r2, #20]
    6266:	f022 0201 	bic.w	r2, r2, #1
    626a:	615a      	str	r2, [r3, #20]
    626c:	4770      	bx	lr
    626e:	bf00      	nop
    6270:	40094000 	.word	0x40094000

00006274 <us_ticker_clear_interrupt>:
    6274:	4b01      	ldr	r3, [pc, #4]	; (627c <us_ticker_clear_interrupt+0x8>)
    6276:	2201      	movs	r2, #1
    6278:	601a      	str	r2, [r3, #0]
    627a:	4770      	bx	lr
    627c:	40094000 	.word	0x40094000

00006280 <NVIC_SetVector>:
    6280:	b086      	sub	sp, #24
    6282:	4603      	mov	r3, r0
    6284:	9100      	str	r1, [sp, #0]
    6286:	f88d 3007 	strb.w	r3, [sp, #7]
    628a:	4b17      	ldr	r3, [pc, #92]	; (62e8 <NVIC_SetVector+0x68>)
    628c:	689b      	ldr	r3, [r3, #8]
    628e:	9305      	str	r3, [sp, #20]
    6290:	4b15      	ldr	r3, [pc, #84]	; (62e8 <NVIC_SetVector+0x68>)
    6292:	689b      	ldr	r3, [r3, #8]
    6294:	f1b3 5f80 	cmp.w	r3, #268435456	; 0x10000000
    6298:	d21b      	bcs.n	62d2 <NVIC_SetVector+0x52>
    629a:	9b05      	ldr	r3, [sp, #20]
    629c:	9303      	str	r3, [sp, #12]
    629e:	f04f 5380 	mov.w	r3, #268435456	; 0x10000000
    62a2:	9305      	str	r3, [sp, #20]
    62a4:	2300      	movs	r3, #0
    62a6:	9304      	str	r3, [sp, #16]
    62a8:	e00c      	b.n	62c4 <NVIC_SetVector+0x44>
    62aa:	9b04      	ldr	r3, [sp, #16]
    62ac:	009b      	lsls	r3, r3, #2
    62ae:	9a05      	ldr	r2, [sp, #20]
    62b0:	4413      	add	r3, r2
    62b2:	9a04      	ldr	r2, [sp, #16]
    62b4:	0092      	lsls	r2, r2, #2
    62b6:	9903      	ldr	r1, [sp, #12]
    62b8:	440a      	add	r2, r1
    62ba:	6812      	ldr	r2, [r2, #0]
    62bc:	601a      	str	r2, [r3, #0]
    62be:	9b04      	ldr	r3, [sp, #16]
    62c0:	3301      	adds	r3, #1
    62c2:	9304      	str	r3, [sp, #16]
    62c4:	9b04      	ldr	r3, [sp, #16]
    62c6:	2b30      	cmp	r3, #48	; 0x30
    62c8:	d9ef      	bls.n	62aa <NVIC_SetVector+0x2a>
    62ca:	4b07      	ldr	r3, [pc, #28]	; (62e8 <NVIC_SetVector+0x68>)
    62cc:	f04f 5280 	mov.w	r2, #268435456	; 0x10000000
    62d0:	609a      	str	r2, [r3, #8]
    62d2:	f99d 3007 	ldrsb.w	r3, [sp, #7]
    62d6:	3310      	adds	r3, #16
    62d8:	009b      	lsls	r3, r3, #2
    62da:	9a05      	ldr	r2, [sp, #20]
    62dc:	4413      	add	r3, r2
    62de:	9a00      	ldr	r2, [sp, #0]
    62e0:	601a      	str	r2, [r3, #0]
    62e2:	b006      	add	sp, #24
    62e4:	4770      	bx	lr
    62e6:	bf00      	nop
    62e8:	e000ed00 	.word	0xe000ed00

000062ec <gpio_write>:
    62ec:	b082      	sub	sp, #8
    62ee:	9001      	str	r0, [sp, #4]
    62f0:	9100      	str	r1, [sp, #0]
    62f2:	9b00      	ldr	r3, [sp, #0]
    62f4:	2b00      	cmp	r3, #0
    62f6:	d005      	beq.n	6304 <gpio_write+0x18>
    62f8:	9b01      	ldr	r3, [sp, #4]
    62fa:	68db      	ldr	r3, [r3, #12]
    62fc:	9a01      	ldr	r2, [sp, #4]
    62fe:	6852      	ldr	r2, [r2, #4]
    6300:	601a      	str	r2, [r3, #0]
    6302:	e004      	b.n	630e <gpio_write+0x22>
    6304:	9b01      	ldr	r3, [sp, #4]
    6306:	691b      	ldr	r3, [r3, #16]
    6308:	9a01      	ldr	r2, [sp, #4]
    630a:	6852      	ldr	r2, [r2, #4]
    630c:	601a      	str	r2, [r3, #0]
    630e:	b002      	add	sp, #8
    6310:	4770      	bx	lr
    6312:	bf00      	nop

00006314 <mbed_die>:
    6314:	b500      	push	{lr}
    6316:	b099      	sub	sp, #100	; 0x64
    6318:	b672      	cpsid	i
    631a:	ab12      	add	r3, sp, #72	; 0x48
    631c:	4618      	mov	r0, r3
    631e:	4920      	ldr	r1, [pc, #128]	; (63a0 <mbed_die+0x8c>)
    6320:	f7fd fe40 	bl	3fa4 <gpio_init_out>
    6324:	ab0c      	add	r3, sp, #48	; 0x30
    6326:	4618      	mov	r0, r3
    6328:	491e      	ldr	r1, [pc, #120]	; (63a4 <mbed_die+0x90>)
    632a:	f7fd fe3b 	bl	3fa4 <gpio_init_out>
    632e:	ab06      	add	r3, sp, #24
    6330:	4618      	mov	r0, r3
    6332:	491d      	ldr	r1, [pc, #116]	; (63a8 <mbed_die+0x94>)
    6334:	f7fd fe36 	bl	3fa4 <gpio_init_out>
    6338:	466b      	mov	r3, sp
    633a:	4618      	mov	r0, r3
    633c:	491b      	ldr	r1, [pc, #108]	; (63ac <mbed_die+0x98>)
    633e:	f7fd fe31 	bl	3fa4 <gpio_init_out>
    6342:	ab12      	add	r3, sp, #72	; 0x48
    6344:	4618      	mov	r0, r3
    6346:	2101      	movs	r1, #1
    6348:	f7ff ffd0 	bl	62ec <gpio_write>
    634c:	ab0c      	add	r3, sp, #48	; 0x30
    634e:	4618      	mov	r0, r3
    6350:	2100      	movs	r1, #0
    6352:	f7ff ffcb 	bl	62ec <gpio_write>
    6356:	ab06      	add	r3, sp, #24
    6358:	4618      	mov	r0, r3
    635a:	2100      	movs	r1, #0
    635c:	f7ff ffc6 	bl	62ec <gpio_write>
    6360:	466b      	mov	r3, sp
    6362:	4618      	mov	r0, r3
    6364:	2101      	movs	r1, #1
    6366:	f7ff ffc1 	bl	62ec <gpio_write>
    636a:	2096      	movs	r0, #150	; 0x96
    636c:	f7fd fef2 	bl	4154 <wait_ms>
    6370:	ab12      	add	r3, sp, #72	; 0x48
    6372:	4618      	mov	r0, r3
    6374:	2100      	movs	r1, #0
    6376:	f7ff ffb9 	bl	62ec <gpio_write>
    637a:	ab0c      	add	r3, sp, #48	; 0x30
    637c:	4618      	mov	r0, r3
    637e:	2101      	movs	r1, #1
    6380:	f7ff ffb4 	bl	62ec <gpio_write>
    6384:	ab06      	add	r3, sp, #24
    6386:	4618      	mov	r0, r3
    6388:	2101      	movs	r1, #1
    638a:	f7ff ffaf 	bl	62ec <gpio_write>
    638e:	466b      	mov	r3, sp
    6390:	4618      	mov	r0, r3
    6392:	2100      	movs	r1, #0
    6394:	f7ff ffaa 	bl	62ec <gpio_write>
    6398:	2096      	movs	r0, #150	; 0x96
    639a:	f7fd fedb 	bl	4154 <wait_ms>
    639e:	e7d0      	b.n	6342 <mbed_die+0x2e>
    63a0:	2009c032 	.word	0x2009c032
    63a4:	2009c034 	.word	0x2009c034
    63a8:	2009c035 	.word	0x2009c035
    63ac:	2009c037 	.word	0x2009c037

000063b0 <us_ticker_set_handler>:
    63b0:	b500      	push	{lr}
    63b2:	b083      	sub	sp, #12
    63b4:	9001      	str	r0, [sp, #4]
    63b6:	f7ff fef3 	bl	61a0 <us_ticker_init>
    63ba:	4b03      	ldr	r3, [pc, #12]	; (63c8 <us_ticker_set_handler+0x18>)
    63bc:	9a01      	ldr	r2, [sp, #4]
    63be:	601a      	str	r2, [r3, #0]
    63c0:	b003      	add	sp, #12
    63c2:	f85d fb04 	ldr.w	pc, [sp], #4
    63c6:	bf00      	nop
    63c8:	10000a34 	.word	0x10000a34

000063cc <us_ticker_irq_handler>:
    63cc:	b510      	push	{r4, lr}
    63ce:	b082      	sub	sp, #8
    63d0:	f7ff ff50 	bl	6274 <us_ticker_clear_interrupt>
    63d4:	4b16      	ldr	r3, [pc, #88]	; (6430 <us_ticker_irq_handler+0x64>)
    63d6:	681b      	ldr	r3, [r3, #0]
    63d8:	2b00      	cmp	r3, #0
    63da:	d102      	bne.n	63e2 <us_ticker_irq_handler+0x16>
    63dc:	f7ff ff40 	bl	6260 <us_ticker_disable_interrupt>
    63e0:	e024      	b.n	642c <us_ticker_irq_handler+0x60>
    63e2:	4b13      	ldr	r3, [pc, #76]	; (6430 <us_ticker_irq_handler+0x64>)
    63e4:	681b      	ldr	r3, [r3, #0]
    63e6:	681c      	ldr	r4, [r3, #0]
    63e8:	f7ff ff1a 	bl	6220 <us_ticker_read>
    63ec:	4603      	mov	r3, r0
    63ee:	1ae3      	subs	r3, r4, r3
    63f0:	2b00      	cmp	r3, #0
    63f2:	dc13      	bgt.n	641c <us_ticker_irq_handler+0x50>
    63f4:	4b0e      	ldr	r3, [pc, #56]	; (6430 <us_ticker_irq_handler+0x64>)
    63f6:	681b      	ldr	r3, [r3, #0]
    63f8:	9301      	str	r3, [sp, #4]
    63fa:	4b0d      	ldr	r3, [pc, #52]	; (6430 <us_ticker_irq_handler+0x64>)
    63fc:	681b      	ldr	r3, [r3, #0]
    63fe:	689a      	ldr	r2, [r3, #8]
    6400:	4b0b      	ldr	r3, [pc, #44]	; (6430 <us_ticker_irq_handler+0x64>)
    6402:	601a      	str	r2, [r3, #0]
    6404:	4b0b      	ldr	r3, [pc, #44]	; (6434 <us_ticker_irq_handler+0x68>)
    6406:	681b      	ldr	r3, [r3, #0]
    6408:	2b00      	cmp	r3, #0
    640a:	d006      	beq.n	641a <us_ticker_irq_handler+0x4e>
    640c:	4b09      	ldr	r3, [pc, #36]	; (6434 <us_ticker_irq_handler+0x68>)
    640e:	681b      	ldr	r3, [r3, #0]
    6410:	9a01      	ldr	r2, [sp, #4]
    6412:	6852      	ldr	r2, [r2, #4]
    6414:	4610      	mov	r0, r2
    6416:	4798      	blx	r3
    6418:	e007      	b.n	642a <us_ticker_irq_handler+0x5e>
    641a:	e006      	b.n	642a <us_ticker_irq_handler+0x5e>
    641c:	4b04      	ldr	r3, [pc, #16]	; (6430 <us_ticker_irq_handler+0x64>)
    641e:	681b      	ldr	r3, [r3, #0]
    6420:	681b      	ldr	r3, [r3, #0]
    6422:	4618      	mov	r0, r3
    6424:	f7ff ff0c 	bl	6240 <us_ticker_set_interrupt>
    6428:	e000      	b.n	642c <us_ticker_irq_handler+0x60>
    642a:	e7d3      	b.n	63d4 <us_ticker_irq_handler+0x8>
    642c:	b002      	add	sp, #8
    642e:	bd10      	pop	{r4, pc}
    6430:	10000a38 	.word	0x10000a38
    6434:	10000a34 	.word	0x10000a34

00006438 <us_ticker_insert_event>:
    6438:	b500      	push	{lr}
    643a:	b087      	sub	sp, #28
    643c:	9003      	str	r0, [sp, #12]
    643e:	9102      	str	r1, [sp, #8]
    6440:	9201      	str	r2, [sp, #4]
    6442:	b672      	cpsid	i
    6444:	9b03      	ldr	r3, [sp, #12]
    6446:	9a02      	ldr	r2, [sp, #8]
    6448:	601a      	str	r2, [r3, #0]
    644a:	9b03      	ldr	r3, [sp, #12]
    644c:	9a01      	ldr	r2, [sp, #4]
    644e:	605a      	str	r2, [r3, #4]
    6450:	2300      	movs	r3, #0
    6452:	9305      	str	r3, [sp, #20]
    6454:	4b13      	ldr	r3, [pc, #76]	; (64a4 <us_ticker_insert_event+0x6c>)
    6456:	681b      	ldr	r3, [r3, #0]
    6458:	9304      	str	r3, [sp, #16]
    645a:	e00b      	b.n	6474 <us_ticker_insert_event+0x3c>
    645c:	9b04      	ldr	r3, [sp, #16]
    645e:	681b      	ldr	r3, [r3, #0]
    6460:	9a02      	ldr	r2, [sp, #8]
    6462:	1ad3      	subs	r3, r2, r3
    6464:	2b00      	cmp	r3, #0
    6466:	dc00      	bgt.n	646a <us_ticker_insert_event+0x32>
    6468:	e007      	b.n	647a <us_ticker_insert_event+0x42>
    646a:	9b04      	ldr	r3, [sp, #16]
    646c:	9305      	str	r3, [sp, #20]
    646e:	9b04      	ldr	r3, [sp, #16]
    6470:	689b      	ldr	r3, [r3, #8]
    6472:	9304      	str	r3, [sp, #16]
    6474:	9b04      	ldr	r3, [sp, #16]
    6476:	2b00      	cmp	r3, #0
    6478:	d1f0      	bne.n	645c <us_ticker_insert_event+0x24>
    647a:	9b05      	ldr	r3, [sp, #20]
    647c:	2b00      	cmp	r3, #0
    647e:	d106      	bne.n	648e <us_ticker_insert_event+0x56>
    6480:	4b08      	ldr	r3, [pc, #32]	; (64a4 <us_ticker_insert_event+0x6c>)
    6482:	9a03      	ldr	r2, [sp, #12]
    6484:	601a      	str	r2, [r3, #0]
    6486:	9802      	ldr	r0, [sp, #8]
    6488:	f7ff feda 	bl	6240 <us_ticker_set_interrupt>
    648c:	e002      	b.n	6494 <us_ticker_insert_event+0x5c>
    648e:	9b05      	ldr	r3, [sp, #20]
    6490:	9a03      	ldr	r2, [sp, #12]
    6492:	609a      	str	r2, [r3, #8]
    6494:	9b03      	ldr	r3, [sp, #12]
    6496:	9a04      	ldr	r2, [sp, #16]
    6498:	609a      	str	r2, [r3, #8]
    649a:	b662      	cpsie	i
    649c:	b007      	add	sp, #28
    649e:	f85d fb04 	ldr.w	pc, [sp], #4
    64a2:	bf00      	nop
    64a4:	10000a38 	.word	0x10000a38

000064a8 <us_ticker_remove_event>:
    64a8:	b500      	push	{lr}
    64aa:	b085      	sub	sp, #20
    64ac:	9001      	str	r0, [sp, #4]
    64ae:	b672      	cpsid	i
    64b0:	4b15      	ldr	r3, [pc, #84]	; (6508 <us_ticker_remove_event+0x60>)
    64b2:	681a      	ldr	r2, [r3, #0]
    64b4:	9b01      	ldr	r3, [sp, #4]
    64b6:	429a      	cmp	r2, r3
    64b8:	d10e      	bne.n	64d8 <us_ticker_remove_event+0x30>
    64ba:	9b01      	ldr	r3, [sp, #4]
    64bc:	689a      	ldr	r2, [r3, #8]
    64be:	4b12      	ldr	r3, [pc, #72]	; (6508 <us_ticker_remove_event+0x60>)
    64c0:	601a      	str	r2, [r3, #0]
    64c2:	9b01      	ldr	r3, [sp, #4]
    64c4:	689b      	ldr	r3, [r3, #8]
    64c6:	2b00      	cmp	r3, #0
    64c8:	d01a      	beq.n	6500 <us_ticker_remove_event+0x58>
    64ca:	4b0f      	ldr	r3, [pc, #60]	; (6508 <us_ticker_remove_event+0x60>)
    64cc:	681b      	ldr	r3, [r3, #0]
    64ce:	681b      	ldr	r3, [r3, #0]
    64d0:	4618      	mov	r0, r3
    64d2:	f7ff feb5 	bl	6240 <us_ticker_set_interrupt>
    64d6:	e013      	b.n	6500 <us_ticker_remove_event+0x58>
    64d8:	4b0b      	ldr	r3, [pc, #44]	; (6508 <us_ticker_remove_event+0x60>)
    64da:	681b      	ldr	r3, [r3, #0]
    64dc:	9303      	str	r3, [sp, #12]
    64de:	e00c      	b.n	64fa <us_ticker_remove_event+0x52>
    64e0:	9b03      	ldr	r3, [sp, #12]
    64e2:	689a      	ldr	r2, [r3, #8]
    64e4:	9b01      	ldr	r3, [sp, #4]
    64e6:	429a      	cmp	r2, r3
    64e8:	d104      	bne.n	64f4 <us_ticker_remove_event+0x4c>
    64ea:	9b01      	ldr	r3, [sp, #4]
    64ec:	689a      	ldr	r2, [r3, #8]
    64ee:	9b03      	ldr	r3, [sp, #12]
    64f0:	609a      	str	r2, [r3, #8]
    64f2:	e005      	b.n	6500 <us_ticker_remove_event+0x58>
    64f4:	9b03      	ldr	r3, [sp, #12]
    64f6:	689b      	ldr	r3, [r3, #8]
    64f8:	9303      	str	r3, [sp, #12]
    64fa:	9b03      	ldr	r3, [sp, #12]
    64fc:	2b00      	cmp	r3, #0
    64fe:	d1ef      	bne.n	64e0 <us_ticker_remove_event+0x38>
    6500:	b662      	cpsie	i
    6502:	b005      	add	sp, #20
    6504:	f85d fb04 	ldr.w	pc, [sp], #4
    6508:	10000a38 	.word	0x10000a38

0000650c <mbed::FileHandle::FileHandle()>:
    650c:	b082      	sub	sp, #8
    650e:	9001      	str	r0, [sp, #4]
    6510:	9b01      	ldr	r3, [sp, #4]
    6512:	4a03      	ldr	r2, [pc, #12]	; (6520 <mbed::FileHandle::FileHandle()+0x14>)
    6514:	601a      	str	r2, [r3, #0]
    6516:	9b01      	ldr	r3, [sp, #4]
    6518:	4618      	mov	r0, r3
    651a:	b002      	add	sp, #8
    651c:	4770      	bx	lr
    651e:	bf00      	nop
    6520:	0000db10 	.word	0x0000db10

00006524 <mbed::FileLike::FileLike(char const*)>:
    6524:	b500      	push	{lr}
    6526:	b083      	sub	sp, #12
    6528:	9001      	str	r0, [sp, #4]
    652a:	9100      	str	r1, [sp, #0]
    652c:	9b01      	ldr	r3, [sp, #4]
    652e:	4618      	mov	r0, r3
    6530:	f7ff ffec 	bl	650c <mbed::FileHandle::FileHandle()>
    6534:	9b01      	ldr	r3, [sp, #4]
    6536:	3304      	adds	r3, #4
    6538:	4618      	mov	r0, r3
    653a:	9900      	ldr	r1, [sp, #0]
    653c:	2200      	movs	r2, #0
    653e:	f000 f8fb 	bl	6738 <mbed::FileBase::FileBase(char const*, mbed::PathType)>
    6542:	9b01      	ldr	r3, [sp, #4]
    6544:	4a04      	ldr	r2, [pc, #16]	; (6558 <mbed::FileLike::FileLike(char const*)+0x34>)
    6546:	601a      	str	r2, [r3, #0]
    6548:	9b01      	ldr	r3, [sp, #4]
    654a:	4a04      	ldr	r2, [pc, #16]	; (655c <mbed::FileLike::FileLike(char const*)+0x38>)
    654c:	605a      	str	r2, [r3, #4]
    654e:	9b01      	ldr	r3, [sp, #4]
    6550:	4618      	mov	r0, r3
    6552:	b003      	add	sp, #12
    6554:	f85d fb04 	ldr.w	pc, [sp], #4
    6558:	0000de18 	.word	0x0000de18
    655c:	0000de44 	.word	0x0000de44

00006560 <mbed::FileLike::~FileLike()>:
    6560:	b500      	push	{lr}
    6562:	b083      	sub	sp, #12
    6564:	9001      	str	r0, [sp, #4]
    6566:	9b01      	ldr	r3, [sp, #4]
    6568:	4a0c      	ldr	r2, [pc, #48]	; (659c <mbed::FileLike::~FileLike()+0x3c>)
    656a:	601a      	str	r2, [r3, #0]
    656c:	9b01      	ldr	r3, [sp, #4]
    656e:	4a0c      	ldr	r2, [pc, #48]	; (65a0 <mbed::FileLike::~FileLike()+0x40>)
    6570:	605a      	str	r2, [r3, #4]
    6572:	9b01      	ldr	r3, [sp, #4]
    6574:	3304      	adds	r3, #4
    6576:	4618      	mov	r0, r3
    6578:	f000 f908 	bl	678c <mbed::FileBase::~FileBase()>
    657c:	9b01      	ldr	r3, [sp, #4]
    657e:	4618      	mov	r0, r3
    6580:	f7fd ff3c 	bl	43fc <mbed::FileHandle::~FileHandle()>
    6584:	2300      	movs	r3, #0
    6586:	2b00      	cmp	r3, #0
    6588:	d002      	beq.n	6590 <mbed::FileLike::~FileLike()+0x30>
    658a:	9801      	ldr	r0, [sp, #4]
    658c:	f000 f976 	bl	687c <operator delete(void*)>
    6590:	9b01      	ldr	r3, [sp, #4]
    6592:	4618      	mov	r0, r3
    6594:	b003      	add	sp, #12
    6596:	f85d fb04 	ldr.w	pc, [sp], #4
    659a:	bf00      	nop
    659c:	0000de18 	.word	0x0000de18
    65a0:	0000de44 	.word	0x0000de44

000065a4 <non-virtual thunk to mbed::FileLike::~FileLike()>:
    65a4:	f1a0 0004 	sub.w	r0, r0, #4
    65a8:	f7ff bfda 	b.w	6560 <mbed::FileLike::~FileLike()>

000065ac <mbed::FileLike::~FileLike()>:
    65ac:	b500      	push	{lr}
    65ae:	b083      	sub	sp, #12
    65b0:	9001      	str	r0, [sp, #4]
    65b2:	9801      	ldr	r0, [sp, #4]
    65b4:	f7ff ffd4 	bl	6560 <mbed::FileLike::~FileLike()>
    65b8:	9801      	ldr	r0, [sp, #4]
    65ba:	f000 f95f 	bl	687c <operator delete(void*)>
    65be:	9b01      	ldr	r3, [sp, #4]
    65c0:	4618      	mov	r0, r3
    65c2:	b003      	add	sp, #12
    65c4:	f85d fb04 	ldr.w	pc, [sp], #4

000065c8 <non-virtual thunk to mbed::FileLike::~FileLike()>:
    65c8:	f1a0 0004 	sub.w	r0, r0, #4
    65cc:	f7ff bfee 	b.w	65ac <mbed::FileLike::~FileLike()>

000065d0 <mbed::FilePath::FilePath(char const*)>:
    65d0:	b500      	push	{lr}
    65d2:	b087      	sub	sp, #28
    65d4:	9001      	str	r0, [sp, #4]
    65d6:	9100      	str	r1, [sp, #0]
    65d8:	9b01      	ldr	r3, [sp, #4]
    65da:	2200      	movs	r2, #0
    65dc:	601a      	str	r2, [r3, #0]
    65de:	9b01      	ldr	r3, [sp, #4]
    65e0:	2200      	movs	r2, #0
    65e2:	605a      	str	r2, [r3, #4]
    65e4:	9b00      	ldr	r3, [sp, #0]
    65e6:	781b      	ldrb	r3, [r3, #0]
    65e8:	2b2f      	cmp	r3, #47	; 0x2f
    65ea:	d131      	bne.n	6650 <mbed::FilePath::FilePath(char const*)+0x80>
    65ec:	9b00      	ldr	r3, [sp, #0]
    65ee:	3301      	adds	r3, #1
    65f0:	781b      	ldrb	r3, [r3, #0]
    65f2:	2b00      	cmp	r3, #0
    65f4:	d02c      	beq.n	6650 <mbed::FilePath::FilePath(char const*)+0x80>
    65f6:	9b00      	ldr	r3, [sp, #0]
    65f8:	3301      	adds	r3, #1
    65fa:	9304      	str	r3, [sp, #16]
    65fc:	9b01      	ldr	r3, [sp, #4]
    65fe:	9a04      	ldr	r2, [sp, #16]
    6600:	601a      	str	r2, [r3, #0]
    6602:	2300      	movs	r3, #0
    6604:	9305      	str	r3, [sp, #20]
    6606:	9b01      	ldr	r3, [sp, #4]
    6608:	681b      	ldr	r3, [r3, #0]
    660a:	781b      	ldrb	r3, [r3, #0]
    660c:	f88d 300f 	strb.w	r3, [sp, #15]
    6610:	f89d 300f 	ldrb.w	r3, [sp, #15]
    6614:	2b2f      	cmp	r3, #47	; 0x2f
    6616:	d105      	bne.n	6624 <mbed::FilePath::FilePath(char const*)+0x54>
    6618:	9b01      	ldr	r3, [sp, #4]
    661a:	681b      	ldr	r3, [r3, #0]
    661c:	1c5a      	adds	r2, r3, #1
    661e:	9b01      	ldr	r3, [sp, #4]
    6620:	601a      	str	r2, [r3, #0]
    6622:	e00d      	b.n	6640 <mbed::FilePath::FilePath(char const*)+0x70>
    6624:	f89d 300f 	ldrb.w	r3, [sp, #15]
    6628:	2b00      	cmp	r3, #0
    662a:	d100      	bne.n	662e <mbed::FilePath::FilePath(char const*)+0x5e>
    662c:	e008      	b.n	6640 <mbed::FilePath::FilePath(char const*)+0x70>
    662e:	9b05      	ldr	r3, [sp, #20]
    6630:	3301      	adds	r3, #1
    6632:	9305      	str	r3, [sp, #20]
    6634:	9b01      	ldr	r3, [sp, #4]
    6636:	681b      	ldr	r3, [r3, #0]
    6638:	1c5a      	adds	r2, r3, #1
    663a:	9b01      	ldr	r3, [sp, #4]
    663c:	601a      	str	r2, [r3, #0]
    663e:	e7e2      	b.n	6606 <mbed::FilePath::FilePath(char const*)+0x36>
    6640:	9b05      	ldr	r3, [sp, #20]
    6642:	9804      	ldr	r0, [sp, #16]
    6644:	4619      	mov	r1, r3
    6646:	f000 f8e3 	bl	6810 <mbed::FileBase::lookup(char const*, unsigned int)>
    664a:	4602      	mov	r2, r0
    664c:	9b01      	ldr	r3, [sp, #4]
    664e:	605a      	str	r2, [r3, #4]
    6650:	9b01      	ldr	r3, [sp, #4]
    6652:	4618      	mov	r0, r3
    6654:	b007      	add	sp, #28
    6656:	f85d fb04 	ldr.w	pc, [sp], #4
    665a:	bf00      	nop

0000665c <mbed::FilePath::fileName()>:
    665c:	b082      	sub	sp, #8
    665e:	9001      	str	r0, [sp, #4]
    6660:	9b01      	ldr	r3, [sp, #4]
    6662:	681b      	ldr	r3, [r3, #0]
    6664:	4618      	mov	r0, r3
    6666:	b002      	add	sp, #8
    6668:	4770      	bx	lr
    666a:	bf00      	nop

0000666c <mbed::FilePath::isFileSystem()>:
    666c:	b500      	push	{lr}
    666e:	b083      	sub	sp, #12
    6670:	9001      	str	r0, [sp, #4]
    6672:	9b01      	ldr	r3, [sp, #4]
    6674:	685b      	ldr	r3, [r3, #4]
    6676:	2b00      	cmp	r3, #0
    6678:	d101      	bne.n	667e <mbed::FilePath::isFileSystem()+0x12>
    667a:	2300      	movs	r3, #0
    667c:	e00a      	b.n	6694 <mbed::FilePath::isFileSystem()+0x28>
    667e:	9b01      	ldr	r3, [sp, #4]
    6680:	685b      	ldr	r3, [r3, #4]
    6682:	4618      	mov	r0, r3
    6684:	f000 f8f2 	bl	686c <mbed::FileBase::getPathType()>
    6688:	4603      	mov	r3, r0
    668a:	2b01      	cmp	r3, #1
    668c:	bf14      	ite	ne
    668e:	2300      	movne	r3, #0
    6690:	2301      	moveq	r3, #1
    6692:	b2db      	uxtb	r3, r3
    6694:	4618      	mov	r0, r3
    6696:	b003      	add	sp, #12
    6698:	f85d fb04 	ldr.w	pc, [sp], #4

0000669c <mbed::FilePath::fileSystem()>:
    669c:	b500      	push	{lr}
    669e:	b083      	sub	sp, #12
    66a0:	9001      	str	r0, [sp, #4]
    66a2:	9801      	ldr	r0, [sp, #4]
    66a4:	f7ff ffe2 	bl	666c <mbed::FilePath::isFileSystem()>
    66a8:	4603      	mov	r3, r0
    66aa:	2b00      	cmp	r3, #0
    66ac:	d002      	beq.n	66b4 <mbed::FilePath::fileSystem()+0x18>
    66ae:	9b01      	ldr	r3, [sp, #4]
    66b0:	685b      	ldr	r3, [r3, #4]
    66b2:	e000      	b.n	66b6 <mbed::FilePath::fileSystem()+0x1a>
    66b4:	2300      	movs	r3, #0
    66b6:	4618      	mov	r0, r3
    66b8:	b003      	add	sp, #12
    66ba:	f85d fb04 	ldr.w	pc, [sp], #4
    66be:	bf00      	nop

000066c0 <mbed::FilePath::isFile()>:
    66c0:	b500      	push	{lr}
    66c2:	b083      	sub	sp, #12
    66c4:	9001      	str	r0, [sp, #4]
    66c6:	9b01      	ldr	r3, [sp, #4]
    66c8:	685b      	ldr	r3, [r3, #4]
    66ca:	2b00      	cmp	r3, #0
    66cc:	d101      	bne.n	66d2 <mbed::FilePath::isFile()+0x12>
    66ce:	2300      	movs	r3, #0
    66d0:	e00a      	b.n	66e8 <mbed::FilePath::isFile()+0x28>
    66d2:	9b01      	ldr	r3, [sp, #4]
    66d4:	685b      	ldr	r3, [r3, #4]
    66d6:	4618      	mov	r0, r3
    66d8:	f000 f8c8 	bl	686c <mbed::FileBase::getPathType()>
    66dc:	4603      	mov	r3, r0
    66de:	2b00      	cmp	r3, #0
    66e0:	bf14      	ite	ne
    66e2:	2300      	movne	r3, #0
    66e4:	2301      	moveq	r3, #1
    66e6:	b2db      	uxtb	r3, r3
    66e8:	4618      	mov	r0, r3
    66ea:	b003      	add	sp, #12
    66ec:	f85d fb04 	ldr.w	pc, [sp], #4

000066f0 <mbed::FilePath::file()>:
    66f0:	b500      	push	{lr}
    66f2:	b083      	sub	sp, #12
    66f4:	9001      	str	r0, [sp, #4]
    66f6:	9801      	ldr	r0, [sp, #4]
    66f8:	f7ff ffe2 	bl	66c0 <mbed::FilePath::isFile()>
    66fc:	4603      	mov	r3, r0
    66fe:	2b00      	cmp	r3, #0
    6700:	d009      	beq.n	6716 <mbed::FilePath::file()+0x26>
    6702:	9b01      	ldr	r3, [sp, #4]
    6704:	685b      	ldr	r3, [r3, #4]
    6706:	2b00      	cmp	r3, #0
    6708:	d003      	beq.n	6712 <mbed::FilePath::file()+0x22>
    670a:	9b01      	ldr	r3, [sp, #4]
    670c:	685b      	ldr	r3, [r3, #4]
    670e:	3b04      	subs	r3, #4
    6710:	e000      	b.n	6714 <mbed::FilePath::file()+0x24>
    6712:	2300      	movs	r3, #0
    6714:	e000      	b.n	6718 <mbed::FilePath::file()+0x28>
    6716:	2300      	movs	r3, #0
    6718:	4618      	mov	r0, r3
    671a:	b003      	add	sp, #12
    671c:	f85d fb04 	ldr.w	pc, [sp], #4

00006720 <mbed::FilePath::exists()>:
    6720:	b082      	sub	sp, #8
    6722:	9001      	str	r0, [sp, #4]
    6724:	9b01      	ldr	r3, [sp, #4]
    6726:	685b      	ldr	r3, [r3, #4]
    6728:	2b00      	cmp	r3, #0
    672a:	bf0c      	ite	eq
    672c:	2300      	moveq	r3, #0
    672e:	2301      	movne	r3, #1
    6730:	b2db      	uxtb	r3, r3
    6732:	4618      	mov	r0, r3
    6734:	b002      	add	sp, #8
    6736:	4770      	bx	lr

00006738 <mbed::FileBase::FileBase(char const*, mbed::PathType)>:
    6738:	b084      	sub	sp, #16
    673a:	9003      	str	r0, [sp, #12]
    673c:	9102      	str	r1, [sp, #8]
    673e:	4613      	mov	r3, r2
    6740:	f88d 3007 	strb.w	r3, [sp, #7]
    6744:	9b03      	ldr	r3, [sp, #12]
    6746:	4a0f      	ldr	r2, [pc, #60]	; (6784 <mbed::FileBase::FileBase(char const*, mbed::PathType)+0x4c>)
    6748:	601a      	str	r2, [r3, #0]
    674a:	9b03      	ldr	r3, [sp, #12]
    674c:	2200      	movs	r2, #0
    674e:	605a      	str	r2, [r3, #4]
    6750:	9b03      	ldr	r3, [sp, #12]
    6752:	9a02      	ldr	r2, [sp, #8]
    6754:	609a      	str	r2, [r3, #8]
    6756:	9b03      	ldr	r3, [sp, #12]
    6758:	f89d 2007 	ldrb.w	r2, [sp, #7]
    675c:	731a      	strb	r2, [r3, #12]
    675e:	9b02      	ldr	r3, [sp, #8]
    6760:	2b00      	cmp	r3, #0
    6762:	d007      	beq.n	6774 <mbed::FileBase::FileBase(char const*, mbed::PathType)+0x3c>
    6764:	4b08      	ldr	r3, [pc, #32]	; (6788 <mbed::FileBase::FileBase(char const*, mbed::PathType)+0x50>)
    6766:	681a      	ldr	r2, [r3, #0]
    6768:	9b03      	ldr	r3, [sp, #12]
    676a:	605a      	str	r2, [r3, #4]
    676c:	4b06      	ldr	r3, [pc, #24]	; (6788 <mbed::FileBase::FileBase(char const*, mbed::PathType)+0x50>)
    676e:	9a03      	ldr	r2, [sp, #12]
    6770:	601a      	str	r2, [r3, #0]
    6772:	e002      	b.n	677a <mbed::FileBase::FileBase(char const*, mbed::PathType)+0x42>
    6774:	9b03      	ldr	r3, [sp, #12]
    6776:	2200      	movs	r2, #0
    6778:	605a      	str	r2, [r3, #4]
    677a:	9b03      	ldr	r3, [sp, #12]
    677c:	4618      	mov	r0, r3
    677e:	b004      	add	sp, #16
    6780:	4770      	bx	lr
    6782:	bf00      	nop
    6784:	0000de58 	.word	0x0000de58
    6788:	10000a3c 	.word	0x10000a3c

0000678c <mbed::FileBase::~FileBase()>:
    678c:	b500      	push	{lr}
    678e:	b085      	sub	sp, #20
    6790:	9001      	str	r0, [sp, #4]
    6792:	9b01      	ldr	r3, [sp, #4]
    6794:	4a15      	ldr	r2, [pc, #84]	; (67ec <mbed::FileBase::~FileBase()+0x60>)
    6796:	601a      	str	r2, [r3, #0]
    6798:	9b01      	ldr	r3, [sp, #4]
    679a:	689b      	ldr	r3, [r3, #8]
    679c:	2b00      	cmp	r3, #0
    679e:	d019      	beq.n	67d4 <mbed::FileBase::~FileBase()+0x48>
    67a0:	4b13      	ldr	r3, [pc, #76]	; (67f0 <mbed::FileBase::~FileBase()+0x64>)
    67a2:	681a      	ldr	r2, [r3, #0]
    67a4:	9b01      	ldr	r3, [sp, #4]
    67a6:	429a      	cmp	r2, r3
    67a8:	d104      	bne.n	67b4 <mbed::FileBase::~FileBase()+0x28>
    67aa:	9b01      	ldr	r3, [sp, #4]
    67ac:	685a      	ldr	r2, [r3, #4]
    67ae:	4b10      	ldr	r3, [pc, #64]	; (67f0 <mbed::FileBase::~FileBase()+0x64>)
    67b0:	601a      	str	r2, [r3, #0]
    67b2:	e00f      	b.n	67d4 <mbed::FileBase::~FileBase()+0x48>
    67b4:	4b0e      	ldr	r3, [pc, #56]	; (67f0 <mbed::FileBase::~FileBase()+0x64>)
    67b6:	681b      	ldr	r3, [r3, #0]
    67b8:	9303      	str	r3, [sp, #12]
    67ba:	e002      	b.n	67c2 <mbed::FileBase::~FileBase()+0x36>
    67bc:	9b03      	ldr	r3, [sp, #12]
    67be:	685b      	ldr	r3, [r3, #4]
    67c0:	9303      	str	r3, [sp, #12]
    67c2:	9b03      	ldr	r3, [sp, #12]
    67c4:	685a      	ldr	r2, [r3, #4]
    67c6:	9b01      	ldr	r3, [sp, #4]
    67c8:	429a      	cmp	r2, r3
    67ca:	d1f7      	bne.n	67bc <mbed::FileBase::~FileBase()+0x30>
    67cc:	9b01      	ldr	r3, [sp, #4]
    67ce:	685a      	ldr	r2, [r3, #4]
    67d0:	9b03      	ldr	r3, [sp, #12]
    67d2:	605a      	str	r2, [r3, #4]
    67d4:	2300      	movs	r3, #0
    67d6:	2b00      	cmp	r3, #0
    67d8:	d002      	beq.n	67e0 <mbed::FileBase::~FileBase()+0x54>
    67da:	9801      	ldr	r0, [sp, #4]
    67dc:	f000 f84e 	bl	687c <operator delete(void*)>
    67e0:	9b01      	ldr	r3, [sp, #4]
    67e2:	4618      	mov	r0, r3
    67e4:	b005      	add	sp, #20
    67e6:	f85d fb04 	ldr.w	pc, [sp], #4
    67ea:	bf00      	nop
    67ec:	0000de58 	.word	0x0000de58
    67f0:	10000a3c 	.word	0x10000a3c

000067f4 <mbed::FileBase::~FileBase()>:
    67f4:	b500      	push	{lr}
    67f6:	b083      	sub	sp, #12
    67f8:	9001      	str	r0, [sp, #4]
    67fa:	9801      	ldr	r0, [sp, #4]
    67fc:	f7ff ffc6 	bl	678c <mbed::FileBase::~FileBase()>
    6800:	9801      	ldr	r0, [sp, #4]
    6802:	f000 f83b 	bl	687c <operator delete(void*)>
    6806:	9b01      	ldr	r3, [sp, #4]
    6808:	4618      	mov	r0, r3
    680a:	b003      	add	sp, #12
    680c:	f85d fb04 	ldr.w	pc, [sp], #4

00006810 <mbed::FileBase::lookup(char const*, unsigned int)>:
    6810:	b500      	push	{lr}
    6812:	b085      	sub	sp, #20
    6814:	9001      	str	r0, [sp, #4]
    6816:	9100      	str	r1, [sp, #0]
    6818:	4b13      	ldr	r3, [pc, #76]	; (6868 <mbed::FileBase::lookup(char const*, unsigned int)+0x58>)
    681a:	681b      	ldr	r3, [r3, #0]
    681c:	9303      	str	r3, [sp, #12]
    681e:	e01b      	b.n	6858 <mbed::FileBase::lookup(char const*, unsigned int)+0x48>
    6820:	9b03      	ldr	r3, [sp, #12]
    6822:	689b      	ldr	r3, [r3, #8]
    6824:	2b00      	cmp	r3, #0
    6826:	d014      	beq.n	6852 <mbed::FileBase::lookup(char const*, unsigned int)+0x42>
    6828:	9b03      	ldr	r3, [sp, #12]
    682a:	689b      	ldr	r3, [r3, #8]
    682c:	4618      	mov	r0, r3
    682e:	9901      	ldr	r1, [sp, #4]
    6830:	9a00      	ldr	r2, [sp, #0]
    6832:	f001 fe78 	bl	8526 <strncmp>
    6836:	4603      	mov	r3, r0
    6838:	2b00      	cmp	r3, #0
    683a:	d10a      	bne.n	6852 <mbed::FileBase::lookup(char const*, unsigned int)+0x42>
    683c:	9b03      	ldr	r3, [sp, #12]
    683e:	689b      	ldr	r3, [r3, #8]
    6840:	4618      	mov	r0, r3
    6842:	f001 fe68 	bl	8516 <strlen>
    6846:	4602      	mov	r2, r0
    6848:	9b00      	ldr	r3, [sp, #0]
    684a:	429a      	cmp	r2, r3
    684c:	d101      	bne.n	6852 <mbed::FileBase::lookup(char const*, unsigned int)+0x42>
    684e:	9b03      	ldr	r3, [sp, #12]
    6850:	e006      	b.n	6860 <mbed::FileBase::lookup(char const*, unsigned int)+0x50>
    6852:	9b03      	ldr	r3, [sp, #12]
    6854:	685b      	ldr	r3, [r3, #4]
    6856:	9303      	str	r3, [sp, #12]
    6858:	9b03      	ldr	r3, [sp, #12]
    685a:	2b00      	cmp	r3, #0
    685c:	d1e0      	bne.n	6820 <mbed::FileBase::lookup(char const*, unsigned int)+0x10>
    685e:	2300      	movs	r3, #0
    6860:	4618      	mov	r0, r3
    6862:	b005      	add	sp, #20
    6864:	f85d fb04 	ldr.w	pc, [sp], #4
    6868:	10000a3c 	.word	0x10000a3c

0000686c <mbed::FileBase::getPathType()>:
    686c:	b082      	sub	sp, #8
    686e:	9001      	str	r0, [sp, #4]
    6870:	9b01      	ldr	r3, [sp, #4]
    6872:	7b1b      	ldrb	r3, [r3, #12]
    6874:	4618      	mov	r0, r3
    6876:	b002      	add	sp, #8
    6878:	4770      	bx	lr
    687a:	bf00      	nop

0000687c <operator delete(void*)>:
    687c:	b108      	cbz	r0, 6882 <operator delete(void*)+0x6>
    687e:	f7fa bc8f 	b.w	11a0 <__wrap_free>
    6882:	4770      	bx	lr

00006884 <__aeabi_atexit>:
    6884:	4603      	mov	r3, r0
    6886:	4608      	mov	r0, r1
    6888:	4619      	mov	r1, r3
    688a:	f000 bf5d 	b.w	7748 <__cxa_atexit>
	...

00006890 <__aeabi_drsub>:
    6890:	f081 4100 	eor.w	r1, r1, #2147483648	; 0x80000000
    6894:	e002      	b.n	689c <__adddf3>
    6896:	bf00      	nop

00006898 <__aeabi_dsub>:
    6898:	f083 4300 	eor.w	r3, r3, #2147483648	; 0x80000000

0000689c <__adddf3>:
    689c:	b530      	push	{r4, r5, lr}
    689e:	ea4f 0441 	mov.w	r4, r1, lsl #1
    68a2:	ea4f 0543 	mov.w	r5, r3, lsl #1
    68a6:	ea94 0f05 	teq	r4, r5
    68aa:	bf08      	it	eq
    68ac:	ea90 0f02 	teqeq	r0, r2
    68b0:	bf1f      	itttt	ne
    68b2:	ea54 0c00 	orrsne.w	r12, r4, r0
    68b6:	ea55 0c02 	orrsne.w	r12, r5, r2
    68ba:	ea7f 5c64 	mvnsne.w	r12, r4, asr #21
    68be:	ea7f 5c65 	mvnsne.w	r12, r5, asr #21
    68c2:	f000 80e2 	beq.w	6a8a <__adddf3+0x1ee>
    68c6:	ea4f 5454 	mov.w	r4, r4, lsr #21
    68ca:	ebd4 5555 	rsbs	r5, r4, r5, lsr #21
    68ce:	bfb8      	it	lt
    68d0:	426d      	neglt	r5, r5
    68d2:	dd0c      	ble.n	68ee <__adddf3+0x52>
    68d4:	442c      	add	r4, r5
    68d6:	ea80 0202 	eor.w	r2, r0, r2
    68da:	ea81 0303 	eor.w	r3, r1, r3
    68de:	ea82 0000 	eor.w	r0, r2, r0
    68e2:	ea83 0101 	eor.w	r1, r3, r1
    68e6:	ea80 0202 	eor.w	r2, r0, r2
    68ea:	ea81 0303 	eor.w	r3, r1, r3
    68ee:	2d36      	cmp	r5, #54	; 0x36
    68f0:	bf88      	it	hi
    68f2:	bd30      	pophi	{r4, r5, pc}
    68f4:	f011 4f00 	tst.w	r1, #2147483648	; 0x80000000
    68f8:	ea4f 3101 	mov.w	r1, r1, lsl #12
    68fc:	f44f 1c80 	mov.w	r12, #1048576	; 0x100000
    6900:	ea4c 3111 	orr.w	r1, r12, r1, lsr #12
    6904:	d002      	beq.n	690c <__adddf3+0x70>
    6906:	4240      	negs	r0, r0
    6908:	eb61 0141 	sbc.w	r1, r1, r1, lsl #1
    690c:	f013 4f00 	tst.w	r3, #2147483648	; 0x80000000
    6910:	ea4f 3303 	mov.w	r3, r3, lsl #12
    6914:	ea4c 3313 	orr.w	r3, r12, r3, lsr #12
    6918:	d002      	beq.n	6920 <__adddf3+0x84>
    691a:	4252      	negs	r2, r2
    691c:	eb63 0343 	sbc.w	r3, r3, r3, lsl #1
    6920:	ea94 0f05 	teq	r4, r5
    6924:	f000 80a7 	beq.w	6a76 <__adddf3+0x1da>
    6928:	f1a4 0401 	sub.w	r4, r4, #1
    692c:	f1d5 0e20 	rsbs	lr, r5, #32
    6930:	db0d      	blt.n	694e <__adddf3+0xb2>
    6932:	fa02 fc0e 	lsl.w	r12, r2, lr
    6936:	fa22 f205 	lsr.w	r2, r2, r5
    693a:	1880      	adds	r0, r0, r2
    693c:	f141 0100 	adc.w	r1, r1, #0
    6940:	fa03 f20e 	lsl.w	r2, r3, lr
    6944:	1880      	adds	r0, r0, r2
    6946:	fa43 f305 	asr.w	r3, r3, r5
    694a:	4159      	adcs	r1, r3
    694c:	e00e      	b.n	696c <__adddf3+0xd0>
    694e:	f1a5 0520 	sub.w	r5, r5, #32
    6952:	f10e 0e20 	add.w	lr, lr, #32
    6956:	2a01      	cmp	r2, #1
    6958:	fa03 fc0e 	lsl.w	r12, r3, lr
    695c:	bf28      	it	cs
    695e:	f04c 0c02 	orrcs.w	r12, r12, #2
    6962:	fa43 f305 	asr.w	r3, r3, r5
    6966:	18c0      	adds	r0, r0, r3
    6968:	eb51 71e3 	adcs.w	r1, r1, r3, asr #31
    696c:	f001 4500 	and.w	r5, r1, #2147483648	; 0x80000000
    6970:	d507      	bpl.n	6982 <__adddf3+0xe6>
    6972:	f04f 0e00 	mov.w	lr, #0
    6976:	f1dc 0c00 	rsbs	r12, r12, #0
    697a:	eb7e 0000 	sbcs.w	r0, lr, r0
    697e:	eb6e 0101 	sbc.w	r1, lr, r1
    6982:	f5b1 1f80 	cmp.w	r1, #1048576	; 0x100000
    6986:	d31b      	bcc.n	69c0 <__adddf3+0x124>
    6988:	f5b1 1f00 	cmp.w	r1, #2097152	; 0x200000
    698c:	d30c      	bcc.n	69a8 <__adddf3+0x10c>
    698e:	0849      	lsrs	r1, r1, #1
    6990:	ea5f 0030 	movs.w	r0, r0, rrx
    6994:	ea4f 0c3c 	mov.w	r12, r12, rrx
    6998:	f104 0401 	add.w	r4, r4, #1
    699c:	ea4f 5244 	mov.w	r2, r4, lsl #21
    69a0:	f512 0f80 	cmn.w	r2, #4194304	; 0x400000
    69a4:	f080 809a 	bcs.w	6adc <__adddf3+0x240>
    69a8:	f1bc 4f00 	cmp.w	r12, #2147483648	; 0x80000000
    69ac:	bf08      	it	eq
    69ae:	ea5f 0c50 	movseq.w	r12, r0, lsr #1
    69b2:	f150 0000 	adcs.w	r0, r0, #0
    69b6:	eb41 5104 	adc.w	r1, r1, r4, lsl #20
    69ba:	ea41 0105 	orr.w	r1, r1, r5
    69be:	bd30      	pop	{r4, r5, pc}
    69c0:	ea5f 0c4c 	movs.w	r12, r12, lsl #1
    69c4:	4140      	adcs	r0, r0
    69c6:	eb41 0101 	adc.w	r1, r1, r1
    69ca:	f411 1f80 	tst.w	r1, #1048576	; 0x100000
    69ce:	f1a4 0401 	sub.w	r4, r4, #1
    69d2:	d1e9      	bne.n	69a8 <__adddf3+0x10c>
    69d4:	f091 0f00 	teq	r1, #0
    69d8:	bf04      	itt	eq
    69da:	4601      	moveq	r1, r0
    69dc:	2000      	moveq	r0, #0
    69de:	fab1 f381 	clz	r3, r1
    69e2:	bf08      	it	eq
    69e4:	3320      	addeq	r3, #32
    69e6:	f1a3 030b 	sub.w	r3, r3, #11
    69ea:	f1b3 0220 	subs.w	r2, r3, #32
    69ee:	da0c      	bge.n	6a0a <__adddf3+0x16e>
    69f0:	320c      	adds	r2, #12
    69f2:	dd08      	ble.n	6a06 <__adddf3+0x16a>
    69f4:	f102 0c14 	add.w	r12, r2, #20
    69f8:	f1c2 020c 	rsb	r2, r2, #12
    69fc:	fa01 f00c 	lsl.w	r0, r1, r12
    6a00:	fa21 f102 	lsr.w	r1, r1, r2
    6a04:	e00c      	b.n	6a20 <__adddf3+0x184>
    6a06:	f102 0214 	add.w	r2, r2, #20
    6a0a:	bfd8      	it	le
    6a0c:	f1c2 0c20 	rsble	r12, r2, #32
    6a10:	fa01 f102 	lsl.w	r1, r1, r2
    6a14:	fa20 fc0c 	lsr.w	r12, r0, r12
    6a18:	bfdc      	itt	le
    6a1a:	ea41 010c 	orrle.w	r1, r1, r12
    6a1e:	4090      	lslle	r0, r2
    6a20:	1ae4      	subs	r4, r4, r3
    6a22:	bfa2      	ittt	ge
    6a24:	eb01 5104 	addge.w	r1, r1, r4, lsl #20
    6a28:	4329      	orrge	r1, r5
    6a2a:	bd30      	popge	{r4, r5, pc}
    6a2c:	ea6f 0404 	mvn.w	r4, r4
    6a30:	3c1f      	subs	r4, #31
    6a32:	da1c      	bge.n	6a6e <__adddf3+0x1d2>
    6a34:	340c      	adds	r4, #12
    6a36:	dc0e      	bgt.n	6a56 <__adddf3+0x1ba>
    6a38:	f104 0414 	add.w	r4, r4, #20
    6a3c:	f1c4 0220 	rsb	r2, r4, #32
    6a40:	fa20 f004 	lsr.w	r0, r0, r4
    6a44:	fa01 f302 	lsl.w	r3, r1, r2
    6a48:	ea40 0003 	orr.w	r0, r0, r3
    6a4c:	fa21 f304 	lsr.w	r3, r1, r4
    6a50:	ea45 0103 	orr.w	r1, r5, r3
    6a54:	bd30      	pop	{r4, r5, pc}
    6a56:	f1c4 040c 	rsb	r4, r4, #12
    6a5a:	f1c4 0220 	rsb	r2, r4, #32
    6a5e:	fa20 f002 	lsr.w	r0, r0, r2
    6a62:	fa01 f304 	lsl.w	r3, r1, r4
    6a66:	ea40 0003 	orr.w	r0, r0, r3
    6a6a:	4629      	mov	r1, r5
    6a6c:	bd30      	pop	{r4, r5, pc}
    6a6e:	fa21 f004 	lsr.w	r0, r1, r4
    6a72:	4629      	mov	r1, r5
    6a74:	bd30      	pop	{r4, r5, pc}
    6a76:	f094 0f00 	teq	r4, #0
    6a7a:	f483 1380 	eor.w	r3, r3, #1048576	; 0x100000
    6a7e:	bf06      	itte	eq
    6a80:	f481 1180 	eoreq.w	r1, r1, #1048576	; 0x100000
    6a84:	3401      	addeq	r4, #1
    6a86:	3d01      	subne	r5, #1
    6a88:	e74e      	b.n	6928 <__adddf3+0x8c>
    6a8a:	ea7f 5c64 	mvns.w	r12, r4, asr #21
    6a8e:	bf18      	it	ne
    6a90:	ea7f 5c65 	mvnsne.w	r12, r5, asr #21
    6a94:	d029      	beq.n	6aea <__adddf3+0x24e>
    6a96:	ea94 0f05 	teq	r4, r5
    6a9a:	bf08      	it	eq
    6a9c:	ea90 0f02 	teqeq	r0, r2
    6aa0:	d005      	beq.n	6aae <__adddf3+0x212>
    6aa2:	ea54 0c00 	orrs.w	r12, r4, r0
    6aa6:	bf04      	itt	eq
    6aa8:	4619      	moveq	r1, r3
    6aaa:	4610      	moveq	r0, r2
    6aac:	bd30      	pop	{r4, r5, pc}
    6aae:	ea91 0f03 	teq	r1, r3
    6ab2:	bf1e      	ittt	ne
    6ab4:	2100      	movne	r1, #0
    6ab6:	2000      	movne	r0, #0
    6ab8:	bd30      	popne	{r4, r5, pc}
    6aba:	ea5f 5c54 	movs.w	r12, r4, lsr #21
    6abe:	d105      	bne.n	6acc <__adddf3+0x230>
    6ac0:	0040      	lsls	r0, r0, #1
    6ac2:	4149      	adcs	r1, r1
    6ac4:	bf28      	it	cs
    6ac6:	f041 4100 	orrcs.w	r1, r1, #2147483648	; 0x80000000
    6aca:	bd30      	pop	{r4, r5, pc}
    6acc:	f514 0480 	adds.w	r4, r4, #4194304	; 0x400000
    6ad0:	bf3c      	itt	cc
    6ad2:	f501 1180 	addcc.w	r1, r1, #1048576	; 0x100000
    6ad6:	bd30      	popcc	{r4, r5, pc}
    6ad8:	f001 4500 	and.w	r5, r1, #2147483648	; 0x80000000
    6adc:	f045 41fe 	orr.w	r1, r5, #2130706432	; 0x7f000000
    6ae0:	f441 0170 	orr.w	r1, r1, #15728640	; 0xf00000
    6ae4:	f04f 0000 	mov.w	r0, #0
    6ae8:	bd30      	pop	{r4, r5, pc}
    6aea:	ea7f 5c64 	mvns.w	r12, r4, asr #21
    6aee:	bf1a      	itte	ne
    6af0:	4619      	movne	r1, r3
    6af2:	4610      	movne	r0, r2
    6af4:	ea7f 5c65 	mvnseq.w	r12, r5, asr #21
    6af8:	bf1c      	itt	ne
    6afa:	460b      	movne	r3, r1
    6afc:	4602      	movne	r2, r0
    6afe:	ea50 3401 	orrs.w	r4, r0, r1, lsl #12
    6b02:	bf06      	itte	eq
    6b04:	ea52 3503 	orrseq.w	r5, r2, r3, lsl #12
    6b08:	ea91 0f03 	teqeq	r1, r3
    6b0c:	f441 2100 	orrne.w	r1, r1, #524288	; 0x80000
    6b10:	bd30      	pop	{r4, r5, pc}
    6b12:	bf00      	nop

00006b14 <__aeabi_ui2d>:
    6b14:	f090 0f00 	teq	r0, #0
    6b18:	bf04      	itt	eq
    6b1a:	2100      	moveq	r1, #0
    6b1c:	4770      	bxeq	lr
    6b1e:	b530      	push	{r4, r5, lr}
    6b20:	f44f 6480 	mov.w	r4, #1024	; 0x400
    6b24:	f104 0432 	add.w	r4, r4, #50	; 0x32
    6b28:	f04f 0500 	mov.w	r5, #0
    6b2c:	f04f 0100 	mov.w	r1, #0
    6b30:	e750      	b.n	69d4 <__adddf3+0x138>
    6b32:	bf00      	nop

00006b34 <__aeabi_i2d>:
    6b34:	f090 0f00 	teq	r0, #0
    6b38:	bf04      	itt	eq
    6b3a:	2100      	moveq	r1, #0
    6b3c:	4770      	bxeq	lr
    6b3e:	b530      	push	{r4, r5, lr}
    6b40:	f44f 6480 	mov.w	r4, #1024	; 0x400
    6b44:	f104 0432 	add.w	r4, r4, #50	; 0x32
    6b48:	f010 4500 	ands.w	r5, r0, #2147483648	; 0x80000000
    6b4c:	bf48      	it	mi
    6b4e:	4240      	negmi	r0, r0
    6b50:	f04f 0100 	mov.w	r1, #0
    6b54:	e73e      	b.n	69d4 <__adddf3+0x138>
    6b56:	bf00      	nop

00006b58 <__aeabi_f2d>:
    6b58:	0042      	lsls	r2, r0, #1
    6b5a:	ea4f 01e2 	mov.w	r1, r2, asr #3
    6b5e:	ea4f 0131 	mov.w	r1, r1, rrx
    6b62:	ea4f 7002 	mov.w	r0, r2, lsl #28
    6b66:	bf1f      	itttt	ne
    6b68:	f012 437f 	andsne.w	r3, r2, #4278190080	; 0xff000000
    6b6c:	f093 4f7f 	teqne	r3, #4278190080	; 0xff000000
    6b70:	f081 5160 	eorne.w	r1, r1, #939524096	; 0x38000000
    6b74:	4770      	bxne	lr
    6b76:	f092 0f00 	teq	r2, #0
    6b7a:	bf14      	ite	ne
    6b7c:	f093 4f7f 	teqne	r3, #4278190080	; 0xff000000
    6b80:	4770      	bxeq	lr
    6b82:	b530      	push	{r4, r5, lr}
    6b84:	f44f 7460 	mov.w	r4, #896	; 0x380
    6b88:	f001 4500 	and.w	r5, r1, #2147483648	; 0x80000000
    6b8c:	f021 4100 	bic.w	r1, r1, #2147483648	; 0x80000000
    6b90:	e720      	b.n	69d4 <__adddf3+0x138>
    6b92:	bf00      	nop

00006b94 <__aeabi_ul2d>:
    6b94:	ea50 0201 	orrs.w	r2, r0, r1
    6b98:	bf08      	it	eq
    6b9a:	4770      	bxeq	lr
    6b9c:	b530      	push	{r4, r5, lr}
    6b9e:	f04f 0500 	mov.w	r5, #0
    6ba2:	e00a      	b.n	6bba <__aeabi_l2d+0x16>

00006ba4 <__aeabi_l2d>:
    6ba4:	ea50 0201 	orrs.w	r2, r0, r1
    6ba8:	bf08      	it	eq
    6baa:	4770      	bxeq	lr
    6bac:	b530      	push	{r4, r5, lr}
    6bae:	f011 4500 	ands.w	r5, r1, #2147483648	; 0x80000000
    6bb2:	d502      	bpl.n	6bba <__aeabi_l2d+0x16>
    6bb4:	4240      	negs	r0, r0
    6bb6:	eb61 0141 	sbc.w	r1, r1, r1, lsl #1
    6bba:	f44f 6480 	mov.w	r4, #1024	; 0x400
    6bbe:	f104 0432 	add.w	r4, r4, #50	; 0x32
    6bc2:	ea5f 5c91 	movs.w	r12, r1, lsr #22
    6bc6:	f43f aedc 	beq.w	6982 <__adddf3+0xe6>
    6bca:	f04f 0203 	mov.w	r2, #3
    6bce:	ea5f 0cdc 	movs.w	r12, r12, lsr #3
    6bd2:	bf18      	it	ne
    6bd4:	3203      	addne	r2, #3
    6bd6:	ea5f 0cdc 	movs.w	r12, r12, lsr #3
    6bda:	bf18      	it	ne
    6bdc:	3203      	addne	r2, #3
    6bde:	eb02 02dc 	add.w	r2, r2, r12, lsr #3
    6be2:	f1c2 0320 	rsb	r3, r2, #32
    6be6:	fa00 fc03 	lsl.w	r12, r0, r3
    6bea:	fa20 f002 	lsr.w	r0, r0, r2
    6bee:	fa01 fe03 	lsl.w	lr, r1, r3
    6bf2:	ea40 000e 	orr.w	r0, r0, lr
    6bf6:	fa21 f102 	lsr.w	r1, r1, r2
    6bfa:	4414      	add	r4, r2
    6bfc:	e6c1      	b.n	6982 <__adddf3+0xe6>
    6bfe:	bf00      	nop

00006c00 <__aeabi_dmul>:
    6c00:	b570      	push	{r4, r5, r6, lr}
    6c02:	f04f 0cff 	mov.w	r12, #255	; 0xff
    6c06:	f44c 6ce0 	orr.w	r12, r12, #1792	; 0x700
    6c0a:	ea1c 5411 	ands.w	r4, r12, r1, lsr #20
    6c0e:	bf1d      	ittte	ne
    6c10:	ea1c 5513 	andsne.w	r5, r12, r3, lsr #20
    6c14:	ea94 0f0c 	teqne	r4, r12
    6c18:	ea95 0f0c 	teqne	r5, r12
    6c1c:	f000 f8de 	bleq	6ddc <__aeabi_dmul+0x1dc>
    6c20:	442c      	add	r4, r5
    6c22:	ea81 0603 	eor.w	r6, r1, r3
    6c26:	ea21 514c 	bic.w	r1, r1, r12, lsl #21
    6c2a:	ea23 534c 	bic.w	r3, r3, r12, lsl #21
    6c2e:	ea50 3501 	orrs.w	r5, r0, r1, lsl #12
    6c32:	bf18      	it	ne
    6c34:	ea52 3503 	orrsne.w	r5, r2, r3, lsl #12
    6c38:	f441 1180 	orr.w	r1, r1, #1048576	; 0x100000
    6c3c:	f443 1380 	orr.w	r3, r3, #1048576	; 0x100000
    6c40:	d038      	beq.n	6cb4 <__aeabi_dmul+0xb4>
    6c42:	fba0 ce02 	umull	r12, lr, r0, r2
    6c46:	f04f 0500 	mov.w	r5, #0
    6c4a:	fbe1 e502 	umlal	lr, r5, r1, r2
    6c4e:	f006 4200 	and.w	r2, r6, #2147483648	; 0x80000000
    6c52:	fbe0 e503 	umlal	lr, r5, r0, r3
    6c56:	f04f 0600 	mov.w	r6, #0
    6c5a:	fbe1 5603 	umlal	r5, r6, r1, r3
    6c5e:	f09c 0f00 	teq	r12, #0
    6c62:	bf18      	it	ne
    6c64:	f04e 0e01 	orrne.w	lr, lr, #1
    6c68:	f1a4 04ff 	sub.w	r4, r4, #255	; 0xff
    6c6c:	f5b6 7f00 	cmp.w	r6, #512	; 0x200
    6c70:	f564 7440 	sbc.w	r4, r4, #768	; 0x300
    6c74:	d204      	bcs.n	6c80 <__aeabi_dmul+0x80>
    6c76:	ea5f 0e4e 	movs.w	lr, lr, lsl #1
    6c7a:	416d      	adcs	r5, r5
    6c7c:	eb46 0606 	adc.w	r6, r6, r6
    6c80:	ea42 21c6 	orr.w	r1, r2, r6, lsl #11
    6c84:	ea41 5155 	orr.w	r1, r1, r5, lsr #21
    6c88:	ea4f 20c5 	mov.w	r0, r5, lsl #11
    6c8c:	ea40 505e 	orr.w	r0, r0, lr, lsr #21
    6c90:	ea4f 2ece 	mov.w	lr, lr, lsl #11
    6c94:	f1b4 0cfd 	subs.w	r12, r4, #253	; 0xfd
    6c98:	bf88      	it	hi
    6c9a:	f5bc 6fe0 	cmphi.w	r12, #1792	; 0x700
    6c9e:	d81e      	bhi.n	6cde <__aeabi_dmul+0xde>
    6ca0:	f1be 4f00 	cmp.w	lr, #2147483648	; 0x80000000
    6ca4:	bf08      	it	eq
    6ca6:	ea5f 0e50 	movseq.w	lr, r0, lsr #1
    6caa:	f150 0000 	adcs.w	r0, r0, #0
    6cae:	eb41 5104 	adc.w	r1, r1, r4, lsl #20
    6cb2:	bd70      	pop	{r4, r5, r6, pc}
    6cb4:	f006 4600 	and.w	r6, r6, #2147483648	; 0x80000000
    6cb8:	ea46 0101 	orr.w	r1, r6, r1
    6cbc:	ea40 0002 	orr.w	r0, r0, r2
    6cc0:	ea81 0103 	eor.w	r1, r1, r3
    6cc4:	ebb4 045c 	subs.w	r4, r4, r12, lsr #1
    6cc8:	bfc2      	ittt	gt
    6cca:	ebd4 050c 	rsbsgt	r5, r4, r12
    6cce:	ea41 5104 	orrgt.w	r1, r1, r4, lsl #20
    6cd2:	bd70      	popgt	{r4, r5, r6, pc}
    6cd4:	f441 1180 	orr.w	r1, r1, #1048576	; 0x100000
    6cd8:	f04f 0e00 	mov.w	lr, #0
    6cdc:	3c01      	subs	r4, #1
    6cde:	f300 80ab 	bgt.w	6e38 <__aeabi_dmul+0x238>
    6ce2:	f114 0f36 	cmn.w	r4, #54	; 0x36
    6ce6:	bfde      	ittt	le
    6ce8:	2000      	movle	r0, #0
    6cea:	f001 4100 	andle.w	r1, r1, #2147483648	; 0x80000000
    6cee:	bd70      	pople	{r4, r5, r6, pc}
    6cf0:	f1c4 0400 	rsb	r4, r4, #0
    6cf4:	3c20      	subs	r4, #32
    6cf6:	da35      	bge.n	6d64 <__aeabi_dmul+0x164>
    6cf8:	340c      	adds	r4, #12
    6cfa:	dc1b      	bgt.n	6d34 <__aeabi_dmul+0x134>
    6cfc:	f104 0414 	add.w	r4, r4, #20
    6d00:	f1c4 0520 	rsb	r5, r4, #32
    6d04:	fa00 f305 	lsl.w	r3, r0, r5
    6d08:	fa20 f004 	lsr.w	r0, r0, r4
    6d0c:	fa01 f205 	lsl.w	r2, r1, r5
    6d10:	ea40 0002 	orr.w	r0, r0, r2
    6d14:	f001 4200 	and.w	r2, r1, #2147483648	; 0x80000000
    6d18:	f021 4100 	bic.w	r1, r1, #2147483648	; 0x80000000
    6d1c:	eb10 70d3 	adds.w	r0, r0, r3, lsr #31
    6d20:	fa21 f604 	lsr.w	r6, r1, r4
    6d24:	eb42 0106 	adc.w	r1, r2, r6
    6d28:	ea5e 0e43 	orrs.w	lr, lr, r3, lsl #1
    6d2c:	bf08      	it	eq
    6d2e:	ea20 70d3 	biceq.w	r0, r0, r3, lsr #31
    6d32:	bd70      	pop	{r4, r5, r6, pc}
    6d34:	f1c4 040c 	rsb	r4, r4, #12
    6d38:	f1c4 0520 	rsb	r5, r4, #32
    6d3c:	fa00 f304 	lsl.w	r3, r0, r4
    6d40:	fa20 f005 	lsr.w	r0, r0, r5
    6d44:	fa01 f204 	lsl.w	r2, r1, r4
    6d48:	ea40 0002 	orr.w	r0, r0, r2
    6d4c:	f001 4100 	and.w	r1, r1, #2147483648	; 0x80000000
    6d50:	eb10 70d3 	adds.w	r0, r0, r3, lsr #31
    6d54:	f141 0100 	adc.w	r1, r1, #0
    6d58:	ea5e 0e43 	orrs.w	lr, lr, r3, lsl #1
    6d5c:	bf08      	it	eq
    6d5e:	ea20 70d3 	biceq.w	r0, r0, r3, lsr #31
    6d62:	bd70      	pop	{r4, r5, r6, pc}
    6d64:	f1c4 0520 	rsb	r5, r4, #32
    6d68:	fa00 f205 	lsl.w	r2, r0, r5
    6d6c:	ea4e 0e02 	orr.w	lr, lr, r2
    6d70:	fa20 f304 	lsr.w	r3, r0, r4
    6d74:	fa01 f205 	lsl.w	r2, r1, r5
    6d78:	ea43 0302 	orr.w	r3, r3, r2
    6d7c:	fa21 f004 	lsr.w	r0, r1, r4
    6d80:	f001 4100 	and.w	r1, r1, #2147483648	; 0x80000000
    6d84:	fa21 f204 	lsr.w	r2, r1, r4
    6d88:	ea20 0002 	bic.w	r0, r0, r2
    6d8c:	eb00 70d3 	add.w	r0, r0, r3, lsr #31
    6d90:	ea5e 0e43 	orrs.w	lr, lr, r3, lsl #1
    6d94:	bf08      	it	eq
    6d96:	ea20 70d3 	biceq.w	r0, r0, r3, lsr #31
    6d9a:	bd70      	pop	{r4, r5, r6, pc}
    6d9c:	f094 0f00 	teq	r4, #0
    6da0:	d10f      	bne.n	6dc2 <__aeabi_dmul+0x1c2>
    6da2:	f001 4600 	and.w	r6, r1, #2147483648	; 0x80000000
    6da6:	0040      	lsls	r0, r0, #1
    6da8:	eb41 0101 	adc.w	r1, r1, r1
    6dac:	f411 1f80 	tst.w	r1, #1048576	; 0x100000
    6db0:	bf08      	it	eq
    6db2:	3c01      	subeq	r4, #1
    6db4:	d0f7      	beq.n	6da6 <__aeabi_dmul+0x1a6>
    6db6:	ea41 0106 	orr.w	r1, r1, r6
    6dba:	f095 0f00 	teq	r5, #0
    6dbe:	bf18      	it	ne
    6dc0:	4770      	bxne	lr
    6dc2:	f003 4600 	and.w	r6, r3, #2147483648	; 0x80000000
    6dc6:	0052      	lsls	r2, r2, #1
    6dc8:	eb43 0303 	adc.w	r3, r3, r3
    6dcc:	f413 1f80 	tst.w	r3, #1048576	; 0x100000
    6dd0:	bf08      	it	eq
    6dd2:	3d01      	subeq	r5, #1
    6dd4:	d0f7      	beq.n	6dc6 <__aeabi_dmul+0x1c6>
    6dd6:	ea43 0306 	orr.w	r3, r3, r6
    6dda:	4770      	bx	lr
    6ddc:	ea94 0f0c 	teq	r4, r12
    6de0:	ea0c 5513 	and.w	r5, r12, r3, lsr #20
    6de4:	bf18      	it	ne
    6de6:	ea95 0f0c 	teqne	r5, r12
    6dea:	d00c      	beq.n	6e06 <__aeabi_dmul+0x206>
    6dec:	ea50 0641 	orrs.w	r6, r0, r1, lsl #1
    6df0:	bf18      	it	ne
    6df2:	ea52 0643 	orrsne.w	r6, r2, r3, lsl #1
    6df6:	d1d1      	bne.n	6d9c <__aeabi_dmul+0x19c>
    6df8:	ea81 0103 	eor.w	r1, r1, r3
    6dfc:	f001 4100 	and.w	r1, r1, #2147483648	; 0x80000000
    6e00:	f04f 0000 	mov.w	r0, #0
    6e04:	bd70      	pop	{r4, r5, r6, pc}
    6e06:	ea50 0641 	orrs.w	r6, r0, r1, lsl #1
    6e0a:	bf06      	itte	eq
    6e0c:	4610      	moveq	r0, r2
    6e0e:	4619      	moveq	r1, r3
    6e10:	ea52 0643 	orrsne.w	r6, r2, r3, lsl #1
    6e14:	d019      	beq.n	6e4a <__aeabi_dmul+0x24a>
    6e16:	ea94 0f0c 	teq	r4, r12
    6e1a:	d102      	bne.n	6e22 <__aeabi_dmul+0x222>
    6e1c:	ea50 3601 	orrs.w	r6, r0, r1, lsl #12
    6e20:	d113      	bne.n	6e4a <__aeabi_dmul+0x24a>
    6e22:	ea95 0f0c 	teq	r5, r12
    6e26:	d105      	bne.n	6e34 <__aeabi_dmul+0x234>
    6e28:	ea52 3603 	orrs.w	r6, r2, r3, lsl #12
    6e2c:	bf1c      	itt	ne
    6e2e:	4610      	movne	r0, r2
    6e30:	4619      	movne	r1, r3
    6e32:	d10a      	bne.n	6e4a <__aeabi_dmul+0x24a>
    6e34:	ea81 0103 	eor.w	r1, r1, r3
    6e38:	f001 4100 	and.w	r1, r1, #2147483648	; 0x80000000
    6e3c:	f041 41fe 	orr.w	r1, r1, #2130706432	; 0x7f000000
    6e40:	f441 0170 	orr.w	r1, r1, #15728640	; 0xf00000
    6e44:	f04f 0000 	mov.w	r0, #0
    6e48:	bd70      	pop	{r4, r5, r6, pc}
    6e4a:	f041 41fe 	orr.w	r1, r1, #2130706432	; 0x7f000000
    6e4e:	f441 0178 	orr.w	r1, r1, #16252928	; 0xf80000
    6e52:	bd70      	pop	{r4, r5, r6, pc}

00006e54 <__aeabi_ddiv>:
    6e54:	b570      	push	{r4, r5, r6, lr}
    6e56:	f04f 0cff 	mov.w	r12, #255	; 0xff
    6e5a:	f44c 6ce0 	orr.w	r12, r12, #1792	; 0x700
    6e5e:	ea1c 5411 	ands.w	r4, r12, r1, lsr #20
    6e62:	bf1d      	ittte	ne
    6e64:	ea1c 5513 	andsne.w	r5, r12, r3, lsr #20
    6e68:	ea94 0f0c 	teqne	r4, r12
    6e6c:	ea95 0f0c 	teqne	r5, r12
    6e70:	f000 f8a7 	bleq	6fc2 <__aeabi_ddiv+0x16e>
    6e74:	eba4 0405 	sub.w	r4, r4, r5
    6e78:	ea81 0e03 	eor.w	lr, r1, r3
    6e7c:	ea52 3503 	orrs.w	r5, r2, r3, lsl #12
    6e80:	ea4f 3101 	mov.w	r1, r1, lsl #12
    6e84:	f000 8088 	beq.w	6f98 <__aeabi_ddiv+0x144>
    6e88:	ea4f 3303 	mov.w	r3, r3, lsl #12
    6e8c:	f04f 5580 	mov.w	r5, #268435456	; 0x10000000
    6e90:	ea45 1313 	orr.w	r3, r5, r3, lsr #4
    6e94:	ea43 6312 	orr.w	r3, r3, r2, lsr #24
    6e98:	ea4f 2202 	mov.w	r2, r2, lsl #8
    6e9c:	ea45 1511 	orr.w	r5, r5, r1, lsr #4
    6ea0:	ea45 6510 	orr.w	r5, r5, r0, lsr #24
    6ea4:	ea4f 2600 	mov.w	r6, r0, lsl #8
    6ea8:	f00e 4100 	and.w	r1, lr, #2147483648	; 0x80000000
    6eac:	429d      	cmp	r5, r3
    6eae:	bf08      	it	eq
    6eb0:	4296      	cmpeq	r6, r2
    6eb2:	f144 04fd 	adc.w	r4, r4, #253	; 0xfd
    6eb6:	f504 7440 	add.w	r4, r4, #768	; 0x300
    6eba:	d202      	bcs.n	6ec2 <__aeabi_ddiv+0x6e>
    6ebc:	085b      	lsrs	r3, r3, #1
    6ebe:	ea4f 0232 	mov.w	r2, r2, rrx
    6ec2:	1ab6      	subs	r6, r6, r2
    6ec4:	eb65 0503 	sbc.w	r5, r5, r3
    6ec8:	085b      	lsrs	r3, r3, #1
    6eca:	ea4f 0232 	mov.w	r2, r2, rrx
    6ece:	f44f 1080 	mov.w	r0, #1048576	; 0x100000
    6ed2:	f44f 2c00 	mov.w	r12, #524288	; 0x80000
    6ed6:	ebb6 0e02 	subs.w	lr, r6, r2
    6eda:	eb75 0e03 	sbcs.w	lr, r5, r3
    6ede:	bf22      	ittt	cs
    6ee0:	1ab6      	subcs	r6, r6, r2
    6ee2:	4675      	movcs	r5, lr
    6ee4:	ea40 000c 	orrcs.w	r0, r0, r12
    6ee8:	085b      	lsrs	r3, r3, #1
    6eea:	ea4f 0232 	mov.w	r2, r2, rrx
    6eee:	ebb6 0e02 	subs.w	lr, r6, r2
    6ef2:	eb75 0e03 	sbcs.w	lr, r5, r3
    6ef6:	bf22      	ittt	cs
    6ef8:	1ab6      	subcs	r6, r6, r2
    6efa:	4675      	movcs	r5, lr
    6efc:	ea40 005c 	orrcs.w	r0, r0, r12, lsr #1
    6f00:	085b      	lsrs	r3, r3, #1
    6f02:	ea4f 0232 	mov.w	r2, r2, rrx
    6f06:	ebb6 0e02 	subs.w	lr, r6, r2
    6f0a:	eb75 0e03 	sbcs.w	lr, r5, r3
    6f0e:	bf22      	ittt	cs
    6f10:	1ab6      	subcs	r6, r6, r2
    6f12:	4675      	movcs	r5, lr
    6f14:	ea40 009c 	orrcs.w	r0, r0, r12, lsr #2
    6f18:	085b      	lsrs	r3, r3, #1
    6f1a:	ea4f 0232 	mov.w	r2, r2, rrx
    6f1e:	ebb6 0e02 	subs.w	lr, r6, r2
    6f22:	eb75 0e03 	sbcs.w	lr, r5, r3
    6f26:	bf22      	ittt	cs
    6f28:	1ab6      	subcs	r6, r6, r2
    6f2a:	4675      	movcs	r5, lr
    6f2c:	ea40 00dc 	orrcs.w	r0, r0, r12, lsr #3
    6f30:	ea55 0e06 	orrs.w	lr, r5, r6
    6f34:	d018      	beq.n	6f68 <__aeabi_ddiv+0x114>
    6f36:	ea4f 1505 	mov.w	r5, r5, lsl #4
    6f3a:	ea45 7516 	orr.w	r5, r5, r6, lsr #28
    6f3e:	ea4f 1606 	mov.w	r6, r6, lsl #4
    6f42:	ea4f 03c3 	mov.w	r3, r3, lsl #3
    6f46:	ea43 7352 	orr.w	r3, r3, r2, lsr #29
    6f4a:	ea4f 02c2 	mov.w	r2, r2, lsl #3
    6f4e:	ea5f 1c1c 	movs.w	r12, r12, lsr #4
    6f52:	d1c0      	bne.n	6ed6 <__aeabi_ddiv+0x82>
    6f54:	f411 1f80 	tst.w	r1, #1048576	; 0x100000
    6f58:	d10b      	bne.n	6f72 <__aeabi_ddiv+0x11e>
    6f5a:	ea41 0100 	orr.w	r1, r1, r0
    6f5e:	f04f 0000 	mov.w	r0, #0
    6f62:	f04f 4c00 	mov.w	r12, #2147483648	; 0x80000000
    6f66:	e7b6      	b.n	6ed6 <__aeabi_ddiv+0x82>
    6f68:	f411 1f80 	tst.w	r1, #1048576	; 0x100000
    6f6c:	bf04      	itt	eq
    6f6e:	4301      	orreq	r1, r0
    6f70:	2000      	moveq	r0, #0
    6f72:	f1b4 0cfd 	subs.w	r12, r4, #253	; 0xfd
    6f76:	bf88      	it	hi
    6f78:	f5bc 6fe0 	cmphi.w	r12, #1792	; 0x700
    6f7c:	f63f aeaf 	bhi.w	6cde <__aeabi_dmul+0xde>
    6f80:	ebb5 0c03 	subs.w	r12, r5, r3
    6f84:	bf04      	itt	eq
    6f86:	ebb6 0c02 	subseq.w	r12, r6, r2
    6f8a:	ea5f 0c50 	movseq.w	r12, r0, lsr #1
    6f8e:	f150 0000 	adcs.w	r0, r0, #0
    6f92:	eb41 5104 	adc.w	r1, r1, r4, lsl #20
    6f96:	bd70      	pop	{r4, r5, r6, pc}
    6f98:	f00e 4e00 	and.w	lr, lr, #2147483648	; 0x80000000
    6f9c:	ea4e 3111 	orr.w	r1, lr, r1, lsr #12
    6fa0:	eb14 045c 	adds.w	r4, r4, r12, lsr #1
    6fa4:	bfc2      	ittt	gt
    6fa6:	ebd4 050c 	rsbsgt	r5, r4, r12
    6faa:	ea41 5104 	orrgt.w	r1, r1, r4, lsl #20
    6fae:	bd70      	popgt	{r4, r5, r6, pc}
    6fb0:	f441 1180 	orr.w	r1, r1, #1048576	; 0x100000
    6fb4:	f04f 0e00 	mov.w	lr, #0
    6fb8:	3c01      	subs	r4, #1
    6fba:	e690      	b.n	6cde <__aeabi_dmul+0xde>
    6fbc:	ea45 0e06 	orr.w	lr, r5, r6
    6fc0:	e68d      	b.n	6cde <__aeabi_dmul+0xde>
    6fc2:	ea0c 5513 	and.w	r5, r12, r3, lsr #20
    6fc6:	ea94 0f0c 	teq	r4, r12
    6fca:	bf08      	it	eq
    6fcc:	ea95 0f0c 	teqeq	r5, r12
    6fd0:	f43f af3b 	beq.w	6e4a <__aeabi_dmul+0x24a>
    6fd4:	ea94 0f0c 	teq	r4, r12
    6fd8:	d10a      	bne.n	6ff0 <__aeabi_ddiv+0x19c>
    6fda:	ea50 3401 	orrs.w	r4, r0, r1, lsl #12
    6fde:	f47f af34 	bne.w	6e4a <__aeabi_dmul+0x24a>
    6fe2:	ea95 0f0c 	teq	r5, r12
    6fe6:	f47f af25 	bne.w	6e34 <__aeabi_dmul+0x234>
    6fea:	4610      	mov	r0, r2
    6fec:	4619      	mov	r1, r3
    6fee:	e72c      	b.n	6e4a <__aeabi_dmul+0x24a>
    6ff0:	ea95 0f0c 	teq	r5, r12
    6ff4:	d106      	bne.n	7004 <__aeabi_ddiv+0x1b0>
    6ff6:	ea52 3503 	orrs.w	r5, r2, r3, lsl #12
    6ffa:	f43f aefd 	beq.w	6df8 <__aeabi_dmul+0x1f8>
    6ffe:	4610      	mov	r0, r2
    7000:	4619      	mov	r1, r3
    7002:	e722      	b.n	6e4a <__aeabi_dmul+0x24a>
    7004:	ea50 0641 	orrs.w	r6, r0, r1, lsl #1
    7008:	bf18      	it	ne
    700a:	ea52 0643 	orrsne.w	r6, r2, r3, lsl #1
    700e:	f47f aec5 	bne.w	6d9c <__aeabi_dmul+0x19c>
    7012:	ea50 0441 	orrs.w	r4, r0, r1, lsl #1
    7016:	f47f af0d 	bne.w	6e34 <__aeabi_dmul+0x234>
    701a:	ea52 0543 	orrs.w	r5, r2, r3, lsl #1
    701e:	f47f aeeb 	bne.w	6df8 <__aeabi_dmul+0x1f8>
    7022:	e712      	b.n	6e4a <__aeabi_dmul+0x24a>

00007024 <__aeabi_d2iz>:
    7024:	ea4f 0241 	mov.w	r2, r1, lsl #1
    7028:	f512 1200 	adds.w	r2, r2, #2097152	; 0x200000
    702c:	d215      	bcs.n	705a <__aeabi_d2iz+0x36>
    702e:	d511      	bpl.n	7054 <__aeabi_d2iz+0x30>
    7030:	f46f 7378 	mvn.w	r3, #992	; 0x3e0
    7034:	ebb3 5262 	subs.w	r2, r3, r2, asr #21
    7038:	d912      	bls.n	7060 <__aeabi_d2iz+0x3c>
    703a:	ea4f 23c1 	mov.w	r3, r1, lsl #11
    703e:	f043 4300 	orr.w	r3, r3, #2147483648	; 0x80000000
    7042:	ea43 5350 	orr.w	r3, r3, r0, lsr #21
    7046:	f011 4f00 	tst.w	r1, #2147483648	; 0x80000000
    704a:	fa23 f002 	lsr.w	r0, r3, r2
    704e:	bf18      	it	ne
    7050:	4240      	negne	r0, r0
    7052:	4770      	bx	lr
    7054:	f04f 0000 	mov.w	r0, #0
    7058:	4770      	bx	lr
    705a:	ea50 3001 	orrs.w	r0, r0, r1, lsl #12
    705e:	d105      	bne.n	706c <__aeabi_d2iz+0x48>
    7060:	f011 4000 	ands.w	r0, r1, #2147483648	; 0x80000000
    7064:	bf08      	it	eq
    7066:	f06f 4000 	mvneq.w	r0, #2147483648	; 0x80000000
    706a:	4770      	bx	lr
    706c:	f04f 0000 	mov.w	r0, #0
    7070:	4770      	bx	lr
    7072:	bf00      	nop

00007074 <__aeabi_d2f>:
    7074:	ea4f 0241 	mov.w	r2, r1, lsl #1
    7078:	f1b2 43e0 	subs.w	r3, r2, #1879048192	; 0x70000000
    707c:	bf24      	itt	cs
    707e:	f5b3 1c00 	subscs.w	r12, r3, #2097152	; 0x200000
    7082:	f1dc 5cfe 	rsbscs	r12, r12, #532676608	; 0x1fc00000
    7086:	d90d      	bls.n	70a4 <__aeabi_d2f+0x30>
    7088:	f001 4c00 	and.w	r12, r1, #2147483648	; 0x80000000
    708c:	ea4f 02c0 	mov.w	r2, r0, lsl #3
    7090:	ea4c 7050 	orr.w	r0, r12, r0, lsr #29
    7094:	f1b2 4f00 	cmp.w	r2, #2147483648	; 0x80000000
    7098:	eb40 0083 	adc.w	r0, r0, r3, lsl #2
    709c:	bf08      	it	eq
    709e:	f020 0001 	biceq.w	r0, r0, #1
    70a2:	4770      	bx	lr
    70a4:	f011 4f80 	tst.w	r1, #1073741824	; 0x40000000
    70a8:	d121      	bne.n	70ee <__aeabi_d2f+0x7a>
    70aa:	f113 7238 	adds.w	r2, r3, #48234496	; 0x2e00000
    70ae:	bfbc      	itt	lt
    70b0:	f001 4000 	andlt.w	r0, r1, #2147483648	; 0x80000000
    70b4:	4770      	bxlt	lr
    70b6:	f441 1180 	orr.w	r1, r1, #1048576	; 0x100000
    70ba:	ea4f 5252 	mov.w	r2, r2, lsr #21
    70be:	f1c2 0218 	rsb	r2, r2, #24
    70c2:	f1c2 0c20 	rsb	r12, r2, #32
    70c6:	fa10 f30c 	lsls.w	r3, r0, r12
    70ca:	fa20 f002 	lsr.w	r0, r0, r2
    70ce:	bf18      	it	ne
    70d0:	f040 0001 	orrne.w	r0, r0, #1
    70d4:	ea4f 23c1 	mov.w	r3, r1, lsl #11
    70d8:	ea4f 23d3 	mov.w	r3, r3, lsr #11
    70dc:	fa03 fc0c 	lsl.w	r12, r3, r12
    70e0:	ea40 000c 	orr.w	r0, r0, r12
    70e4:	fa23 f302 	lsr.w	r3, r3, r2
    70e8:	ea4f 0343 	mov.w	r3, r3, lsl #1
    70ec:	e7cc      	b.n	7088 <__aeabi_d2f+0x14>
    70ee:	ea7f 5362 	mvns.w	r3, r2, asr #21
    70f2:	d107      	bne.n	7104 <__aeabi_d2f+0x90>
    70f4:	ea50 3301 	orrs.w	r3, r0, r1, lsl #12
    70f8:	bf1e      	ittt	ne
    70fa:	f04f 40fe 	movne.w	r0, #2130706432	; 0x7f000000
    70fe:	f440 0040 	orrne.w	r0, r0, #12582912	; 0xc00000
    7102:	4770      	bxne	lr
    7104:	f001 4000 	and.w	r0, r1, #2147483648	; 0x80000000
    7108:	f040 40fe 	orr.w	r0, r0, #2130706432	; 0x7f000000
    710c:	f440 0000 	orr.w	r0, r0, #8388608	; 0x800000
    7110:	4770      	bx	lr
    7112:	bf00      	nop

00007114 <__aeabi_frsub>:
    7114:	f080 4000 	eor.w	r0, r0, #2147483648	; 0x80000000
    7118:	e002      	b.n	7120 <__addsf3>
    711a:	bf00      	nop

0000711c <__aeabi_fsub>:
    711c:	f081 4100 	eor.w	r1, r1, #2147483648	; 0x80000000

00007120 <__addsf3>:
    7120:	0042      	lsls	r2, r0, #1
    7122:	bf1f      	itttt	ne
    7124:	ea5f 0341 	movsne.w	r3, r1, lsl #1
    7128:	ea92 0f03 	teqne	r2, r3
    712c:	ea7f 6c22 	mvnsne.w	r12, r2, asr #24
    7130:	ea7f 6c23 	mvnsne.w	r12, r3, asr #24
    7134:	d06a      	beq.n	720c <__addsf3+0xec>
    7136:	ea4f 6212 	mov.w	r2, r2, lsr #24
    713a:	ebd2 6313 	rsbs	r3, r2, r3, lsr #24
    713e:	bfc1      	itttt	gt
    7140:	18d2      	addgt	r2, r2, r3
    7142:	4041      	eorgt	r1, r0
    7144:	4048      	eorgt	r0, r1
    7146:	4041      	eorgt	r1, r0
    7148:	bfb8      	it	lt
    714a:	425b      	neglt	r3, r3
    714c:	2b19      	cmp	r3, #25
    714e:	bf88      	it	hi
    7150:	4770      	bxhi	lr
    7152:	f010 4f00 	tst.w	r0, #2147483648	; 0x80000000
    7156:	f440 0000 	orr.w	r0, r0, #8388608	; 0x800000
    715a:	f020 407f 	bic.w	r0, r0, #4278190080	; 0xff000000
    715e:	bf18      	it	ne
    7160:	4240      	negne	r0, r0
    7162:	f011 4f00 	tst.w	r1, #2147483648	; 0x80000000
    7166:	f441 0100 	orr.w	r1, r1, #8388608	; 0x800000
    716a:	f021 417f 	bic.w	r1, r1, #4278190080	; 0xff000000
    716e:	bf18      	it	ne
    7170:	4249      	negne	r1, r1
    7172:	ea92 0f03 	teq	r2, r3
    7176:	d03f      	beq.n	71f8 <__addsf3+0xd8>
    7178:	f1a2 0201 	sub.w	r2, r2, #1
    717c:	fa41 fc03 	asr.w	r12, r1, r3
    7180:	eb10 000c 	adds.w	r0, r0, r12
    7184:	f1c3 0320 	rsb	r3, r3, #32
    7188:	fa01 f103 	lsl.w	r1, r1, r3
    718c:	f000 4300 	and.w	r3, r0, #2147483648	; 0x80000000
    7190:	d502      	bpl.n	7198 <__addsf3+0x78>
    7192:	4249      	negs	r1, r1
    7194:	eb60 0040 	sbc.w	r0, r0, r0, lsl #1
    7198:	f5b0 0f00 	cmp.w	r0, #8388608	; 0x800000
    719c:	d313      	bcc.n	71c6 <__addsf3+0xa6>
    719e:	f1b0 7f80 	cmp.w	r0, #16777216	; 0x1000000
    71a2:	d306      	bcc.n	71b2 <__addsf3+0x92>
    71a4:	0840      	lsrs	r0, r0, #1
    71a6:	ea4f 0131 	mov.w	r1, r1, rrx
    71aa:	f102 0201 	add.w	r2, r2, #1
    71ae:	2afe      	cmp	r2, #254	; 0xfe
    71b0:	d251      	bcs.n	7256 <__addsf3+0x136>
    71b2:	f1b1 4f00 	cmp.w	r1, #2147483648	; 0x80000000
    71b6:	eb40 50c2 	adc.w	r0, r0, r2, lsl #23
    71ba:	bf08      	it	eq
    71bc:	f020 0001 	biceq.w	r0, r0, #1
    71c0:	ea40 0003 	orr.w	r0, r0, r3
    71c4:	4770      	bx	lr
    71c6:	0049      	lsls	r1, r1, #1
    71c8:	eb40 0000 	adc.w	r0, r0, r0
    71cc:	f410 0f00 	tst.w	r0, #8388608	; 0x800000
    71d0:	f1a2 0201 	sub.w	r2, r2, #1
    71d4:	d1ed      	bne.n	71b2 <__addsf3+0x92>
    71d6:	fab0 fc80 	clz	r12, r0
    71da:	f1ac 0c08 	sub.w	r12, r12, #8
    71de:	ebb2 020c 	subs.w	r2, r2, r12
    71e2:	fa00 f00c 	lsl.w	r0, r0, r12
    71e6:	bfaa      	itet	ge
    71e8:	eb00 50c2 	addge.w	r0, r0, r2, lsl #23
    71ec:	4252      	neglt	r2, r2
    71ee:	4318      	orrge	r0, r3
    71f0:	bfbc      	itt	lt
    71f2:	40d0      	lsrlt	r0, r2
    71f4:	4318      	orrlt	r0, r3
    71f6:	4770      	bx	lr
    71f8:	f092 0f00 	teq	r2, #0
    71fc:	f481 0100 	eor.w	r1, r1, #8388608	; 0x800000
    7200:	bf06      	itte	eq
    7202:	f480 0000 	eoreq.w	r0, r0, #8388608	; 0x800000
    7206:	3201      	addeq	r2, #1
    7208:	3b01      	subne	r3, #1
    720a:	e7b5      	b.n	7178 <__addsf3+0x58>
    720c:	ea4f 0341 	mov.w	r3, r1, lsl #1
    7210:	ea7f 6c22 	mvns.w	r12, r2, asr #24
    7214:	bf18      	it	ne
    7216:	ea7f 6c23 	mvnsne.w	r12, r3, asr #24
    721a:	d021      	beq.n	7260 <__addsf3+0x140>
    721c:	ea92 0f03 	teq	r2, r3
    7220:	d004      	beq.n	722c <__addsf3+0x10c>
    7222:	f092 0f00 	teq	r2, #0
    7226:	bf08      	it	eq
    7228:	4608      	moveq	r0, r1
    722a:	4770      	bx	lr
    722c:	ea90 0f01 	teq	r0, r1
    7230:	bf1c      	itt	ne
    7232:	2000      	movne	r0, #0
    7234:	4770      	bxne	lr
    7236:	f012 4f7f 	tst.w	r2, #4278190080	; 0xff000000
    723a:	d104      	bne.n	7246 <__addsf3+0x126>
    723c:	0040      	lsls	r0, r0, #1
    723e:	bf28      	it	cs
    7240:	f040 4000 	orrcs.w	r0, r0, #2147483648	; 0x80000000
    7244:	4770      	bx	lr
    7246:	f112 7200 	adds.w	r2, r2, #33554432	; 0x2000000
    724a:	bf3c      	itt	cc
    724c:	f500 0000 	addcc.w	r0, r0, #8388608	; 0x800000
    7250:	4770      	bxcc	lr
    7252:	f000 4300 	and.w	r3, r0, #2147483648	; 0x80000000
    7256:	f043 40fe 	orr.w	r0, r3, #2130706432	; 0x7f000000
    725a:	f440 0000 	orr.w	r0, r0, #8388608	; 0x800000
    725e:	4770      	bx	lr
    7260:	ea7f 6222 	mvns.w	r2, r2, asr #24
    7264:	bf16      	itet	ne
    7266:	4608      	movne	r0, r1
    7268:	ea7f 6323 	mvnseq.w	r3, r3, asr #24
    726c:	4601      	movne	r1, r0
    726e:	0242      	lsls	r2, r0, #9
    7270:	bf06      	itte	eq
    7272:	ea5f 2341 	movseq.w	r3, r1, lsl #9
    7276:	ea90 0f01 	teqeq	r0, r1
    727a:	f440 0080 	orrne.w	r0, r0, #4194304	; 0x400000
    727e:	4770      	bx	lr

00007280 <__aeabi_ui2f>:
    7280:	f04f 0300 	mov.w	r3, #0
    7284:	e004      	b.n	7290 <__aeabi_i2f+0x8>
    7286:	bf00      	nop

00007288 <__aeabi_i2f>:
    7288:	f010 4300 	ands.w	r3, r0, #2147483648	; 0x80000000
    728c:	bf48      	it	mi
    728e:	4240      	negmi	r0, r0
    7290:	ea5f 0c00 	movs.w	r12, r0
    7294:	bf08      	it	eq
    7296:	4770      	bxeq	lr
    7298:	f043 4396 	orr.w	r3, r3, #1258291200	; 0x4b000000
    729c:	4601      	mov	r1, r0
    729e:	f04f 0000 	mov.w	r0, #0
    72a2:	e01c      	b.n	72de <__aeabi_l2f+0x2a>

000072a4 <__aeabi_ul2f>:
    72a4:	ea50 0201 	orrs.w	r2, r0, r1
    72a8:	bf08      	it	eq
    72aa:	4770      	bxeq	lr
    72ac:	f04f 0300 	mov.w	r3, #0
    72b0:	e00a      	b.n	72c8 <__aeabi_l2f+0x14>
    72b2:	bf00      	nop

000072b4 <__aeabi_l2f>:
    72b4:	ea50 0201 	orrs.w	r2, r0, r1
    72b8:	bf08      	it	eq
    72ba:	4770      	bxeq	lr
    72bc:	f011 4300 	ands.w	r3, r1, #2147483648	; 0x80000000
    72c0:	d502      	bpl.n	72c8 <__aeabi_l2f+0x14>
    72c2:	4240      	negs	r0, r0
    72c4:	eb61 0141 	sbc.w	r1, r1, r1, lsl #1
    72c8:	ea5f 0c01 	movs.w	r12, r1
    72cc:	bf02      	ittt	eq
    72ce:	4684      	moveq	r12, r0
    72d0:	4601      	moveq	r1, r0
    72d2:	2000      	moveq	r0, #0
    72d4:	f043 43b6 	orr.w	r3, r3, #1526726656	; 0x5b000000
    72d8:	bf08      	it	eq
    72da:	f1a3 5380 	subeq.w	r3, r3, #268435456	; 0x10000000
    72de:	f5a3 0300 	sub.w	r3, r3, #8388608	; 0x800000
    72e2:	fabc f28c 	clz	r2, r12
    72e6:	3a08      	subs	r2, #8
    72e8:	eba3 53c2 	sub.w	r3, r3, r2, lsl #23
    72ec:	db10      	blt.n	7310 <__aeabi_l2f+0x5c>
    72ee:	fa01 fc02 	lsl.w	r12, r1, r2
    72f2:	4463      	add	r3, r12
    72f4:	fa00 fc02 	lsl.w	r12, r0, r2
    72f8:	f1c2 0220 	rsb	r2, r2, #32
    72fc:	f1bc 4f00 	cmp.w	r12, #2147483648	; 0x80000000
    7300:	fa20 f202 	lsr.w	r2, r0, r2
    7304:	eb43 0002 	adc.w	r0, r3, r2
    7308:	bf08      	it	eq
    730a:	f020 0001 	biceq.w	r0, r0, #1
    730e:	4770      	bx	lr
    7310:	f102 0220 	add.w	r2, r2, #32
    7314:	fa01 fc02 	lsl.w	r12, r1, r2
    7318:	f1c2 0220 	rsb	r2, r2, #32
    731c:	ea50 004c 	orrs.w	r0, r0, r12, lsl #1
    7320:	fa21 f202 	lsr.w	r2, r1, r2
    7324:	eb43 0002 	adc.w	r0, r3, r2
    7328:	bf08      	it	eq
    732a:	ea20 70dc 	biceq.w	r0, r0, r12, lsr #31
    732e:	4770      	bx	lr

00007330 <__aeabi_fmul>:
    7330:	f04f 0cff 	mov.w	r12, #255	; 0xff
    7334:	ea1c 52d0 	ands.w	r2, r12, r0, lsr #23
    7338:	bf1e      	ittt	ne
    733a:	ea1c 53d1 	andsne.w	r3, r12, r1, lsr #23
    733e:	ea92 0f0c 	teqne	r2, r12
    7342:	ea93 0f0c 	teqne	r3, r12
    7346:	d06f      	beq.n	7428 <__aeabi_fmul+0xf8>
    7348:	441a      	add	r2, r3
    734a:	ea80 0c01 	eor.w	r12, r0, r1
    734e:	0240      	lsls	r0, r0, #9
    7350:	bf18      	it	ne
    7352:	ea5f 2141 	movsne.w	r1, r1, lsl #9
    7356:	d01e      	beq.n	7396 <__aeabi_fmul+0x66>
    7358:	f04f 6300 	mov.w	r3, #134217728	; 0x8000000
    735c:	ea43 1050 	orr.w	r0, r3, r0, lsr #5
    7360:	ea43 1151 	orr.w	r1, r3, r1, lsr #5
    7364:	fba0 3101 	umull	r3, r1, r0, r1
    7368:	f00c 4000 	and.w	r0, r12, #2147483648	; 0x80000000
    736c:	f5b1 0f00 	cmp.w	r1, #8388608	; 0x800000
    7370:	bf3e      	ittt	cc
    7372:	0049      	lslcc	r1, r1, #1
    7374:	ea41 71d3 	orrcc.w	r1, r1, r3, lsr #31
    7378:	005b      	lslcc	r3, r3, #1
    737a:	ea40 0001 	orr.w	r0, r0, r1
    737e:	f162 027f 	sbc.w	r2, r2, #127	; 0x7f
    7382:	2afd      	cmp	r2, #253	; 0xfd
    7384:	d81d      	bhi.n	73c2 <__aeabi_fmul+0x92>
    7386:	f1b3 4f00 	cmp.w	r3, #2147483648	; 0x80000000
    738a:	eb40 50c2 	adc.w	r0, r0, r2, lsl #23
    738e:	bf08      	it	eq
    7390:	f020 0001 	biceq.w	r0, r0, #1
    7394:	4770      	bx	lr
    7396:	f090 0f00 	teq	r0, #0
    739a:	f00c 4c00 	and.w	r12, r12, #2147483648	; 0x80000000
    739e:	bf08      	it	eq
    73a0:	0249      	lsleq	r1, r1, #9
    73a2:	ea4c 2050 	orr.w	r0, r12, r0, lsr #9
    73a6:	ea40 2051 	orr.w	r0, r0, r1, lsr #9
    73aa:	3a7f      	subs	r2, #127	; 0x7f
    73ac:	bfc2      	ittt	gt
    73ae:	f1d2 03ff 	rsbsgt	r3, r2, #255	; 0xff
    73b2:	ea40 50c2 	orrgt.w	r0, r0, r2, lsl #23
    73b6:	4770      	bxgt	lr
    73b8:	f440 0000 	orr.w	r0, r0, #8388608	; 0x800000
    73bc:	f04f 0300 	mov.w	r3, #0
    73c0:	3a01      	subs	r2, #1
    73c2:	dc5d      	bgt.n	7480 <__aeabi_fmul+0x150>
    73c4:	f112 0f19 	cmn.w	r2, #25
    73c8:	bfdc      	itt	le
    73ca:	f000 4000 	andle.w	r0, r0, #2147483648	; 0x80000000
    73ce:	4770      	bxle	lr
    73d0:	f1c2 0200 	rsb	r2, r2, #0
    73d4:	0041      	lsls	r1, r0, #1
    73d6:	fa21 f102 	lsr.w	r1, r1, r2
    73da:	f1c2 0220 	rsb	r2, r2, #32
    73de:	fa00 fc02 	lsl.w	r12, r0, r2
    73e2:	ea5f 0031 	movs.w	r0, r1, rrx
    73e6:	f140 0000 	adc.w	r0, r0, #0
    73ea:	ea53 034c 	orrs.w	r3, r3, r12, lsl #1
    73ee:	bf08      	it	eq
    73f0:	ea20 70dc 	biceq.w	r0, r0, r12, lsr #31
    73f4:	4770      	bx	lr
    73f6:	f092 0f00 	teq	r2, #0
    73fa:	f000 4c00 	and.w	r12, r0, #2147483648	; 0x80000000
    73fe:	bf02      	ittt	eq
    7400:	0040      	lsleq	r0, r0, #1
    7402:	f410 0f00 	tsteq.w	r0, #8388608	; 0x800000
    7406:	3a01      	subeq	r2, #1
    7408:	d0f9      	beq.n	73fe <__aeabi_fmul+0xce>
    740a:	ea40 000c 	orr.w	r0, r0, r12
    740e:	f093 0f00 	teq	r3, #0
    7412:	f001 4c00 	and.w	r12, r1, #2147483648	; 0x80000000
    7416:	bf02      	ittt	eq
    7418:	0049      	lsleq	r1, r1, #1
    741a:	f411 0f00 	tsteq.w	r1, #8388608	; 0x800000
    741e:	3b01      	subeq	r3, #1
    7420:	d0f9      	beq.n	7416 <__aeabi_fmul+0xe6>
    7422:	ea41 010c 	orr.w	r1, r1, r12
    7426:	e78f      	b.n	7348 <__aeabi_fmul+0x18>
    7428:	ea0c 53d1 	and.w	r3, r12, r1, lsr #23
    742c:	ea92 0f0c 	teq	r2, r12
    7430:	bf18      	it	ne
    7432:	ea93 0f0c 	teqne	r3, r12
    7436:	d00a      	beq.n	744e <__aeabi_fmul+0x11e>
    7438:	f030 4c00 	bics.w	r12, r0, #2147483648	; 0x80000000
    743c:	bf18      	it	ne
    743e:	f031 4c00 	bicsne.w	r12, r1, #2147483648	; 0x80000000
    7442:	d1d8      	bne.n	73f6 <__aeabi_fmul+0xc6>
    7444:	ea80 0001 	eor.w	r0, r0, r1
    7448:	f000 4000 	and.w	r0, r0, #2147483648	; 0x80000000
    744c:	4770      	bx	lr
    744e:	f090 0f00 	teq	r0, #0
    7452:	bf17      	itett	ne
    7454:	f090 4f00 	teqne	r0, #2147483648	; 0x80000000
    7458:	4608      	moveq	r0, r1
    745a:	f091 0f00 	teqne	r1, #0
    745e:	f091 4f00 	teqne	r1, #2147483648	; 0x80000000
    7462:	d014      	beq.n	748e <__aeabi_fmul+0x15e>
    7464:	ea92 0f0c 	teq	r2, r12
    7468:	d101      	bne.n	746e <__aeabi_fmul+0x13e>
    746a:	0242      	lsls	r2, r0, #9
    746c:	d10f      	bne.n	748e <__aeabi_fmul+0x15e>
    746e:	ea93 0f0c 	teq	r3, r12
    7472:	d103      	bne.n	747c <__aeabi_fmul+0x14c>
    7474:	024b      	lsls	r3, r1, #9
    7476:	bf18      	it	ne
    7478:	4608      	movne	r0, r1
    747a:	d108      	bne.n	748e <__aeabi_fmul+0x15e>
    747c:	ea80 0001 	eor.w	r0, r0, r1
    7480:	f000 4000 	and.w	r0, r0, #2147483648	; 0x80000000
    7484:	f040 40fe 	orr.w	r0, r0, #2130706432	; 0x7f000000
    7488:	f440 0000 	orr.w	r0, r0, #8388608	; 0x800000
    748c:	4770      	bx	lr
    748e:	f040 40fe 	orr.w	r0, r0, #2130706432	; 0x7f000000
    7492:	f440 0040 	orr.w	r0, r0, #12582912	; 0xc00000
    7496:	4770      	bx	lr

00007498 <__aeabi_fdiv>:
    7498:	f04f 0cff 	mov.w	r12, #255	; 0xff
    749c:	ea1c 52d0 	ands.w	r2, r12, r0, lsr #23
    74a0:	bf1e      	ittt	ne
    74a2:	ea1c 53d1 	andsne.w	r3, r12, r1, lsr #23
    74a6:	ea92 0f0c 	teqne	r2, r12
    74aa:	ea93 0f0c 	teqne	r3, r12
    74ae:	d069      	beq.n	7584 <__aeabi_fdiv+0xec>
    74b0:	eba2 0203 	sub.w	r2, r2, r3
    74b4:	ea80 0c01 	eor.w	r12, r0, r1
    74b8:	0249      	lsls	r1, r1, #9
    74ba:	ea4f 2040 	mov.w	r0, r0, lsl #9
    74be:	d037      	beq.n	7530 <__aeabi_fdiv+0x98>
    74c0:	f04f 5380 	mov.w	r3, #268435456	; 0x10000000
    74c4:	ea43 1111 	orr.w	r1, r3, r1, lsr #4
    74c8:	ea43 1310 	orr.w	r3, r3, r0, lsr #4
    74cc:	f00c 4000 	and.w	r0, r12, #2147483648	; 0x80000000
    74d0:	428b      	cmp	r3, r1
    74d2:	bf38      	it	cc
    74d4:	005b      	lslcc	r3, r3, #1
    74d6:	f142 027d 	adc.w	r2, r2, #125	; 0x7d
    74da:	f44f 0c00 	mov.w	r12, #8388608	; 0x800000
    74de:	428b      	cmp	r3, r1
    74e0:	bf24      	itt	cs
    74e2:	1a5b      	subcs	r3, r3, r1
    74e4:	ea40 000c 	orrcs.w	r0, r0, r12
    74e8:	ebb3 0f51 	cmp.w	r3, r1, lsr #1
    74ec:	bf24      	itt	cs
    74ee:	eba3 0351 	subcs.w	r3, r3, r1, lsr #1
    74f2:	ea40 005c 	orrcs.w	r0, r0, r12, lsr #1
    74f6:	ebb3 0f91 	cmp.w	r3, r1, lsr #2
    74fa:	bf24      	itt	cs
    74fc:	eba3 0391 	subcs.w	r3, r3, r1, lsr #2
    7500:	ea40 009c 	orrcs.w	r0, r0, r12, lsr #2
    7504:	ebb3 0fd1 	cmp.w	r3, r1, lsr #3
    7508:	bf24      	itt	cs
    750a:	eba3 03d1 	subcs.w	r3, r3, r1, lsr #3
    750e:	ea40 00dc 	orrcs.w	r0, r0, r12, lsr #3
    7512:	011b      	lsls	r3, r3, #4
    7514:	bf18      	it	ne
    7516:	ea5f 1c1c 	movsne.w	r12, r12, lsr #4
    751a:	d1e0      	bne.n	74de <__aeabi_fdiv+0x46>
    751c:	2afd      	cmp	r2, #253	; 0xfd
    751e:	f63f af50 	bhi.w	73c2 <__aeabi_fmul+0x92>
    7522:	428b      	cmp	r3, r1
    7524:	eb40 50c2 	adc.w	r0, r0, r2, lsl #23
    7528:	bf08      	it	eq
    752a:	f020 0001 	biceq.w	r0, r0, #1
    752e:	4770      	bx	lr
    7530:	f00c 4c00 	and.w	r12, r12, #2147483648	; 0x80000000
    7534:	ea4c 2050 	orr.w	r0, r12, r0, lsr #9
    7538:	327f      	adds	r2, #127	; 0x7f
    753a:	bfc2      	ittt	gt
    753c:	f1d2 03ff 	rsbsgt	r3, r2, #255	; 0xff
    7540:	ea40 50c2 	orrgt.w	r0, r0, r2, lsl #23
    7544:	4770      	bxgt	lr
    7546:	f440 0000 	orr.w	r0, r0, #8388608	; 0x800000
    754a:	f04f 0300 	mov.w	r3, #0
    754e:	3a01      	subs	r2, #1
    7550:	e737      	b.n	73c2 <__aeabi_fmul+0x92>
    7552:	f092 0f00 	teq	r2, #0
    7556:	f000 4c00 	and.w	r12, r0, #2147483648	; 0x80000000
    755a:	bf02      	ittt	eq
    755c:	0040      	lsleq	r0, r0, #1
    755e:	f410 0f00 	tsteq.w	r0, #8388608	; 0x800000
    7562:	3a01      	subeq	r2, #1
    7564:	d0f9      	beq.n	755a <__aeabi_fdiv+0xc2>
    7566:	ea40 000c 	orr.w	r0, r0, r12
    756a:	f093 0f00 	teq	r3, #0
    756e:	f001 4c00 	and.w	r12, r1, #2147483648	; 0x80000000
    7572:	bf02      	ittt	eq
    7574:	0049      	lsleq	r1, r1, #1
    7576:	f411 0f00 	tsteq.w	r1, #8388608	; 0x800000
    757a:	3b01      	subeq	r3, #1
    757c:	d0f9      	beq.n	7572 <__aeabi_fdiv+0xda>
    757e:	ea41 010c 	orr.w	r1, r1, r12
    7582:	e795      	b.n	74b0 <__aeabi_fdiv+0x18>
    7584:	ea0c 53d1 	and.w	r3, r12, r1, lsr #23
    7588:	ea92 0f0c 	teq	r2, r12
    758c:	d108      	bne.n	75a0 <__aeabi_fdiv+0x108>
    758e:	0242      	lsls	r2, r0, #9
    7590:	f47f af7d 	bne.w	748e <__aeabi_fmul+0x15e>
    7594:	ea93 0f0c 	teq	r3, r12
    7598:	f47f af70 	bne.w	747c <__aeabi_fmul+0x14c>
    759c:	4608      	mov	r0, r1
    759e:	e776      	b.n	748e <__aeabi_fmul+0x15e>
    75a0:	ea93 0f0c 	teq	r3, r12
    75a4:	d104      	bne.n	75b0 <__aeabi_fdiv+0x118>
    75a6:	024b      	lsls	r3, r1, #9
    75a8:	f43f af4c 	beq.w	7444 <__aeabi_fmul+0x114>
    75ac:	4608      	mov	r0, r1
    75ae:	e76e      	b.n	748e <__aeabi_fmul+0x15e>
    75b0:	f030 4c00 	bics.w	r12, r0, #2147483648	; 0x80000000
    75b4:	bf18      	it	ne
    75b6:	f031 4c00 	bicsne.w	r12, r1, #2147483648	; 0x80000000
    75ba:	d1ca      	bne.n	7552 <__aeabi_fdiv+0xba>
    75bc:	f030 4200 	bics.w	r2, r0, #2147483648	; 0x80000000
    75c0:	f47f af5c 	bne.w	747c <__aeabi_fmul+0x14c>
    75c4:	f031 4300 	bics.w	r3, r1, #2147483648	; 0x80000000
    75c8:	f47f af3c 	bne.w	7444 <__aeabi_fmul+0x114>
    75cc:	e75f      	b.n	748e <__aeabi_fmul+0x15e>
    75ce:	bf00      	nop

000075d0 <__gesf2>:
    75d0:	f04f 3cff 	mov.w	r12, #4294967295
    75d4:	e006      	b.n	75e4 <__cmpsf2+0x4>
    75d6:	bf00      	nop

000075d8 <__lesf2>:
    75d8:	f04f 0c01 	mov.w	r12, #1
    75dc:	e002      	b.n	75e4 <__cmpsf2+0x4>
    75de:	bf00      	nop

000075e0 <__cmpsf2>:
    75e0:	f04f 0c01 	mov.w	r12, #1
    75e4:	f84d cd04 	str.w	r12, [sp, #-4]!
    75e8:	ea4f 0240 	mov.w	r2, r0, lsl #1
    75ec:	ea4f 0341 	mov.w	r3, r1, lsl #1
    75f0:	ea7f 6c22 	mvns.w	r12, r2, asr #24
    75f4:	bf18      	it	ne
    75f6:	ea7f 6c23 	mvnsne.w	r12, r3, asr #24
    75fa:	d011      	beq.n	7620 <__cmpsf2+0x40>
    75fc:	b001      	add	sp, #4
    75fe:	ea52 0c53 	orrs.w	r12, r2, r3, lsr #1
    7602:	bf18      	it	ne
    7604:	ea90 0f01 	teqne	r0, r1
    7608:	bf58      	it	pl
    760a:	ebb2 0003 	subspl.w	r0, r2, r3
    760e:	bf88      	it	hi
    7610:	17c8      	asrhi	r0, r1, #31
    7612:	bf38      	it	cc
    7614:	ea6f 70e1 	mvncc.w	r0, r1, asr #31
    7618:	bf18      	it	ne
    761a:	f040 0001 	orrne.w	r0, r0, #1
    761e:	4770      	bx	lr
    7620:	ea7f 6c22 	mvns.w	r12, r2, asr #24
    7624:	d102      	bne.n	762c <__cmpsf2+0x4c>
    7626:	ea5f 2c40 	movs.w	r12, r0, lsl #9
    762a:	d105      	bne.n	7638 <__cmpsf2+0x58>
    762c:	ea7f 6c23 	mvns.w	r12, r3, asr #24
    7630:	d1e4      	bne.n	75fc <__cmpsf2+0x1c>
    7632:	ea5f 2c41 	movs.w	r12, r1, lsl #9
    7636:	d0e1      	beq.n	75fc <__cmpsf2+0x1c>
    7638:	f85d 0b04 	ldr.w	r0, [sp], #4
    763c:	4770      	bx	lr
    763e:	bf00      	nop

00007640 <__aeabi_cfrcmple>:
    7640:	4684      	mov	r12, r0
    7642:	4608      	mov	r0, r1
    7644:	4661      	mov	r1, r12
    7646:	e7ff      	b.n	7648 <__aeabi_cfcmpeq>

00007648 <__aeabi_cfcmpeq>:
    7648:	b50f      	push	{r0, r1, r2, r3, lr}
    764a:	f7ff ffc9 	bl	75e0 <__cmpsf2>
    764e:	2800      	cmp	r0, #0
    7650:	bf48      	it	mi
    7652:	f110 0f00 	cmnmi.w	r0, #0
    7656:	bd0f      	pop	{r0, r1, r2, r3, pc}

00007658 <__aeabi_fcmpeq>:
    7658:	f84d ed08 	str.w	lr, [sp, #-8]!
    765c:	f7ff fff4 	bl	7648 <__aeabi_cfcmpeq>
    7660:	bf0c      	ite	eq
    7662:	2001      	moveq	r0, #1
    7664:	2000      	movne	r0, #0
    7666:	f85d fb08 	ldr.w	pc, [sp], #8
    766a:	bf00      	nop

0000766c <__aeabi_fcmplt>:
    766c:	f84d ed08 	str.w	lr, [sp, #-8]!
    7670:	f7ff ffea 	bl	7648 <__aeabi_cfcmpeq>
    7674:	bf34      	ite	cc
    7676:	2001      	movcc	r0, #1
    7678:	2000      	movcs	r0, #0
    767a:	f85d fb08 	ldr.w	pc, [sp], #8
    767e:	bf00      	nop

00007680 <__aeabi_fcmple>:
    7680:	f84d ed08 	str.w	lr, [sp, #-8]!
    7684:	f7ff ffe0 	bl	7648 <__aeabi_cfcmpeq>
    7688:	bf94      	ite	ls
    768a:	2001      	movls	r0, #1
    768c:	2000      	movhi	r0, #0
    768e:	f85d fb08 	ldr.w	pc, [sp], #8
    7692:	bf00      	nop

00007694 <__aeabi_fcmpge>:
    7694:	f84d ed08 	str.w	lr, [sp, #-8]!
    7698:	f7ff ffd2 	bl	7640 <__aeabi_cfrcmple>
    769c:	bf94      	ite	ls
    769e:	2001      	movls	r0, #1
    76a0:	2000      	movhi	r0, #0
    76a2:	f85d fb08 	ldr.w	pc, [sp], #8
    76a6:	bf00      	nop

000076a8 <__aeabi_fcmpgt>:
    76a8:	f84d ed08 	str.w	lr, [sp, #-8]!
    76ac:	f7ff ffc8 	bl	7640 <__aeabi_cfrcmple>
    76b0:	bf34      	ite	cc
    76b2:	2001      	movcc	r0, #1
    76b4:	2000      	movcs	r0, #0
    76b6:	f85d fb08 	ldr.w	pc, [sp], #8
    76ba:	bf00      	nop

000076bc <__aeabi_f2iz>:
    76bc:	ea4f 0240 	mov.w	r2, r0, lsl #1
    76c0:	f1b2 4ffe 	cmp.w	r2, #2130706432	; 0x7f000000
    76c4:	d30f      	bcc.n	76e6 <__aeabi_f2iz+0x2a>
    76c6:	f04f 039e 	mov.w	r3, #158	; 0x9e
    76ca:	ebb3 6212 	subs.w	r2, r3, r2, lsr #24
    76ce:	d90d      	bls.n	76ec <__aeabi_f2iz+0x30>
    76d0:	ea4f 2300 	mov.w	r3, r0, lsl #8
    76d4:	f043 4300 	orr.w	r3, r3, #2147483648	; 0x80000000
    76d8:	f010 4f00 	tst.w	r0, #2147483648	; 0x80000000
    76dc:	fa23 f002 	lsr.w	r0, r3, r2
    76e0:	bf18      	it	ne
    76e2:	4240      	negne	r0, r0
    76e4:	4770      	bx	lr
    76e6:	f04f 0000 	mov.w	r0, #0
    76ea:	4770      	bx	lr
    76ec:	f112 0f61 	cmn.w	r2, #97	; 0x61
    76f0:	d101      	bne.n	76f6 <__aeabi_f2iz+0x3a>
    76f2:	0242      	lsls	r2, r0, #9
    76f4:	d105      	bne.n	7702 <__aeabi_f2iz+0x46>
    76f6:	f010 4000 	ands.w	r0, r0, #2147483648	; 0x80000000
    76fa:	bf08      	it	eq
    76fc:	f06f 4000 	mvneq.w	r0, #2147483648	; 0x80000000
    7700:	4770      	bx	lr
    7702:	f04f 0000 	mov.w	r0, #0
    7706:	4770      	bx	lr

00007708 <__aeabi_f2uiz>:
    7708:	0042      	lsls	r2, r0, #1
    770a:	d20e      	bcs.n	772a <__aeabi_f2uiz+0x22>
    770c:	f1b2 4ffe 	cmp.w	r2, #2130706432	; 0x7f000000
    7710:	d30b      	bcc.n	772a <__aeabi_f2uiz+0x22>
    7712:	f04f 039e 	mov.w	r3, #158	; 0x9e
    7716:	ebb3 6212 	subs.w	r2, r3, r2, lsr #24
    771a:	d409      	bmi.n	7730 <__aeabi_f2uiz+0x28>
    771c:	ea4f 2300 	mov.w	r3, r0, lsl #8
    7720:	f043 4300 	orr.w	r3, r3, #2147483648	; 0x80000000
    7724:	fa23 f002 	lsr.w	r0, r3, r2
    7728:	4770      	bx	lr
    772a:	f04f 0000 	mov.w	r0, #0
    772e:	4770      	bx	lr
    7730:	f112 0f61 	cmn.w	r2, #97	; 0x61
    7734:	d101      	bne.n	773a <__aeabi_f2uiz+0x32>
    7736:	0242      	lsls	r2, r0, #9
    7738:	d102      	bne.n	7740 <__aeabi_f2uiz+0x38>
    773a:	f04f 30ff 	mov.w	r0, #4294967295
    773e:	4770      	bx	lr
    7740:	f04f 0000 	mov.w	r0, #0
    7744:	4770      	bx	lr
    7746:	bf00      	nop

00007748 <__cxa_atexit>:
    7748:	b570      	push	{r4, r5, r6, lr}
    774a:	4c06      	ldr	r4, [pc, #24]	; (7764 <__cxa_atexit+0x1c>)
    774c:	4606      	mov	r6, r0
    774e:	460d      	mov	r5, r1
    7750:	4613      	mov	r3, r2
    7752:	b12c      	cbz	r4, 7760 <__cxa_atexit+0x18>
    7754:	4631      	mov	r1, r6
    7756:	462a      	mov	r2, r5
    7758:	2002      	movs	r0, #2
    775a:	f3af 8000 	nop.w
    775e:	bd70      	pop	{r4, r5, r6, pc}
    7760:	4620      	mov	r0, r4
    7762:	bd70      	pop	{r4, r5, r6, pc}
    7764:	00000000 	.word	0x00000000

00007768 <__errno>:
    7768:	4b01      	ldr	r3, [pc, #4]	; (7770 <__errno+0x8>)
    776a:	6818      	ldr	r0, [r3, #0]
    776c:	4770      	bx	lr
    776e:	bf00      	nop
    7770:	1000013c 	.word	0x1000013c

00007774 <_fclose_r>:
    7774:	b570      	push	{r4, r5, r6, lr}
    7776:	4605      	mov	r5, r0
    7778:	460c      	mov	r4, r1
    777a:	b909      	cbnz	r1, 7780 <_fclose_r+0xc>
    777c:	2000      	movs	r0, #0
    777e:	bd70      	pop	{r4, r5, r6, pc}
    7780:	b118      	cbz	r0, 778a <_fclose_r+0x16>
    7782:	6983      	ldr	r3, [r0, #24]
    7784:	b90b      	cbnz	r3, 778a <_fclose_r+0x16>
    7786:	f000 f997 	bl	7ab8 <__sinit>
    778a:	4b20      	ldr	r3, [pc, #128]	; (780c <_fclose_r+0x98>)
    778c:	429c      	cmp	r4, r3
    778e:	d101      	bne.n	7794 <_fclose_r+0x20>
    7790:	686c      	ldr	r4, [r5, #4]
    7792:	e008      	b.n	77a6 <_fclose_r+0x32>
    7794:	4b1e      	ldr	r3, [pc, #120]	; (7810 <_fclose_r+0x9c>)
    7796:	429c      	cmp	r4, r3
    7798:	d101      	bne.n	779e <_fclose_r+0x2a>
    779a:	68ac      	ldr	r4, [r5, #8]
    779c:	e003      	b.n	77a6 <_fclose_r+0x32>
    779e:	4b1d      	ldr	r3, [pc, #116]	; (7814 <_fclose_r+0xa0>)
    77a0:	429c      	cmp	r4, r3
    77a2:	bf08      	it	eq
    77a4:	68ec      	ldreq	r4, [r5, #12]
    77a6:	f9b4 300c 	ldrsh.w	r3, [r4, #12]
    77aa:	2b00      	cmp	r3, #0
    77ac:	d0e6      	beq.n	777c <_fclose_r+0x8>
    77ae:	4628      	mov	r0, r5
    77b0:	4621      	mov	r1, r4
    77b2:	f000 f8bd 	bl	7930 <_fflush_r>
    77b6:	6b23      	ldr	r3, [r4, #48]	; 0x30
    77b8:	4606      	mov	r6, r0
    77ba:	b133      	cbz	r3, 77ca <_fclose_r+0x56>
    77bc:	4628      	mov	r0, r5
    77be:	6a21      	ldr	r1, [r4, #32]
    77c0:	4798      	blx	r3
    77c2:	2800      	cmp	r0, #0
    77c4:	bfb8      	it	lt
    77c6:	f04f 36ff 	movlt.w	r6, #4294967295
    77ca:	89a3      	ldrh	r3, [r4, #12]
    77cc:	061b      	lsls	r3, r3, #24
    77ce:	d503      	bpl.n	77d8 <_fclose_r+0x64>
    77d0:	4628      	mov	r0, r5
    77d2:	6921      	ldr	r1, [r4, #16]
    77d4:	f000 fbc0 	bl	7f58 <_free_r>
    77d8:	6b61      	ldr	r1, [r4, #52]	; 0x34
    77da:	b141      	cbz	r1, 77ee <_fclose_r+0x7a>
    77dc:	f104 0344 	add.w	r3, r4, #68	; 0x44
    77e0:	4299      	cmp	r1, r3
    77e2:	d002      	beq.n	77ea <_fclose_r+0x76>
    77e4:	4628      	mov	r0, r5
    77e6:	f000 fbb7 	bl	7f58 <_free_r>
    77ea:	2300      	movs	r3, #0
    77ec:	6363      	str	r3, [r4, #52]	; 0x34
    77ee:	6ca1      	ldr	r1, [r4, #72]	; 0x48
    77f0:	b121      	cbz	r1, 77fc <_fclose_r+0x88>
    77f2:	4628      	mov	r0, r5
    77f4:	f000 fbb0 	bl	7f58 <_free_r>
    77f8:	2300      	movs	r3, #0
    77fa:	64a3      	str	r3, [r4, #72]	; 0x48
    77fc:	f000 f9c6 	bl	7b8c <__sfp_lock_acquire>
    7800:	2300      	movs	r3, #0
    7802:	81a3      	strh	r3, [r4, #12]
    7804:	f000 f9c3 	bl	7b8e <__sfp_lock_release>
    7808:	4630      	mov	r0, r6
    780a:	bd70      	pop	{r4, r5, r6, pc}
    780c:	0000de60 	.word	0x0000de60
    7810:	0000de80 	.word	0x0000de80
    7814:	0000dea0 	.word	0x0000dea0

00007818 <fclose>:
    7818:	4b02      	ldr	r3, [pc, #8]	; (7824 <fclose+0xc>)
    781a:	4601      	mov	r1, r0
    781c:	6818      	ldr	r0, [r3, #0]
    781e:	f7ff bfa9 	b.w	7774 <_fclose_r>
    7822:	bf00      	nop
    7824:	1000013c 	.word	0x1000013c

00007828 <__sflush_r>:
    7828:	898a      	ldrh	r2, [r1, #12]
    782a:	e92d 41f0 	stmdb	sp!, {r4, r5, r6, r7, r8, lr}
    782e:	4605      	mov	r5, r0
    7830:	0710      	lsls	r0, r2, #28
    7832:	460c      	mov	r4, r1
    7834:	d457      	bmi.n	78e6 <__sflush_r+0xbe>
    7836:	684b      	ldr	r3, [r1, #4]
    7838:	2b00      	cmp	r3, #0
    783a:	dc02      	bgt.n	7842 <__sflush_r+0x1a>
    783c:	6c0b      	ldr	r3, [r1, #64]	; 0x40
    783e:	2b00      	cmp	r3, #0
    7840:	dd18      	ble.n	7874 <__sflush_r+0x4c>
    7842:	6ae6      	ldr	r6, [r4, #44]	; 0x2c
    7844:	b1b6      	cbz	r6, 7874 <__sflush_r+0x4c>
    7846:	f402 5280 	and.w	r2, r2, #4096	; 0x1000
    784a:	2300      	movs	r3, #0
    784c:	b292      	uxth	r2, r2
    784e:	682f      	ldr	r7, [r5, #0]
    7850:	602b      	str	r3, [r5, #0]
    7852:	b10a      	cbz	r2, 7858 <__sflush_r+0x30>
    7854:	6d62      	ldr	r2, [r4, #84]	; 0x54
    7856:	e010      	b.n	787a <__sflush_r+0x52>
    7858:	6a21      	ldr	r1, [r4, #32]
    785a:	4628      	mov	r0, r5
    785c:	2301      	movs	r3, #1
    785e:	47b0      	blx	r6
    7860:	1c41      	adds	r1, r0, #1
    7862:	4602      	mov	r2, r0
    7864:	d109      	bne.n	787a <__sflush_r+0x52>
    7866:	682b      	ldr	r3, [r5, #0]
    7868:	b13b      	cbz	r3, 787a <__sflush_r+0x52>
    786a:	2b1d      	cmp	r3, #29
    786c:	d001      	beq.n	7872 <__sflush_r+0x4a>
    786e:	2b16      	cmp	r3, #22
    7870:	d146      	bne.n	7900 <__sflush_r+0xd8>
    7872:	602f      	str	r7, [r5, #0]
    7874:	2000      	movs	r0, #0
    7876:	e8bd 81f0 	ldmia.w	sp!, {r4, r5, r6, r7, r8, pc}
    787a:	89a3      	ldrh	r3, [r4, #12]
    787c:	075b      	lsls	r3, r3, #29
    787e:	d505      	bpl.n	788c <__sflush_r+0x64>
    7880:	6863      	ldr	r3, [r4, #4]
    7882:	1ad2      	subs	r2, r2, r3
    7884:	6b63      	ldr	r3, [r4, #52]	; 0x34
    7886:	b10b      	cbz	r3, 788c <__sflush_r+0x64>
    7888:	6c23      	ldr	r3, [r4, #64]	; 0x40
    788a:	1ad2      	subs	r2, r2, r3
    788c:	6ae6      	ldr	r6, [r4, #44]	; 0x2c
    788e:	4628      	mov	r0, r5
    7890:	6a21      	ldr	r1, [r4, #32]
    7892:	2300      	movs	r3, #0
    7894:	47b0      	blx	r6
    7896:	1c46      	adds	r6, r0, #1
    7898:	89a2      	ldrh	r2, [r4, #12]
    789a:	d105      	bne.n	78a8 <__sflush_r+0x80>
    789c:	682b      	ldr	r3, [r5, #0]
    789e:	b11b      	cbz	r3, 78a8 <__sflush_r+0x80>
    78a0:	2b1d      	cmp	r3, #29
    78a2:	d001      	beq.n	78a8 <__sflush_r+0x80>
    78a4:	2b16      	cmp	r3, #22
    78a6:	d119      	bne.n	78dc <__sflush_r+0xb4>
    78a8:	2300      	movs	r3, #0
    78aa:	6063      	str	r3, [r4, #4]
    78ac:	6923      	ldr	r3, [r4, #16]
    78ae:	04d1      	lsls	r1, r2, #19
    78b0:	6023      	str	r3, [r4, #0]
    78b2:	d504      	bpl.n	78be <__sflush_r+0x96>
    78b4:	1c42      	adds	r2, r0, #1
    78b6:	d101      	bne.n	78bc <__sflush_r+0x94>
    78b8:	682b      	ldr	r3, [r5, #0]
    78ba:	b903      	cbnz	r3, 78be <__sflush_r+0x96>
    78bc:	6560      	str	r0, [r4, #84]	; 0x54
    78be:	6b61      	ldr	r1, [r4, #52]	; 0x34
    78c0:	602f      	str	r7, [r5, #0]
    78c2:	2900      	cmp	r1, #0
    78c4:	d0d6      	beq.n	7874 <__sflush_r+0x4c>
    78c6:	f104 0344 	add.w	r3, r4, #68	; 0x44
    78ca:	4299      	cmp	r1, r3
    78cc:	d002      	beq.n	78d4 <__sflush_r+0xac>
    78ce:	4628      	mov	r0, r5
    78d0:	f000 fb42 	bl	7f58 <_free_r>
    78d4:	2000      	movs	r0, #0
    78d6:	6360      	str	r0, [r4, #52]	; 0x34
    78d8:	e8bd 81f0 	ldmia.w	sp!, {r4, r5, r6, r7, r8, pc}
    78dc:	f042 0240 	orr.w	r2, r2, #64	; 0x40
    78e0:	81a2      	strh	r2, [r4, #12]
    78e2:	e8bd 81f0 	ldmia.w	sp!, {r4, r5, r6, r7, r8, pc}
    78e6:	690e      	ldr	r6, [r1, #16]
    78e8:	2e00      	cmp	r6, #0
    78ea:	d0c3      	beq.n	7874 <__sflush_r+0x4c>
    78ec:	680b      	ldr	r3, [r1, #0]
    78ee:	600e      	str	r6, [r1, #0]
    78f0:	ebc6 0803 	rsb	r8, r6, r3
    78f4:	0793      	lsls	r3, r2, #30
    78f6:	bf0c      	ite	eq
    78f8:	694b      	ldreq	r3, [r1, #20]
    78fa:	2300      	movne	r3, #0
    78fc:	608b      	str	r3, [r1, #8]
    78fe:	e012      	b.n	7926 <__sflush_r+0xfe>
    7900:	89a3      	ldrh	r3, [r4, #12]
    7902:	f04f 30ff 	mov.w	r0, #4294967295
    7906:	f043 0340 	orr.w	r3, r3, #64	; 0x40
    790a:	81a3      	strh	r3, [r4, #12]
    790c:	e8bd 81f0 	ldmia.w	sp!, {r4, r5, r6, r7, r8, pc}
    7910:	6aa7      	ldr	r7, [r4, #40]	; 0x28
    7912:	4628      	mov	r0, r5
    7914:	6a21      	ldr	r1, [r4, #32]
    7916:	4632      	mov	r2, r6
    7918:	4643      	mov	r3, r8
    791a:	47b8      	blx	r7
    791c:	2800      	cmp	r0, #0
    791e:	ddef      	ble.n	7900 <__sflush_r+0xd8>
    7920:	4406      	add	r6, r0
    7922:	ebc0 0808 	rsb	r8, r0, r8
    7926:	f1b8 0f00 	cmp.w	r8, #0
    792a:	dcf1      	bgt.n	7910 <__sflush_r+0xe8>
    792c:	e7a2      	b.n	7874 <__sflush_r+0x4c>
	...

00007930 <_fflush_r>:
    7930:	b538      	push	{r3, r4, r5, lr}
    7932:	690b      	ldr	r3, [r1, #16]
    7934:	4605      	mov	r5, r0
    7936:	460c      	mov	r4, r1
    7938:	b1db      	cbz	r3, 7972 <_fflush_r+0x42>
    793a:	b118      	cbz	r0, 7944 <_fflush_r+0x14>
    793c:	6983      	ldr	r3, [r0, #24]
    793e:	b90b      	cbnz	r3, 7944 <_fflush_r+0x14>
    7940:	f000 f8ba 	bl	7ab8 <__sinit>
    7944:	4b0c      	ldr	r3, [pc, #48]	; (7978 <_fflush_r+0x48>)
    7946:	429c      	cmp	r4, r3
    7948:	d101      	bne.n	794e <_fflush_r+0x1e>
    794a:	686c      	ldr	r4, [r5, #4]
    794c:	e008      	b.n	7960 <_fflush_r+0x30>
    794e:	4b0b      	ldr	r3, [pc, #44]	; (797c <_fflush_r+0x4c>)
    7950:	429c      	cmp	r4, r3
    7952:	d101      	bne.n	7958 <_fflush_r+0x28>
    7954:	68ac      	ldr	r4, [r5, #8]
    7956:	e003      	b.n	7960 <_fflush_r+0x30>
    7958:	4b09      	ldr	r3, [pc, #36]	; (7980 <_fflush_r+0x50>)
    795a:	429c      	cmp	r4, r3
    795c:	bf08      	it	eq
    795e:	68ec      	ldreq	r4, [r5, #12]
    7960:	f9b4 300c 	ldrsh.w	r3, [r4, #12]
    7964:	b12b      	cbz	r3, 7972 <_fflush_r+0x42>
    7966:	4628      	mov	r0, r5
    7968:	4621      	mov	r1, r4
    796a:	e8bd 4038 	ldmia.w	sp!, {r3, r4, r5, lr}
    796e:	f7ff bf5b 	b.w	7828 <__sflush_r>
    7972:	2000      	movs	r0, #0
    7974:	bd38      	pop	{r3, r4, r5, pc}
    7976:	bf00      	nop
    7978:	0000de60 	.word	0x0000de60
    797c:	0000de80 	.word	0x0000de80
    7980:	0000dea0 	.word	0x0000dea0

00007984 <fflush>:
    7984:	4601      	mov	r1, r0
    7986:	b920      	cbnz	r0, 7992 <fflush+0xe>
    7988:	4b04      	ldr	r3, [pc, #16]	; (799c <fflush+0x18>)
    798a:	4905      	ldr	r1, [pc, #20]	; (79a0 <fflush+0x1c>)
    798c:	6818      	ldr	r0, [r3, #0]
    798e:	f000 ba23 	b.w	7dd8 <_fwalk_reent>
    7992:	4b04      	ldr	r3, [pc, #16]	; (79a4 <fflush+0x20>)
    7994:	6818      	ldr	r0, [r3, #0]
    7996:	f7ff bfcb 	b.w	7930 <_fflush_r>
    799a:	bf00      	nop
    799c:	0000dec4 	.word	0x0000dec4
    79a0:	00007931 	.word	0x00007931
    79a4:	1000013c 	.word	0x1000013c

000079a8 <_fgetc_r>:
    79a8:	b538      	push	{r3, r4, r5, lr}
    79aa:	460c      	mov	r4, r1
    79ac:	4605      	mov	r5, r0
    79ae:	b118      	cbz	r0, 79b8 <_fgetc_r+0x10>
    79b0:	6983      	ldr	r3, [r0, #24]
    79b2:	b90b      	cbnz	r3, 79b8 <_fgetc_r+0x10>
    79b4:	f000 f880 	bl	7ab8 <__sinit>
    79b8:	4b0e      	ldr	r3, [pc, #56]	; (79f4 <_fgetc_r+0x4c>)
    79ba:	429c      	cmp	r4, r3
    79bc:	d101      	bne.n	79c2 <_fgetc_r+0x1a>
    79be:	686c      	ldr	r4, [r5, #4]
    79c0:	e008      	b.n	79d4 <_fgetc_r+0x2c>
    79c2:	4b0d      	ldr	r3, [pc, #52]	; (79f8 <_fgetc_r+0x50>)
    79c4:	429c      	cmp	r4, r3
    79c6:	d101      	bne.n	79cc <_fgetc_r+0x24>
    79c8:	68ac      	ldr	r4, [r5, #8]
    79ca:	e003      	b.n	79d4 <_fgetc_r+0x2c>
    79cc:	4b0b      	ldr	r3, [pc, #44]	; (79fc <_fgetc_r+0x54>)
    79ce:	429c      	cmp	r4, r3
    79d0:	bf08      	it	eq
    79d2:	68ec      	ldreq	r4, [r5, #12]
    79d4:	6863      	ldr	r3, [r4, #4]
    79d6:	3b01      	subs	r3, #1
    79d8:	2b00      	cmp	r3, #0
    79da:	6063      	str	r3, [r4, #4]
    79dc:	da05      	bge.n	79ea <_fgetc_r+0x42>
    79de:	4628      	mov	r0, r5
    79e0:	4621      	mov	r1, r4
    79e2:	e8bd 4038 	ldmia.w	sp!, {r3, r4, r5, lr}
    79e6:	f000 bc2d 	b.w	8244 <__srget_r>
    79ea:	6823      	ldr	r3, [r4, #0]
    79ec:	1c5a      	adds	r2, r3, #1
    79ee:	6022      	str	r2, [r4, #0]
    79f0:	7818      	ldrb	r0, [r3, #0]
    79f2:	bd38      	pop	{r3, r4, r5, pc}
    79f4:	0000de60 	.word	0x0000de60
    79f8:	0000de80 	.word	0x0000de80
    79fc:	0000dea0 	.word	0x0000dea0

00007a00 <fgetc>:
    7a00:	4b02      	ldr	r3, [pc, #8]	; (7a0c <fgetc+0xc>)
    7a02:	4601      	mov	r1, r0
    7a04:	6818      	ldr	r0, [r3, #0]
    7a06:	f7ff bfcf 	b.w	79a8 <_fgetc_r>
    7a0a:	bf00      	nop
    7a0c:	1000013c 	.word	0x1000013c

00007a10 <_cleanup_r>:
    7a10:	b5f8      	push	{r3, r4, r5, r6, r7, lr}
    7a12:	4607      	mov	r7, r0
    7a14:	f100 0448 	add.w	r4, r0, #72	; 0x48
    7a18:	b194      	cbz	r4, 7a40 <_cleanup_r+0x30>
    7a1a:	68a5      	ldr	r5, [r4, #8]
    7a1c:	6866      	ldr	r6, [r4, #4]
    7a1e:	3e01      	subs	r6, #1
    7a20:	d40c      	bmi.n	7a3c <_cleanup_r+0x2c>
    7a22:	89ab      	ldrh	r3, [r5, #12]
    7a24:	2b01      	cmp	r3, #1
    7a26:	d907      	bls.n	7a38 <_cleanup_r+0x28>
    7a28:	f9b5 300e 	ldrsh.w	r3, [r5, #14]
    7a2c:	3301      	adds	r3, #1
    7a2e:	d003      	beq.n	7a38 <_cleanup_r+0x28>
    7a30:	4638      	mov	r0, r7
    7a32:	4629      	mov	r1, r5
    7a34:	f7ff ff7c 	bl	7930 <_fflush_r>
    7a38:	3568      	adds	r5, #104	; 0x68
    7a3a:	e7f0      	b.n	7a1e <_cleanup_r+0xe>
    7a3c:	6824      	ldr	r4, [r4, #0]
    7a3e:	e7eb      	b.n	7a18 <_cleanup_r+0x8>
    7a40:	bdf8      	pop	{r3, r4, r5, r6, r7, pc}
	...

00007a44 <std.isra.0>:
    7a44:	2300      	movs	r3, #0
    7a46:	b510      	push	{r4, lr}
    7a48:	4604      	mov	r4, r0
    7a4a:	6003      	str	r3, [r0, #0]
    7a4c:	6043      	str	r3, [r0, #4]
    7a4e:	6083      	str	r3, [r0, #8]
    7a50:	8181      	strh	r1, [r0, #12]
    7a52:	6643      	str	r3, [r0, #100]	; 0x64
    7a54:	81c2      	strh	r2, [r0, #14]
    7a56:	6103      	str	r3, [r0, #16]
    7a58:	6143      	str	r3, [r0, #20]
    7a5a:	6183      	str	r3, [r0, #24]
    7a5c:	4619      	mov	r1, r3
    7a5e:	305c      	adds	r0, #92	; 0x5c
    7a60:	2208      	movs	r2, #8
    7a62:	f000 fa70 	bl	7f46 <memset>
    7a66:	4b05      	ldr	r3, [pc, #20]	; (7a7c <std.isra.0+0x38>)
    7a68:	6224      	str	r4, [r4, #32]
    7a6a:	6263      	str	r3, [r4, #36]	; 0x24
    7a6c:	4b04      	ldr	r3, [pc, #16]	; (7a80 <std.isra.0+0x3c>)
    7a6e:	62a3      	str	r3, [r4, #40]	; 0x28
    7a70:	4b04      	ldr	r3, [pc, #16]	; (7a84 <std.isra.0+0x40>)
    7a72:	62e3      	str	r3, [r4, #44]	; 0x2c
    7a74:	4b04      	ldr	r3, [pc, #16]	; (7a88 <std.isra.0+0x44>)
    7a76:	6323      	str	r3, [r4, #48]	; 0x30
    7a78:	bd10      	pop	{r4, pc}
    7a7a:	bf00      	nop
    7a7c:	00008479 	.word	0x00008479
    7a80:	0000849f 	.word	0x0000849f
    7a84:	000084d7 	.word	0x000084d7
    7a88:	000084fb 	.word	0x000084fb

00007a8c <__sfmoreglue>:
    7a8c:	b570      	push	{r4, r5, r6, lr}
    7a8e:	1e4b      	subs	r3, r1, #1
    7a90:	2568      	movs	r5, #104	; 0x68
    7a92:	435d      	muls	r5, r3
    7a94:	460e      	mov	r6, r1
    7a96:	f105 0174 	add.w	r1, r5, #116	; 0x74
    7a9a:	f000 faa1 	bl	7fe0 <_malloc_r>
    7a9e:	4604      	mov	r4, r0
    7aa0:	b140      	cbz	r0, 7ab4 <__sfmoreglue+0x28>
    7aa2:	2100      	movs	r1, #0
    7aa4:	e880 0042 	stmia.w	r0, {r1, r6}
    7aa8:	300c      	adds	r0, #12
    7aaa:	60a0      	str	r0, [r4, #8]
    7aac:	f105 0268 	add.w	r2, r5, #104	; 0x68
    7ab0:	f000 fa49 	bl	7f46 <memset>
    7ab4:	4620      	mov	r0, r4
    7ab6:	bd70      	pop	{r4, r5, r6, pc}

00007ab8 <__sinit>:
    7ab8:	6983      	ldr	r3, [r0, #24]
    7aba:	b510      	push	{r4, lr}
    7abc:	4604      	mov	r4, r0
    7abe:	bb33      	cbnz	r3, 7b0e <__sinit+0x56>
    7ac0:	6483      	str	r3, [r0, #72]	; 0x48
    7ac2:	64c3      	str	r3, [r0, #76]	; 0x4c
    7ac4:	6503      	str	r3, [r0, #80]	; 0x50
    7ac6:	4b12      	ldr	r3, [pc, #72]	; (7b10 <__sinit+0x58>)
    7ac8:	4a12      	ldr	r2, [pc, #72]	; (7b14 <__sinit+0x5c>)
    7aca:	681b      	ldr	r3, [r3, #0]
    7acc:	6282      	str	r2, [r0, #40]	; 0x28
    7ace:	4298      	cmp	r0, r3
    7ad0:	bf04      	itt	eq
    7ad2:	2301      	moveq	r3, #1
    7ad4:	6183      	streq	r3, [r0, #24]
    7ad6:	f000 f81f 	bl	7b18 <__sfp>
    7ada:	6060      	str	r0, [r4, #4]
    7adc:	4620      	mov	r0, r4
    7ade:	f000 f81b 	bl	7b18 <__sfp>
    7ae2:	60a0      	str	r0, [r4, #8]
    7ae4:	4620      	mov	r0, r4
    7ae6:	f000 f817 	bl	7b18 <__sfp>
    7aea:	2104      	movs	r1, #4
    7aec:	60e0      	str	r0, [r4, #12]
    7aee:	2200      	movs	r2, #0
    7af0:	6860      	ldr	r0, [r4, #4]
    7af2:	f7ff ffa7 	bl	7a44 <std.isra.0>
    7af6:	68a0      	ldr	r0, [r4, #8]
    7af8:	2109      	movs	r1, #9
    7afa:	2201      	movs	r2, #1
    7afc:	f7ff ffa2 	bl	7a44 <std.isra.0>
    7b00:	68e0      	ldr	r0, [r4, #12]
    7b02:	2112      	movs	r1, #18
    7b04:	2202      	movs	r2, #2
    7b06:	f7ff ff9d 	bl	7a44 <std.isra.0>
    7b0a:	2301      	movs	r3, #1
    7b0c:	61a3      	str	r3, [r4, #24]
    7b0e:	bd10      	pop	{r4, pc}
    7b10:	0000dec4 	.word	0x0000dec4
    7b14:	00007a11 	.word	0x00007a11

00007b18 <__sfp>:
    7b18:	b5f8      	push	{r3, r4, r5, r6, r7, lr}
    7b1a:	4b1b      	ldr	r3, [pc, #108]	; (7b88 <__sfp+0x70>)
    7b1c:	4607      	mov	r7, r0
    7b1e:	681e      	ldr	r6, [r3, #0]
    7b20:	69b3      	ldr	r3, [r6, #24]
    7b22:	b913      	cbnz	r3, 7b2a <__sfp+0x12>
    7b24:	4630      	mov	r0, r6
    7b26:	f7ff ffc7 	bl	7ab8 <__sinit>
    7b2a:	3648      	adds	r6, #72	; 0x48
    7b2c:	68b4      	ldr	r4, [r6, #8]
    7b2e:	6873      	ldr	r3, [r6, #4]
    7b30:	3b01      	subs	r3, #1
    7b32:	d404      	bmi.n	7b3e <__sfp+0x26>
    7b34:	f9b4 500c 	ldrsh.w	r5, [r4, #12]
    7b38:	b175      	cbz	r5, 7b58 <__sfp+0x40>
    7b3a:	3468      	adds	r4, #104	; 0x68
    7b3c:	e7f8      	b.n	7b30 <__sfp+0x18>
    7b3e:	6833      	ldr	r3, [r6, #0]
    7b40:	b92b      	cbnz	r3, 7b4e <__sfp+0x36>
    7b42:	4638      	mov	r0, r7
    7b44:	2104      	movs	r1, #4
    7b46:	f7ff ffa1 	bl	7a8c <__sfmoreglue>
    7b4a:	6030      	str	r0, [r6, #0]
    7b4c:	b108      	cbz	r0, 7b52 <__sfp+0x3a>
    7b4e:	6836      	ldr	r6, [r6, #0]
    7b50:	e7ec      	b.n	7b2c <__sfp+0x14>
    7b52:	230c      	movs	r3, #12
    7b54:	603b      	str	r3, [r7, #0]
    7b56:	bdf8      	pop	{r3, r4, r5, r6, r7, pc}
    7b58:	f64f 73ff 	movw	r3, #65535	; 0xffff
    7b5c:	81e3      	strh	r3, [r4, #14]
    7b5e:	2301      	movs	r3, #1
    7b60:	81a3      	strh	r3, [r4, #12]
    7b62:	6665      	str	r5, [r4, #100]	; 0x64
    7b64:	6025      	str	r5, [r4, #0]
    7b66:	60a5      	str	r5, [r4, #8]
    7b68:	6065      	str	r5, [r4, #4]
    7b6a:	6125      	str	r5, [r4, #16]
    7b6c:	6165      	str	r5, [r4, #20]
    7b6e:	61a5      	str	r5, [r4, #24]
    7b70:	f104 005c 	add.w	r0, r4, #92	; 0x5c
    7b74:	4629      	mov	r1, r5
    7b76:	2208      	movs	r2, #8
    7b78:	f000 f9e5 	bl	7f46 <memset>
    7b7c:	6365      	str	r5, [r4, #52]	; 0x34
    7b7e:	63a5      	str	r5, [r4, #56]	; 0x38
    7b80:	64a5      	str	r5, [r4, #72]	; 0x48
    7b82:	64e5      	str	r5, [r4, #76]	; 0x4c
    7b84:	4620      	mov	r0, r4
    7b86:	bdf8      	pop	{r3, r4, r5, r6, r7, pc}
    7b88:	0000dec4 	.word	0x0000dec4

00007b8c <__sfp_lock_acquire>:
    7b8c:	4770      	bx	lr

00007b8e <__sfp_lock_release>:
    7b8e:	4770      	bx	lr

00007b90 <_fopen_r>:
    7b90:	b5f7      	push	{r0, r1, r2, r4, r5, r6, r7, lr}
    7b92:	460f      	mov	r7, r1
    7b94:	4611      	mov	r1, r2
    7b96:	aa01      	add	r2, sp, #4
    7b98:	4605      	mov	r5, r0
    7b9a:	f002 fff5 	bl	ab88 <__sflags>
    7b9e:	4606      	mov	r6, r0
    7ba0:	b908      	cbnz	r0, 7ba6 <_fopen_r+0x16>
    7ba2:	2000      	movs	r0, #0
    7ba4:	e029      	b.n	7bfa <_fopen_r+0x6a>
    7ba6:	4628      	mov	r0, r5
    7ba8:	f7ff ffb6 	bl	7b18 <__sfp>
    7bac:	4604      	mov	r4, r0
    7bae:	2800      	cmp	r0, #0
    7bb0:	d0f7      	beq.n	7ba2 <_fopen_r+0x12>
    7bb2:	4628      	mov	r0, r5
    7bb4:	4639      	mov	r1, r7
    7bb6:	9a01      	ldr	r2, [sp, #4]
    7bb8:	f44f 73db 	mov.w	r3, #438	; 0x1b6
    7bbc:	f000 fa64 	bl	8088 <_open_r>
    7bc0:	2800      	cmp	r0, #0
    7bc2:	da06      	bge.n	7bd2 <_fopen_r+0x42>
    7bc4:	2500      	movs	r5, #0
    7bc6:	f7ff ffe1 	bl	7b8c <__sfp_lock_acquire>
    7bca:	81a5      	strh	r5, [r4, #12]
    7bcc:	f7ff ffdf 	bl	7b8e <__sfp_lock_release>
    7bd0:	e7e7      	b.n	7ba2 <_fopen_r+0x12>
    7bd2:	4b0b      	ldr	r3, [pc, #44]	; (7c00 <_fopen_r+0x70>)
    7bd4:	81e0      	strh	r0, [r4, #14]
    7bd6:	6263      	str	r3, [r4, #36]	; 0x24
    7bd8:	4b0a      	ldr	r3, [pc, #40]	; (7c04 <_fopen_r+0x74>)
    7bda:	81a6      	strh	r6, [r4, #12]
    7bdc:	62a3      	str	r3, [r4, #40]	; 0x28
    7bde:	4b0a      	ldr	r3, [pc, #40]	; (7c08 <_fopen_r+0x78>)
    7be0:	6224      	str	r4, [r4, #32]
    7be2:	62e3      	str	r3, [r4, #44]	; 0x2c
    7be4:	4b09      	ldr	r3, [pc, #36]	; (7c0c <_fopen_r+0x7c>)
    7be6:	6323      	str	r3, [r4, #48]	; 0x30
    7be8:	05f3      	lsls	r3, r6, #23
    7bea:	d505      	bpl.n	7bf8 <_fopen_r+0x68>
    7bec:	4628      	mov	r0, r5
    7bee:	4621      	mov	r1, r4
    7bf0:	2200      	movs	r2, #0
    7bf2:	2302      	movs	r3, #2
    7bf4:	f000 f844 	bl	7c80 <_fseek_r>
    7bf8:	4620      	mov	r0, r4
    7bfa:	b003      	add	sp, #12
    7bfc:	bdf0      	pop	{r4, r5, r6, r7, pc}
    7bfe:	bf00      	nop
    7c00:	00008479 	.word	0x00008479
    7c04:	0000849f 	.word	0x0000849f
    7c08:	000084d7 	.word	0x000084d7
    7c0c:	000084fb 	.word	0x000084fb

00007c10 <fopen>:
    7c10:	460a      	mov	r2, r1
    7c12:	4903      	ldr	r1, [pc, #12]	; (7c20 <fopen+0x10>)
    7c14:	4603      	mov	r3, r0
    7c16:	6808      	ldr	r0, [r1, #0]
    7c18:	4619      	mov	r1, r3
    7c1a:	f7ff bfb9 	b.w	7b90 <_fopen_r>
    7c1e:	bf00      	nop
    7c20:	1000013c 	.word	0x1000013c

00007c24 <_fputc_r>:
    7c24:	b570      	push	{r4, r5, r6, lr}
    7c26:	460e      	mov	r6, r1
    7c28:	4614      	mov	r4, r2
    7c2a:	4605      	mov	r5, r0
    7c2c:	b118      	cbz	r0, 7c36 <_fputc_r+0x12>
    7c2e:	6983      	ldr	r3, [r0, #24]
    7c30:	b90b      	cbnz	r3, 7c36 <_fputc_r+0x12>
    7c32:	f7ff ff41 	bl	7ab8 <__sinit>
    7c36:	4b0a      	ldr	r3, [pc, #40]	; (7c60 <_fputc_r+0x3c>)
    7c38:	429c      	cmp	r4, r3
    7c3a:	bf08      	it	eq
    7c3c:	686c      	ldreq	r4, [r5, #4]
    7c3e:	d008      	beq.n	7c52 <_fputc_r+0x2e>
    7c40:	4b08      	ldr	r3, [pc, #32]	; (7c64 <_fputc_r+0x40>)
    7c42:	429c      	cmp	r4, r3
    7c44:	bf08      	it	eq
    7c46:	68ac      	ldreq	r4, [r5, #8]
    7c48:	d003      	beq.n	7c52 <_fputc_r+0x2e>
    7c4a:	4b07      	ldr	r3, [pc, #28]	; (7c68 <_fputc_r+0x44>)
    7c4c:	429c      	cmp	r4, r3
    7c4e:	bf08      	it	eq
    7c50:	68ec      	ldreq	r4, [r5, #12]
    7c52:	4628      	mov	r0, r5
    7c54:	4631      	mov	r1, r6
    7c56:	4622      	mov	r2, r4
    7c58:	e8bd 4070 	ldmia.w	sp!, {r4, r5, r6, lr}
    7c5c:	f000 ba26 	b.w	80ac <_putc_r>
    7c60:	0000de60 	.word	0x0000de60
    7c64:	0000de80 	.word	0x0000de80
    7c68:	0000dea0 	.word	0x0000dea0

00007c6c <fputc>:
    7c6c:	460a      	mov	r2, r1
    7c6e:	4903      	ldr	r1, [pc, #12]	; (7c7c <fputc+0x10>)
    7c70:	4603      	mov	r3, r0
    7c72:	6808      	ldr	r0, [r1, #0]
    7c74:	4619      	mov	r1, r3
    7c76:	f7ff bfd5 	b.w	7c24 <_fputc_r>
    7c7a:	bf00      	nop
    7c7c:	1000013c 	.word	0x1000013c

00007c80 <_fseek_r>:
    7c80:	f000 b800 	b.w	7c84 <_fseeko_r>

00007c84 <_fseeko_r>:
    7c84:	e92d 43f8 	stmdb	sp!, {r3, r4, r5, r6, r7, r8, r9, lr}
    7c88:	460c      	mov	r4, r1
    7c8a:	4691      	mov	r9, r2
    7c8c:	461e      	mov	r6, r3
    7c8e:	4605      	mov	r5, r0
    7c90:	b118      	cbz	r0, 7c9a <_fseeko_r+0x16>
    7c92:	6983      	ldr	r3, [r0, #24]
    7c94:	b90b      	cbnz	r3, 7c9a <_fseeko_r+0x16>
    7c96:	f7ff ff0f 	bl	7ab8 <__sinit>
    7c9a:	4b3e      	ldr	r3, [pc, #248]	; (7d94 <_fseeko_r+0x110>)
    7c9c:	429c      	cmp	r4, r3
    7c9e:	d101      	bne.n	7ca4 <_fseeko_r+0x20>
    7ca0:	686c      	ldr	r4, [r5, #4]
    7ca2:	e008      	b.n	7cb6 <_fseeko_r+0x32>
    7ca4:	4b3c      	ldr	r3, [pc, #240]	; (7d98 <_fseeko_r+0x114>)
    7ca6:	429c      	cmp	r4, r3
    7ca8:	d101      	bne.n	7cae <_fseeko_r+0x2a>
    7caa:	68ac      	ldr	r4, [r5, #8]
    7cac:	e003      	b.n	7cb6 <_fseeko_r+0x32>
    7cae:	4b3b      	ldr	r3, [pc, #236]	; (7d9c <_fseeko_r+0x118>)
    7cb0:	429c      	cmp	r4, r3
    7cb2:	bf08      	it	eq
    7cb4:	68ec      	ldreq	r4, [r5, #12]
    7cb6:	89a3      	ldrh	r3, [r4, #12]
    7cb8:	f403 7384 	and.w	r3, r3, #264	; 0x108
    7cbc:	f5b3 7f84 	cmp.w	r3, #264	; 0x108
    7cc0:	d103      	bne.n	7cca <_fseeko_r+0x46>
    7cc2:	4628      	mov	r0, r5
    7cc4:	4621      	mov	r1, r4
    7cc6:	f7ff fe33 	bl	7930 <_fflush_r>
    7cca:	f8d4 802c 	ldr.w	r8, [r4, #44]	; 0x2c
    7cce:	231d      	movs	r3, #29
    7cd0:	f1b8 0f00 	cmp.w	r8, #0
    7cd4:	d02b      	beq.n	7d2e <_fseeko_r+0xaa>
    7cd6:	2e01      	cmp	r6, #1
    7cd8:	d004      	beq.n	7ce4 <_fseeko_r+0x60>
    7cda:	2e02      	cmp	r6, #2
    7cdc:	d02b      	beq.n	7d36 <_fseeko_r+0xb2>
    7cde:	b356      	cbz	r6, 7d36 <_fseeko_r+0xb2>
    7ce0:	2316      	movs	r3, #22
    7ce2:	e024      	b.n	7d2e <_fseeko_r+0xaa>
    7ce4:	4628      	mov	r0, r5
    7ce6:	4621      	mov	r1, r4
    7ce8:	f7ff fe22 	bl	7930 <_fflush_r>
    7cec:	89a2      	ldrh	r2, [r4, #12]
    7cee:	f402 5280 	and.w	r2, r2, #4096	; 0x1000
    7cf2:	b292      	uxth	r2, r2
    7cf4:	b10a      	cbz	r2, 7cfa <_fseeko_r+0x76>
    7cf6:	6d60      	ldr	r0, [r4, #84]	; 0x54
    7cf8:	e005      	b.n	7d06 <_fseeko_r+0x82>
    7cfa:	6a21      	ldr	r1, [r4, #32]
    7cfc:	4628      	mov	r0, r5
    7cfe:	4633      	mov	r3, r6
    7d00:	47c0      	blx	r8
    7d02:	1c41      	adds	r1, r0, #1
    7d04:	d014      	beq.n	7d30 <_fseeko_r+0xac>
    7d06:	89a3      	ldrh	r3, [r4, #12]
    7d08:	075a      	lsls	r2, r3, #29
    7d0a:	d506      	bpl.n	7d1a <_fseeko_r+0x96>
    7d0c:	6863      	ldr	r3, [r4, #4]
    7d0e:	1ac0      	subs	r0, r0, r3
    7d10:	6b63      	ldr	r3, [r4, #52]	; 0x34
    7d12:	b14b      	cbz	r3, 7d28 <_fseeko_r+0xa4>
    7d14:	6c23      	ldr	r3, [r4, #64]	; 0x40
    7d16:	1ac0      	subs	r0, r0, r3
    7d18:	e006      	b.n	7d28 <_fseeko_r+0xa4>
    7d1a:	071b      	lsls	r3, r3, #28
    7d1c:	d504      	bpl.n	7d28 <_fseeko_r+0xa4>
    7d1e:	6823      	ldr	r3, [r4, #0]
    7d20:	b113      	cbz	r3, 7d28 <_fseeko_r+0xa4>
    7d22:	6922      	ldr	r2, [r4, #16]
    7d24:	1a9b      	subs	r3, r3, r2
    7d26:	4418      	add	r0, r3
    7d28:	4481      	add	r9, r0
    7d2a:	2600      	movs	r6, #0
    7d2c:	e003      	b.n	7d36 <_fseeko_r+0xb2>
    7d2e:	602b      	str	r3, [r5, #0]
    7d30:	f04f 37ff 	mov.w	r7, #4294967295
    7d34:	e02b      	b.n	7d8e <_fseeko_r+0x10a>
    7d36:	6923      	ldr	r3, [r4, #16]
    7d38:	b91b      	cbnz	r3, 7d42 <_fseeko_r+0xbe>
    7d3a:	4628      	mov	r0, r5
    7d3c:	4621      	mov	r1, r4
    7d3e:	f000 f88f 	bl	7e60 <__smakebuf_r>
    7d42:	4628      	mov	r0, r5
    7d44:	4621      	mov	r1, r4
    7d46:	f7ff fdf3 	bl	7930 <_fflush_r>
    7d4a:	4607      	mov	r7, r0
    7d4c:	2800      	cmp	r0, #0
    7d4e:	d1ef      	bne.n	7d30 <_fseeko_r+0xac>
    7d50:	4628      	mov	r0, r5
    7d52:	6a21      	ldr	r1, [r4, #32]
    7d54:	464a      	mov	r2, r9
    7d56:	4633      	mov	r3, r6
    7d58:	47c0      	blx	r8
    7d5a:	3001      	adds	r0, #1
    7d5c:	d0e8      	beq.n	7d30 <_fseeko_r+0xac>
    7d5e:	6b61      	ldr	r1, [r4, #52]	; 0x34
    7d60:	b141      	cbz	r1, 7d74 <_fseeko_r+0xf0>
    7d62:	f104 0344 	add.w	r3, r4, #68	; 0x44
    7d66:	4299      	cmp	r1, r3
    7d68:	d002      	beq.n	7d70 <_fseeko_r+0xec>
    7d6a:	4628      	mov	r0, r5
    7d6c:	f000 f8f4 	bl	7f58 <_free_r>
    7d70:	2300      	movs	r3, #0
    7d72:	6363      	str	r3, [r4, #52]	; 0x34
    7d74:	6923      	ldr	r3, [r4, #16]
    7d76:	2100      	movs	r1, #0
    7d78:	6023      	str	r3, [r4, #0]
    7d7a:	89a3      	ldrh	r3, [r4, #12]
    7d7c:	6061      	str	r1, [r4, #4]
    7d7e:	f423 6302 	bic.w	r3, r3, #2080	; 0x820
    7d82:	81a3      	strh	r3, [r4, #12]
    7d84:	f104 005c 	add.w	r0, r4, #92	; 0x5c
    7d88:	2208      	movs	r2, #8
    7d8a:	f000 f8dc 	bl	7f46 <memset>
    7d8e:	4638      	mov	r0, r7
    7d90:	e8bd 83f8 	ldmia.w	sp!, {r3, r4, r5, r6, r7, r8, r9, pc}
    7d94:	0000de60 	.word	0x0000de60
    7d98:	0000de80 	.word	0x0000de80
    7d9c:	0000dea0 	.word	0x0000dea0

00007da0 <_fwalk>:
    7da0:	e92d 41f0 	stmdb	sp!, {r4, r5, r6, r7, r8, lr}
    7da4:	4688      	mov	r8, r1
    7da6:	f100 0448 	add.w	r4, r0, #72	; 0x48
    7daa:	2600      	movs	r6, #0
    7dac:	b18c      	cbz	r4, 7dd2 <_fwalk+0x32>
    7dae:	68a5      	ldr	r5, [r4, #8]
    7db0:	6867      	ldr	r7, [r4, #4]
    7db2:	3f01      	subs	r7, #1
    7db4:	d40b      	bmi.n	7dce <_fwalk+0x2e>
    7db6:	89ab      	ldrh	r3, [r5, #12]
    7db8:	2b01      	cmp	r3, #1
    7dba:	d906      	bls.n	7dca <_fwalk+0x2a>
    7dbc:	f9b5 300e 	ldrsh.w	r3, [r5, #14]
    7dc0:	3301      	adds	r3, #1
    7dc2:	d002      	beq.n	7dca <_fwalk+0x2a>
    7dc4:	4628      	mov	r0, r5
    7dc6:	47c0      	blx	r8
    7dc8:	4306      	orrs	r6, r0
    7dca:	3568      	adds	r5, #104	; 0x68
    7dcc:	e7f1      	b.n	7db2 <_fwalk+0x12>
    7dce:	6824      	ldr	r4, [r4, #0]
    7dd0:	e7ec      	b.n	7dac <_fwalk+0xc>
    7dd2:	4630      	mov	r0, r6
    7dd4:	e8bd 81f0 	ldmia.w	sp!, {r4, r5, r6, r7, r8, pc}

00007dd8 <_fwalk_reent>:
    7dd8:	e92d 43f8 	stmdb	sp!, {r3, r4, r5, r6, r7, r8, r9, lr}
    7ddc:	4680      	mov	r8, r0
    7dde:	4689      	mov	r9, r1
    7de0:	f100 0448 	add.w	r4, r0, #72	; 0x48
    7de4:	2600      	movs	r6, #0
    7de6:	b194      	cbz	r4, 7e0e <_fwalk_reent+0x36>
    7de8:	68a5      	ldr	r5, [r4, #8]
    7dea:	6867      	ldr	r7, [r4, #4]
    7dec:	3f01      	subs	r7, #1
    7dee:	d40c      	bmi.n	7e0a <_fwalk_reent+0x32>
    7df0:	89ab      	ldrh	r3, [r5, #12]
    7df2:	2b01      	cmp	r3, #1
    7df4:	d907      	bls.n	7e06 <_fwalk_reent+0x2e>
    7df6:	f9b5 300e 	ldrsh.w	r3, [r5, #14]
    7dfa:	3301      	adds	r3, #1
    7dfc:	d003      	beq.n	7e06 <_fwalk_reent+0x2e>
    7dfe:	4640      	mov	r0, r8
    7e00:	4629      	mov	r1, r5
    7e02:	47c8      	blx	r9
    7e04:	4306      	orrs	r6, r0
    7e06:	3568      	adds	r5, #104	; 0x68
    7e08:	e7f0      	b.n	7dec <_fwalk_reent+0x14>
    7e0a:	6824      	ldr	r4, [r4, #0]
    7e0c:	e7eb      	b.n	7de6 <_fwalk_reent+0xe>
    7e0e:	4630      	mov	r0, r6
    7e10:	e8bd 83f8 	ldmia.w	sp!, {r3, r4, r5, r6, r7, r8, r9, pc}

00007e14 <__libc_init_array>:
    7e14:	b570      	push	{r4, r5, r6, lr}
    7e16:	4b0e      	ldr	r3, [pc, #56]	; (7e50 <__libc_init_array+0x3c>)
    7e18:	4d0e      	ldr	r5, [pc, #56]	; (7e54 <__libc_init_array+0x40>)
    7e1a:	2400      	movs	r4, #0
    7e1c:	1aed      	subs	r5, r5, r3
    7e1e:	10ad      	asrs	r5, r5, #2
    7e20:	461e      	mov	r6, r3
    7e22:	42ac      	cmp	r4, r5
    7e24:	d004      	beq.n	7e30 <__libc_init_array+0x1c>
    7e26:	f856 2024 	ldr.w	r2, [r6, r4, lsl #2]
    7e2a:	4790      	blx	r2
    7e2c:	3401      	adds	r4, #1
    7e2e:	e7f8      	b.n	7e22 <__libc_init_array+0xe>
    7e30:	f004 feea 	bl	cc08 <_init>
    7e34:	4d08      	ldr	r5, [pc, #32]	; (7e58 <__libc_init_array+0x44>)
    7e36:	4b09      	ldr	r3, [pc, #36]	; (7e5c <__libc_init_array+0x48>)
    7e38:	2400      	movs	r4, #0
    7e3a:	1aed      	subs	r5, r5, r3
    7e3c:	10ad      	asrs	r5, r5, #2
    7e3e:	461e      	mov	r6, r3
    7e40:	42ac      	cmp	r4, r5
    7e42:	d004      	beq.n	7e4e <__libc_init_array+0x3a>
    7e44:	f856 2024 	ldr.w	r2, [r6, r4, lsl #2]
    7e48:	4790      	blx	r2
    7e4a:	3401      	adds	r4, #1
    7e4c:	e7f8      	b.n	7e40 <__libc_init_array+0x2c>
    7e4e:	bd70      	pop	{r4, r5, r6, pc}
    7e50:	1000017c 	.word	0x1000017c
    7e54:	1000017c 	.word	0x1000017c
    7e58:	10000184 	.word	0x10000184
    7e5c:	1000017c 	.word	0x1000017c

00007e60 <__smakebuf_r>:
    7e60:	b5f0      	push	{r4, r5, r6, r7, lr}
    7e62:	898b      	ldrh	r3, [r1, #12]
    7e64:	b091      	sub	sp, #68	; 0x44
    7e66:	079e      	lsls	r6, r3, #30
    7e68:	4605      	mov	r5, r0
    7e6a:	460c      	mov	r4, r1
    7e6c:	d425      	bmi.n	7eba <__smakebuf_r+0x5a>
    7e6e:	f9b1 100e 	ldrsh.w	r1, [r1, #14]
    7e72:	2900      	cmp	r1, #0
    7e74:	da08      	bge.n	7e88 <__smakebuf_r+0x28>
    7e76:	89a3      	ldrh	r3, [r4, #12]
    7e78:	2700      	movs	r7, #0
    7e7a:	f013 0f80 	tst.w	r3, #128	; 0x80
    7e7e:	bf14      	ite	ne
    7e80:	2640      	movne	r6, #64	; 0x40
    7e82:	f44f 6680 	moveq.w	r6, #1024	; 0x400
    7e86:	e00d      	b.n	7ea4 <__smakebuf_r+0x44>
    7e88:	aa01      	add	r2, sp, #4
    7e8a:	f002 feb5 	bl	abf8 <_fstat_r>
    7e8e:	2800      	cmp	r0, #0
    7e90:	dbf1      	blt.n	7e76 <__smakebuf_r+0x16>
    7e92:	9f02      	ldr	r7, [sp, #8]
    7e94:	f44f 6680 	mov.w	r6, #1024	; 0x400
    7e98:	f407 4770 	and.w	r7, r7, #61440	; 0xf000
    7e9c:	f5b7 5100 	subs.w	r1, r7, #8192	; 0x2000
    7ea0:	424f      	negs	r7, r1
    7ea2:	414f      	adcs	r7, r1
    7ea4:	4628      	mov	r0, r5
    7ea6:	4631      	mov	r1, r6
    7ea8:	f000 f89a 	bl	7fe0 <_malloc_r>
    7eac:	b960      	cbnz	r0, 7ec8 <__smakebuf_r+0x68>
    7eae:	89a3      	ldrh	r3, [r4, #12]
    7eb0:	059a      	lsls	r2, r3, #22
    7eb2:	d41d      	bmi.n	7ef0 <__smakebuf_r+0x90>
    7eb4:	f043 0302 	orr.w	r3, r3, #2
    7eb8:	81a3      	strh	r3, [r4, #12]
    7eba:	f104 0347 	add.w	r3, r4, #71	; 0x47
    7ebe:	6023      	str	r3, [r4, #0]
    7ec0:	6123      	str	r3, [r4, #16]
    7ec2:	2301      	movs	r3, #1
    7ec4:	6163      	str	r3, [r4, #20]
    7ec6:	e013      	b.n	7ef0 <__smakebuf_r+0x90>
    7ec8:	4b0a      	ldr	r3, [pc, #40]	; (7ef4 <__smakebuf_r+0x94>)
    7eca:	62ab      	str	r3, [r5, #40]	; 0x28
    7ecc:	89a3      	ldrh	r3, [r4, #12]
    7ece:	6020      	str	r0, [r4, #0]
    7ed0:	f043 0380 	orr.w	r3, r3, #128	; 0x80
    7ed4:	81a3      	strh	r3, [r4, #12]
    7ed6:	6120      	str	r0, [r4, #16]
    7ed8:	6166      	str	r6, [r4, #20]
    7eda:	b14f      	cbz	r7, 7ef0 <__smakebuf_r+0x90>
    7edc:	4628      	mov	r0, r5
    7ede:	f9b4 100e 	ldrsh.w	r1, [r4, #14]
    7ee2:	f002 fe9b 	bl	ac1c <_isatty_r>
    7ee6:	b118      	cbz	r0, 7ef0 <__smakebuf_r+0x90>
    7ee8:	89a3      	ldrh	r3, [r4, #12]
    7eea:	f043 0301 	orr.w	r3, r3, #1
    7eee:	81a3      	strh	r3, [r4, #12]
    7ef0:	b011      	add	sp, #68	; 0x44
    7ef2:	bdf0      	pop	{r4, r5, r6, r7, pc}
    7ef4:	00007a11 	.word	0x00007a11

00007ef8 <malloc>:
    7ef8:	4b02      	ldr	r3, [pc, #8]	; (7f04 <malloc+0xc>)
    7efa:	4601      	mov	r1, r0
    7efc:	6818      	ldr	r0, [r3, #0]
    7efe:	f000 b86f 	b.w	7fe0 <_malloc_r>
    7f02:	bf00      	nop
    7f04:	1000013c 	.word	0x1000013c

00007f08 <free>:
    7f08:	4b02      	ldr	r3, [pc, #8]	; (7f14 <free+0xc>)
    7f0a:	4601      	mov	r1, r0
    7f0c:	6818      	ldr	r0, [r3, #0]
    7f0e:	f000 b823 	b.w	7f58 <_free_r>
    7f12:	bf00      	nop
    7f14:	1000013c 	.word	0x1000013c

00007f18 <memchr>:
    7f18:	b510      	push	{r4, lr}
    7f1a:	b2c9      	uxtb	r1, r1
    7f1c:	4402      	add	r2, r0
    7f1e:	4290      	cmp	r0, r2
    7f20:	4603      	mov	r3, r0
    7f22:	d005      	beq.n	7f30 <memchr+0x18>
    7f24:	781c      	ldrb	r4, [r3, #0]
    7f26:	3001      	adds	r0, #1
    7f28:	428c      	cmp	r4, r1
    7f2a:	d1f8      	bne.n	7f1e <memchr+0x6>
    7f2c:	4618      	mov	r0, r3
    7f2e:	bd10      	pop	{r4, pc}
    7f30:	2000      	movs	r0, #0
    7f32:	bd10      	pop	{r4, pc}

00007f34 <memcpy>:
    7f34:	b510      	push	{r4, lr}
    7f36:	2300      	movs	r3, #0
    7f38:	4293      	cmp	r3, r2
    7f3a:	d003      	beq.n	7f44 <memcpy+0x10>
    7f3c:	5ccc      	ldrb	r4, [r1, r3]
    7f3e:	54c4      	strb	r4, [r0, r3]
    7f40:	3301      	adds	r3, #1
    7f42:	e7f9      	b.n	7f38 <memcpy+0x4>
    7f44:	bd10      	pop	{r4, pc}

00007f46 <memset>:
    7f46:	4402      	add	r2, r0
    7f48:	4603      	mov	r3, r0
    7f4a:	4293      	cmp	r3, r2
    7f4c:	d002      	beq.n	7f54 <memset+0xe>
    7f4e:	f803 1b01 	strb.w	r1, [r3], #1
    7f52:	e7fa      	b.n	7f4a <memset+0x4>
    7f54:	4770      	bx	lr
	...

00007f58 <_free_r>:
    7f58:	b530      	push	{r4, r5, lr}
    7f5a:	2900      	cmp	r1, #0
    7f5c:	d03c      	beq.n	7fd8 <_free_r+0x80>
    7f5e:	f851 2c04 	ldr.w	r2, [r1, #-4]
    7f62:	1f0b      	subs	r3, r1, #4
    7f64:	491d      	ldr	r1, [pc, #116]	; (7fdc <_free_r+0x84>)
    7f66:	2a00      	cmp	r2, #0
    7f68:	bfb8      	it	lt
    7f6a:	189b      	addlt	r3, r3, r2
    7f6c:	680a      	ldr	r2, [r1, #0]
    7f6e:	460c      	mov	r4, r1
    7f70:	b912      	cbnz	r2, 7f78 <_free_r+0x20>
    7f72:	605a      	str	r2, [r3, #4]
    7f74:	600b      	str	r3, [r1, #0]
    7f76:	bd30      	pop	{r4, r5, pc}
    7f78:	4293      	cmp	r3, r2
    7f7a:	d20d      	bcs.n	7f98 <_free_r+0x40>
    7f7c:	6819      	ldr	r1, [r3, #0]
    7f7e:	1858      	adds	r0, r3, r1
    7f80:	4290      	cmp	r0, r2
    7f82:	d103      	bne.n	7f8c <_free_r+0x34>
    7f84:	585a      	ldr	r2, [r3, r1]
    7f86:	4411      	add	r1, r2
    7f88:	6842      	ldr	r2, [r0, #4]
    7f8a:	6019      	str	r1, [r3, #0]
    7f8c:	605a      	str	r2, [r3, #4]
    7f8e:	6023      	str	r3, [r4, #0]
    7f90:	bd30      	pop	{r4, r5, pc}
    7f92:	4299      	cmp	r1, r3
    7f94:	d803      	bhi.n	7f9e <_free_r+0x46>
    7f96:	460a      	mov	r2, r1
    7f98:	6851      	ldr	r1, [r2, #4]
    7f9a:	2900      	cmp	r1, #0
    7f9c:	d1f9      	bne.n	7f92 <_free_r+0x3a>
    7f9e:	6814      	ldr	r4, [r2, #0]
    7fa0:	1915      	adds	r5, r2, r4
    7fa2:	429d      	cmp	r5, r3
    7fa4:	d10a      	bne.n	7fbc <_free_r+0x64>
    7fa6:	681b      	ldr	r3, [r3, #0]
    7fa8:	4423      	add	r3, r4
    7faa:	18d0      	adds	r0, r2, r3
    7fac:	4288      	cmp	r0, r1
    7fae:	6013      	str	r3, [r2, #0]
    7fb0:	d112      	bne.n	7fd8 <_free_r+0x80>
    7fb2:	6808      	ldr	r0, [r1, #0]
    7fb4:	4403      	add	r3, r0
    7fb6:	6013      	str	r3, [r2, #0]
    7fb8:	684b      	ldr	r3, [r1, #4]
    7fba:	e00c      	b.n	7fd6 <_free_r+0x7e>
    7fbc:	d902      	bls.n	7fc4 <_free_r+0x6c>
    7fbe:	230c      	movs	r3, #12
    7fc0:	6003      	str	r3, [r0, #0]
    7fc2:	bd30      	pop	{r4, r5, pc}
    7fc4:	6818      	ldr	r0, [r3, #0]
    7fc6:	181c      	adds	r4, r3, r0
    7fc8:	428c      	cmp	r4, r1
    7fca:	d103      	bne.n	7fd4 <_free_r+0x7c>
    7fcc:	680c      	ldr	r4, [r1, #0]
    7fce:	6849      	ldr	r1, [r1, #4]
    7fd0:	4420      	add	r0, r4
    7fd2:	6018      	str	r0, [r3, #0]
    7fd4:	6059      	str	r1, [r3, #4]
    7fd6:	6053      	str	r3, [r2, #4]
    7fd8:	bd30      	pop	{r4, r5, pc}
    7fda:	bf00      	nop
    7fdc:	10000a44 	.word	0x10000a44

00007fe0 <_malloc_r>:
    7fe0:	b570      	push	{r4, r5, r6, lr}
    7fe2:	1ccd      	adds	r5, r1, #3
    7fe4:	f025 0503 	bic.w	r5, r5, #3
    7fe8:	3508      	adds	r5, #8
    7fea:	2d0c      	cmp	r5, #12
    7fec:	bf38      	it	cc
    7fee:	250c      	movcc	r5, #12
    7ff0:	2d00      	cmp	r5, #0
    7ff2:	4606      	mov	r6, r0
    7ff4:	db3f      	blt.n	8076 <_malloc_r+0x96>
    7ff6:	428d      	cmp	r5, r1
    7ff8:	d33d      	bcc.n	8076 <_malloc_r+0x96>
    7ffa:	4b21      	ldr	r3, [pc, #132]	; (8080 <_malloc_r+0xa0>)
    7ffc:	681c      	ldr	r4, [r3, #0]
    7ffe:	4618      	mov	r0, r3
    8000:	4621      	mov	r1, r4
    8002:	b1a1      	cbz	r1, 802e <_malloc_r+0x4e>
    8004:	680b      	ldr	r3, [r1, #0]
    8006:	1b5b      	subs	r3, r3, r5
    8008:	d40e      	bmi.n	8028 <_malloc_r+0x48>
    800a:	2b0b      	cmp	r3, #11
    800c:	d903      	bls.n	8016 <_malloc_r+0x36>
    800e:	600b      	str	r3, [r1, #0]
    8010:	18cc      	adds	r4, r1, r3
    8012:	50cd      	str	r5, [r1, r3]
    8014:	e01f      	b.n	8056 <_malloc_r+0x76>
    8016:	428c      	cmp	r4, r1
    8018:	d102      	bne.n	8020 <_malloc_r+0x40>
    801a:	6862      	ldr	r2, [r4, #4]
    801c:	6002      	str	r2, [r0, #0]
    801e:	e01a      	b.n	8056 <_malloc_r+0x76>
    8020:	684b      	ldr	r3, [r1, #4]
    8022:	6063      	str	r3, [r4, #4]
    8024:	460c      	mov	r4, r1
    8026:	e016      	b.n	8056 <_malloc_r+0x76>
    8028:	460c      	mov	r4, r1
    802a:	6849      	ldr	r1, [r1, #4]
    802c:	e7e9      	b.n	8002 <_malloc_r+0x22>
    802e:	4c15      	ldr	r4, [pc, #84]	; (8084 <_malloc_r+0xa4>)
    8030:	6823      	ldr	r3, [r4, #0]
    8032:	b91b      	cbnz	r3, 803c <_malloc_r+0x5c>
    8034:	4630      	mov	r0, r6
    8036:	f000 f931 	bl	829c <_sbrk_r>
    803a:	6020      	str	r0, [r4, #0]
    803c:	4629      	mov	r1, r5
    803e:	4630      	mov	r0, r6
    8040:	f000 f92c 	bl	829c <_sbrk_r>
    8044:	1c43      	adds	r3, r0, #1
    8046:	4601      	mov	r1, r0
    8048:	d015      	beq.n	8076 <_malloc_r+0x96>
    804a:	1cc4      	adds	r4, r0, #3
    804c:	f024 0403 	bic.w	r4, r4, #3
    8050:	4284      	cmp	r4, r0
    8052:	d10a      	bne.n	806a <_malloc_r+0x8a>
    8054:	6025      	str	r5, [r4, #0]
    8056:	f104 000b 	add.w	r0, r4, #11
    805a:	1d23      	adds	r3, r4, #4
    805c:	f020 0007 	bic.w	r0, r0, #7
    8060:	1ac3      	subs	r3, r0, r3
    8062:	d00b      	beq.n	807c <_malloc_r+0x9c>
    8064:	425a      	negs	r2, r3
    8066:	50e2      	str	r2, [r4, r3]
    8068:	bd70      	pop	{r4, r5, r6, pc}
    806a:	4630      	mov	r0, r6
    806c:	1a61      	subs	r1, r4, r1
    806e:	f000 f915 	bl	829c <_sbrk_r>
    8072:	3001      	adds	r0, #1
    8074:	d1ee      	bne.n	8054 <_malloc_r+0x74>
    8076:	230c      	movs	r3, #12
    8078:	6033      	str	r3, [r6, #0]
    807a:	2000      	movs	r0, #0
    807c:	bd70      	pop	{r4, r5, r6, pc}
    807e:	bf00      	nop
    8080:	10000a44 	.word	0x10000a44
    8084:	10000a40 	.word	0x10000a40

00008088 <_open_r>:
    8088:	b538      	push	{r3, r4, r5, lr}
    808a:	4c07      	ldr	r4, [pc, #28]	; (80a8 <_open_r+0x20>)
    808c:	4605      	mov	r5, r0
    808e:	2000      	movs	r0, #0
    8090:	6020      	str	r0, [r4, #0]
    8092:	4608      	mov	r0, r1
    8094:	4611      	mov	r1, r2
    8096:	461a      	mov	r2, r3
    8098:	f7fc fa06 	bl	44a8 <_open>
    809c:	1c43      	adds	r3, r0, #1
    809e:	d102      	bne.n	80a6 <_open_r+0x1e>
    80a0:	6823      	ldr	r3, [r4, #0]
    80a2:	b103      	cbz	r3, 80a6 <_open_r+0x1e>
    80a4:	602b      	str	r3, [r5, #0]
    80a6:	bd38      	pop	{r3, r4, r5, pc}
    80a8:	10000c90 	.word	0x10000c90

000080ac <_putc_r>:
    80ac:	b570      	push	{r4, r5, r6, lr}
    80ae:	460e      	mov	r6, r1
    80b0:	4614      	mov	r4, r2
    80b2:	4605      	mov	r5, r0
    80b4:	b118      	cbz	r0, 80be <_putc_r+0x12>
    80b6:	6983      	ldr	r3, [r0, #24]
    80b8:	b90b      	cbnz	r3, 80be <_putc_r+0x12>
    80ba:	f7ff fcfd 	bl	7ab8 <__sinit>
    80be:	4b16      	ldr	r3, [pc, #88]	; (8118 <_putc_r+0x6c>)
    80c0:	429c      	cmp	r4, r3
    80c2:	d101      	bne.n	80c8 <_putc_r+0x1c>
    80c4:	686c      	ldr	r4, [r5, #4]
    80c6:	e008      	b.n	80da <_putc_r+0x2e>
    80c8:	4b14      	ldr	r3, [pc, #80]	; (811c <_putc_r+0x70>)
    80ca:	429c      	cmp	r4, r3
    80cc:	d101      	bne.n	80d2 <_putc_r+0x26>
    80ce:	68ac      	ldr	r4, [r5, #8]
    80d0:	e003      	b.n	80da <_putc_r+0x2e>
    80d2:	4b13      	ldr	r3, [pc, #76]	; (8120 <_putc_r+0x74>)
    80d4:	429c      	cmp	r4, r3
    80d6:	bf08      	it	eq
    80d8:	68ec      	ldreq	r4, [r5, #12]
    80da:	68a3      	ldr	r3, [r4, #8]
    80dc:	3b01      	subs	r3, #1
    80de:	2b00      	cmp	r3, #0
    80e0:	60a3      	str	r3, [r4, #8]
    80e2:	da11      	bge.n	8108 <_putc_r+0x5c>
    80e4:	69a2      	ldr	r2, [r4, #24]
    80e6:	4293      	cmp	r3, r2
    80e8:	db07      	blt.n	80fa <_putc_r+0x4e>
    80ea:	6823      	ldr	r3, [r4, #0]
    80ec:	701e      	strb	r6, [r3, #0]
    80ee:	6823      	ldr	r3, [r4, #0]
    80f0:	7819      	ldrb	r1, [r3, #0]
    80f2:	290a      	cmp	r1, #10
    80f4:	d10b      	bne.n	810e <_putc_r+0x62>
    80f6:	4628      	mov	r0, r5
    80f8:	e001      	b.n	80fe <_putc_r+0x52>
    80fa:	4628      	mov	r0, r5
    80fc:	4631      	mov	r1, r6
    80fe:	4622      	mov	r2, r4
    8100:	e8bd 4070 	ldmia.w	sp!, {r4, r5, r6, lr}
    8104:	f001 be0c 	b.w	9d20 <__swbuf_r>
    8108:	6823      	ldr	r3, [r4, #0]
    810a:	701e      	strb	r6, [r3, #0]
    810c:	6823      	ldr	r3, [r4, #0]
    810e:	1c5a      	adds	r2, r3, #1
    8110:	6022      	str	r2, [r4, #0]
    8112:	7818      	ldrb	r0, [r3, #0]
    8114:	bd70      	pop	{r4, r5, r6, pc}
    8116:	bf00      	nop
    8118:	0000de60 	.word	0x0000de60
    811c:	0000de80 	.word	0x0000de80
    8120:	0000dea0 	.word	0x0000dea0

00008124 <lflush>:
    8124:	8983      	ldrh	r3, [r0, #12]
    8126:	f003 0309 	and.w	r3, r3, #9
    812a:	2b09      	cmp	r3, #9
    812c:	d101      	bne.n	8132 <lflush+0xe>
    812e:	f7ff bc29 	b.w	7984 <fflush>
    8132:	2000      	movs	r0, #0
    8134:	4770      	bx	lr
	...

00008138 <__srefill_r>:
    8138:	b5f8      	push	{r3, r4, r5, r6, r7, lr}
    813a:	460c      	mov	r4, r1
    813c:	4605      	mov	r5, r0
    813e:	b118      	cbz	r0, 8148 <__srefill_r+0x10>
    8140:	6983      	ldr	r3, [r0, #24]
    8142:	b90b      	cbnz	r3, 8148 <__srefill_r+0x10>
    8144:	f7ff fcb8 	bl	7ab8 <__sinit>
    8148:	4b39      	ldr	r3, [pc, #228]	; (8230 <__srefill_r+0xf8>)
    814a:	429c      	cmp	r4, r3
    814c:	d101      	bne.n	8152 <__srefill_r+0x1a>
    814e:	686c      	ldr	r4, [r5, #4]
    8150:	e008      	b.n	8164 <__srefill_r+0x2c>
    8152:	4b38      	ldr	r3, [pc, #224]	; (8234 <__srefill_r+0xfc>)
    8154:	429c      	cmp	r4, r3
    8156:	d101      	bne.n	815c <__srefill_r+0x24>
    8158:	68ac      	ldr	r4, [r5, #8]
    815a:	e003      	b.n	8164 <__srefill_r+0x2c>
    815c:	4b36      	ldr	r3, [pc, #216]	; (8238 <__srefill_r+0x100>)
    815e:	429c      	cmp	r4, r3
    8160:	bf08      	it	eq
    8162:	68ec      	ldreq	r4, [r5, #12]
    8164:	89a2      	ldrh	r2, [r4, #12]
    8166:	2300      	movs	r3, #0
    8168:	6063      	str	r3, [r4, #4]
    816a:	b293      	uxth	r3, r2
    816c:	069e      	lsls	r6, r3, #26
    816e:	d45a      	bmi.n	8226 <__srefill_r+0xee>
    8170:	0758      	lsls	r0, r3, #29
    8172:	d41a      	bmi.n	81aa <__srefill_r+0x72>
    8174:	06d9      	lsls	r1, r3, #27
    8176:	d405      	bmi.n	8184 <__srefill_r+0x4c>
    8178:	2309      	movs	r3, #9
    817a:	f042 0240 	orr.w	r2, r2, #64	; 0x40
    817e:	602b      	str	r3, [r5, #0]
    8180:	81a2      	strh	r2, [r4, #12]
    8182:	e050      	b.n	8226 <__srefill_r+0xee>
    8184:	071a      	lsls	r2, r3, #28
    8186:	d50b      	bpl.n	81a0 <__srefill_r+0x68>
    8188:	4628      	mov	r0, r5
    818a:	4621      	mov	r1, r4
    818c:	f7ff fbd0 	bl	7930 <_fflush_r>
    8190:	2800      	cmp	r0, #0
    8192:	d148      	bne.n	8226 <__srefill_r+0xee>
    8194:	89a3      	ldrh	r3, [r4, #12]
    8196:	60a0      	str	r0, [r4, #8]
    8198:	f023 0308 	bic.w	r3, r3, #8
    819c:	81a3      	strh	r3, [r4, #12]
    819e:	61a0      	str	r0, [r4, #24]
    81a0:	89a3      	ldrh	r3, [r4, #12]
    81a2:	f043 0304 	orr.w	r3, r3, #4
    81a6:	81a3      	strh	r3, [r4, #12]
    81a8:	e010      	b.n	81cc <__srefill_r+0x94>
    81aa:	6b61      	ldr	r1, [r4, #52]	; 0x34
    81ac:	b171      	cbz	r1, 81cc <__srefill_r+0x94>
    81ae:	f104 0344 	add.w	r3, r4, #68	; 0x44
    81b2:	4299      	cmp	r1, r3
    81b4:	d002      	beq.n	81bc <__srefill_r+0x84>
    81b6:	4628      	mov	r0, r5
    81b8:	f7ff fece 	bl	7f58 <_free_r>
    81bc:	6c23      	ldr	r3, [r4, #64]	; 0x40
    81be:	2000      	movs	r0, #0
    81c0:	6360      	str	r0, [r4, #52]	; 0x34
    81c2:	6063      	str	r3, [r4, #4]
    81c4:	b113      	cbz	r3, 81cc <__srefill_r+0x94>
    81c6:	6be3      	ldr	r3, [r4, #60]	; 0x3c
    81c8:	6023      	str	r3, [r4, #0]
    81ca:	bdf8      	pop	{r3, r4, r5, r6, r7, pc}
    81cc:	6923      	ldr	r3, [r4, #16]
    81ce:	b91b      	cbnz	r3, 81d8 <__srefill_r+0xa0>
    81d0:	4628      	mov	r0, r5
    81d2:	4621      	mov	r1, r4
    81d4:	f7ff fe44 	bl	7e60 <__smakebuf_r>
    81d8:	89a7      	ldrh	r7, [r4, #12]
    81da:	b2be      	uxth	r6, r7
    81dc:	07b3      	lsls	r3, r6, #30
    81de:	d00f      	beq.n	8200 <__srefill_r+0xc8>
    81e0:	2301      	movs	r3, #1
    81e2:	81a3      	strh	r3, [r4, #12]
    81e4:	4b15      	ldr	r3, [pc, #84]	; (823c <__srefill_r+0x104>)
    81e6:	4916      	ldr	r1, [pc, #88]	; (8240 <__srefill_r+0x108>)
    81e8:	6818      	ldr	r0, [r3, #0]
    81ea:	f006 0609 	and.w	r6, r6, #9
    81ee:	f7ff fdd7 	bl	7da0 <_fwalk>
    81f2:	2e09      	cmp	r6, #9
    81f4:	81a7      	strh	r7, [r4, #12]
    81f6:	d103      	bne.n	8200 <__srefill_r+0xc8>
    81f8:	4628      	mov	r0, r5
    81fa:	4621      	mov	r1, r4
    81fc:	f7ff fb14 	bl	7828 <__sflush_r>
    8200:	6922      	ldr	r2, [r4, #16]
    8202:	6a66      	ldr	r6, [r4, #36]	; 0x24
    8204:	6022      	str	r2, [r4, #0]
    8206:	4628      	mov	r0, r5
    8208:	6a21      	ldr	r1, [r4, #32]
    820a:	6963      	ldr	r3, [r4, #20]
    820c:	47b0      	blx	r6
    820e:	2800      	cmp	r0, #0
    8210:	6060      	str	r0, [r4, #4]
    8212:	dc0b      	bgt.n	822c <__srefill_r+0xf4>
    8214:	89a3      	ldrh	r3, [r4, #12]
    8216:	bf17      	itett	ne
    8218:	2200      	movne	r2, #0
    821a:	f043 0320 	orreq.w	r3, r3, #32
    821e:	f043 0340 	orrne.w	r3, r3, #64	; 0x40
    8222:	6062      	strne	r2, [r4, #4]
    8224:	81a3      	strh	r3, [r4, #12]
    8226:	f04f 30ff 	mov.w	r0, #4294967295
    822a:	bdf8      	pop	{r3, r4, r5, r6, r7, pc}
    822c:	2000      	movs	r0, #0
    822e:	bdf8      	pop	{r3, r4, r5, r6, r7, pc}
    8230:	0000de60 	.word	0x0000de60
    8234:	0000de80 	.word	0x0000de80
    8238:	0000dea0 	.word	0x0000dea0
    823c:	0000dec4 	.word	0x0000dec4
    8240:	00008125 	.word	0x00008125

00008244 <__srget_r>:
    8244:	b538      	push	{r3, r4, r5, lr}
    8246:	460c      	mov	r4, r1
    8248:	4605      	mov	r5, r0
    824a:	b118      	cbz	r0, 8254 <__srget_r+0x10>
    824c:	6983      	ldr	r3, [r0, #24]
    824e:	b90b      	cbnz	r3, 8254 <__srget_r+0x10>
    8250:	f7ff fc32 	bl	7ab8 <__sinit>
    8254:	4b0e      	ldr	r3, [pc, #56]	; (8290 <__srget_r+0x4c>)
    8256:	429c      	cmp	r4, r3
    8258:	d101      	bne.n	825e <__srget_r+0x1a>
    825a:	686c      	ldr	r4, [r5, #4]
    825c:	e008      	b.n	8270 <__srget_r+0x2c>
    825e:	4b0d      	ldr	r3, [pc, #52]	; (8294 <__srget_r+0x50>)
    8260:	429c      	cmp	r4, r3
    8262:	d101      	bne.n	8268 <__srget_r+0x24>
    8264:	68ac      	ldr	r4, [r5, #8]
    8266:	e003      	b.n	8270 <__srget_r+0x2c>
    8268:	4b0b      	ldr	r3, [pc, #44]	; (8298 <__srget_r+0x54>)
    826a:	429c      	cmp	r4, r3
    826c:	bf08      	it	eq
    826e:	68ec      	ldreq	r4, [r5, #12]
    8270:	4628      	mov	r0, r5
    8272:	4621      	mov	r1, r4
    8274:	f7ff ff60 	bl	8138 <__srefill_r>
    8278:	b938      	cbnz	r0, 828a <__srget_r+0x46>
    827a:	6863      	ldr	r3, [r4, #4]
    827c:	3b01      	subs	r3, #1
    827e:	6063      	str	r3, [r4, #4]
    8280:	6823      	ldr	r3, [r4, #0]
    8282:	1c5a      	adds	r2, r3, #1
    8284:	6022      	str	r2, [r4, #0]
    8286:	7818      	ldrb	r0, [r3, #0]
    8288:	bd38      	pop	{r3, r4, r5, pc}
    828a:	f04f 30ff 	mov.w	r0, #4294967295
    828e:	bd38      	pop	{r3, r4, r5, pc}
    8290:	0000de60 	.word	0x0000de60
    8294:	0000de80 	.word	0x0000de80
    8298:	0000dea0 	.word	0x0000dea0

0000829c <_sbrk_r>:
    829c:	b538      	push	{r3, r4, r5, lr}
    829e:	4c06      	ldr	r4, [pc, #24]	; (82b8 <_sbrk_r+0x1c>)
    82a0:	2300      	movs	r3, #0
    82a2:	4605      	mov	r5, r0
    82a4:	4608      	mov	r0, r1
    82a6:	6023      	str	r3, [r4, #0]
    82a8:	f7fc faa2 	bl	47f0 <_sbrk>
    82ac:	1c43      	adds	r3, r0, #1
    82ae:	d102      	bne.n	82b6 <_sbrk_r+0x1a>
    82b0:	6823      	ldr	r3, [r4, #0]
    82b2:	b103      	cbz	r3, 82b6 <_sbrk_r+0x1a>
    82b4:	602b      	str	r3, [r5, #0]
    82b6:	bd38      	pop	{r3, r4, r5, pc}
    82b8:	10000c90 	.word	0x10000c90

000082bc <setbuf>:
    82bc:	2900      	cmp	r1, #0
    82be:	bf0c      	ite	eq
    82c0:	2202      	moveq	r2, #2
    82c2:	2200      	movne	r2, #0
    82c4:	f44f 6380 	mov.w	r3, #1024	; 0x400
    82c8:	f000 b800 	b.w	82cc <setvbuf>

000082cc <setvbuf>:
    82cc:	e92d 41f0 	stmdb	sp!, {r4, r5, r6, r7, r8, lr}
    82d0:	461e      	mov	r6, r3
    82d2:	4b3d      	ldr	r3, [pc, #244]	; (83c8 <setvbuf+0xfc>)
    82d4:	4604      	mov	r4, r0
    82d6:	681d      	ldr	r5, [r3, #0]
    82d8:	460f      	mov	r7, r1
    82da:	4690      	mov	r8, r2
    82dc:	b125      	cbz	r5, 82e8 <setvbuf+0x1c>
    82de:	69ab      	ldr	r3, [r5, #24]
    82e0:	b913      	cbnz	r3, 82e8 <setvbuf+0x1c>
    82e2:	4628      	mov	r0, r5
    82e4:	f7ff fbe8 	bl	7ab8 <__sinit>
    82e8:	4b38      	ldr	r3, [pc, #224]	; (83cc <setvbuf+0x100>)
    82ea:	429c      	cmp	r4, r3
    82ec:	d101      	bne.n	82f2 <setvbuf+0x26>
    82ee:	686c      	ldr	r4, [r5, #4]
    82f0:	e008      	b.n	8304 <setvbuf+0x38>
    82f2:	4b37      	ldr	r3, [pc, #220]	; (83d0 <setvbuf+0x104>)
    82f4:	429c      	cmp	r4, r3
    82f6:	d101      	bne.n	82fc <setvbuf+0x30>
    82f8:	68ac      	ldr	r4, [r5, #8]
    82fa:	e003      	b.n	8304 <setvbuf+0x38>
    82fc:	4b35      	ldr	r3, [pc, #212]	; (83d4 <setvbuf+0x108>)
    82fe:	429c      	cmp	r4, r3
    8300:	bf08      	it	eq
    8302:	68ec      	ldreq	r4, [r5, #12]
    8304:	f1b8 0f02 	cmp.w	r8, #2
    8308:	d859      	bhi.n	83be <setvbuf+0xf2>
    830a:	2e00      	cmp	r6, #0
    830c:	db57      	blt.n	83be <setvbuf+0xf2>
    830e:	4628      	mov	r0, r5
    8310:	4621      	mov	r1, r4
    8312:	f7ff fb0d 	bl	7930 <_fflush_r>
    8316:	2300      	movs	r3, #0
    8318:	6063      	str	r3, [r4, #4]
    831a:	61a3      	str	r3, [r4, #24]
    831c:	89a3      	ldrh	r3, [r4, #12]
    831e:	061b      	lsls	r3, r3, #24
    8320:	d503      	bpl.n	832a <setvbuf+0x5e>
    8322:	4628      	mov	r0, r5
    8324:	6921      	ldr	r1, [r4, #16]
    8326:	f7ff fe17 	bl	7f58 <_free_r>
    832a:	89a3      	ldrh	r3, [r4, #12]
    832c:	f1b8 0f02 	cmp.w	r8, #2
    8330:	f023 0383 	bic.w	r3, r3, #131	; 0x83
    8334:	81a3      	strh	r3, [r4, #12]
    8336:	d012      	beq.n	835e <setvbuf+0x92>
    8338:	bb37      	cbnz	r7, 8388 <setvbuf+0xbc>
    833a:	2e00      	cmp	r6, #0
    833c:	bf08      	it	eq
    833e:	f44f 6680 	moveq.w	r6, #1024	; 0x400
    8342:	4630      	mov	r0, r6
    8344:	f7f8 ff1e 	bl	1184 <__wrap_malloc>
    8348:	4607      	mov	r7, r0
    834a:	b9c8      	cbnz	r0, 8380 <setvbuf+0xb4>
    834c:	f44f 6080 	mov.w	r0, #1024	; 0x400
    8350:	f7f8 ff18 	bl	1184 <__wrap_malloc>
    8354:	4607      	mov	r7, r0
    8356:	b988      	cbnz	r0, 837c <setvbuf+0xb0>
    8358:	f04f 30ff 	mov.w	r0, #4294967295
    835c:	e000      	b.n	8360 <setvbuf+0x94>
    835e:	2000      	movs	r0, #0
    8360:	89a3      	ldrh	r3, [r4, #12]
    8362:	f043 0302 	orr.w	r3, r3, #2
    8366:	81a3      	strh	r3, [r4, #12]
    8368:	2300      	movs	r3, #0
    836a:	60a3      	str	r3, [r4, #8]
    836c:	f104 0347 	add.w	r3, r4, #71	; 0x47
    8370:	6023      	str	r3, [r4, #0]
    8372:	6123      	str	r3, [r4, #16]
    8374:	2301      	movs	r3, #1
    8376:	6163      	str	r3, [r4, #20]
    8378:	e8bd 81f0 	ldmia.w	sp!, {r4, r5, r6, r7, r8, pc}
    837c:	f44f 6680 	mov.w	r6, #1024	; 0x400
    8380:	89a3      	ldrh	r3, [r4, #12]
    8382:	f043 0380 	orr.w	r3, r3, #128	; 0x80
    8386:	81a3      	strh	r3, [r4, #12]
    8388:	f1b8 0f01 	cmp.w	r8, #1
    838c:	d105      	bne.n	839a <setvbuf+0xce>
    838e:	89a3      	ldrh	r3, [r4, #12]
    8390:	f043 0301 	orr.w	r3, r3, #1
    8394:	81a3      	strh	r3, [r4, #12]
    8396:	4273      	negs	r3, r6
    8398:	61a3      	str	r3, [r4, #24]
    839a:	4b0f      	ldr	r3, [pc, #60]	; (83d8 <setvbuf+0x10c>)
    839c:	62ab      	str	r3, [r5, #40]	; 0x28
    839e:	89a3      	ldrh	r3, [r4, #12]
    83a0:	6027      	str	r7, [r4, #0]
    83a2:	f003 0008 	and.w	r0, r3, #8
    83a6:	b280      	uxth	r0, r0
    83a8:	6127      	str	r7, [r4, #16]
    83aa:	6166      	str	r6, [r4, #20]
    83ac:	b148      	cbz	r0, 83c2 <setvbuf+0xf6>
    83ae:	f013 0f03 	tst.w	r3, #3
    83b2:	bf18      	it	ne
    83b4:	2600      	movne	r6, #0
    83b6:	60a6      	str	r6, [r4, #8]
    83b8:	2000      	movs	r0, #0
    83ba:	e8bd 81f0 	ldmia.w	sp!, {r4, r5, r6, r7, r8, pc}
    83be:	f04f 30ff 	mov.w	r0, #4294967295
    83c2:	e8bd 81f0 	ldmia.w	sp!, {r4, r5, r6, r7, r8, pc}
    83c6:	bf00      	nop
    83c8:	1000013c 	.word	0x1000013c
    83cc:	0000de60 	.word	0x0000de60
    83d0:	0000de80 	.word	0x0000de80
    83d4:	0000dea0 	.word	0x0000dea0
    83d8:	00007a11 	.word	0x00007a11

000083dc <siprintf>:
    83dc:	b40e      	push	{r1, r2, r3}
    83de:	b500      	push	{lr}
    83e0:	f44f 7102 	mov.w	r1, #520	; 0x208
    83e4:	b09c      	sub	sp, #112	; 0x70
    83e6:	f8ad 1014 	strh.w	r1, [sp, #20]
    83ea:	f06f 4100 	mvn.w	r1, #2147483648	; 0x80000000
    83ee:	9104      	str	r1, [sp, #16]
    83f0:	9107      	str	r1, [sp, #28]
    83f2:	f64f 71ff 	movw	r1, #65535	; 0xffff
    83f6:	ab1d      	add	r3, sp, #116	; 0x74
    83f8:	f8ad 1016 	strh.w	r1, [sp, #22]
    83fc:	4908      	ldr	r1, [pc, #32]	; (8420 <siprintf+0x44>)
    83fe:	f853 2b04 	ldr.w	r2, [r3], #4
    8402:	9002      	str	r0, [sp, #8]
    8404:	9006      	str	r0, [sp, #24]
    8406:	6808      	ldr	r0, [r1, #0]
    8408:	a902      	add	r1, sp, #8
    840a:	9301      	str	r3, [sp, #4]
    840c:	f000 f916 	bl	863c <_svfiprintf_r>
    8410:	9b02      	ldr	r3, [sp, #8]
    8412:	2200      	movs	r2, #0
    8414:	701a      	strb	r2, [r3, #0]
    8416:	b01c      	add	sp, #112	; 0x70
    8418:	f85d eb04 	ldr.w	lr, [sp], #4
    841c:	b003      	add	sp, #12
    841e:	4770      	bx	lr
    8420:	1000013c 	.word	0x1000013c

00008424 <siscanf>:
    8424:	b40e      	push	{r1, r2, r3}
    8426:	b530      	push	{r4, r5, lr}
    8428:	b09c      	sub	sp, #112	; 0x70
    842a:	ac1f      	add	r4, sp, #124	; 0x7c
    842c:	f44f 7201 	mov.w	r2, #516	; 0x204
    8430:	f854 5b04 	ldr.w	r5, [r4], #4
    8434:	f8ad 2014 	strh.w	r2, [sp, #20]
    8438:	9002      	str	r0, [sp, #8]
    843a:	9006      	str	r0, [sp, #24]
    843c:	f000 f86b 	bl	8516 <strlen>
    8440:	4b0b      	ldr	r3, [pc, #44]	; (8470 <siscanf+0x4c>)
    8442:	9003      	str	r0, [sp, #12]
    8444:	930b      	str	r3, [sp, #44]	; 0x2c
    8446:	2300      	movs	r3, #0
    8448:	930f      	str	r3, [sp, #60]	; 0x3c
    844a:	9314      	str	r3, [sp, #80]	; 0x50
    844c:	f64f 73ff 	movw	r3, #65535	; 0xffff
    8450:	f8ad 3016 	strh.w	r3, [sp, #22]
    8454:	4b07      	ldr	r3, [pc, #28]	; (8474 <siscanf+0x50>)
    8456:	9007      	str	r0, [sp, #28]
    8458:	a902      	add	r1, sp, #8
    845a:	6818      	ldr	r0, [r3, #0]
    845c:	462a      	mov	r2, r5
    845e:	4623      	mov	r3, r4
    8460:	9401      	str	r4, [sp, #4]
    8462:	f000 fa31 	bl	88c8 <__ssvfiscanf_r>
    8466:	b01c      	add	sp, #112	; 0x70
    8468:	e8bd 4030 	ldmia.w	sp!, {r4, r5, lr}
    846c:	b003      	add	sp, #12
    846e:	4770      	bx	lr
    8470:	0000849b 	.word	0x0000849b
    8474:	1000013c 	.word	0x1000013c

00008478 <__sread>:
    8478:	b510      	push	{r4, lr}
    847a:	460c      	mov	r4, r1
    847c:	f9b1 100e 	ldrsh.w	r1, [r1, #14]
    8480:	f003 f840 	bl	b504 <_read_r>
    8484:	2800      	cmp	r0, #0
    8486:	db03      	blt.n	8490 <__sread+0x18>
    8488:	6d63      	ldr	r3, [r4, #84]	; 0x54
    848a:	4403      	add	r3, r0
    848c:	6563      	str	r3, [r4, #84]	; 0x54
    848e:	bd10      	pop	{r4, pc}
    8490:	89a3      	ldrh	r3, [r4, #12]
    8492:	f423 5380 	bic.w	r3, r3, #4096	; 0x1000
    8496:	81a3      	strh	r3, [r4, #12]
    8498:	bd10      	pop	{r4, pc}

0000849a <__seofread>:
    849a:	2000      	movs	r0, #0
    849c:	4770      	bx	lr

0000849e <__swrite>:
    849e:	e92d 41f0 	stmdb	sp!, {r4, r5, r6, r7, r8, lr}
    84a2:	461d      	mov	r5, r3
    84a4:	898b      	ldrh	r3, [r1, #12]
    84a6:	4607      	mov	r7, r0
    84a8:	05db      	lsls	r3, r3, #23
    84aa:	460c      	mov	r4, r1
    84ac:	4616      	mov	r6, r2
    84ae:	d505      	bpl.n	84bc <__swrite+0x1e>
    84b0:	f9b1 100e 	ldrsh.w	r1, [r1, #14]
    84b4:	2200      	movs	r2, #0
    84b6:	2302      	movs	r3, #2
    84b8:	f002 fbc4 	bl	ac44 <_lseek_r>
    84bc:	89a3      	ldrh	r3, [r4, #12]
    84be:	4638      	mov	r0, r7
    84c0:	f423 5380 	bic.w	r3, r3, #4096	; 0x1000
    84c4:	81a3      	strh	r3, [r4, #12]
    84c6:	f9b4 100e 	ldrsh.w	r1, [r4, #14]
    84ca:	4632      	mov	r2, r6
    84cc:	462b      	mov	r3, r5
    84ce:	e8bd 41f0 	ldmia.w	sp!, {r4, r5, r6, r7, r8, lr}
    84d2:	f001 bc79 	b.w	9dc8 <_write_r>

000084d6 <__sseek>:
    84d6:	b510      	push	{r4, lr}
    84d8:	460c      	mov	r4, r1
    84da:	f9b1 100e 	ldrsh.w	r1, [r1, #14]
    84de:	f002 fbb1 	bl	ac44 <_lseek_r>
    84e2:	1c43      	adds	r3, r0, #1
    84e4:	89a3      	ldrh	r3, [r4, #12]
    84e6:	d103      	bne.n	84f0 <__sseek+0x1a>
    84e8:	f423 5380 	bic.w	r3, r3, #4096	; 0x1000
    84ec:	81a3      	strh	r3, [r4, #12]
    84ee:	bd10      	pop	{r4, pc}
    84f0:	f443 5380 	orr.w	r3, r3, #4096	; 0x1000
    84f4:	81a3      	strh	r3, [r4, #12]
    84f6:	6560      	str	r0, [r4, #84]	; 0x54
    84f8:	bd10      	pop	{r4, pc}

000084fa <__sclose>:
    84fa:	f9b1 100e 	ldrsh.w	r1, [r1, #14]
    84fe:	f001 bce3 	b.w	9ec8 <_close_r>

00008502 <strcmp>:
    8502:	f810 2b01 	ldrb.w	r2, [r0], #1
    8506:	f811 3b01 	ldrb.w	r3, [r1], #1
    850a:	2a01      	cmp	r2, #1
    850c:	bf28      	it	cs
    850e:	429a      	cmpcs	r2, r3
    8510:	d0f7      	beq.n	8502 <strcmp>
    8512:	1ad0      	subs	r0, r2, r3
    8514:	4770      	bx	lr

00008516 <strlen>:
    8516:	4603      	mov	r3, r0
    8518:	f813 2b01 	ldrb.w	r2, [r3], #1
    851c:	2a00      	cmp	r2, #0
    851e:	d1fb      	bne.n	8518 <strlen+0x2>
    8520:	1a18      	subs	r0, r3, r0
    8522:	3801      	subs	r0, #1
    8524:	4770      	bx	lr

00008526 <strncmp>:
    8526:	b570      	push	{r4, r5, r6, lr}
    8528:	b18a      	cbz	r2, 854e <strncmp+0x28>
    852a:	460b      	mov	r3, r1
    852c:	4605      	mov	r5, r0
    852e:	781c      	ldrb	r4, [r3, #0]
    8530:	f810 6b01 	ldrb.w	r6, [r0], #1
    8534:	3101      	adds	r1, #1
    8536:	42b4      	cmp	r4, r6
    8538:	d101      	bne.n	853e <strncmp+0x18>
    853a:	2a01      	cmp	r2, #1
    853c:	d103      	bne.n	8546 <strncmp+0x20>
    853e:	7828      	ldrb	r0, [r5, #0]
    8540:	781b      	ldrb	r3, [r3, #0]
    8542:	1ac0      	subs	r0, r0, r3
    8544:	bd70      	pop	{r4, r5, r6, pc}
    8546:	3a01      	subs	r2, #1
    8548:	2c00      	cmp	r4, #0
    854a:	d1ee      	bne.n	852a <strncmp+0x4>
    854c:	e7f7      	b.n	853e <strncmp+0x18>
    854e:	4610      	mov	r0, r2
    8550:	bd70      	pop	{r4, r5, r6, pc}

00008552 <strstr>:
    8552:	b530      	push	{r4, r5, lr}
    8554:	7803      	ldrb	r3, [r0, #0]
    8556:	b10b      	cbz	r3, 855c <strstr+0xa>
    8558:	4604      	mov	r4, r0
    855a:	e004      	b.n	8566 <strstr+0x14>
    855c:	780b      	ldrb	r3, [r1, #0]
    855e:	2b00      	cmp	r3, #0
    8560:	bf18      	it	ne
    8562:	2000      	movne	r0, #0
    8564:	bd30      	pop	{r4, r5, pc}
    8566:	4622      	mov	r2, r4
    8568:	7810      	ldrb	r0, [r2, #0]
    856a:	3401      	adds	r4, #1
    856c:	b138      	cbz	r0, 857e <strstr+0x2c>
    856e:	2300      	movs	r3, #0
    8570:	5cc8      	ldrb	r0, [r1, r3]
    8572:	b128      	cbz	r0, 8580 <strstr+0x2e>
    8574:	5cd5      	ldrb	r5, [r2, r3]
    8576:	4285      	cmp	r5, r0
    8578:	d1f5      	bne.n	8566 <strstr+0x14>
    857a:	3301      	adds	r3, #1
    857c:	e7f8      	b.n	8570 <strstr+0x1e>
    857e:	bd30      	pop	{r4, r5, pc}
    8580:	4610      	mov	r0, r2
    8582:	bd30      	pop	{r4, r5, pc}

00008584 <__ssputs_r>:
    8584:	e92d 47f0 	stmdb	sp!, {r4, r5, r6, r7, r8, r9, r10, lr}
    8588:	688d      	ldr	r5, [r1, #8]
    858a:	4681      	mov	r9, r0
    858c:	42ab      	cmp	r3, r5
    858e:	460c      	mov	r4, r1
    8590:	4692      	mov	r10, r2
    8592:	461f      	mov	r7, r3
    8594:	d343      	bcc.n	861e <__ssputs_r+0x9a>
    8596:	898b      	ldrh	r3, [r1, #12]
    8598:	f413 6f90 	tst.w	r3, #1152	; 0x480
    859c:	d03d      	beq.n	861a <__ssputs_r+0x96>
    859e:	6826      	ldr	r6, [r4, #0]
    85a0:	6909      	ldr	r1, [r1, #16]
    85a2:	2202      	movs	r2, #2
    85a4:	ebc1 0806 	rsb	r8, r1, r6
    85a8:	6966      	ldr	r6, [r4, #20]
    85aa:	eb06 0646 	add.w	r6, r6, r6, lsl #1
    85ae:	fb96 f6f2 	sdiv	r6, r6, r2
    85b2:	f108 0201 	add.w	r2, r8, #1
    85b6:	443a      	add	r2, r7
    85b8:	4296      	cmp	r6, r2
    85ba:	bf38      	it	cc
    85bc:	4616      	movcc	r6, r2
    85be:	055b      	lsls	r3, r3, #21
    85c0:	d50f      	bpl.n	85e2 <__ssputs_r+0x5e>
    85c2:	4631      	mov	r1, r6
    85c4:	f7ff fd0c 	bl	7fe0 <_malloc_r>
    85c8:	4605      	mov	r5, r0
    85ca:	b198      	cbz	r0, 85f4 <__ssputs_r+0x70>
    85cc:	6921      	ldr	r1, [r4, #16]
    85ce:	4642      	mov	r2, r8
    85d0:	f7ff fcb0 	bl	7f34 <memcpy>
    85d4:	89a3      	ldrh	r3, [r4, #12]
    85d6:	f423 6390 	bic.w	r3, r3, #1152	; 0x480
    85da:	f043 0380 	orr.w	r3, r3, #128	; 0x80
    85de:	81a3      	strh	r3, [r4, #12]
    85e0:	e013      	b.n	860a <__ssputs_r+0x86>
    85e2:	4632      	mov	r2, r6
    85e4:	f002 ff67 	bl	b4b6 <_realloc_r>
    85e8:	4605      	mov	r5, r0
    85ea:	b970      	cbnz	r0, 860a <__ssputs_r+0x86>
    85ec:	4648      	mov	r0, r9
    85ee:	6921      	ldr	r1, [r4, #16]
    85f0:	f7ff fcb2 	bl	7f58 <_free_r>
    85f4:	230c      	movs	r3, #12
    85f6:	f8c9 3000 	str.w	r3, [r9]
    85fa:	89a3      	ldrh	r3, [r4, #12]
    85fc:	f04f 30ff 	mov.w	r0, #4294967295
    8600:	f043 0340 	orr.w	r3, r3, #64	; 0x40
    8604:	81a3      	strh	r3, [r4, #12]
    8606:	e8bd 87f0 	ldmia.w	sp!, {r4, r5, r6, r7, r8, r9, r10, pc}
    860a:	6125      	str	r5, [r4, #16]
    860c:	6166      	str	r6, [r4, #20]
    860e:	4445      	add	r5, r8
    8610:	ebc8 0606 	rsb	r6, r8, r6
    8614:	6025      	str	r5, [r4, #0]
    8616:	60a6      	str	r6, [r4, #8]
    8618:	463d      	mov	r5, r7
    861a:	42af      	cmp	r7, r5
    861c:	d200      	bcs.n	8620 <__ssputs_r+0x9c>
    861e:	463d      	mov	r5, r7
    8620:	462a      	mov	r2, r5
    8622:	6820      	ldr	r0, [r4, #0]
    8624:	4651      	mov	r1, r10
    8626:	f002 fb1f 	bl	ac68 <memmove>
    862a:	68a3      	ldr	r3, [r4, #8]
    862c:	2000      	movs	r0, #0
    862e:	1b5b      	subs	r3, r3, r5
    8630:	60a3      	str	r3, [r4, #8]
    8632:	6823      	ldr	r3, [r4, #0]
    8634:	441d      	add	r5, r3
    8636:	6025      	str	r5, [r4, #0]
    8638:	e8bd 87f0 	ldmia.w	sp!, {r4, r5, r6, r7, r8, r9, r10, pc}

0000863c <_svfiprintf_r>:
    863c:	e92d 43f0 	stmdb	sp!, {r4, r5, r6, r7, r8, r9, lr}
    8640:	b09d      	sub	sp, #116	; 0x74
    8642:	9303      	str	r3, [sp, #12]
    8644:	898b      	ldrh	r3, [r1, #12]
    8646:	4607      	mov	r7, r0
    8648:	061c      	lsls	r4, r3, #24
    864a:	460d      	mov	r5, r1
    864c:	4616      	mov	r6, r2
    864e:	d50c      	bpl.n	866a <_svfiprintf_r+0x2e>
    8650:	690b      	ldr	r3, [r1, #16]
    8652:	b953      	cbnz	r3, 866a <_svfiprintf_r+0x2e>
    8654:	2140      	movs	r1, #64	; 0x40
    8656:	f7ff fcc3 	bl	7fe0 <_malloc_r>
    865a:	6028      	str	r0, [r5, #0]
    865c:	6128      	str	r0, [r5, #16]
    865e:	b910      	cbnz	r0, 8666 <_svfiprintf_r+0x2a>
    8660:	230c      	movs	r3, #12
    8662:	603b      	str	r3, [r7, #0]
    8664:	e0c7      	b.n	87f6 <_svfiprintf_r+0x1ba>
    8666:	2340      	movs	r3, #64	; 0x40
    8668:	616b      	str	r3, [r5, #20]
    866a:	2300      	movs	r3, #0
    866c:	9309      	str	r3, [sp, #36]	; 0x24
    866e:	2320      	movs	r3, #32
    8670:	f88d 3029 	strb.w	r3, [sp, #41]	; 0x29
    8674:	2330      	movs	r3, #48	; 0x30
    8676:	f88d 302a 	strb.w	r3, [sp, #42]	; 0x2a
    867a:	4633      	mov	r3, r6
    867c:	461c      	mov	r4, r3
    867e:	f813 2b01 	ldrb.w	r2, [r3], #1
    8682:	b91a      	cbnz	r2, 868c <_svfiprintf_r+0x50>
    8684:	ebb4 0906 	subs.w	r9, r4, r6
    8688:	d00f      	beq.n	86aa <_svfiprintf_r+0x6e>
    868a:	e002      	b.n	8692 <_svfiprintf_r+0x56>
    868c:	2a25      	cmp	r2, #37	; 0x25
    868e:	d1f5      	bne.n	867c <_svfiprintf_r+0x40>
    8690:	e7f8      	b.n	8684 <_svfiprintf_r+0x48>
    8692:	4638      	mov	r0, r7
    8694:	4629      	mov	r1, r5
    8696:	4632      	mov	r2, r6
    8698:	464b      	mov	r3, r9
    869a:	f7ff ff73 	bl	8584 <__ssputs_r>
    869e:	3001      	adds	r0, #1
    86a0:	f000 80a4 	beq.w	87ec <_svfiprintf_r+0x1b0>
    86a4:	9b09      	ldr	r3, [sp, #36]	; 0x24
    86a6:	444b      	add	r3, r9
    86a8:	9309      	str	r3, [sp, #36]	; 0x24
    86aa:	7823      	ldrb	r3, [r4, #0]
    86ac:	2b00      	cmp	r3, #0
    86ae:	f000 809d 	beq.w	87ec <_svfiprintf_r+0x1b0>
    86b2:	2300      	movs	r3, #0
    86b4:	f04f 32ff 	mov.w	r2, #4294967295
    86b8:	9304      	str	r3, [sp, #16]
    86ba:	9307      	str	r3, [sp, #28]
    86bc:	9205      	str	r2, [sp, #20]
    86be:	9306      	str	r3, [sp, #24]
    86c0:	f88d 3053 	strb.w	r3, [sp, #83]	; 0x53
    86c4:	931a      	str	r3, [sp, #104]	; 0x68
    86c6:	f104 0901 	add.w	r9, r4, #1
    86ca:	4e4d      	ldr	r6, [pc, #308]	; (8800 <_svfiprintf_r+0x1c4>)
    86cc:	464c      	mov	r4, r9
    86ce:	4630      	mov	r0, r6
    86d0:	7821      	ldrb	r1, [r4, #0]
    86d2:	2205      	movs	r2, #5
    86d4:	f7ff fc20 	bl	7f18 <memchr>
    86d8:	f109 0901 	add.w	r9, r9, #1
    86dc:	9b04      	ldr	r3, [sp, #16]
    86de:	b128      	cbz	r0, 86ec <_svfiprintf_r+0xb0>
    86e0:	1b86      	subs	r6, r0, r6
    86e2:	2001      	movs	r0, #1
    86e4:	40b0      	lsls	r0, r6
    86e6:	4303      	orrs	r3, r0
    86e8:	9304      	str	r3, [sp, #16]
    86ea:	e7ee      	b.n	86ca <_svfiprintf_r+0x8e>
    86ec:	06d9      	lsls	r1, r3, #27
    86ee:	bf44      	itt	mi
    86f0:	2220      	movmi	r2, #32
    86f2:	f88d 2053 	strbmi.w	r2, [sp, #83]	; 0x53
    86f6:	071a      	lsls	r2, r3, #28
    86f8:	bf44      	itt	mi
    86fa:	222b      	movmi	r2, #43	; 0x2b
    86fc:	f88d 2053 	strbmi.w	r2, [sp, #83]	; 0x53
    8700:	7822      	ldrb	r2, [r4, #0]
    8702:	2a2a      	cmp	r2, #42	; 0x2a
    8704:	d002      	beq.n	870c <_svfiprintf_r+0xd0>
    8706:	9b07      	ldr	r3, [sp, #28]
    8708:	4621      	mov	r1, r4
    870a:	e00e      	b.n	872a <_svfiprintf_r+0xee>
    870c:	9a03      	ldr	r2, [sp, #12]
    870e:	1d11      	adds	r1, r2, #4
    8710:	6812      	ldr	r2, [r2, #0]
    8712:	9103      	str	r1, [sp, #12]
    8714:	2a00      	cmp	r2, #0
    8716:	db01      	blt.n	871c <_svfiprintf_r+0xe0>
    8718:	9207      	str	r2, [sp, #28]
    871a:	e004      	b.n	8726 <_svfiprintf_r+0xea>
    871c:	4252      	negs	r2, r2
    871e:	f043 0302 	orr.w	r3, r3, #2
    8722:	9207      	str	r2, [sp, #28]
    8724:	9304      	str	r3, [sp, #16]
    8726:	3401      	adds	r4, #1
    8728:	e00a      	b.n	8740 <_svfiprintf_r+0x104>
    872a:	460c      	mov	r4, r1
    872c:	7822      	ldrb	r2, [r4, #0]
    872e:	3101      	adds	r1, #1
    8730:	3a30      	subs	r2, #48	; 0x30
    8732:	2a09      	cmp	r2, #9
    8734:	d803      	bhi.n	873e <_svfiprintf_r+0x102>
    8736:	200a      	movs	r0, #10
    8738:	fb00 2303 	mla	r3, r0, r3, r2
    873c:	e7f5      	b.n	872a <_svfiprintf_r+0xee>
    873e:	9307      	str	r3, [sp, #28]
    8740:	7823      	ldrb	r3, [r4, #0]
    8742:	2b2e      	cmp	r3, #46	; 0x2e
    8744:	d119      	bne.n	877a <_svfiprintf_r+0x13e>
    8746:	7863      	ldrb	r3, [r4, #1]
    8748:	2b2a      	cmp	r3, #42	; 0x2a
    874a:	d109      	bne.n	8760 <_svfiprintf_r+0x124>
    874c:	9b03      	ldr	r3, [sp, #12]
    874e:	3402      	adds	r4, #2
    8750:	1d1a      	adds	r2, r3, #4
    8752:	681b      	ldr	r3, [r3, #0]
    8754:	9203      	str	r2, [sp, #12]
    8756:	2b00      	cmp	r3, #0
    8758:	bfb8      	it	lt
    875a:	f04f 33ff 	movlt.w	r3, #4294967295
    875e:	e00b      	b.n	8778 <_svfiprintf_r+0x13c>
    8760:	1c61      	adds	r1, r4, #1
    8762:	2300      	movs	r3, #0
    8764:	460c      	mov	r4, r1
    8766:	7822      	ldrb	r2, [r4, #0]
    8768:	3101      	adds	r1, #1
    876a:	3a30      	subs	r2, #48	; 0x30
    876c:	2a09      	cmp	r2, #9
    876e:	d803      	bhi.n	8778 <_svfiprintf_r+0x13c>
    8770:	200a      	movs	r0, #10
    8772:	fb00 2303 	mla	r3, r0, r3, r2
    8776:	e7f5      	b.n	8764 <_svfiprintf_r+0x128>
    8778:	9305      	str	r3, [sp, #20]
    877a:	4e22      	ldr	r6, [pc, #136]	; (8804 <_svfiprintf_r+0x1c8>)
    877c:	7821      	ldrb	r1, [r4, #0]
    877e:	4630      	mov	r0, r6
    8780:	2203      	movs	r2, #3
    8782:	f7ff fbc9 	bl	7f18 <memchr>
    8786:	b130      	cbz	r0, 8796 <_svfiprintf_r+0x15a>
    8788:	1b86      	subs	r6, r0, r6
    878a:	2040      	movs	r0, #64	; 0x40
    878c:	40b0      	lsls	r0, r6
    878e:	9b04      	ldr	r3, [sp, #16]
    8790:	3401      	adds	r4, #1
    8792:	4303      	orrs	r3, r0
    8794:	9304      	str	r3, [sp, #16]
    8796:	7821      	ldrb	r1, [r4, #0]
    8798:	481b      	ldr	r0, [pc, #108]	; (8808 <_svfiprintf_r+0x1cc>)
    879a:	2206      	movs	r2, #6
    879c:	1c66      	adds	r6, r4, #1
    879e:	f88d 1028 	strb.w	r1, [sp, #40]	; 0x28
    87a2:	f7ff fbb9 	bl	7f18 <memchr>
    87a6:	b188      	cbz	r0, 87cc <_svfiprintf_r+0x190>
    87a8:	4b18      	ldr	r3, [pc, #96]	; (880c <_svfiprintf_r+0x1d0>)
    87aa:	b933      	cbnz	r3, 87ba <_svfiprintf_r+0x17e>
    87ac:	9b03      	ldr	r3, [sp, #12]
    87ae:	3307      	adds	r3, #7
    87b0:	f023 0307 	bic.w	r3, r3, #7
    87b4:	3308      	adds	r3, #8
    87b6:	9303      	str	r3, [sp, #12]
    87b8:	e014      	b.n	87e4 <_svfiprintf_r+0x1a8>
    87ba:	ab03      	add	r3, sp, #12
    87bc:	9300      	str	r3, [sp, #0]
    87be:	4638      	mov	r0, r7
    87c0:	a904      	add	r1, sp, #16
    87c2:	462a      	mov	r2, r5
    87c4:	4b12      	ldr	r3, [pc, #72]	; (8810 <_svfiprintf_r+0x1d4>)
    87c6:	f000 fbd5 	bl	8f74 <_printf_float>
    87ca:	e007      	b.n	87dc <_svfiprintf_r+0x1a0>
    87cc:	ab03      	add	r3, sp, #12
    87ce:	9300      	str	r3, [sp, #0]
    87d0:	4638      	mov	r0, r7
    87d2:	a904      	add	r1, sp, #16
    87d4:	462a      	mov	r2, r5
    87d6:	4b0e      	ldr	r3, [pc, #56]	; (8810 <_svfiprintf_r+0x1d4>)
    87d8:	f000 fe4c 	bl	9474 <_printf_i>
    87dc:	f1b0 3fff 	cmp.w	r0, #4294967295
    87e0:	4680      	mov	r8, r0
    87e2:	d003      	beq.n	87ec <_svfiprintf_r+0x1b0>
    87e4:	9b09      	ldr	r3, [sp, #36]	; 0x24
    87e6:	4443      	add	r3, r8
    87e8:	9309      	str	r3, [sp, #36]	; 0x24
    87ea:	e746      	b.n	867a <_svfiprintf_r+0x3e>
    87ec:	89ab      	ldrh	r3, [r5, #12]
    87ee:	065b      	lsls	r3, r3, #25
    87f0:	d401      	bmi.n	87f6 <_svfiprintf_r+0x1ba>
    87f2:	9809      	ldr	r0, [sp, #36]	; 0x24
    87f4:	e001      	b.n	87fa <_svfiprintf_r+0x1be>
    87f6:	f04f 30ff 	mov.w	r0, #4294967295
    87fa:	b01d      	add	sp, #116	; 0x74
    87fc:	e8bd 83f0 	ldmia.w	sp!, {r4, r5, r6, r7, r8, r9, pc}
    8800:	0000dec8 	.word	0x0000dec8
    8804:	0000dece 	.word	0x0000dece
    8808:	0000ded2 	.word	0x0000ded2
    880c:	00008f75 	.word	0x00008f75
    8810:	00008585 	.word	0x00008585

00008814 <_sungetc_r>:
    8814:	b538      	push	{r3, r4, r5, lr}
    8816:	1c4b      	adds	r3, r1, #1
    8818:	4614      	mov	r4, r2
    881a:	d102      	bne.n	8822 <_sungetc_r+0xe>
    881c:	f04f 30ff 	mov.w	r0, #4294967295
    8820:	bd38      	pop	{r3, r4, r5, pc}
    8822:	8993      	ldrh	r3, [r2, #12]
    8824:	b2cd      	uxtb	r5, r1
    8826:	f023 0320 	bic.w	r3, r3, #32
    882a:	8193      	strh	r3, [r2, #12]
    882c:	6b53      	ldr	r3, [r2, #52]	; 0x34
    882e:	6852      	ldr	r2, [r2, #4]
    8830:	b183      	cbz	r3, 8854 <_sungetc_r+0x40>
    8832:	6ba3      	ldr	r3, [r4, #56]	; 0x38
    8834:	429a      	cmp	r2, r3
    8836:	da07      	bge.n	8848 <_sungetc_r+0x34>
    8838:	6823      	ldr	r3, [r4, #0]
    883a:	1e5a      	subs	r2, r3, #1
    883c:	6022      	str	r2, [r4, #0]
    883e:	f803 5c01 	strb.w	r5, [r3, #-1]
    8842:	6863      	ldr	r3, [r4, #4]
    8844:	3301      	adds	r3, #1
    8846:	e01f      	b.n	8888 <_sungetc_r+0x74>
    8848:	4621      	mov	r1, r4
    884a:	f000 f98b 	bl	8b64 <__submore>
    884e:	2800      	cmp	r0, #0
    8850:	d0f2      	beq.n	8838 <_sungetc_r+0x24>
    8852:	e7e3      	b.n	881c <_sungetc_r+0x8>
    8854:	6921      	ldr	r1, [r4, #16]
    8856:	6823      	ldr	r3, [r4, #0]
    8858:	b151      	cbz	r1, 8870 <_sungetc_r+0x5c>
    885a:	428b      	cmp	r3, r1
    885c:	d908      	bls.n	8870 <_sungetc_r+0x5c>
    885e:	f813 0c01 	ldrb.w	r0, [r3, #-1]
    8862:	42a8      	cmp	r0, r5
    8864:	d104      	bne.n	8870 <_sungetc_r+0x5c>
    8866:	3b01      	subs	r3, #1
    8868:	3201      	adds	r2, #1
    886a:	6023      	str	r3, [r4, #0]
    886c:	6062      	str	r2, [r4, #4]
    886e:	bd38      	pop	{r3, r4, r5, pc}
    8870:	63e3      	str	r3, [r4, #60]	; 0x3c
    8872:	f104 0344 	add.w	r3, r4, #68	; 0x44
    8876:	6363      	str	r3, [r4, #52]	; 0x34
    8878:	2303      	movs	r3, #3
    887a:	63a3      	str	r3, [r4, #56]	; 0x38
    887c:	4623      	mov	r3, r4
    887e:	6422      	str	r2, [r4, #64]	; 0x40
    8880:	f803 5f46 	strb.w	r5, [r3, #70]!
    8884:	6023      	str	r3, [r4, #0]
    8886:	2301      	movs	r3, #1
    8888:	6063      	str	r3, [r4, #4]
    888a:	4628      	mov	r0, r5
    888c:	bd38      	pop	{r3, r4, r5, pc}

0000888e <__ssrefill_r>:
    888e:	b510      	push	{r4, lr}
    8890:	460c      	mov	r4, r1
    8892:	6b49      	ldr	r1, [r1, #52]	; 0x34
    8894:	b169      	cbz	r1, 88b2 <__ssrefill_r+0x24>
    8896:	f104 0344 	add.w	r3, r4, #68	; 0x44
    889a:	4299      	cmp	r1, r3
    889c:	d001      	beq.n	88a2 <__ssrefill_r+0x14>
    889e:	f7ff fb5b 	bl	7f58 <_free_r>
    88a2:	6c23      	ldr	r3, [r4, #64]	; 0x40
    88a4:	2000      	movs	r0, #0
    88a6:	6360      	str	r0, [r4, #52]	; 0x34
    88a8:	6063      	str	r3, [r4, #4]
    88aa:	b113      	cbz	r3, 88b2 <__ssrefill_r+0x24>
    88ac:	6be3      	ldr	r3, [r4, #60]	; 0x3c
    88ae:	6023      	str	r3, [r4, #0]
    88b0:	bd10      	pop	{r4, pc}
    88b2:	6923      	ldr	r3, [r4, #16]
    88b4:	f04f 30ff 	mov.w	r0, #4294967295
    88b8:	6023      	str	r3, [r4, #0]
    88ba:	2300      	movs	r3, #0
    88bc:	6063      	str	r3, [r4, #4]
    88be:	89a3      	ldrh	r3, [r4, #12]
    88c0:	f043 0320 	orr.w	r3, r3, #32
    88c4:	81a3      	strh	r3, [r4, #12]
    88c6:	bd10      	pop	{r4, pc}

000088c8 <__ssvfiscanf_r>:
    88c8:	e92d 47f0 	stmdb	sp!, {r4, r5, r6, r7, r8, r9, r10, lr}
    88cc:	f5ad 7d24 	sub.w	sp, sp, #656	; 0x290
    88d0:	9301      	str	r3, [sp, #4]
    88d2:	2300      	movs	r3, #0
    88d4:	9346      	str	r3, [sp, #280]	; 0x118
    88d6:	9347      	str	r3, [sp, #284]	; 0x11c
    88d8:	4b9d      	ldr	r3, [pc, #628]	; (8b50 <__ssvfiscanf_r+0x288>)
    88da:	f10d 090c 	add.w	r9, sp, #12
    88de:	93a2      	str	r3, [sp, #648]	; 0x288
    88e0:	4b9c      	ldr	r3, [pc, #624]	; (8b54 <__ssvfiscanf_r+0x28c>)
    88e2:	4607      	mov	r7, r0
    88e4:	460c      	mov	r4, r1
    88e6:	4690      	mov	r8, r2
    88e8:	f8cd 9120 	str.w	r9, [sp, #288]	; 0x120
    88ec:	93a3      	str	r3, [sp, #652]	; 0x28c
    88ee:	f898 5000 	ldrb.w	r5, [r8]
    88f2:	2d00      	cmp	r5, #0
    88f4:	f000 8124 	beq.w	8b40 <__ssvfiscanf_r+0x278>
    88f8:	4997      	ldr	r1, [pc, #604]	; (8b58 <__ssvfiscanf_r+0x290>)
    88fa:	680b      	ldr	r3, [r1, #0]
    88fc:	468a      	mov	r10, r1
    88fe:	442b      	add	r3, r5
    8900:	785a      	ldrb	r2, [r3, #1]
    8902:	f002 0208 	and.w	r2, r2, #8
    8906:	f002 03ff 	and.w	r3, r2, #255	; 0xff
    890a:	b1ea      	cbz	r2, 8948 <__ssvfiscanf_r+0x80>
    890c:	6863      	ldr	r3, [r4, #4]
    890e:	2b00      	cmp	r3, #0
    8910:	dd10      	ble.n	8934 <__ssvfiscanf_r+0x6c>
    8912:	6823      	ldr	r3, [r4, #0]
    8914:	f8da 2000 	ldr.w	r2, [r10]
    8918:	7819      	ldrb	r1, [r3, #0]
    891a:	440a      	add	r2, r1
    891c:	7852      	ldrb	r2, [r2, #1]
    891e:	0715      	lsls	r5, r2, #28
    8920:	d50e      	bpl.n	8940 <__ssvfiscanf_r+0x78>
    8922:	9a47      	ldr	r2, [sp, #284]	; 0x11c
    8924:	3301      	adds	r3, #1
    8926:	3201      	adds	r2, #1
    8928:	9247      	str	r2, [sp, #284]	; 0x11c
    892a:	6862      	ldr	r2, [r4, #4]
    892c:	6023      	str	r3, [r4, #0]
    892e:	3a01      	subs	r2, #1
    8930:	6062      	str	r2, [r4, #4]
    8932:	e7eb      	b.n	890c <__ssvfiscanf_r+0x44>
    8934:	9ba3      	ldr	r3, [sp, #652]	; 0x28c
    8936:	4638      	mov	r0, r7
    8938:	4621      	mov	r1, r4
    893a:	4798      	blx	r3
    893c:	2800      	cmp	r0, #0
    893e:	d0e8      	beq.n	8912 <__ssvfiscanf_r+0x4a>
    8940:	f108 0601 	add.w	r6, r8, #1
    8944:	46b0      	mov	r8, r6
    8946:	e7d2      	b.n	88ee <__ssvfiscanf_r+0x26>
    8948:	2d25      	cmp	r5, #37	; 0x25
    894a:	f108 0601 	add.w	r6, r8, #1
    894e:	d14f      	bne.n	89f0 <__ssvfiscanf_r+0x128>
    8950:	9345      	str	r3, [sp, #276]	; 0x114
    8952:	9343      	str	r3, [sp, #268]	; 0x10c
    8954:	f898 3001 	ldrb.w	r3, [r8, #1]
    8958:	2b2a      	cmp	r3, #42	; 0x2a
    895a:	d103      	bne.n	8964 <__ssvfiscanf_r+0x9c>
    895c:	2310      	movs	r3, #16
    895e:	9343      	str	r3, [sp, #268]	; 0x10c
    8960:	f108 0602 	add.w	r6, r8, #2
    8964:	7831      	ldrb	r1, [r6, #0]
    8966:	4635      	mov	r5, r6
    8968:	f1a1 0330 	sub.w	r3, r1, #48	; 0x30
    896c:	2b09      	cmp	r3, #9
    896e:	f106 0601 	add.w	r6, r6, #1
    8972:	d806      	bhi.n	8982 <__ssvfiscanf_r+0xba>
    8974:	9b45      	ldr	r3, [sp, #276]	; 0x114
    8976:	220a      	movs	r2, #10
    8978:	fb02 1303 	mla	r3, r2, r3, r1
    897c:	3b30      	subs	r3, #48	; 0x30
    897e:	9345      	str	r3, [sp, #276]	; 0x114
    8980:	e7f0      	b.n	8964 <__ssvfiscanf_r+0x9c>
    8982:	f8df 81dc 	ldr.w	r8, [pc, #476]	; 8b60 <__ssvfiscanf_r+0x298>
    8986:	2203      	movs	r2, #3
    8988:	4640      	mov	r0, r8
    898a:	f7ff fac5 	bl	7f18 <memchr>
    898e:	b140      	cbz	r0, 89a2 <__ssvfiscanf_r+0xda>
    8990:	ebc8 0800 	rsb	r8, r8, r0
    8994:	2001      	movs	r0, #1
    8996:	fa00 f008 	lsl.w	r0, r0, r8
    899a:	9b43      	ldr	r3, [sp, #268]	; 0x10c
    899c:	4635      	mov	r5, r6
    899e:	4303      	orrs	r3, r0
    89a0:	9343      	str	r3, [sp, #268]	; 0x10c
    89a2:	1c6e      	adds	r6, r5, #1
    89a4:	782d      	ldrb	r5, [r5, #0]
    89a6:	2d67      	cmp	r5, #103	; 0x67
    89a8:	d80f      	bhi.n	89ca <__ssvfiscanf_r+0x102>
    89aa:	2d65      	cmp	r5, #101	; 0x65
    89ac:	d278      	bcs.n	8aa0 <__ssvfiscanf_r+0x1d8>
    89ae:	2d5b      	cmp	r5, #91	; 0x5b
    89b0:	d054      	beq.n	8a5c <__ssvfiscanf_r+0x194>
    89b2:	d805      	bhi.n	89c0 <__ssvfiscanf_r+0xf8>
    89b4:	2d00      	cmp	r5, #0
    89b6:	f000 80c5 	beq.w	8b44 <__ssvfiscanf_r+0x27c>
    89ba:	2d25      	cmp	r5, #37	; 0x25
    89bc:	d018      	beq.n	89f0 <__ssvfiscanf_r+0x128>
    89be:	e071      	b.n	8aa4 <__ssvfiscanf_r+0x1dc>
    89c0:	2d63      	cmp	r5, #99	; 0x63
    89c2:	d057      	beq.n	8a74 <__ssvfiscanf_r+0x1ac>
    89c4:	2d64      	cmp	r5, #100	; 0x64
    89c6:	d03f      	beq.n	8a48 <__ssvfiscanf_r+0x180>
    89c8:	e06c      	b.n	8aa4 <__ssvfiscanf_r+0x1dc>
    89ca:	2d70      	cmp	r5, #112	; 0x70
    89cc:	d032      	beq.n	8a34 <__ssvfiscanf_r+0x16c>
    89ce:	d807      	bhi.n	89e0 <__ssvfiscanf_r+0x118>
    89d0:	2d6e      	cmp	r5, #110	; 0x6e
    89d2:	d055      	beq.n	8a80 <__ssvfiscanf_r+0x1b8>
    89d4:	d83a      	bhi.n	8a4c <__ssvfiscanf_r+0x184>
    89d6:	2d69      	cmp	r5, #105	; 0x69
    89d8:	d164      	bne.n	8aa4 <__ssvfiscanf_r+0x1dc>
    89da:	2300      	movs	r3, #0
    89dc:	9344      	str	r3, [sp, #272]	; 0x110
    89de:	e039      	b.n	8a54 <__ssvfiscanf_r+0x18c>
    89e0:	2d75      	cmp	r5, #117	; 0x75
    89e2:	d031      	beq.n	8a48 <__ssvfiscanf_r+0x180>
    89e4:	2d78      	cmp	r5, #120	; 0x78
    89e6:	d029      	beq.n	8a3c <__ssvfiscanf_r+0x174>
    89e8:	2d73      	cmp	r5, #115	; 0x73
    89ea:	d15b      	bne.n	8aa4 <__ssvfiscanf_r+0x1dc>
    89ec:	2302      	movs	r3, #2
    89ee:	e03f      	b.n	8a70 <__ssvfiscanf_r+0x1a8>
    89f0:	6863      	ldr	r3, [r4, #4]
    89f2:	2b00      	cmp	r3, #0
    89f4:	dd0d      	ble.n	8a12 <__ssvfiscanf_r+0x14a>
    89f6:	6823      	ldr	r3, [r4, #0]
    89f8:	781a      	ldrb	r2, [r3, #0]
    89fa:	42aa      	cmp	r2, r5
    89fc:	f040 80a0 	bne.w	8b40 <__ssvfiscanf_r+0x278>
    8a00:	3301      	adds	r3, #1
    8a02:	6862      	ldr	r2, [r4, #4]
    8a04:	6023      	str	r3, [r4, #0]
    8a06:	9b47      	ldr	r3, [sp, #284]	; 0x11c
    8a08:	3a01      	subs	r2, #1
    8a0a:	3301      	adds	r3, #1
    8a0c:	6062      	str	r2, [r4, #4]
    8a0e:	9347      	str	r3, [sp, #284]	; 0x11c
    8a10:	e798      	b.n	8944 <__ssvfiscanf_r+0x7c>
    8a12:	9ba3      	ldr	r3, [sp, #652]	; 0x28c
    8a14:	4638      	mov	r0, r7
    8a16:	4621      	mov	r1, r4
    8a18:	4798      	blx	r3
    8a1a:	2800      	cmp	r0, #0
    8a1c:	d0eb      	beq.n	89f6 <__ssvfiscanf_r+0x12e>
    8a1e:	9846      	ldr	r0, [sp, #280]	; 0x118
    8a20:	2800      	cmp	r0, #0
    8a22:	f000 808f 	beq.w	8b44 <__ssvfiscanf_r+0x27c>
    8a26:	89a3      	ldrh	r3, [r4, #12]
    8a28:	f013 0f40 	tst.w	r3, #64	; 0x40
    8a2c:	bf18      	it	ne
    8a2e:	f04f 30ff 	movne.w	r0, #4294967295
    8a32:	e089      	b.n	8b48 <__ssvfiscanf_r+0x280>
    8a34:	9b43      	ldr	r3, [sp, #268]	; 0x10c
    8a36:	f043 0320 	orr.w	r3, r3, #32
    8a3a:	9343      	str	r3, [sp, #268]	; 0x10c
    8a3c:	9b43      	ldr	r3, [sp, #268]	; 0x10c
    8a3e:	f443 7300 	orr.w	r3, r3, #512	; 0x200
    8a42:	9343      	str	r3, [sp, #268]	; 0x10c
    8a44:	2310      	movs	r3, #16
    8a46:	e002      	b.n	8a4e <__ssvfiscanf_r+0x186>
    8a48:	230a      	movs	r3, #10
    8a4a:	e000      	b.n	8a4e <__ssvfiscanf_r+0x186>
    8a4c:	2308      	movs	r3, #8
    8a4e:	2d6e      	cmp	r5, #110	; 0x6e
    8a50:	9344      	str	r3, [sp, #272]	; 0x110
    8a52:	dc01      	bgt.n	8a58 <__ssvfiscanf_r+0x190>
    8a54:	2303      	movs	r3, #3
    8a56:	e00b      	b.n	8a70 <__ssvfiscanf_r+0x1a8>
    8a58:	2304      	movs	r3, #4
    8a5a:	e009      	b.n	8a70 <__ssvfiscanf_r+0x1a8>
    8a5c:	4631      	mov	r1, r6
    8a5e:	4648      	mov	r0, r9
    8a60:	f002 fd84 	bl	b56c <__sccl>
    8a64:	9b43      	ldr	r3, [sp, #268]	; 0x10c
    8a66:	4606      	mov	r6, r0
    8a68:	f043 0340 	orr.w	r3, r3, #64	; 0x40
    8a6c:	9343      	str	r3, [sp, #268]	; 0x10c
    8a6e:	2301      	movs	r3, #1
    8a70:	9349      	str	r3, [sp, #292]	; 0x124
    8a72:	e01b      	b.n	8aac <__ssvfiscanf_r+0x1e4>
    8a74:	9b43      	ldr	r3, [sp, #268]	; 0x10c
    8a76:	f043 0340 	orr.w	r3, r3, #64	; 0x40
    8a7a:	9343      	str	r3, [sp, #268]	; 0x10c
    8a7c:	2300      	movs	r3, #0
    8a7e:	e7f7      	b.n	8a70 <__ssvfiscanf_r+0x1a8>
    8a80:	9a43      	ldr	r2, [sp, #268]	; 0x10c
    8a82:	06d0      	lsls	r0, r2, #27
    8a84:	f53f af5e 	bmi.w	8944 <__ssvfiscanf_r+0x7c>
    8a88:	f012 0f01 	tst.w	r2, #1
    8a8c:	9a01      	ldr	r2, [sp, #4]
    8a8e:	9b47      	ldr	r3, [sp, #284]	; 0x11c
    8a90:	f102 0104 	add.w	r1, r2, #4
    8a94:	9101      	str	r1, [sp, #4]
    8a96:	6812      	ldr	r2, [r2, #0]
    8a98:	bf14      	ite	ne
    8a9a:	8013      	strhne	r3, [r2, #0]
    8a9c:	6013      	streq	r3, [r2, #0]
    8a9e:	e751      	b.n	8944 <__ssvfiscanf_r+0x7c>
    8aa0:	2305      	movs	r3, #5
    8aa2:	e7e5      	b.n	8a70 <__ssvfiscanf_r+0x1a8>
    8aa4:	2303      	movs	r3, #3
    8aa6:	9349      	str	r3, [sp, #292]	; 0x124
    8aa8:	230a      	movs	r3, #10
    8aaa:	9344      	str	r3, [sp, #272]	; 0x110
    8aac:	6863      	ldr	r3, [r4, #4]
    8aae:	2b00      	cmp	r3, #0
    8ab0:	dd03      	ble.n	8aba <__ssvfiscanf_r+0x1f2>
    8ab2:	9b43      	ldr	r3, [sp, #268]	; 0x10c
    8ab4:	0659      	lsls	r1, r3, #25
    8ab6:	d511      	bpl.n	8adc <__ssvfiscanf_r+0x214>
    8ab8:	e018      	b.n	8aec <__ssvfiscanf_r+0x224>
    8aba:	9ba3      	ldr	r3, [sp, #652]	; 0x28c
    8abc:	4638      	mov	r0, r7
    8abe:	4621      	mov	r1, r4
    8ac0:	4798      	blx	r3
    8ac2:	2800      	cmp	r0, #0
    8ac4:	d0f5      	beq.n	8ab2 <__ssvfiscanf_r+0x1ea>
    8ac6:	e7aa      	b.n	8a1e <__ssvfiscanf_r+0x156>
    8ac8:	9a47      	ldr	r2, [sp, #284]	; 0x11c
    8aca:	3201      	adds	r2, #1
    8acc:	9247      	str	r2, [sp, #284]	; 0x11c
    8ace:	6862      	ldr	r2, [r4, #4]
    8ad0:	3a01      	subs	r2, #1
    8ad2:	2a00      	cmp	r2, #0
    8ad4:	6062      	str	r2, [r4, #4]
    8ad6:	dd13      	ble.n	8b00 <__ssvfiscanf_r+0x238>
    8ad8:	3301      	adds	r3, #1
    8ada:	6023      	str	r3, [r4, #0]
    8adc:	6823      	ldr	r3, [r4, #0]
    8ade:	f8da 2000 	ldr.w	r2, [r10]
    8ae2:	7819      	ldrb	r1, [r3, #0]
    8ae4:	440a      	add	r2, r1
    8ae6:	7852      	ldrb	r2, [r2, #1]
    8ae8:	0712      	lsls	r2, r2, #28
    8aea:	d4ed      	bmi.n	8ac8 <__ssvfiscanf_r+0x200>
    8aec:	9b49      	ldr	r3, [sp, #292]	; 0x124
    8aee:	2b02      	cmp	r3, #2
    8af0:	dc0d      	bgt.n	8b0e <__ssvfiscanf_r+0x246>
    8af2:	4638      	mov	r0, r7
    8af4:	a943      	add	r1, sp, #268	; 0x10c
    8af6:	4622      	mov	r2, r4
    8af8:	ab01      	add	r3, sp, #4
    8afa:	f000 ffbb 	bl	9a74 <_scanf_chars>
    8afe:	e019      	b.n	8b34 <__ssvfiscanf_r+0x26c>
    8b00:	9ba3      	ldr	r3, [sp, #652]	; 0x28c
    8b02:	4638      	mov	r0, r7
    8b04:	4621      	mov	r1, r4
    8b06:	4798      	blx	r3
    8b08:	2800      	cmp	r0, #0
    8b0a:	d0e7      	beq.n	8adc <__ssvfiscanf_r+0x214>
    8b0c:	e787      	b.n	8a1e <__ssvfiscanf_r+0x156>
    8b0e:	2b04      	cmp	r3, #4
    8b10:	dc06      	bgt.n	8b20 <__ssvfiscanf_r+0x258>
    8b12:	4638      	mov	r0, r7
    8b14:	a943      	add	r1, sp, #268	; 0x10c
    8b16:	4622      	mov	r2, r4
    8b18:	ab01      	add	r3, sp, #4
    8b1a:	f001 f80b 	bl	9b34 <_scanf_i>
    8b1e:	e009      	b.n	8b34 <__ssvfiscanf_r+0x26c>
    8b20:	4b0e      	ldr	r3, [pc, #56]	; (8b5c <__ssvfiscanf_r+0x294>)
    8b22:	2b00      	cmp	r3, #0
    8b24:	f43f af0e 	beq.w	8944 <__ssvfiscanf_r+0x7c>
    8b28:	4638      	mov	r0, r7
    8b2a:	a943      	add	r1, sp, #268	; 0x10c
    8b2c:	4622      	mov	r2, r4
    8b2e:	ab01      	add	r3, sp, #4
    8b30:	f000 fdb4 	bl	969c <_scanf_float>
    8b34:	2801      	cmp	r0, #1
    8b36:	d003      	beq.n	8b40 <__ssvfiscanf_r+0x278>
    8b38:	2802      	cmp	r0, #2
    8b3a:	f47f af03 	bne.w	8944 <__ssvfiscanf_r+0x7c>
    8b3e:	e76e      	b.n	8a1e <__ssvfiscanf_r+0x156>
    8b40:	9846      	ldr	r0, [sp, #280]	; 0x118
    8b42:	e001      	b.n	8b48 <__ssvfiscanf_r+0x280>
    8b44:	f04f 30ff 	mov.w	r0, #4294967295
    8b48:	f50d 7d24 	add.w	sp, sp, #656	; 0x290
    8b4c:	e8bd 87f0 	ldmia.w	sp!, {r4, r5, r6, r7, r8, r9, r10, pc}
    8b50:	00008815 	.word	0x00008815
    8b54:	0000888f 	.word	0x0000888f
    8b58:	10000140 	.word	0x10000140
    8b5c:	0000969d 	.word	0x0000969d
    8b60:	0000dece 	.word	0x0000dece

00008b64 <__submore>:
    8b64:	e92d 41f0 	stmdb	sp!, {r4, r5, r6, r7, r8, lr}
    8b68:	460c      	mov	r4, r1
    8b6a:	6b49      	ldr	r1, [r1, #52]	; 0x34
    8b6c:	f104 0344 	add.w	r3, r4, #68	; 0x44
    8b70:	4299      	cmp	r1, r3
    8b72:	d11a      	bne.n	8baa <__submore+0x46>
    8b74:	f44f 6180 	mov.w	r1, #1024	; 0x400
    8b78:	f7ff fa32 	bl	7fe0 <_malloc_r>
    8b7c:	b918      	cbnz	r0, 8b86 <__submore+0x22>
    8b7e:	f04f 30ff 	mov.w	r0, #4294967295
    8b82:	e8bd 81f0 	ldmia.w	sp!, {r4, r5, r6, r7, r8, pc}
    8b86:	f44f 6380 	mov.w	r3, #1024	; 0x400
    8b8a:	63a3      	str	r3, [r4, #56]	; 0x38
    8b8c:	f894 3046 	ldrb.w	r3, [r4, #70]	; 0x46
    8b90:	6360      	str	r0, [r4, #52]	; 0x34
    8b92:	f880 33ff 	strb.w	r3, [r0, #1023]	; 0x3ff
    8b96:	f894 3045 	ldrb.w	r3, [r4, #69]	; 0x45
    8b9a:	f200 30fd 	addw	r0, r0, #1021	; 0x3fd
    8b9e:	7043      	strb	r3, [r0, #1]
    8ba0:	f894 3044 	ldrb.w	r3, [r4, #68]	; 0x44
    8ba4:	7003      	strb	r3, [r0, #0]
    8ba6:	6020      	str	r0, [r4, #0]
    8ba8:	e012      	b.n	8bd0 <__submore+0x6c>
    8baa:	6ba6      	ldr	r6, [r4, #56]	; 0x38
    8bac:	0077      	lsls	r7, r6, #1
    8bae:	463a      	mov	r2, r7
    8bb0:	f002 fc81 	bl	b4b6 <_realloc_r>
    8bb4:	4605      	mov	r5, r0
    8bb6:	2800      	cmp	r0, #0
    8bb8:	d0e1      	beq.n	8b7e <__submore+0x1a>
    8bba:	eb00 0806 	add.w	r8, r0, r6
    8bbe:	4640      	mov	r0, r8
    8bc0:	4629      	mov	r1, r5
    8bc2:	4632      	mov	r2, r6
    8bc4:	f7ff f9b6 	bl	7f34 <memcpy>
    8bc8:	f8c4 8000 	str.w	r8, [r4]
    8bcc:	6365      	str	r5, [r4, #52]	; 0x34
    8bce:	63a7      	str	r7, [r4, #56]	; 0x38
    8bd0:	2000      	movs	r0, #0
    8bd2:	e8bd 81f0 	ldmia.w	sp!, {r4, r5, r6, r7, r8, pc}

00008bd6 <__sfputc_r>:
    8bd6:	6893      	ldr	r3, [r2, #8]
    8bd8:	b510      	push	{r4, lr}
    8bda:	3b01      	subs	r3, #1
    8bdc:	2b00      	cmp	r3, #0
    8bde:	6093      	str	r3, [r2, #8]
    8be0:	da05      	bge.n	8bee <__sfputc_r+0x18>
    8be2:	6994      	ldr	r4, [r2, #24]
    8be4:	42a3      	cmp	r3, r4
    8be6:	db08      	blt.n	8bfa <__sfputc_r+0x24>
    8be8:	b2cb      	uxtb	r3, r1
    8bea:	2b0a      	cmp	r3, #10
    8bec:	d005      	beq.n	8bfa <__sfputc_r+0x24>
    8bee:	6813      	ldr	r3, [r2, #0]
    8bf0:	1c58      	adds	r0, r3, #1
    8bf2:	6010      	str	r0, [r2, #0]
    8bf4:	7019      	strb	r1, [r3, #0]
    8bf6:	b2c8      	uxtb	r0, r1
    8bf8:	bd10      	pop	{r4, pc}
    8bfa:	e8bd 4010 	ldmia.w	sp!, {r4, lr}
    8bfe:	f001 b88f 	b.w	9d20 <__swbuf_r>

00008c02 <__sfputs_r>:
    8c02:	b5f8      	push	{r3, r4, r5, r6, r7, lr}
    8c04:	4605      	mov	r5, r0
    8c06:	460e      	mov	r6, r1
    8c08:	4614      	mov	r4, r2
    8c0a:	18d7      	adds	r7, r2, r3
    8c0c:	42bc      	cmp	r4, r7
    8c0e:	d008      	beq.n	8c22 <__sfputs_r+0x20>
    8c10:	4628      	mov	r0, r5
    8c12:	f814 1b01 	ldrb.w	r1, [r4], #1
    8c16:	4632      	mov	r2, r6
    8c18:	f7ff ffdd 	bl	8bd6 <__sfputc_r>
    8c1c:	1c43      	adds	r3, r0, #1
    8c1e:	d1f5      	bne.n	8c0c <__sfputs_r+0xa>
    8c20:	e000      	b.n	8c24 <__sfputs_r+0x22>
    8c22:	2000      	movs	r0, #0
    8c24:	bdf8      	pop	{r3, r4, r5, r6, r7, pc}
	...

00008c28 <_vfiprintf_r>:
    8c28:	e92d 43f0 	stmdb	sp!, {r4, r5, r6, r7, r8, r9, lr}
    8c2c:	b09d      	sub	sp, #116	; 0x74
    8c2e:	460d      	mov	r5, r1
    8c30:	4617      	mov	r7, r2
    8c32:	9303      	str	r3, [sp, #12]
    8c34:	4606      	mov	r6, r0
    8c36:	b118      	cbz	r0, 8c40 <_vfiprintf_r+0x18>
    8c38:	6983      	ldr	r3, [r0, #24]
    8c3a:	b90b      	cbnz	r3, 8c40 <_vfiprintf_r+0x18>
    8c3c:	f7fe ff3c 	bl	7ab8 <__sinit>
    8c40:	4b73      	ldr	r3, [pc, #460]	; (8e10 <_vfiprintf_r+0x1e8>)
    8c42:	429d      	cmp	r5, r3
    8c44:	d101      	bne.n	8c4a <_vfiprintf_r+0x22>
    8c46:	6875      	ldr	r5, [r6, #4]
    8c48:	e008      	b.n	8c5c <_vfiprintf_r+0x34>
    8c4a:	4b72      	ldr	r3, [pc, #456]	; (8e14 <_vfiprintf_r+0x1ec>)
    8c4c:	429d      	cmp	r5, r3
    8c4e:	d101      	bne.n	8c54 <_vfiprintf_r+0x2c>
    8c50:	68b5      	ldr	r5, [r6, #8]
    8c52:	e003      	b.n	8c5c <_vfiprintf_r+0x34>
    8c54:	4b70      	ldr	r3, [pc, #448]	; (8e18 <_vfiprintf_r+0x1f0>)
    8c56:	429d      	cmp	r5, r3
    8c58:	bf08      	it	eq
    8c5a:	68f5      	ldreq	r5, [r6, #12]
    8c5c:	89ab      	ldrh	r3, [r5, #12]
    8c5e:	0718      	lsls	r0, r3, #28
    8c60:	d50a      	bpl.n	8c78 <_vfiprintf_r+0x50>
    8c62:	692b      	ldr	r3, [r5, #16]
    8c64:	b143      	cbz	r3, 8c78 <_vfiprintf_r+0x50>
    8c66:	2300      	movs	r3, #0
    8c68:	9309      	str	r3, [sp, #36]	; 0x24
    8c6a:	2320      	movs	r3, #32
    8c6c:	f88d 3029 	strb.w	r3, [sp, #41]	; 0x29
    8c70:	2330      	movs	r3, #48	; 0x30
    8c72:	f88d 302a 	strb.w	r3, [sp, #42]	; 0x2a
    8c76:	e038      	b.n	8cea <_vfiprintf_r+0xc2>
    8c78:	4630      	mov	r0, r6
    8c7a:	4629      	mov	r1, r5
    8c7c:	f001 f8b6 	bl	9dec <__swsetup_r>
    8c80:	2800      	cmp	r0, #0
    8c82:	d0f0      	beq.n	8c66 <_vfiprintf_r+0x3e>
    8c84:	f04f 30ff 	mov.w	r0, #4294967295
    8c88:	e0be      	b.n	8e08 <_vfiprintf_r+0x1e0>
    8c8a:	9a03      	ldr	r2, [sp, #12]
    8c8c:	1d11      	adds	r1, r2, #4
    8c8e:	6812      	ldr	r2, [r2, #0]
    8c90:	9103      	str	r1, [sp, #12]
    8c92:	2a00      	cmp	r2, #0
    8c94:	db70      	blt.n	8d78 <_vfiprintf_r+0x150>
    8c96:	9207      	str	r2, [sp, #28]
    8c98:	3401      	adds	r4, #1
    8c9a:	7823      	ldrb	r3, [r4, #0]
    8c9c:	2b2e      	cmp	r3, #46	; 0x2e
    8c9e:	d07d      	beq.n	8d9c <_vfiprintf_r+0x174>
    8ca0:	4f5e      	ldr	r7, [pc, #376]	; (8e1c <_vfiprintf_r+0x1f4>)
    8ca2:	7821      	ldrb	r1, [r4, #0]
    8ca4:	4638      	mov	r0, r7
    8ca6:	2203      	movs	r2, #3
    8ca8:	f7ff f936 	bl	7f18 <memchr>
    8cac:	b130      	cbz	r0, 8cbc <_vfiprintf_r+0x94>
    8cae:	1bc7      	subs	r7, r0, r7
    8cb0:	2040      	movs	r0, #64	; 0x40
    8cb2:	40b8      	lsls	r0, r7
    8cb4:	9b04      	ldr	r3, [sp, #16]
    8cb6:	3401      	adds	r4, #1
    8cb8:	4303      	orrs	r3, r0
    8cba:	9304      	str	r3, [sp, #16]
    8cbc:	7821      	ldrb	r1, [r4, #0]
    8cbe:	4858      	ldr	r0, [pc, #352]	; (8e20 <_vfiprintf_r+0x1f8>)
    8cc0:	2206      	movs	r2, #6
    8cc2:	1c67      	adds	r7, r4, #1
    8cc4:	f88d 1028 	strb.w	r1, [sp, #40]	; 0x28
    8cc8:	f7ff f926 	bl	7f18 <memchr>
    8ccc:	2800      	cmp	r0, #0
    8cce:	f000 8089 	beq.w	8de4 <_vfiprintf_r+0x1bc>
    8cd2:	4b54      	ldr	r3, [pc, #336]	; (8e24 <_vfiprintf_r+0x1fc>)
    8cd4:	2b00      	cmp	r3, #0
    8cd6:	d17c      	bne.n	8dd2 <_vfiprintf_r+0x1aa>
    8cd8:	9b03      	ldr	r3, [sp, #12]
    8cda:	3307      	adds	r3, #7
    8cdc:	f023 0307 	bic.w	r3, r3, #7
    8ce0:	3308      	adds	r3, #8
    8ce2:	9303      	str	r3, [sp, #12]
    8ce4:	9b09      	ldr	r3, [sp, #36]	; 0x24
    8ce6:	4443      	add	r3, r8
    8ce8:	9309      	str	r3, [sp, #36]	; 0x24
    8cea:	463b      	mov	r3, r7
    8cec:	461c      	mov	r4, r3
    8cee:	f813 2b01 	ldrb.w	r2, [r3], #1
    8cf2:	b91a      	cbnz	r2, 8cfc <_vfiprintf_r+0xd4>
    8cf4:	ebb4 0907 	subs.w	r9, r4, r7
    8cf8:	d00e      	beq.n	8d18 <_vfiprintf_r+0xf0>
    8cfa:	e002      	b.n	8d02 <_vfiprintf_r+0xda>
    8cfc:	2a25      	cmp	r2, #37	; 0x25
    8cfe:	d1f5      	bne.n	8cec <_vfiprintf_r+0xc4>
    8d00:	e7f8      	b.n	8cf4 <_vfiprintf_r+0xcc>
    8d02:	4630      	mov	r0, r6
    8d04:	4629      	mov	r1, r5
    8d06:	463a      	mov	r2, r7
    8d08:	464b      	mov	r3, r9
    8d0a:	f7ff ff7a 	bl	8c02 <__sfputs_r>
    8d0e:	3001      	adds	r0, #1
    8d10:	d075      	beq.n	8dfe <_vfiprintf_r+0x1d6>
    8d12:	9b09      	ldr	r3, [sp, #36]	; 0x24
    8d14:	444b      	add	r3, r9
    8d16:	9309      	str	r3, [sp, #36]	; 0x24
    8d18:	7823      	ldrb	r3, [r4, #0]
    8d1a:	2b00      	cmp	r3, #0
    8d1c:	d06f      	beq.n	8dfe <_vfiprintf_r+0x1d6>
    8d1e:	2300      	movs	r3, #0
    8d20:	f04f 32ff 	mov.w	r2, #4294967295
    8d24:	9304      	str	r3, [sp, #16]
    8d26:	9307      	str	r3, [sp, #28]
    8d28:	9205      	str	r2, [sp, #20]
    8d2a:	9306      	str	r3, [sp, #24]
    8d2c:	f88d 3053 	strb.w	r3, [sp, #83]	; 0x53
    8d30:	931a      	str	r3, [sp, #104]	; 0x68
    8d32:	f104 0901 	add.w	r9, r4, #1
    8d36:	4f3c      	ldr	r7, [pc, #240]	; (8e28 <_vfiprintf_r+0x200>)
    8d38:	464c      	mov	r4, r9
    8d3a:	4638      	mov	r0, r7
    8d3c:	7821      	ldrb	r1, [r4, #0]
    8d3e:	2205      	movs	r2, #5
    8d40:	f7ff f8ea 	bl	7f18 <memchr>
    8d44:	f109 0901 	add.w	r9, r9, #1
    8d48:	9b04      	ldr	r3, [sp, #16]
    8d4a:	b128      	cbz	r0, 8d58 <_vfiprintf_r+0x130>
    8d4c:	1bc7      	subs	r7, r0, r7
    8d4e:	2001      	movs	r0, #1
    8d50:	40b8      	lsls	r0, r7
    8d52:	4303      	orrs	r3, r0
    8d54:	9304      	str	r3, [sp, #16]
    8d56:	e7ee      	b.n	8d36 <_vfiprintf_r+0x10e>
    8d58:	06d9      	lsls	r1, r3, #27
    8d5a:	bf44      	itt	mi
    8d5c:	2220      	movmi	r2, #32
    8d5e:	f88d 2053 	strbmi.w	r2, [sp, #83]	; 0x53
    8d62:	071a      	lsls	r2, r3, #28
    8d64:	bf44      	itt	mi
    8d66:	222b      	movmi	r2, #43	; 0x2b
    8d68:	f88d 2053 	strbmi.w	r2, [sp, #83]	; 0x53
    8d6c:	7822      	ldrb	r2, [r4, #0]
    8d6e:	2a2a      	cmp	r2, #42	; 0x2a
    8d70:	d08b      	beq.n	8c8a <_vfiprintf_r+0x62>
    8d72:	9b07      	ldr	r3, [sp, #28]
    8d74:	4621      	mov	r1, r4
    8d76:	e005      	b.n	8d84 <_vfiprintf_r+0x15c>
    8d78:	4252      	negs	r2, r2
    8d7a:	f043 0302 	orr.w	r3, r3, #2
    8d7e:	9207      	str	r2, [sp, #28]
    8d80:	9304      	str	r3, [sp, #16]
    8d82:	e789      	b.n	8c98 <_vfiprintf_r+0x70>
    8d84:	460c      	mov	r4, r1
    8d86:	7822      	ldrb	r2, [r4, #0]
    8d88:	3101      	adds	r1, #1
    8d8a:	3a30      	subs	r2, #48	; 0x30
    8d8c:	2a09      	cmp	r2, #9
    8d8e:	d803      	bhi.n	8d98 <_vfiprintf_r+0x170>
    8d90:	200a      	movs	r0, #10
    8d92:	fb00 2303 	mla	r3, r0, r3, r2
    8d96:	e7f5      	b.n	8d84 <_vfiprintf_r+0x15c>
    8d98:	9307      	str	r3, [sp, #28]
    8d9a:	e77e      	b.n	8c9a <_vfiprintf_r+0x72>
    8d9c:	7863      	ldrb	r3, [r4, #1]
    8d9e:	2b2a      	cmp	r3, #42	; 0x2a
    8da0:	d109      	bne.n	8db6 <_vfiprintf_r+0x18e>
    8da2:	9b03      	ldr	r3, [sp, #12]
    8da4:	3402      	adds	r4, #2
    8da6:	1d1a      	adds	r2, r3, #4
    8da8:	681b      	ldr	r3, [r3, #0]
    8daa:	9203      	str	r2, [sp, #12]
    8dac:	2b00      	cmp	r3, #0
    8dae:	bfb8      	it	lt
    8db0:	f04f 33ff 	movlt.w	r3, #4294967295
    8db4:	e00b      	b.n	8dce <_vfiprintf_r+0x1a6>
    8db6:	1c61      	adds	r1, r4, #1
    8db8:	2300      	movs	r3, #0
    8dba:	460c      	mov	r4, r1
    8dbc:	7822      	ldrb	r2, [r4, #0]
    8dbe:	3101      	adds	r1, #1
    8dc0:	3a30      	subs	r2, #48	; 0x30
    8dc2:	2a09      	cmp	r2, #9
    8dc4:	d803      	bhi.n	8dce <_vfiprintf_r+0x1a6>
    8dc6:	200a      	movs	r0, #10
    8dc8:	fb00 2303 	mla	r3, r0, r3, r2
    8dcc:	e7f5      	b.n	8dba <_vfiprintf_r+0x192>
    8dce:	9305      	str	r3, [sp, #20]
    8dd0:	e766      	b.n	8ca0 <_vfiprintf_r+0x78>
    8dd2:	ab03      	add	r3, sp, #12
    8dd4:	9300      	str	r3, [sp, #0]
    8dd6:	4630      	mov	r0, r6
    8dd8:	a904      	add	r1, sp, #16
    8dda:	462a      	mov	r2, r5
    8ddc:	4b13      	ldr	r3, [pc, #76]	; (8e2c <_vfiprintf_r+0x204>)
    8dde:	f000 f8c9 	bl	8f74 <_printf_float>
    8de2:	e007      	b.n	8df4 <_vfiprintf_r+0x1cc>
    8de4:	ab03      	add	r3, sp, #12
    8de6:	9300      	str	r3, [sp, #0]
    8de8:	4630      	mov	r0, r6
    8dea:	a904      	add	r1, sp, #16
    8dec:	462a      	mov	r2, r5
    8dee:	4b0f      	ldr	r3, [pc, #60]	; (8e2c <_vfiprintf_r+0x204>)
    8df0:	f000 fb40 	bl	9474 <_printf_i>
    8df4:	f1b0 3fff 	cmp.w	r0, #4294967295
    8df8:	4680      	mov	r8, r0
    8dfa:	f47f af73 	bne.w	8ce4 <_vfiprintf_r+0xbc>
    8dfe:	89ab      	ldrh	r3, [r5, #12]
    8e00:	065b      	lsls	r3, r3, #25
    8e02:	f53f af3f 	bmi.w	8c84 <_vfiprintf_r+0x5c>
    8e06:	9809      	ldr	r0, [sp, #36]	; 0x24
    8e08:	b01d      	add	sp, #116	; 0x74
    8e0a:	e8bd 83f0 	ldmia.w	sp!, {r4, r5, r6, r7, r8, r9, pc}
    8e0e:	bf00      	nop
    8e10:	0000de60 	.word	0x0000de60
    8e14:	0000de80 	.word	0x0000de80
    8e18:	0000dea0 	.word	0x0000dea0
    8e1c:	0000dece 	.word	0x0000dece
    8e20:	0000ded2 	.word	0x0000ded2
    8e24:	00008f75 	.word	0x00008f75
    8e28:	0000dec8 	.word	0x0000dec8
    8e2c:	00008c03 	.word	0x00008c03

00008e30 <vfiprintf>:
    8e30:	b530      	push	{r4, r5, lr}
    8e32:	4613      	mov	r3, r2
    8e34:	4a04      	ldr	r2, [pc, #16]	; (8e48 <vfiprintf+0x18>)
    8e36:	4605      	mov	r5, r0
    8e38:	460c      	mov	r4, r1
    8e3a:	6810      	ldr	r0, [r2, #0]
    8e3c:	4629      	mov	r1, r5
    8e3e:	4622      	mov	r2, r4
    8e40:	e8bd 4030 	ldmia.w	sp!, {r4, r5, lr}
    8e44:	f7ff bef0 	b.w	8c28 <_vfiprintf_r>
    8e48:	1000013c 	.word	0x1000013c

00008e4c <__cvt>:
    8e4c:	e92d 47f0 	stmdb	sp!, {r4, r5, r6, r7, r8, r9, r10, lr}
    8e50:	2b00      	cmp	r3, #0
    8e52:	b088      	sub	sp, #32
    8e54:	4614      	mov	r4, r2
    8e56:	461d      	mov	r5, r3
    8e58:	9e10      	ldr	r6, [sp, #64]	; 0x40
    8e5a:	9912      	ldr	r1, [sp, #72]	; 0x48
    8e5c:	9f13      	ldr	r7, [sp, #76]	; 0x4c
    8e5e:	da05      	bge.n	8e6c <__cvt+0x20>
    8e60:	f105 4300 	add.w	r3, r5, #2147483648	; 0x80000000
    8e64:	461d      	mov	r5, r3
    8e66:	4614      	mov	r4, r2
    8e68:	232d      	movs	r3, #45	; 0x2d
    8e6a:	e000      	b.n	8e6e <__cvt+0x22>
    8e6c:	2300      	movs	r3, #0
    8e6e:	700b      	strb	r3, [r1, #0]
    8e70:	9b14      	ldr	r3, [sp, #80]	; 0x50
    8e72:	f023 0a20 	bic.w	r10, r3, #32
    8e76:	f1ba 0f46 	cmp.w	r10, #70	; 0x46
    8e7a:	d004      	beq.n	8e86 <__cvt+0x3a>
    8e7c:	f1ba 0f45 	cmp.w	r10, #69	; 0x45
    8e80:	d103      	bne.n	8e8a <__cvt+0x3e>
    8e82:	3601      	adds	r6, #1
    8e84:	e001      	b.n	8e8a <__cvt+0x3e>
    8e86:	2303      	movs	r3, #3
    8e88:	e000      	b.n	8e8c <__cvt+0x40>
    8e8a:	2302      	movs	r3, #2
    8e8c:	e88d 00c8 	stmia.w	sp, {r3, r6, r7}
    8e90:	ab06      	add	r3, sp, #24
    8e92:	9303      	str	r3, [sp, #12]
    8e94:	ab07      	add	r3, sp, #28
    8e96:	9304      	str	r3, [sp, #16]
    8e98:	4622      	mov	r2, r4
    8e9a:	462b      	mov	r3, r5
    8e9c:	f001 f8b4 	bl	a008 <_dtoa_r>
    8ea0:	f1ba 0f47 	cmp.w	r10, #71	; 0x47
    8ea4:	4680      	mov	r8, r0
    8ea6:	d102      	bne.n	8eae <__cvt+0x62>
    8ea8:	9b11      	ldr	r3, [sp, #68]	; 0x44
    8eaa:	07db      	lsls	r3, r3, #31
    8eac:	d525      	bpl.n	8efa <__cvt+0xae>
    8eae:	f1ba 0f46 	cmp.w	r10, #70	; 0x46
    8eb2:	eb08 0906 	add.w	r9, r8, r6
    8eb6:	d10f      	bne.n	8ed8 <__cvt+0x8c>
    8eb8:	f898 3000 	ldrb.w	r3, [r8]
    8ebc:	2b30      	cmp	r3, #48	; 0x30
    8ebe:	d109      	bne.n	8ed4 <__cvt+0x88>
    8ec0:	4620      	mov	r0, r4
    8ec2:	4629      	mov	r1, r5
    8ec4:	2200      	movs	r2, #0
    8ec6:	2300      	movs	r3, #0
    8ec8:	f003 fe4c 	bl	cb64 <__aeabi_dcmpeq>
    8ecc:	b910      	cbnz	r0, 8ed4 <__cvt+0x88>
    8ece:	f1c6 0601 	rsb	r6, r6, #1
    8ed2:	603e      	str	r6, [r7, #0]
    8ed4:	683b      	ldr	r3, [r7, #0]
    8ed6:	4499      	add	r9, r3
    8ed8:	4620      	mov	r0, r4
    8eda:	4629      	mov	r1, r5
    8edc:	2200      	movs	r2, #0
    8ede:	2300      	movs	r3, #0
    8ee0:	f003 fe40 	bl	cb64 <__aeabi_dcmpeq>
    8ee4:	b108      	cbz	r0, 8eea <__cvt+0x9e>
    8ee6:	f8cd 901c 	str.w	r9, [sp, #28]
    8eea:	9b07      	ldr	r3, [sp, #28]
    8eec:	454b      	cmp	r3, r9
    8eee:	d204      	bcs.n	8efa <__cvt+0xae>
    8ef0:	1c5a      	adds	r2, r3, #1
    8ef2:	9207      	str	r2, [sp, #28]
    8ef4:	2230      	movs	r2, #48	; 0x30
    8ef6:	701a      	strb	r2, [r3, #0]
    8ef8:	e7f7      	b.n	8eea <__cvt+0x9e>
    8efa:	9b07      	ldr	r3, [sp, #28]
    8efc:	4640      	mov	r0, r8
    8efe:	ebc8 0203 	rsb	r2, r8, r3
    8f02:	9b15      	ldr	r3, [sp, #84]	; 0x54
    8f04:	601a      	str	r2, [r3, #0]
    8f06:	b008      	add	sp, #32
    8f08:	e8bd 87f0 	ldmia.w	sp!, {r4, r5, r6, r7, r8, r9, r10, pc}

00008f0c <__exponent>:
    8f0c:	b573      	push	{r0, r1, r4, r5, r6, lr}
    8f0e:	4603      	mov	r3, r0
    8f10:	2900      	cmp	r1, #0
    8f12:	f803 2b02 	strb.w	r2, [r3], #2
    8f16:	da03      	bge.n	8f20 <__exponent+0x14>
    8f18:	4249      	negs	r1, r1
    8f1a:	461a      	mov	r2, r3
    8f1c:	242d      	movs	r4, #45	; 0x2d
    8f1e:	e001      	b.n	8f24 <__exponent+0x18>
    8f20:	461a      	mov	r2, r3
    8f22:	242b      	movs	r4, #43	; 0x2b
    8f24:	2909      	cmp	r1, #9
    8f26:	7044      	strb	r4, [r0, #1]
    8f28:	dd1b      	ble.n	8f62 <__exponent+0x56>
    8f2a:	f10d 0406 	add.w	r4, sp, #6
    8f2e:	260a      	movs	r6, #10
    8f30:	fb91 f5f6 	sdiv	r5, r1, r6
    8f34:	fb06 1115 	mls	r1, r6, r5, r1
    8f38:	2d09      	cmp	r5, #9
    8f3a:	f101 0130 	add.w	r1, r1, #48	; 0x30
    8f3e:	4623      	mov	r3, r4
    8f40:	f804 1901 	strb.w	r1, [r4], #-1
    8f44:	4629      	mov	r1, r5
    8f46:	dcf2      	bgt.n	8f2e <__exponent+0x22>
    8f48:	f105 0130 	add.w	r1, r5, #48	; 0x30
    8f4c:	f803 1d01 	strb.w	r1, [r3, #-1]!
    8f50:	f10d 0107 	add.w	r1, sp, #7
    8f54:	428b      	cmp	r3, r1
    8f56:	d20a      	bcs.n	8f6e <__exponent+0x62>
    8f58:	f813 1b01 	ldrb.w	r1, [r3], #1
    8f5c:	f802 1b01 	strb.w	r1, [r2], #1
    8f60:	e7f6      	b.n	8f50 <__exponent+0x44>
    8f62:	2430      	movs	r4, #48	; 0x30
    8f64:	461a      	mov	r2, r3
    8f66:	4421      	add	r1, r4
    8f68:	f802 4b02 	strb.w	r4, [r2], #2
    8f6c:	7059      	strb	r1, [r3, #1]
    8f6e:	1a10      	subs	r0, r2, r0
    8f70:	b002      	add	sp, #8
    8f72:	bd70      	pop	{r4, r5, r6, pc}

00008f74 <_printf_float>:
    8f74:	e92d 4ff0 	stmdb	sp!, {r4, r5, r6, r7, r8, r9, r10, r11, lr}
    8f78:	b08f      	sub	sp, #60	; 0x3c
    8f7a:	460c      	mov	r4, r1
    8f7c:	4616      	mov	r6, r2
    8f7e:	461f      	mov	r7, r3
    8f80:	f8dd 9060 	ldr.w	r9, [sp, #96]	; 0x60
    8f84:	4605      	mov	r5, r0
    8f86:	f001 fe59 	bl	ac3c <_localeconv_r>
    8f8a:	f8d0 a000 	ldr.w	r10, [r0]
    8f8e:	4650      	mov	r0, r10
    8f90:	f7ff fac1 	bl	8516 <strlen>
    8f94:	2300      	movs	r3, #0
    8f96:	930c      	str	r3, [sp, #48]	; 0x30
    8f98:	f8d9 3000 	ldr.w	r3, [r9]
    8f9c:	9009      	str	r0, [sp, #36]	; 0x24
    8f9e:	3307      	adds	r3, #7
    8fa0:	f023 0307 	bic.w	r3, r3, #7
    8fa4:	f103 0208 	add.w	r2, r3, #8
    8fa8:	e9d3 0100 	ldrd	r0, r1, [r3]
    8fac:	f894 8018 	ldrb.w	r8, [r4, #24]
    8fb0:	f8c9 2000 	str.w	r2, [r9]
    8fb4:	e9c4 0112 	strd	r0, r1, [r4, #72]	; 0x48
    8fb8:	f002 fab6 	bl	b528 <__fpclassifyd>
    8fbc:	2801      	cmp	r0, #1
    8fbe:	e9d4 0112 	ldrd	r0, r1, [r4, #72]	; 0x48
    8fc2:	d117      	bne.n	8ff4 <_printf_float+0x80>
    8fc4:	2200      	movs	r2, #0
    8fc6:	2300      	movs	r3, #0
    8fc8:	f003 fdd6 	bl	cb78 <__aeabi_dcmplt>
    8fcc:	b110      	cbz	r0, 8fd4 <_printf_float+0x60>
    8fce:	232d      	movs	r3, #45	; 0x2d
    8fd0:	f884 3043 	strb.w	r3, [r4, #67]	; 0x43
    8fd4:	4b90      	ldr	r3, [pc, #576]	; (9218 <_printf_float+0x2a4>)
    8fd6:	4a91      	ldr	r2, [pc, #580]	; (921c <_printf_float+0x2a8>)
    8fd8:	f1b8 0f47 	cmp.w	r8, #71	; 0x47
    8fdc:	bf8c      	ite	hi
    8fde:	4691      	movhi	r9, r2
    8fe0:	4699      	movls	r9, r3
    8fe2:	2303      	movs	r3, #3
    8fe4:	6123      	str	r3, [r4, #16]
    8fe6:	6823      	ldr	r3, [r4, #0]
    8fe8:	f023 0304 	bic.w	r3, r3, #4
    8fec:	6023      	str	r3, [r4, #0]
    8fee:	f04f 0b00 	mov.w	r11, #0
    8ff2:	e086      	b.n	9102 <_printf_float+0x18e>
    8ff4:	f002 fa98 	bl	b528 <__fpclassifyd>
    8ff8:	6823      	ldr	r3, [r4, #0]
    8ffa:	b948      	cbnz	r0, 9010 <_printf_float+0x9c>
    8ffc:	4a88      	ldr	r2, [pc, #544]	; (9220 <_printf_float+0x2ac>)
    8ffe:	4989      	ldr	r1, [pc, #548]	; (9224 <_printf_float+0x2b0>)
    9000:	f1b8 0f47 	cmp.w	r8, #71	; 0x47
    9004:	bf8c      	ite	hi
    9006:	4689      	movhi	r9, r1
    9008:	4691      	movls	r9, r2
    900a:	2203      	movs	r2, #3
    900c:	6122      	str	r2, [r4, #16]
    900e:	e7eb      	b.n	8fe8 <_printf_float+0x74>
    9010:	6862      	ldr	r2, [r4, #4]
    9012:	f028 0b20 	bic.w	r11, r8, #32
    9016:	1c51      	adds	r1, r2, #1
    9018:	d101      	bne.n	901e <_printf_float+0xaa>
    901a:	2206      	movs	r2, #6
    901c:	e004      	b.n	9028 <_printf_float+0xb4>
    901e:	f1bb 0f47 	cmp.w	r11, #71	; 0x47
    9022:	d102      	bne.n	902a <_printf_float+0xb6>
    9024:	b90a      	cbnz	r2, 902a <_printf_float+0xb6>
    9026:	2201      	movs	r2, #1
    9028:	6062      	str	r2, [r4, #4]
    902a:	6860      	ldr	r0, [r4, #4]
    902c:	f443 6180 	orr.w	r1, r3, #1024	; 0x400
    9030:	e88d 0003 	stmia.w	sp, {r0, r1}
    9034:	e9d4 2312 	ldrd	r2, r3, [r4, #72]	; 0x48
    9038:	f10d 002b 	add.w	r0, sp, #43	; 0x2b
    903c:	9002      	str	r0, [sp, #8]
    903e:	a80b      	add	r0, sp, #44	; 0x2c
    9040:	9003      	str	r0, [sp, #12]
    9042:	a80c      	add	r0, sp, #48	; 0x30
    9044:	9005      	str	r0, [sp, #20]
    9046:	2000      	movs	r0, #0
    9048:	6021      	str	r1, [r4, #0]
    904a:	9006      	str	r0, [sp, #24]
    904c:	f8cd 8010 	str.w	r8, [sp, #16]
    9050:	4628      	mov	r0, r5
    9052:	f7ff fefb 	bl	8e4c <__cvt>
    9056:	f1bb 0f47 	cmp.w	r11, #71	; 0x47
    905a:	4681      	mov	r9, r0
    905c:	990b      	ldr	r1, [sp, #44]	; 0x2c
    905e:	d109      	bne.n	9074 <_printf_float+0x100>
    9060:	1cc8      	adds	r0, r1, #3
    9062:	db02      	blt.n	906a <_printf_float+0xf6>
    9064:	6863      	ldr	r3, [r4, #4]
    9066:	4299      	cmp	r1, r3
    9068:	dd30      	ble.n	90cc <_printf_float+0x158>
    906a:	f1a8 0802 	sub.w	r8, r8, #2
    906e:	fa5f f888 	uxtb.w	r8, r8
    9072:	e002      	b.n	907a <_printf_float+0x106>
    9074:	f1b8 0f65 	cmp.w	r8, #101	; 0x65
    9078:	d812      	bhi.n	90a0 <_printf_float+0x12c>
    907a:	3901      	subs	r1, #1
    907c:	4642      	mov	r2, r8
    907e:	f104 0050 	add.w	r0, r4, #80	; 0x50
    9082:	910b      	str	r1, [sp, #44]	; 0x2c
    9084:	f7ff ff42 	bl	8f0c <__exponent>
    9088:	9a0c      	ldr	r2, [sp, #48]	; 0x30
    908a:	4683      	mov	r11, r0
    908c:	1883      	adds	r3, r0, r2
    908e:	2a01      	cmp	r2, #1
    9090:	6123      	str	r3, [r4, #16]
    9092:	dc02      	bgt.n	909a <_printf_float+0x126>
    9094:	6822      	ldr	r2, [r4, #0]
    9096:	07d2      	lsls	r2, r2, #31
    9098:	d52d      	bpl.n	90f6 <_printf_float+0x182>
    909a:	3301      	adds	r3, #1
    909c:	6123      	str	r3, [r4, #16]
    909e:	e02a      	b.n	90f6 <_printf_float+0x182>
    90a0:	f1b8 0f66 	cmp.w	r8, #102	; 0x66
    90a4:	d114      	bne.n	90d0 <_printf_float+0x15c>
    90a6:	2900      	cmp	r1, #0
    90a8:	6863      	ldr	r3, [r4, #4]
    90aa:	dd07      	ble.n	90bc <_printf_float+0x148>
    90ac:	6121      	str	r1, [r4, #16]
    90ae:	b913      	cbnz	r3, 90b6 <_printf_float+0x142>
    90b0:	6822      	ldr	r2, [r4, #0]
    90b2:	07d0      	lsls	r0, r2, #31
    90b4:	d51c      	bpl.n	90f0 <_printf_float+0x17c>
    90b6:	3301      	adds	r3, #1
    90b8:	440b      	add	r3, r1
    90ba:	e018      	b.n	90ee <_printf_float+0x17a>
    90bc:	b913      	cbnz	r3, 90c4 <_printf_float+0x150>
    90be:	6822      	ldr	r2, [r4, #0]
    90c0:	07d2      	lsls	r2, r2, #31
    90c2:	d501      	bpl.n	90c8 <_printf_float+0x154>
    90c4:	3302      	adds	r3, #2
    90c6:	e012      	b.n	90ee <_printf_float+0x17a>
    90c8:	2301      	movs	r3, #1
    90ca:	e010      	b.n	90ee <_printf_float+0x17a>
    90cc:	f04f 0867 	mov.w	r8, #103	; 0x67
    90d0:	9a0c      	ldr	r2, [sp, #48]	; 0x30
    90d2:	4291      	cmp	r1, r2
    90d4:	db05      	blt.n	90e2 <_printf_float+0x16e>
    90d6:	6823      	ldr	r3, [r4, #0]
    90d8:	6121      	str	r1, [r4, #16]
    90da:	07d8      	lsls	r0, r3, #31
    90dc:	d508      	bpl.n	90f0 <_printf_float+0x17c>
    90de:	1c4b      	adds	r3, r1, #1
    90e0:	e005      	b.n	90ee <_printf_float+0x17a>
    90e2:	2900      	cmp	r1, #0
    90e4:	bfd4      	ite	le
    90e6:	f1c1 0302 	rsble	r3, r1, #2
    90ea:	2301      	movgt	r3, #1
    90ec:	4413      	add	r3, r2
    90ee:	6123      	str	r3, [r4, #16]
    90f0:	65a1      	str	r1, [r4, #88]	; 0x58
    90f2:	f04f 0b00 	mov.w	r11, #0
    90f6:	f89d 302b 	ldrb.w	r3, [sp, #43]	; 0x2b
    90fa:	b113      	cbz	r3, 9102 <_printf_float+0x18e>
    90fc:	232d      	movs	r3, #45	; 0x2d
    90fe:	f884 3043 	strb.w	r3, [r4, #67]	; 0x43
    9102:	9700      	str	r7, [sp, #0]
    9104:	4628      	mov	r0, r5
    9106:	4621      	mov	r1, r4
    9108:	aa0d      	add	r2, sp, #52	; 0x34
    910a:	4633      	mov	r3, r6
    910c:	f000 f940 	bl	9390 <_printf_common>
    9110:	3001      	adds	r0, #1
    9112:	d102      	bne.n	911a <_printf_float+0x1a6>
    9114:	f04f 30ff 	mov.w	r0, #4294967295
    9118:	e136      	b.n	9388 <_printf_float+0x414>
    911a:	6823      	ldr	r3, [r4, #0]
    911c:	055a      	lsls	r2, r3, #21
    911e:	d404      	bmi.n	912a <_printf_float+0x1b6>
    9120:	4628      	mov	r0, r5
    9122:	4631      	mov	r1, r6
    9124:	464a      	mov	r2, r9
    9126:	6923      	ldr	r3, [r4, #16]
    9128:	e108      	b.n	933c <_printf_float+0x3c8>
    912a:	f1b8 0f65 	cmp.w	r8, #101	; 0x65
    912e:	f240 80cb 	bls.w	92c8 <_printf_float+0x354>
    9132:	e9d4 0112 	ldrd	r0, r1, [r4, #72]	; 0x48
    9136:	2200      	movs	r2, #0
    9138:	2300      	movs	r3, #0
    913a:	f003 fd13 	bl	cb64 <__aeabi_dcmpeq>
    913e:	2800      	cmp	r0, #0
    9140:	d02a      	beq.n	9198 <_printf_float+0x224>
    9142:	4628      	mov	r0, r5
    9144:	4631      	mov	r1, r6
    9146:	4a38      	ldr	r2, [pc, #224]	; (9228 <_printf_float+0x2b4>)
    9148:	2301      	movs	r3, #1
    914a:	47b8      	blx	r7
    914c:	3001      	adds	r0, #1
    914e:	d0e1      	beq.n	9114 <_printf_float+0x1a0>
    9150:	9b0c      	ldr	r3, [sp, #48]	; 0x30
    9152:	9a0b      	ldr	r2, [sp, #44]	; 0x2c
    9154:	429a      	cmp	r2, r3
    9156:	db07      	blt.n	9168 <_printf_float+0x1f4>
    9158:	6823      	ldr	r3, [r4, #0]
    915a:	07d8      	lsls	r0, r3, #31
    915c:	d404      	bmi.n	9168 <_printf_float+0x1f4>
    915e:	6823      	ldr	r3, [r4, #0]
    9160:	079b      	lsls	r3, r3, #30
    9162:	f100 80f8 	bmi.w	9356 <_printf_float+0x3e2>
    9166:	e0fd      	b.n	9364 <_printf_float+0x3f0>
    9168:	4628      	mov	r0, r5
    916a:	4631      	mov	r1, r6
    916c:	4652      	mov	r2, r10
    916e:	9b09      	ldr	r3, [sp, #36]	; 0x24
    9170:	47b8      	blx	r7
    9172:	3001      	adds	r0, #1
    9174:	d0ce      	beq.n	9114 <_printf_float+0x1a0>
    9176:	f04f 0800 	mov.w	r8, #0
    917a:	9b0c      	ldr	r3, [sp, #48]	; 0x30
    917c:	3b01      	subs	r3, #1
    917e:	4598      	cmp	r8, r3
    9180:	daed      	bge.n	915e <_printf_float+0x1ea>
    9182:	4628      	mov	r0, r5
    9184:	4631      	mov	r1, r6
    9186:	f104 021a 	add.w	r2, r4, #26
    918a:	2301      	movs	r3, #1
    918c:	47b8      	blx	r7
    918e:	3001      	adds	r0, #1
    9190:	d0c0      	beq.n	9114 <_printf_float+0x1a0>
    9192:	f108 0801 	add.w	r8, r8, #1
    9196:	e7f0      	b.n	917a <_printf_float+0x206>
    9198:	9b0b      	ldr	r3, [sp, #44]	; 0x2c
    919a:	2b00      	cmp	r3, #0
    919c:	dc28      	bgt.n	91f0 <_printf_float+0x27c>
    919e:	4628      	mov	r0, r5
    91a0:	4631      	mov	r1, r6
    91a2:	4a21      	ldr	r2, [pc, #132]	; (9228 <_printf_float+0x2b4>)
    91a4:	2301      	movs	r3, #1
    91a6:	47b8      	blx	r7
    91a8:	3001      	adds	r0, #1
    91aa:	d0b3      	beq.n	9114 <_printf_float+0x1a0>
    91ac:	9b0b      	ldr	r3, [sp, #44]	; 0x2c
    91ae:	b923      	cbnz	r3, 91ba <_printf_float+0x246>
    91b0:	9b0c      	ldr	r3, [sp, #48]	; 0x30
    91b2:	b913      	cbnz	r3, 91ba <_printf_float+0x246>
    91b4:	6823      	ldr	r3, [r4, #0]
    91b6:	07d9      	lsls	r1, r3, #31
    91b8:	d5d1      	bpl.n	915e <_printf_float+0x1ea>
    91ba:	4628      	mov	r0, r5
    91bc:	4631      	mov	r1, r6
    91be:	4652      	mov	r2, r10
    91c0:	9b09      	ldr	r3, [sp, #36]	; 0x24
    91c2:	47b8      	blx	r7
    91c4:	3001      	adds	r0, #1
    91c6:	d0a5      	beq.n	9114 <_printf_float+0x1a0>
    91c8:	f04f 0800 	mov.w	r8, #0
    91cc:	9b0b      	ldr	r3, [sp, #44]	; 0x2c
    91ce:	4628      	mov	r0, r5
    91d0:	425b      	negs	r3, r3
    91d2:	4598      	cmp	r8, r3
    91d4:	4631      	mov	r1, r6
    91d6:	da08      	bge.n	91ea <_printf_float+0x276>
    91d8:	f104 021a 	add.w	r2, r4, #26
    91dc:	2301      	movs	r3, #1
    91de:	47b8      	blx	r7
    91e0:	3001      	adds	r0, #1
    91e2:	d097      	beq.n	9114 <_printf_float+0x1a0>
    91e4:	f108 0801 	add.w	r8, r8, #1
    91e8:	e7f0      	b.n	91cc <_printf_float+0x258>
    91ea:	464a      	mov	r2, r9
    91ec:	9b0c      	ldr	r3, [sp, #48]	; 0x30
    91ee:	e0a5      	b.n	933c <_printf_float+0x3c8>
    91f0:	6da3      	ldr	r3, [r4, #88]	; 0x58
    91f2:	9a0c      	ldr	r2, [sp, #48]	; 0x30
    91f4:	429a      	cmp	r2, r3
    91f6:	bfb4      	ite	lt
    91f8:	4693      	movlt	r11, r2
    91fa:	469b      	movge	r11, r3
    91fc:	f1bb 0f00 	cmp.w	r11, #0
    9200:	dc02      	bgt.n	9208 <_printf_float+0x294>
    9202:	f04f 0800 	mov.w	r8, #0
    9206:	e01c      	b.n	9242 <_printf_float+0x2ce>
    9208:	4628      	mov	r0, r5
    920a:	4631      	mov	r1, r6
    920c:	464a      	mov	r2, r9
    920e:	465b      	mov	r3, r11
    9210:	47b8      	blx	r7
    9212:	3001      	adds	r0, #1
    9214:	d1f5      	bne.n	9202 <_printf_float+0x28e>
    9216:	e77d      	b.n	9114 <_printf_float+0x1a0>
    9218:	0000ded9 	.word	0x0000ded9
    921c:	0000dedd 	.word	0x0000dedd
    9220:	0000dee1 	.word	0x0000dee1
    9224:	0000dee5 	.word	0x0000dee5
    9228:	0000df32 	.word	0x0000df32
    922c:	4628      	mov	r0, r5
    922e:	4631      	mov	r1, r6
    9230:	f104 021a 	add.w	r2, r4, #26
    9234:	2301      	movs	r3, #1
    9236:	47b8      	blx	r7
    9238:	3001      	adds	r0, #1
    923a:	f43f af6b 	beq.w	9114 <_printf_float+0x1a0>
    923e:	f108 0801 	add.w	r8, r8, #1
    9242:	6da3      	ldr	r3, [r4, #88]	; 0x58
    9244:	ea2b 72eb 	bic.w	r2, r11, r11, asr #31
    9248:	1a9a      	subs	r2, r3, r2
    924a:	4590      	cmp	r8, r2
    924c:	dbee      	blt.n	922c <_printf_float+0x2b8>
    924e:	eb09 0803 	add.w	r8, r9, r3
    9252:	9a0b      	ldr	r2, [sp, #44]	; 0x2c
    9254:	9b0c      	ldr	r3, [sp, #48]	; 0x30
    9256:	429a      	cmp	r2, r3
    9258:	db0f      	blt.n	927a <_printf_float+0x306>
    925a:	6823      	ldr	r3, [r4, #0]
    925c:	07da      	lsls	r2, r3, #31
    925e:	d40c      	bmi.n	927a <_printf_float+0x306>
    9260:	9b0c      	ldr	r3, [sp, #48]	; 0x30
    9262:	9a0b      	ldr	r2, [sp, #44]	; 0x2c
    9264:	4499      	add	r9, r3
    9266:	ebc8 0909 	rsb	r9, r8, r9
    926a:	1a9b      	subs	r3, r3, r2
    926c:	4599      	cmp	r9, r3
    926e:	bfa8      	it	ge
    9270:	4699      	movge	r9, r3
    9272:	f1b9 0f00 	cmp.w	r9, #0
    9276:	dc08      	bgt.n	928a <_printf_float+0x316>
    9278:	e00f      	b.n	929a <_printf_float+0x326>
    927a:	4628      	mov	r0, r5
    927c:	4631      	mov	r1, r6
    927e:	4652      	mov	r2, r10
    9280:	9b09      	ldr	r3, [sp, #36]	; 0x24
    9282:	47b8      	blx	r7
    9284:	3001      	adds	r0, #1
    9286:	d1eb      	bne.n	9260 <_printf_float+0x2ec>
    9288:	e744      	b.n	9114 <_printf_float+0x1a0>
    928a:	4628      	mov	r0, r5
    928c:	4631      	mov	r1, r6
    928e:	4642      	mov	r2, r8
    9290:	464b      	mov	r3, r9
    9292:	47b8      	blx	r7
    9294:	3001      	adds	r0, #1
    9296:	f43f af3d 	beq.w	9114 <_printf_float+0x1a0>
    929a:	f04f 0800 	mov.w	r8, #0
    929e:	e00a      	b.n	92b6 <_printf_float+0x342>
    92a0:	4628      	mov	r0, r5
    92a2:	4631      	mov	r1, r6
    92a4:	f104 021a 	add.w	r2, r4, #26
    92a8:	2301      	movs	r3, #1
    92aa:	47b8      	blx	r7
    92ac:	3001      	adds	r0, #1
    92ae:	f43f af31 	beq.w	9114 <_printf_float+0x1a0>
    92b2:	f108 0801 	add.w	r8, r8, #1
    92b6:	9b0b      	ldr	r3, [sp, #44]	; 0x2c
    92b8:	9a0c      	ldr	r2, [sp, #48]	; 0x30
    92ba:	ea29 71e9 	bic.w	r1, r9, r9, asr #31
    92be:	1ad3      	subs	r3, r2, r3
    92c0:	1a5b      	subs	r3, r3, r1
    92c2:	4598      	cmp	r8, r3
    92c4:	dbec      	blt.n	92a0 <_printf_float+0x32c>
    92c6:	e74a      	b.n	915e <_printf_float+0x1ea>
    92c8:	9a0c      	ldr	r2, [sp, #48]	; 0x30
    92ca:	2a01      	cmp	r2, #1
    92cc:	dc01      	bgt.n	92d2 <_printf_float+0x35e>
    92ce:	07db      	lsls	r3, r3, #31
    92d0:	d539      	bpl.n	9346 <_printf_float+0x3d2>
    92d2:	4628      	mov	r0, r5
    92d4:	4631      	mov	r1, r6
    92d6:	464a      	mov	r2, r9
    92d8:	2301      	movs	r3, #1
    92da:	47b8      	blx	r7
    92dc:	3001      	adds	r0, #1
    92de:	f43f af19 	beq.w	9114 <_printf_float+0x1a0>
    92e2:	4628      	mov	r0, r5
    92e4:	4631      	mov	r1, r6
    92e6:	4652      	mov	r2, r10
    92e8:	9b09      	ldr	r3, [sp, #36]	; 0x24
    92ea:	47b8      	blx	r7
    92ec:	3001      	adds	r0, #1
    92ee:	f43f af11 	beq.w	9114 <_printf_float+0x1a0>
    92f2:	e9d4 0112 	ldrd	r0, r1, [r4, #72]	; 0x48
    92f6:	2200      	movs	r2, #0
    92f8:	2300      	movs	r3, #0
    92fa:	f003 fc33 	bl	cb64 <__aeabi_dcmpeq>
    92fe:	b110      	cbz	r0, 9306 <_printf_float+0x392>
    9300:	f04f 0800 	mov.w	r8, #0
    9304:	e011      	b.n	932a <_printf_float+0x3b6>
    9306:	9b0c      	ldr	r3, [sp, #48]	; 0x30
    9308:	4628      	mov	r0, r5
    930a:	4631      	mov	r1, r6
    930c:	f109 0201 	add.w	r2, r9, #1
    9310:	3b01      	subs	r3, #1
    9312:	e01c      	b.n	934e <_printf_float+0x3da>
    9314:	4628      	mov	r0, r5
    9316:	4631      	mov	r1, r6
    9318:	f104 021a 	add.w	r2, r4, #26
    931c:	2301      	movs	r3, #1
    931e:	47b8      	blx	r7
    9320:	3001      	adds	r0, #1
    9322:	f43f aef7 	beq.w	9114 <_printf_float+0x1a0>
    9326:	f108 0801 	add.w	r8, r8, #1
    932a:	9b0c      	ldr	r3, [sp, #48]	; 0x30
    932c:	3b01      	subs	r3, #1
    932e:	4598      	cmp	r8, r3
    9330:	dbf0      	blt.n	9314 <_printf_float+0x3a0>
    9332:	4628      	mov	r0, r5
    9334:	4631      	mov	r1, r6
    9336:	f104 0250 	add.w	r2, r4, #80	; 0x50
    933a:	465b      	mov	r3, r11
    933c:	47b8      	blx	r7
    933e:	3001      	adds	r0, #1
    9340:	f47f af0d 	bne.w	915e <_printf_float+0x1ea>
    9344:	e6e6      	b.n	9114 <_printf_float+0x1a0>
    9346:	4628      	mov	r0, r5
    9348:	4631      	mov	r1, r6
    934a:	464a      	mov	r2, r9
    934c:	2301      	movs	r3, #1
    934e:	47b8      	blx	r7
    9350:	3001      	adds	r0, #1
    9352:	d1ee      	bne.n	9332 <_printf_float+0x3be>
    9354:	e6de      	b.n	9114 <_printf_float+0x1a0>
    9356:	f04f 0800 	mov.w	r8, #0
    935a:	68e2      	ldr	r2, [r4, #12]
    935c:	9b0d      	ldr	r3, [sp, #52]	; 0x34
    935e:	1ad3      	subs	r3, r2, r3
    9360:	4598      	cmp	r8, r3
    9362:	db05      	blt.n	9370 <_printf_float+0x3fc>
    9364:	68e0      	ldr	r0, [r4, #12]
    9366:	9b0d      	ldr	r3, [sp, #52]	; 0x34
    9368:	4298      	cmp	r0, r3
    936a:	bfb8      	it	lt
    936c:	4618      	movlt	r0, r3
    936e:	e00b      	b.n	9388 <_printf_float+0x414>
    9370:	4628      	mov	r0, r5
    9372:	4631      	mov	r1, r6
    9374:	f104 0219 	add.w	r2, r4, #25
    9378:	2301      	movs	r3, #1
    937a:	47b8      	blx	r7
    937c:	3001      	adds	r0, #1
    937e:	f43f aec9 	beq.w	9114 <_printf_float+0x1a0>
    9382:	f108 0801 	add.w	r8, r8, #1
    9386:	e7e8      	b.n	935a <_printf_float+0x3e6>
    9388:	b00f      	add	sp, #60	; 0x3c
    938a:	e8bd 8ff0 	ldmia.w	sp!, {r4, r5, r6, r7, r8, r9, r10, r11, pc}
    938e:	bf00      	nop

00009390 <_printf_common>:
    9390:	e92d 43f8 	stmdb	sp!, {r3, r4, r5, r6, r7, r8, r9, lr}
    9394:	4615      	mov	r5, r2
    9396:	461f      	mov	r7, r3
    9398:	688a      	ldr	r2, [r1, #8]
    939a:	690b      	ldr	r3, [r1, #16]
    939c:	4606      	mov	r6, r0
    939e:	429a      	cmp	r2, r3
    93a0:	bfa8      	it	ge
    93a2:	4613      	movge	r3, r2
    93a4:	602b      	str	r3, [r5, #0]
    93a6:	f891 2043 	ldrb.w	r2, [r1, #67]	; 0x43
    93aa:	460c      	mov	r4, r1
    93ac:	f8dd 8020 	ldr.w	r8, [sp, #32]
    93b0:	b10a      	cbz	r2, 93b6 <_printf_common+0x26>
    93b2:	3301      	adds	r3, #1
    93b4:	602b      	str	r3, [r5, #0]
    93b6:	6823      	ldr	r3, [r4, #0]
    93b8:	0699      	lsls	r1, r3, #26
    93ba:	d502      	bpl.n	93c2 <_printf_common+0x32>
    93bc:	682b      	ldr	r3, [r5, #0]
    93be:	3302      	adds	r3, #2
    93c0:	602b      	str	r3, [r5, #0]
    93c2:	6823      	ldr	r3, [r4, #0]
    93c4:	f013 0906 	ands.w	r9, r3, #6
    93c8:	d01d      	beq.n	9406 <_printf_common+0x76>
    93ca:	f894 3043 	ldrb.w	r3, [r4, #67]	; 0x43
    93ce:	6822      	ldr	r2, [r4, #0]
    93d0:	3300      	adds	r3, #0
    93d2:	bf18      	it	ne
    93d4:	2301      	movne	r3, #1
    93d6:	0692      	lsls	r2, r2, #26
    93d8:	d51f      	bpl.n	941a <_printf_common+0x8a>
    93da:	18e1      	adds	r1, r4, r3
    93dc:	2030      	movs	r0, #48	; 0x30
    93de:	f881 0043 	strb.w	r0, [r1, #67]	; 0x43
    93e2:	1c5a      	adds	r2, r3, #1
    93e4:	f894 1045 	ldrb.w	r1, [r4, #69]	; 0x45
    93e8:	4422      	add	r2, r4
    93ea:	3302      	adds	r3, #2
    93ec:	f882 1043 	strb.w	r1, [r2, #67]	; 0x43
    93f0:	e013      	b.n	941a <_printf_common+0x8a>
    93f2:	4630      	mov	r0, r6
    93f4:	4639      	mov	r1, r7
    93f6:	f104 0219 	add.w	r2, r4, #25
    93fa:	2301      	movs	r3, #1
    93fc:	47c0      	blx	r8
    93fe:	3001      	adds	r0, #1
    9400:	d007      	beq.n	9412 <_printf_common+0x82>
    9402:	f109 0901 	add.w	r9, r9, #1
    9406:	68e2      	ldr	r2, [r4, #12]
    9408:	682b      	ldr	r3, [r5, #0]
    940a:	1ad3      	subs	r3, r2, r3
    940c:	4599      	cmp	r9, r3
    940e:	dbf0      	blt.n	93f2 <_printf_common+0x62>
    9410:	e7db      	b.n	93ca <_printf_common+0x3a>
    9412:	f04f 30ff 	mov.w	r0, #4294967295
    9416:	e8bd 83f8 	ldmia.w	sp!, {r3, r4, r5, r6, r7, r8, r9, pc}
    941a:	4630      	mov	r0, r6
    941c:	4639      	mov	r1, r7
    941e:	f104 0243 	add.w	r2, r4, #67	; 0x43
    9422:	47c0      	blx	r8
    9424:	3001      	adds	r0, #1
    9426:	d0f4      	beq.n	9412 <_printf_common+0x82>
    9428:	6823      	ldr	r3, [r4, #0]
    942a:	682a      	ldr	r2, [r5, #0]
    942c:	f003 0306 	and.w	r3, r3, #6
    9430:	68e1      	ldr	r1, [r4, #12]
    9432:	2b04      	cmp	r3, #4
    9434:	bf08      	it	eq
    9436:	ebc2 0501 	rsbeq	r5, r2, r1
    943a:	6923      	ldr	r3, [r4, #16]
    943c:	68a2      	ldr	r2, [r4, #8]
    943e:	bf0c      	ite	eq
    9440:	ea25 75e5 	biceq.w	r5, r5, r5, asr #31
    9444:	2500      	movne	r5, #0
    9446:	429a      	cmp	r2, r3
    9448:	bfc4      	itt	gt
    944a:	ebc3 0302 	rsbgt	r3, r3, r2
    944e:	18ed      	addgt	r5, r5, r3
    9450:	f04f 0900 	mov.w	r9, #0
    9454:	45a9      	cmp	r9, r5
    9456:	da0a      	bge.n	946e <_printf_common+0xde>
    9458:	4630      	mov	r0, r6
    945a:	4639      	mov	r1, r7
    945c:	f104 021a 	add.w	r2, r4, #26
    9460:	2301      	movs	r3, #1
    9462:	47c0      	blx	r8
    9464:	3001      	adds	r0, #1
    9466:	d0d4      	beq.n	9412 <_printf_common+0x82>
    9468:	f109 0901 	add.w	r9, r9, #1
    946c:	e7f2      	b.n	9454 <_printf_common+0xc4>
    946e:	2000      	movs	r0, #0
    9470:	e8bd 83f8 	ldmia.w	sp!, {r3, r4, r5, r6, r7, r8, r9, pc}

00009474 <_printf_i>:
    9474:	e92d 47ff 	stmdb	sp!, {r0, r1, r2, r3, r4, r5, r6, r7, r8, r9, r10, lr}
    9478:	7e0e      	ldrb	r6, [r1, #24]
    947a:	4680      	mov	r8, r0
    947c:	2e6e      	cmp	r6, #110	; 0x6e
    947e:	460c      	mov	r4, r1
    9480:	4691      	mov	r9, r2
    9482:	469a      	mov	r10, r3
    9484:	9d0c      	ldr	r5, [sp, #48]	; 0x30
    9486:	f101 0043 	add.w	r0, r1, #67	; 0x43
    948a:	f000 80a5 	beq.w	95d8 <_printf_i+0x164>
    948e:	d811      	bhi.n	94b4 <_printf_i+0x40>
    9490:	2e63      	cmp	r6, #99	; 0x63
    9492:	d022      	beq.n	94da <_printf_i+0x66>
    9494:	d809      	bhi.n	94aa <_printf_i+0x36>
    9496:	2e00      	cmp	r6, #0
    9498:	f000 80af 	beq.w	95fa <_printf_i+0x186>
    949c:	2e58      	cmp	r6, #88	; 0x58
    949e:	f040 80bf 	bne.w	9620 <_printf_i+0x1ac>
    94a2:	f881 6045 	strb.w	r6, [r1, #69]	; 0x45
    94a6:	4a7b      	ldr	r2, [pc, #492]	; (9694 <_printf_i+0x220>)
    94a8:	e04f      	b.n	954a <_printf_i+0xd6>
    94aa:	2e64      	cmp	r6, #100	; 0x64
    94ac:	d01e      	beq.n	94ec <_printf_i+0x78>
    94ae:	2e69      	cmp	r6, #105	; 0x69
    94b0:	d01c      	beq.n	94ec <_printf_i+0x78>
    94b2:	e0b5      	b.n	9620 <_printf_i+0x1ac>
    94b4:	2e73      	cmp	r6, #115	; 0x73
    94b6:	f000 80a4 	beq.w	9602 <_printf_i+0x18e>
    94ba:	d809      	bhi.n	94d0 <_printf_i+0x5c>
    94bc:	2e6f      	cmp	r6, #111	; 0x6f
    94be:	d02b      	beq.n	9518 <_printf_i+0xa4>
    94c0:	2e70      	cmp	r6, #112	; 0x70
    94c2:	f040 80ad 	bne.w	9620 <_printf_i+0x1ac>
    94c6:	680b      	ldr	r3, [r1, #0]
    94c8:	f043 0320 	orr.w	r3, r3, #32
    94cc:	600b      	str	r3, [r1, #0]
    94ce:	e038      	b.n	9542 <_printf_i+0xce>
    94d0:	2e75      	cmp	r6, #117	; 0x75
    94d2:	d021      	beq.n	9518 <_printf_i+0xa4>
    94d4:	2e78      	cmp	r6, #120	; 0x78
    94d6:	d034      	beq.n	9542 <_printf_i+0xce>
    94d8:	e0a2      	b.n	9620 <_printf_i+0x1ac>
    94da:	682b      	ldr	r3, [r5, #0]
    94dc:	f101 0742 	add.w	r7, r1, #66	; 0x42
    94e0:	1d1a      	adds	r2, r3, #4
    94e2:	681b      	ldr	r3, [r3, #0]
    94e4:	602a      	str	r2, [r5, #0]
    94e6:	f881 3042 	strb.w	r3, [r1, #66]	; 0x42
    94ea:	e09d      	b.n	9628 <_printf_i+0x1b4>
    94ec:	6822      	ldr	r2, [r4, #0]
    94ee:	682b      	ldr	r3, [r5, #0]
    94f0:	f012 0f80 	tst.w	r2, #128	; 0x80
    94f4:	d003      	beq.n	94fe <_printf_i+0x8a>
    94f6:	1d1a      	adds	r2, r3, #4
    94f8:	602a      	str	r2, [r5, #0]
    94fa:	681d      	ldr	r5, [r3, #0]
    94fc:	e005      	b.n	950a <_printf_i+0x96>
    94fe:	0651      	lsls	r1, r2, #25
    9500:	d5f9      	bpl.n	94f6 <_printf_i+0x82>
    9502:	1d1a      	adds	r2, r3, #4
    9504:	602a      	str	r2, [r5, #0]
    9506:	f9b3 5000 	ldrsh.w	r5, [r3]
    950a:	2d00      	cmp	r5, #0
    950c:	da39      	bge.n	9582 <_printf_i+0x10e>
    950e:	232d      	movs	r3, #45	; 0x2d
    9510:	426d      	negs	r5, r5
    9512:	f884 3043 	strb.w	r3, [r4, #67]	; 0x43
    9516:	e034      	b.n	9582 <_printf_i+0x10e>
    9518:	6822      	ldr	r2, [r4, #0]
    951a:	682b      	ldr	r3, [r5, #0]
    951c:	f012 0f80 	tst.w	r2, #128	; 0x80
    9520:	d003      	beq.n	952a <_printf_i+0xb6>
    9522:	1d1a      	adds	r2, r3, #4
    9524:	602a      	str	r2, [r5, #0]
    9526:	681d      	ldr	r5, [r3, #0]
    9528:	e004      	b.n	9534 <_printf_i+0xc0>
    952a:	0652      	lsls	r2, r2, #25
    952c:	d5f9      	bpl.n	9522 <_printf_i+0xae>
    952e:	1d1a      	adds	r2, r3, #4
    9530:	602a      	str	r2, [r5, #0]
    9532:	881d      	ldrh	r5, [r3, #0]
    9534:	7e23      	ldrb	r3, [r4, #24]
    9536:	4a57      	ldr	r2, [pc, #348]	; (9694 <_printf_i+0x220>)
    9538:	2b6f      	cmp	r3, #111	; 0x6f
    953a:	bf14      	ite	ne
    953c:	230a      	movne	r3, #10
    953e:	2308      	moveq	r3, #8
    9540:	e01b      	b.n	957a <_printf_i+0x106>
    9542:	2378      	movs	r3, #120	; 0x78
    9544:	4a54      	ldr	r2, [pc, #336]	; (9698 <_printf_i+0x224>)
    9546:	f884 3045 	strb.w	r3, [r4, #69]	; 0x45
    954a:	6823      	ldr	r3, [r4, #0]
    954c:	6829      	ldr	r1, [r5, #0]
    954e:	f013 0f80 	tst.w	r3, #128	; 0x80
    9552:	f101 0604 	add.w	r6, r1, #4
    9556:	602e      	str	r6, [r5, #0]
    9558:	d001      	beq.n	955e <_printf_i+0xea>
    955a:	680d      	ldr	r5, [r1, #0]
    955c:	e002      	b.n	9564 <_printf_i+0xf0>
    955e:	065f      	lsls	r7, r3, #25
    9560:	d5fb      	bpl.n	955a <_printf_i+0xe6>
    9562:	880d      	ldrh	r5, [r1, #0]
    9564:	07de      	lsls	r6, r3, #31
    9566:	bf44      	itt	mi
    9568:	f043 0320 	orrmi.w	r3, r3, #32
    956c:	6023      	strmi	r3, [r4, #0]
    956e:	b91d      	cbnz	r5, 9578 <_printf_i+0x104>
    9570:	6823      	ldr	r3, [r4, #0]
    9572:	f023 0320 	bic.w	r3, r3, #32
    9576:	6023      	str	r3, [r4, #0]
    9578:	2310      	movs	r3, #16
    957a:	2100      	movs	r1, #0
    957c:	f884 1043 	strb.w	r1, [r4, #67]	; 0x43
    9580:	e001      	b.n	9586 <_printf_i+0x112>
    9582:	4a44      	ldr	r2, [pc, #272]	; (9694 <_printf_i+0x220>)
    9584:	230a      	movs	r3, #10
    9586:	6866      	ldr	r6, [r4, #4]
    9588:	2e00      	cmp	r6, #0
    958a:	60a6      	str	r6, [r4, #8]
    958c:	db03      	blt.n	9596 <_printf_i+0x122>
    958e:	6821      	ldr	r1, [r4, #0]
    9590:	f021 0104 	bic.w	r1, r1, #4
    9594:	6021      	str	r1, [r4, #0]
    9596:	b905      	cbnz	r5, 959a <_printf_i+0x126>
    9598:	b16e      	cbz	r6, 95b6 <_printf_i+0x142>
    959a:	f104 0142 	add.w	r1, r4, #66	; 0x42
    959e:	fbb5 f6f3 	udiv	r6, r5, r3
    95a2:	fb03 5516 	mls	r5, r3, r6, r5
    95a6:	5d55      	ldrb	r5, [r2, r5]
    95a8:	460f      	mov	r7, r1
    95aa:	f801 5901 	strb.w	r5, [r1], #-1
    95ae:	4635      	mov	r5, r6
    95b0:	2e00      	cmp	r6, #0
    95b2:	d1f4      	bne.n	959e <_printf_i+0x12a>
    95b4:	e000      	b.n	95b8 <_printf_i+0x144>
    95b6:	4607      	mov	r7, r0
    95b8:	2b08      	cmp	r3, #8
    95ba:	d10a      	bne.n	95d2 <_printf_i+0x15e>
    95bc:	6823      	ldr	r3, [r4, #0]
    95be:	07dd      	lsls	r5, r3, #31
    95c0:	d507      	bpl.n	95d2 <_printf_i+0x15e>
    95c2:	6862      	ldr	r2, [r4, #4]
    95c4:	6923      	ldr	r3, [r4, #16]
    95c6:	429a      	cmp	r2, r3
    95c8:	dc03      	bgt.n	95d2 <_printf_i+0x15e>
    95ca:	2330      	movs	r3, #48	; 0x30
    95cc:	f807 3c01 	strb.w	r3, [r7, #-1]
    95d0:	3f01      	subs	r7, #1
    95d2:	1bc0      	subs	r0, r0, r7
    95d4:	6120      	str	r0, [r4, #16]
    95d6:	e02c      	b.n	9632 <_printf_i+0x1be>
    95d8:	6809      	ldr	r1, [r1, #0]
    95da:	682b      	ldr	r3, [r5, #0]
    95dc:	f011 0f80 	tst.w	r1, #128	; 0x80
    95e0:	6962      	ldr	r2, [r4, #20]
    95e2:	d004      	beq.n	95ee <_printf_i+0x17a>
    95e4:	1d19      	adds	r1, r3, #4
    95e6:	6029      	str	r1, [r5, #0]
    95e8:	681b      	ldr	r3, [r3, #0]
    95ea:	601a      	str	r2, [r3, #0]
    95ec:	e005      	b.n	95fa <_printf_i+0x186>
    95ee:	0649      	lsls	r1, r1, #25
    95f0:	d5f8      	bpl.n	95e4 <_printf_i+0x170>
    95f2:	1d19      	adds	r1, r3, #4
    95f4:	6029      	str	r1, [r5, #0]
    95f6:	681b      	ldr	r3, [r3, #0]
    95f8:	801a      	strh	r2, [r3, #0]
    95fa:	2300      	movs	r3, #0
    95fc:	6123      	str	r3, [r4, #16]
    95fe:	4607      	mov	r7, r0
    9600:	e017      	b.n	9632 <_printf_i+0x1be>
    9602:	682b      	ldr	r3, [r5, #0]
    9604:	1d1a      	adds	r2, r3, #4
    9606:	602a      	str	r2, [r5, #0]
    9608:	681f      	ldr	r7, [r3, #0]
    960a:	4638      	mov	r0, r7
    960c:	f7fe ff83 	bl	8516 <strlen>
    9610:	6863      	ldr	r3, [r4, #4]
    9612:	6120      	str	r0, [r4, #16]
    9614:	4298      	cmp	r0, r3
    9616:	bf88      	it	hi
    9618:	6123      	strhi	r3, [r4, #16]
    961a:	6923      	ldr	r3, [r4, #16]
    961c:	6063      	str	r3, [r4, #4]
    961e:	e005      	b.n	962c <_printf_i+0x1b8>
    9620:	f104 0742 	add.w	r7, r4, #66	; 0x42
    9624:	f884 6042 	strb.w	r6, [r4, #66]	; 0x42
    9628:	2301      	movs	r3, #1
    962a:	6123      	str	r3, [r4, #16]
    962c:	2300      	movs	r3, #0
    962e:	f884 3043 	strb.w	r3, [r4, #67]	; 0x43
    9632:	f8cd a000 	str.w	r10, [sp]
    9636:	4640      	mov	r0, r8
    9638:	4621      	mov	r1, r4
    963a:	aa03      	add	r2, sp, #12
    963c:	464b      	mov	r3, r9
    963e:	f7ff fea7 	bl	9390 <_printf_common>
    9642:	3001      	adds	r0, #1
    9644:	d102      	bne.n	964c <_printf_i+0x1d8>
    9646:	f04f 30ff 	mov.w	r0, #4294967295
    964a:	e01f      	b.n	968c <_printf_i+0x218>
    964c:	4640      	mov	r0, r8
    964e:	4649      	mov	r1, r9
    9650:	463a      	mov	r2, r7
    9652:	6923      	ldr	r3, [r4, #16]
    9654:	47d0      	blx	r10
    9656:	3001      	adds	r0, #1
    9658:	d0f5      	beq.n	9646 <_printf_i+0x1d2>
    965a:	6823      	ldr	r3, [r4, #0]
    965c:	079b      	lsls	r3, r3, #30
    965e:	d405      	bmi.n	966c <_printf_i+0x1f8>
    9660:	68e0      	ldr	r0, [r4, #12]
    9662:	9b03      	ldr	r3, [sp, #12]
    9664:	4298      	cmp	r0, r3
    9666:	bfb8      	it	lt
    9668:	4618      	movlt	r0, r3
    966a:	e00f      	b.n	968c <_printf_i+0x218>
    966c:	2500      	movs	r5, #0
    966e:	68e2      	ldr	r2, [r4, #12]
    9670:	9b03      	ldr	r3, [sp, #12]
    9672:	1ad3      	subs	r3, r2, r3
    9674:	429d      	cmp	r5, r3
    9676:	daf3      	bge.n	9660 <_printf_i+0x1ec>
    9678:	4640      	mov	r0, r8
    967a:	4649      	mov	r1, r9
    967c:	f104 0219 	add.w	r2, r4, #25
    9680:	2301      	movs	r3, #1
    9682:	47d0      	blx	r10
    9684:	3001      	adds	r0, #1
    9686:	d0de      	beq.n	9646 <_printf_i+0x1d2>
    9688:	3501      	adds	r5, #1
    968a:	e7f0      	b.n	966e <_printf_i+0x1fa>
    968c:	b004      	add	sp, #16
    968e:	e8bd 87f0 	ldmia.w	sp!, {r4, r5, r6, r7, r8, r9, r10, pc}
    9692:	bf00      	nop
    9694:	0000dee9 	.word	0x0000dee9
    9698:	0000defa 	.word	0x0000defa

0000969c <_scanf_float>:
    969c:	e92d 4ff0 	stmdb	sp!, {r4, r5, r6, r7, r8, r9, r10, r11, lr}
    96a0:	4616      	mov	r6, r2
    96a2:	688a      	ldr	r2, [r1, #8]
    96a4:	b087      	sub	sp, #28
    96a6:	9302      	str	r3, [sp, #8]
    96a8:	1e53      	subs	r3, r2, #1
    96aa:	f5b3 7fae 	cmp.w	r3, #348	; 0x15c
    96ae:	4607      	mov	r7, r0
    96b0:	460c      	mov	r4, r1
    96b2:	d906      	bls.n	96c2 <_scanf_float+0x26>
    96b4:	f46f 73ae 	mvn.w	r3, #348	; 0x15c
    96b8:	441a      	add	r2, r3
    96ba:	f240 135d 	movw	r3, #349	; 0x15d
    96be:	608b      	str	r3, [r1, #8]
    96c0:	e000      	b.n	96c4 <_scanf_float+0x28>
    96c2:	2200      	movs	r2, #0
    96c4:	6823      	ldr	r3, [r4, #0]
    96c6:	46a0      	mov	r8, r4
    96c8:	f443 63f0 	orr.w	r3, r3, #1920	; 0x780
    96cc:	f04f 0b00 	mov.w	r11, #0
    96d0:	f848 3b1c 	str.w	r3, [r8], #28
    96d4:	4645      	mov	r5, r8
    96d6:	46da      	mov	r10, r11
    96d8:	f8cd b014 	str.w	r11, [sp, #20]
    96dc:	f8cd b010 	str.w	r11, [sp, #16]
    96e0:	46d9      	mov	r9, r11
    96e2:	f8cd b00c 	str.w	r11, [sp, #12]
    96e6:	68a1      	ldr	r1, [r4, #8]
    96e8:	2900      	cmp	r1, #0
    96ea:	f000 80e9 	beq.w	98c0 <_scanf_float+0x224>
    96ee:	6833      	ldr	r3, [r6, #0]
    96f0:	781b      	ldrb	r3, [r3, #0]
    96f2:	2b49      	cmp	r3, #73	; 0x49
    96f4:	d075      	beq.n	97e2 <_scanf_float+0x146>
    96f6:	d816      	bhi.n	9726 <_scanf_float+0x8a>
    96f8:	2b39      	cmp	r3, #57	; 0x39
    96fa:	d80d      	bhi.n	9718 <_scanf_float+0x7c>
    96fc:	2b31      	cmp	r3, #49	; 0x31
    96fe:	d23e      	bcs.n	977e <_scanf_float+0xe2>
    9700:	2b2d      	cmp	r3, #45	; 0x2d
    9702:	d045      	beq.n	9790 <_scanf_float+0xf4>
    9704:	d802      	bhi.n	970c <_scanf_float+0x70>
    9706:	2b2b      	cmp	r3, #43	; 0x2b
    9708:	d042      	beq.n	9790 <_scanf_float+0xf4>
    970a:	e0d9      	b.n	98c0 <_scanf_float+0x224>
    970c:	2b2e      	cmp	r3, #46	; 0x2e
    970e:	f000 8097 	beq.w	9840 <_scanf_float+0x1a4>
    9712:	2b30      	cmp	r3, #48	; 0x30
    9714:	d023      	beq.n	975e <_scanf_float+0xc2>
    9716:	e0d3      	b.n	98c0 <_scanf_float+0x224>
    9718:	2b45      	cmp	r3, #69	; 0x45
    971a:	f000 809a 	beq.w	9852 <_scanf_float+0x1b6>
    971e:	2b46      	cmp	r3, #70	; 0x46
    9720:	d07c      	beq.n	981c <_scanf_float+0x180>
    9722:	2b41      	cmp	r3, #65	; 0x41
    9724:	e00c      	b.n	9740 <_scanf_float+0xa4>
    9726:	2b65      	cmp	r3, #101	; 0x65
    9728:	f000 8093 	beq.w	9852 <_scanf_float+0x1b6>
    972c:	d80a      	bhi.n	9744 <_scanf_float+0xa8>
    972e:	2b54      	cmp	r3, #84	; 0x54
    9730:	d07a      	beq.n	9828 <_scanf_float+0x18c>
    9732:	d802      	bhi.n	973a <_scanf_float+0x9e>
    9734:	2b4e      	cmp	r3, #78	; 0x4e
    9736:	d033      	beq.n	97a0 <_scanf_float+0x104>
    9738:	e0c2      	b.n	98c0 <_scanf_float+0x224>
    973a:	2b59      	cmp	r3, #89	; 0x59
    973c:	d07a      	beq.n	9834 <_scanf_float+0x198>
    973e:	2b61      	cmp	r3, #97	; 0x61
    9740:	d049      	beq.n	97d6 <_scanf_float+0x13a>
    9742:	e0bd      	b.n	98c0 <_scanf_float+0x224>
    9744:	2b6e      	cmp	r3, #110	; 0x6e
    9746:	d02b      	beq.n	97a0 <_scanf_float+0x104>
    9748:	d804      	bhi.n	9754 <_scanf_float+0xb8>
    974a:	2b66      	cmp	r3, #102	; 0x66
    974c:	d066      	beq.n	981c <_scanf_float+0x180>
    974e:	2b69      	cmp	r3, #105	; 0x69
    9750:	d047      	beq.n	97e2 <_scanf_float+0x146>
    9752:	e0b5      	b.n	98c0 <_scanf_float+0x224>
    9754:	2b74      	cmp	r3, #116	; 0x74
    9756:	d067      	beq.n	9828 <_scanf_float+0x18c>
    9758:	2b79      	cmp	r3, #121	; 0x79
    975a:	d06b      	beq.n	9834 <_scanf_float+0x198>
    975c:	e0b0      	b.n	98c0 <_scanf_float+0x224>
    975e:	6820      	ldr	r0, [r4, #0]
    9760:	f410 7f80 	tst.w	r0, #256	; 0x100
    9764:	d00b      	beq.n	977e <_scanf_float+0xe2>
    9766:	f020 0080 	bic.w	r0, r0, #128	; 0x80
    976a:	6020      	str	r0, [r4, #0]
    976c:	f109 0901 	add.w	r9, r9, #1
    9770:	2a00      	cmp	r2, #0
    9772:	f000 808c 	beq.w	988e <_scanf_float+0x1f2>
    9776:	3101      	adds	r1, #1
    9778:	3a01      	subs	r2, #1
    977a:	60a1      	str	r1, [r4, #8]
    977c:	e087      	b.n	988e <_scanf_float+0x1f2>
    977e:	eb0a 010b 	add.w	r1, r10, r11
    9782:	2900      	cmp	r1, #0
    9784:	f040 809c 	bne.w	98c0 <_scanf_float+0x224>
    9788:	6821      	ldr	r1, [r4, #0]
    978a:	f421 71c0 	bic.w	r1, r1, #384	; 0x180
    978e:	e005      	b.n	979c <_scanf_float+0x100>
    9790:	6821      	ldr	r1, [r4, #0]
    9792:	0608      	lsls	r0, r1, #24
    9794:	f140 8094 	bpl.w	98c0 <_scanf_float+0x224>
    9798:	f021 0180 	bic.w	r1, r1, #128	; 0x80
    979c:	6021      	str	r1, [r4, #0]
    979e:	e074      	b.n	988a <_scanf_float+0x1ee>
    97a0:	f1ba 0f00 	cmp.w	r10, #0
    97a4:	d10e      	bne.n	97c4 <_scanf_float+0x128>
    97a6:	f1b9 0f00 	cmp.w	r9, #0
    97aa:	d10e      	bne.n	97ca <_scanf_float+0x12e>
    97ac:	6821      	ldr	r1, [r4, #0]
    97ae:	f401 60e0 	and.w	r0, r1, #1792	; 0x700
    97b2:	f5b0 6fe0 	cmp.w	r0, #1792	; 0x700
    97b6:	d108      	bne.n	97ca <_scanf_float+0x12e>
    97b8:	f421 61f0 	bic.w	r1, r1, #1920	; 0x780
    97bc:	6021      	str	r1, [r4, #0]
    97be:	f04f 0a01 	mov.w	r10, #1
    97c2:	e062      	b.n	988a <_scanf_float+0x1ee>
    97c4:	f1ba 0f02 	cmp.w	r10, #2
    97c8:	d05d      	beq.n	9886 <_scanf_float+0x1ea>
    97ca:	f1bb 0f01 	cmp.w	r11, #1
    97ce:	d020      	beq.n	9812 <_scanf_float+0x176>
    97d0:	f1bb 0f04 	cmp.w	r11, #4
    97d4:	e01c      	b.n	9810 <_scanf_float+0x174>
    97d6:	f1ba 0f01 	cmp.w	r10, #1
    97da:	d171      	bne.n	98c0 <_scanf_float+0x224>
    97dc:	f04f 0a02 	mov.w	r10, #2
    97e0:	e053      	b.n	988a <_scanf_float+0x1ee>
    97e2:	f1bb 0f00 	cmp.w	r11, #0
    97e6:	d10e      	bne.n	9806 <_scanf_float+0x16a>
    97e8:	f1b9 0f00 	cmp.w	r9, #0
    97ec:	d16b      	bne.n	98c6 <_scanf_float+0x22a>
    97ee:	6821      	ldr	r1, [r4, #0]
    97f0:	f401 60e0 	and.w	r0, r1, #1792	; 0x700
    97f4:	f5b0 6fe0 	cmp.w	r0, #1792	; 0x700
    97f8:	d169      	bne.n	98ce <_scanf_float+0x232>
    97fa:	f421 61f0 	bic.w	r1, r1, #1920	; 0x780
    97fe:	6021      	str	r1, [r4, #0]
    9800:	f04f 0b01 	mov.w	r11, #1
    9804:	e041      	b.n	988a <_scanf_float+0x1ee>
    9806:	f1bb 0f03 	cmp.w	r11, #3
    980a:	d002      	beq.n	9812 <_scanf_float+0x176>
    980c:	f1bb 0f05 	cmp.w	r11, #5
    9810:	d156      	bne.n	98c0 <_scanf_float+0x224>
    9812:	f10b 0b01 	add.w	r11, r11, #1
    9816:	fa5f fb8b 	uxtb.w	r11, r11
    981a:	e036      	b.n	988a <_scanf_float+0x1ee>
    981c:	f1bb 0f02 	cmp.w	r11, #2
    9820:	d14e      	bne.n	98c0 <_scanf_float+0x224>
    9822:	f04f 0b03 	mov.w	r11, #3
    9826:	e030      	b.n	988a <_scanf_float+0x1ee>
    9828:	f1bb 0f06 	cmp.w	r11, #6
    982c:	d148      	bne.n	98c0 <_scanf_float+0x224>
    982e:	f04f 0b07 	mov.w	r11, #7
    9832:	e02a      	b.n	988a <_scanf_float+0x1ee>
    9834:	f1bb 0f07 	cmp.w	r11, #7
    9838:	d142      	bne.n	98c0 <_scanf_float+0x224>
    983a:	f04f 0b08 	mov.w	r11, #8
    983e:	e024      	b.n	988a <_scanf_float+0x1ee>
    9840:	6821      	ldr	r1, [r4, #0]
    9842:	0588      	lsls	r0, r1, #22
    9844:	d53c      	bpl.n	98c0 <_scanf_float+0x224>
    9846:	f421 7120 	bic.w	r1, r1, #640	; 0x280
    984a:	6021      	str	r1, [r4, #0]
    984c:	f8cd 900c 	str.w	r9, [sp, #12]
    9850:	e01b      	b.n	988a <_scanf_float+0x1ee>
    9852:	6821      	ldr	r1, [r4, #0]
    9854:	f401 60a0 	and.w	r0, r1, #1280	; 0x500
    9858:	f5b0 6f80 	cmp.w	r0, #1024	; 0x400
    985c:	d004      	beq.n	9868 <_scanf_float+0x1cc>
    985e:	0548      	lsls	r0, r1, #21
    9860:	d52e      	bpl.n	98c0 <_scanf_float+0x224>
    9862:	f1b9 0f00 	cmp.w	r9, #0
    9866:	d032      	beq.n	98ce <_scanf_float+0x232>
    9868:	0588      	lsls	r0, r1, #22
    986a:	d404      	bmi.n	9876 <_scanf_float+0x1da>
    986c:	9803      	ldr	r0, [sp, #12]
    986e:	9505      	str	r5, [sp, #20]
    9870:	ebc0 0009 	rsb	r0, r0, r9
    9874:	9004      	str	r0, [sp, #16]
    9876:	f421 61f0 	bic.w	r1, r1, #1920	; 0x780
    987a:	f441 71c0 	orr.w	r1, r1, #384	; 0x180
    987e:	6021      	str	r1, [r4, #0]
    9880:	f04f 0900 	mov.w	r9, #0
    9884:	e001      	b.n	988a <_scanf_float+0x1ee>
    9886:	f04f 0a03 	mov.w	r10, #3
    988a:	702b      	strb	r3, [r5, #0]
    988c:	3501      	adds	r5, #1
    988e:	68a3      	ldr	r3, [r4, #8]
    9890:	3b01      	subs	r3, #1
    9892:	60a3      	str	r3, [r4, #8]
    9894:	6923      	ldr	r3, [r4, #16]
    9896:	3301      	adds	r3, #1
    9898:	6123      	str	r3, [r4, #16]
    989a:	6873      	ldr	r3, [r6, #4]
    989c:	3b01      	subs	r3, #1
    989e:	2b00      	cmp	r3, #0
    98a0:	6073      	str	r3, [r6, #4]
    98a2:	dd03      	ble.n	98ac <_scanf_float+0x210>
    98a4:	6833      	ldr	r3, [r6, #0]
    98a6:	3301      	adds	r3, #1
    98a8:	6033      	str	r3, [r6, #0]
    98aa:	e71c      	b.n	96e6 <_scanf_float+0x4a>
    98ac:	9201      	str	r2, [sp, #4]
    98ae:	f8d4 3180 	ldr.w	r3, [r4, #384]	; 0x180
    98b2:	4638      	mov	r0, r7
    98b4:	4631      	mov	r1, r6
    98b6:	4798      	blx	r3
    98b8:	9a01      	ldr	r2, [sp, #4]
    98ba:	2800      	cmp	r0, #0
    98bc:	f43f af13 	beq.w	96e6 <_scanf_float+0x4a>
    98c0:	f1b9 0f00 	cmp.w	r9, #0
    98c4:	d003      	beq.n	98ce <_scanf_float+0x232>
    98c6:	6823      	ldr	r3, [r4, #0]
    98c8:	f423 7380 	bic.w	r3, r3, #256	; 0x100
    98cc:	6023      	str	r3, [r4, #0]
    98ce:	f10a 3aff 	add.w	r10, r10, #4294967295
    98d2:	f1ba 0f01 	cmp.w	r10, #1
    98d6:	d810      	bhi.n	98fa <_scanf_float+0x25e>
    98d8:	4545      	cmp	r5, r8
    98da:	462a      	mov	r2, r5
    98dc:	d90b      	bls.n	98f6 <_scanf_float+0x25a>
    98de:	f8d4 317c 	ldr.w	r3, [r4, #380]	; 0x17c
    98e2:	f812 1c01 	ldrb.w	r1, [r2, #-1]
    98e6:	4638      	mov	r0, r7
    98e8:	4632      	mov	r2, r6
    98ea:	4798      	blx	r3
    98ec:	6923      	ldr	r3, [r4, #16]
    98ee:	3d01      	subs	r5, #1
    98f0:	3b01      	subs	r3, #1
    98f2:	6123      	str	r3, [r4, #16]
    98f4:	e7f0      	b.n	98d8 <_scanf_float+0x23c>
    98f6:	2601      	movs	r6, #1
    98f8:	e0b5      	b.n	9a66 <_scanf_float+0x3ca>
    98fa:	f10b 33ff 	add.w	r3, r11, #4294967295
    98fe:	2b06      	cmp	r3, #6
    9900:	d82c      	bhi.n	995c <_scanf_float+0x2c0>
    9902:	f1bb 0f02 	cmp.w	r11, #2
    9906:	d91a      	bls.n	993e <_scanf_float+0x2a2>
    9908:	f1ab 0b03 	sub.w	r11, r11, #3
    990c:	fa5f fb8b 	uxtb.w	r11, r11
    9910:	46aa      	mov	r10, r5
    9912:	ebcb 0c05 	rsb	r12, r11, r5
    9916:	45e2      	cmp	r10, r12
    9918:	d00e      	beq.n	9938 <_scanf_float+0x29c>
    991a:	f8d4 317c 	ldr.w	r3, [r4, #380]	; 0x17c
    991e:	f81a 1d01 	ldrb.w	r1, [r10, #-1]!
    9922:	4638      	mov	r0, r7
    9924:	f8cd c004 	str.w	r12, [sp, #4]
    9928:	4632      	mov	r2, r6
    992a:	4798      	blx	r3
    992c:	6923      	ldr	r3, [r4, #16]
    992e:	f8dd c004 	ldr.w	r12, [sp, #4]
    9932:	3b01      	subs	r3, #1
    9934:	6123      	str	r3, [r4, #16]
    9936:	e7ee      	b.n	9916 <_scanf_float+0x27a>
    9938:	ebcb 0505 	rsb	r5, r11, r5
    993c:	e00e      	b.n	995c <_scanf_float+0x2c0>
    993e:	4545      	cmp	r5, r8
    9940:	462a      	mov	r2, r5
    9942:	d9d8      	bls.n	98f6 <_scanf_float+0x25a>
    9944:	f8d4 317c 	ldr.w	r3, [r4, #380]	; 0x17c
    9948:	f812 1c01 	ldrb.w	r1, [r2, #-1]
    994c:	4638      	mov	r0, r7
    994e:	4632      	mov	r2, r6
    9950:	4798      	blx	r3
    9952:	6923      	ldr	r3, [r4, #16]
    9954:	3d01      	subs	r5, #1
    9956:	3b01      	subs	r3, #1
    9958:	6123      	str	r3, [r4, #16]
    995a:	e7f0      	b.n	993e <_scanf_float+0x2a2>
    995c:	6823      	ldr	r3, [r4, #0]
    995e:	05da      	lsls	r2, r3, #23
    9960:	d52e      	bpl.n	99c0 <_scanf_float+0x324>
    9962:	055b      	lsls	r3, r3, #21
    9964:	d50e      	bpl.n	9984 <_scanf_float+0x2e8>
    9966:	4545      	cmp	r5, r8
    9968:	462a      	mov	r2, r5
    996a:	d9c4      	bls.n	98f6 <_scanf_float+0x25a>
    996c:	f8d4 317c 	ldr.w	r3, [r4, #380]	; 0x17c
    9970:	f812 1c01 	ldrb.w	r1, [r2, #-1]
    9974:	4638      	mov	r0, r7
    9976:	4632      	mov	r2, r6
    9978:	4798      	blx	r3
    997a:	6923      	ldr	r3, [r4, #16]
    997c:	3d01      	subs	r5, #1
    997e:	3b01      	subs	r3, #1
    9980:	6123      	str	r3, [r4, #16]
    9982:	e7f0      	b.n	9966 <_scanf_float+0x2ca>
    9984:	f815 1c01 	ldrb.w	r1, [r5, #-1]
    9988:	6923      	ldr	r3, [r4, #16]
    998a:	2965      	cmp	r1, #101	; 0x65
    998c:	f103 33ff 	add.w	r3, r3, #4294967295
    9990:	f105 3aff 	add.w	r10, r5, #4294967295
    9994:	6123      	str	r3, [r4, #16]
    9996:	d00d      	beq.n	99b4 <_scanf_float+0x318>
    9998:	2945      	cmp	r1, #69	; 0x45
    999a:	d00b      	beq.n	99b4 <_scanf_float+0x318>
    999c:	f8d4 317c 	ldr.w	r3, [r4, #380]	; 0x17c
    99a0:	4638      	mov	r0, r7
    99a2:	4632      	mov	r2, r6
    99a4:	4798      	blx	r3
    99a6:	6923      	ldr	r3, [r4, #16]
    99a8:	f815 1c02 	ldrb.w	r1, [r5, #-2]
    99ac:	3b01      	subs	r3, #1
    99ae:	f1a5 0a02 	sub.w	r10, r5, #2
    99b2:	6123      	str	r3, [r4, #16]
    99b4:	f8d4 317c 	ldr.w	r3, [r4, #380]	; 0x17c
    99b8:	4638      	mov	r0, r7
    99ba:	4632      	mov	r2, r6
    99bc:	4798      	blx	r3
    99be:	4655      	mov	r5, r10
    99c0:	6826      	ldr	r6, [r4, #0]
    99c2:	f016 0610 	ands.w	r6, r6, #16
    99c6:	d14d      	bne.n	9a64 <_scanf_float+0x3c8>
    99c8:	702e      	strb	r6, [r5, #0]
    99ca:	6823      	ldr	r3, [r4, #0]
    99cc:	f403 63c0 	and.w	r3, r3, #1536	; 0x600
    99d0:	f5b3 6f80 	cmp.w	r3, #1024	; 0x400
    99d4:	d105      	bne.n	99e2 <_scanf_float+0x346>
    99d6:	9903      	ldr	r1, [sp, #12]
    99d8:	ebc1 0309 	rsb	r3, r1, r9
    99dc:	425a      	negs	r2, r3
    99de:	b963      	cbnz	r3, 99fa <_scanf_float+0x35e>
    99e0:	e015      	b.n	9a0e <_scanf_float+0x372>
    99e2:	9d04      	ldr	r5, [sp, #16]
    99e4:	b19d      	cbz	r5, 9a0e <_scanf_float+0x372>
    99e6:	9d05      	ldr	r5, [sp, #20]
    99e8:	4632      	mov	r2, r6
    99ea:	1c69      	adds	r1, r5, #1
    99ec:	4638      	mov	r0, r7
    99ee:	230a      	movs	r3, #10
    99f0:	f002 fc42 	bl	c278 <_strtol_r>
    99f4:	9d04      	ldr	r5, [sp, #16]
    99f6:	1b42      	subs	r2, r0, r5
    99f8:	9d05      	ldr	r5, [sp, #20]
    99fa:	f204 136f 	addw	r3, r4, #367	; 0x16f
    99fe:	429d      	cmp	r5, r3
    9a00:	bf28      	it	cs
    9a02:	f504 75b7 	addcs.w	r5, r4, #366	; 0x16e
    9a06:	4628      	mov	r0, r5
    9a08:	4919      	ldr	r1, [pc, #100]	; (9a70 <_scanf_float+0x3d4>)
    9a0a:	f7fe fce7 	bl	83dc <siprintf>
    9a0e:	4641      	mov	r1, r8
    9a10:	2200      	movs	r2, #0
    9a12:	4638      	mov	r0, r7
    9a14:	f001 fe14 	bl	b640 <_strtod_r>
    9a18:	6822      	ldr	r2, [r4, #0]
    9a1a:	9d02      	ldr	r5, [sp, #8]
    9a1c:	f012 0f02 	tst.w	r2, #2
    9a20:	4680      	mov	r8, r0
    9a22:	4689      	mov	r9, r1
    9a24:	682b      	ldr	r3, [r5, #0]
    9a26:	d002      	beq.n	9a2e <_scanf_float+0x392>
    9a28:	1d1a      	adds	r2, r3, #4
    9a2a:	602a      	str	r2, [r5, #0]
    9a2c:	e006      	b.n	9a3c <_scanf_float+0x3a0>
    9a2e:	9d02      	ldr	r5, [sp, #8]
    9a30:	f012 0f04 	tst.w	r2, #4
    9a34:	f103 0204 	add.w	r2, r3, #4
    9a38:	602a      	str	r2, [r5, #0]
    9a3a:	d003      	beq.n	9a44 <_scanf_float+0x3a8>
    9a3c:	681b      	ldr	r3, [r3, #0]
    9a3e:	e9c3 8900 	strd	r8, r9, [r3]
    9a42:	e00b      	b.n	9a5c <_scanf_float+0x3c0>
    9a44:	681d      	ldr	r5, [r3, #0]
    9a46:	f001 fd6f 	bl	b528 <__fpclassifyd>
    9a4a:	b910      	cbnz	r0, 9a52 <_scanf_float+0x3b6>
    9a4c:	f001 fdc0 	bl	b5d0 <nanf>
    9a50:	e003      	b.n	9a5a <_scanf_float+0x3be>
    9a52:	4640      	mov	r0, r8
    9a54:	4649      	mov	r1, r9
    9a56:	f7fd fb0d 	bl	7074 <__aeabi_d2f>
    9a5a:	6028      	str	r0, [r5, #0]
    9a5c:	68e3      	ldr	r3, [r4, #12]
    9a5e:	3301      	adds	r3, #1
    9a60:	60e3      	str	r3, [r4, #12]
    9a62:	e000      	b.n	9a66 <_scanf_float+0x3ca>
    9a64:	2600      	movs	r6, #0
    9a66:	4630      	mov	r0, r6
    9a68:	b007      	add	sp, #28
    9a6a:	e8bd 8ff0 	ldmia.w	sp!, {r4, r5, r6, r7, r8, r9, r10, r11, pc}
    9a6e:	bf00      	nop
    9a70:	0000df0b 	.word	0x0000df0b

00009a74 <_scanf_chars>:
    9a74:	e92d 41f0 	stmdb	sp!, {r4, r5, r6, r7, r8, lr}
    9a78:	4615      	mov	r5, r2
    9a7a:	688a      	ldr	r2, [r1, #8]
    9a7c:	4680      	mov	r8, r0
    9a7e:	460c      	mov	r4, r1
    9a80:	b932      	cbnz	r2, 9a90 <_scanf_chars+0x1c>
    9a82:	698a      	ldr	r2, [r1, #24]
    9a84:	2a00      	cmp	r2, #0
    9a86:	bf14      	ite	ne
    9a88:	f04f 32ff 	movne.w	r2, #4294967295
    9a8c:	2201      	moveq	r2, #1
    9a8e:	608a      	str	r2, [r1, #8]
    9a90:	6822      	ldr	r2, [r4, #0]
    9a92:	06d1      	lsls	r1, r2, #27
    9a94:	d403      	bmi.n	9a9e <_scanf_chars+0x2a>
    9a96:	681a      	ldr	r2, [r3, #0]
    9a98:	1d11      	adds	r1, r2, #4
    9a9a:	6019      	str	r1, [r3, #0]
    9a9c:	6817      	ldr	r7, [r2, #0]
    9a9e:	2600      	movs	r6, #0
    9aa0:	69a0      	ldr	r0, [r4, #24]
    9aa2:	b9e0      	cbnz	r0, 9ade <_scanf_chars+0x6a>
    9aa4:	6823      	ldr	r3, [r4, #0]
    9aa6:	3601      	adds	r6, #1
    9aa8:	06da      	lsls	r2, r3, #27
    9aaa:	d404      	bmi.n	9ab6 <_scanf_chars+0x42>
    9aac:	682b      	ldr	r3, [r5, #0]
    9aae:	3701      	adds	r7, #1
    9ab0:	781b      	ldrb	r3, [r3, #0]
    9ab2:	f807 3c01 	strb.w	r3, [r7, #-1]
    9ab6:	682a      	ldr	r2, [r5, #0]
    9ab8:	686b      	ldr	r3, [r5, #4]
    9aba:	3201      	adds	r2, #1
    9abc:	602a      	str	r2, [r5, #0]
    9abe:	68a2      	ldr	r2, [r4, #8]
    9ac0:	3b01      	subs	r3, #1
    9ac2:	3a01      	subs	r2, #1
    9ac4:	606b      	str	r3, [r5, #4]
    9ac6:	60a2      	str	r2, [r4, #8]
    9ac8:	b312      	cbz	r2, 9b10 <_scanf_chars+0x9c>
    9aca:	2b00      	cmp	r3, #0
    9acc:	dce8      	bgt.n	9aa0 <_scanf_chars+0x2c>
    9ace:	f8d4 3180 	ldr.w	r3, [r4, #384]	; 0x180
    9ad2:	4640      	mov	r0, r8
    9ad4:	4629      	mov	r1, r5
    9ad6:	4798      	blx	r3
    9ad8:	2800      	cmp	r0, #0
    9ada:	d0e1      	beq.n	9aa0 <_scanf_chars+0x2c>
    9adc:	e018      	b.n	9b10 <_scanf_chars+0x9c>
    9ade:	2801      	cmp	r0, #1
    9ae0:	d107      	bne.n	9af2 <_scanf_chars+0x7e>
    9ae2:	682a      	ldr	r2, [r5, #0]
    9ae4:	7811      	ldrb	r1, [r2, #0]
    9ae6:	6962      	ldr	r2, [r4, #20]
    9ae8:	5c52      	ldrb	r2, [r2, r1]
    9aea:	2a00      	cmp	r2, #0
    9aec:	d1da      	bne.n	9aa4 <_scanf_chars+0x30>
    9aee:	b1ee      	cbz	r6, 9b2c <_scanf_chars+0xb8>
    9af0:	e00e      	b.n	9b10 <_scanf_chars+0x9c>
    9af2:	2802      	cmp	r0, #2
    9af4:	d001      	beq.n	9afa <_scanf_chars+0x86>
    9af6:	b14e      	cbz	r6, 9b0c <_scanf_chars+0x98>
    9af8:	e00a      	b.n	9b10 <_scanf_chars+0x9c>
    9afa:	682a      	ldr	r2, [r5, #0]
    9afc:	490c      	ldr	r1, [pc, #48]	; (9b30 <_scanf_chars+0xbc>)
    9afe:	7812      	ldrb	r2, [r2, #0]
    9b00:	6809      	ldr	r1, [r1, #0]
    9b02:	440a      	add	r2, r1
    9b04:	7852      	ldrb	r2, [r2, #1]
    9b06:	0713      	lsls	r3, r2, #28
    9b08:	d5cc      	bpl.n	9aa4 <_scanf_chars+0x30>
    9b0a:	e7f4      	b.n	9af6 <_scanf_chars+0x82>
    9b0c:	2801      	cmp	r0, #1
    9b0e:	d00d      	beq.n	9b2c <_scanf_chars+0xb8>
    9b10:	6823      	ldr	r3, [r4, #0]
    9b12:	f013 0310 	ands.w	r3, r3, #16
    9b16:	d105      	bne.n	9b24 <_scanf_chars+0xb0>
    9b18:	68e2      	ldr	r2, [r4, #12]
    9b1a:	3201      	adds	r2, #1
    9b1c:	60e2      	str	r2, [r4, #12]
    9b1e:	69a2      	ldr	r2, [r4, #24]
    9b20:	b102      	cbz	r2, 9b24 <_scanf_chars+0xb0>
    9b22:	703b      	strb	r3, [r7, #0]
    9b24:	6923      	ldr	r3, [r4, #16]
    9b26:	2000      	movs	r0, #0
    9b28:	441e      	add	r6, r3
    9b2a:	6126      	str	r6, [r4, #16]
    9b2c:	e8bd 81f0 	ldmia.w	sp!, {r4, r5, r6, r7, r8, pc}
    9b30:	10000140 	.word	0x10000140

00009b34 <_scanf_i>:
    9b34:	e92d 4ff0 	stmdb	sp!, {r4, r5, r6, r7, r8, r9, r10, r11, lr}
    9b38:	b089      	sub	sp, #36	; 0x24
    9b3a:	460c      	mov	r4, r1
    9b3c:	4698      	mov	r8, r3
    9b3e:	a905      	add	r1, sp, #20
    9b40:	4b73      	ldr	r3, [pc, #460]	; (9d10 <_scanf_i+0x1dc>)
    9b42:	9102      	str	r1, [sp, #8]
    9b44:	4681      	mov	r9, r0
    9b46:	4616      	mov	r6, r2
    9b48:	e893 0007 	ldmia.w	r3, {r0, r1, r2}
    9b4c:	9b02      	ldr	r3, [sp, #8]
    9b4e:	e883 0007 	stmia.w	r3, {r0, r1, r2}
    9b52:	69a3      	ldr	r3, [r4, #24]
    9b54:	4a6f      	ldr	r2, [pc, #444]	; (9d14 <_scanf_i+0x1e0>)
    9b56:	4970      	ldr	r1, [pc, #448]	; (9d18 <_scanf_i+0x1e4>)
    9b58:	2b03      	cmp	r3, #3
    9b5a:	bf08      	it	eq
    9b5c:	4611      	moveq	r1, r2
    9b5e:	68a3      	ldr	r3, [r4, #8]
    9b60:	9103      	str	r1, [sp, #12]
    9b62:	1e5a      	subs	r2, r3, #1
    9b64:	f5b2 7fae 	cmp.w	r2, #348	; 0x15c
    9b68:	d907      	bls.n	9b7a <_scanf_i+0x46>
    9b6a:	f46f 75ae 	mvn.w	r5, #348	; 0x15c
    9b6e:	eb03 0a05 	add.w	r10, r3, r5
    9b72:	f240 135d 	movw	r3, #349	; 0x15d
    9b76:	60a3      	str	r3, [r4, #8]
    9b78:	e001      	b.n	9b7e <_scanf_i+0x4a>
    9b7a:	f04f 0a00 	mov.w	r10, #0
    9b7e:	6823      	ldr	r3, [r4, #0]
    9b80:	f104 071c 	add.w	r7, r4, #28
    9b84:	f443 6350 	orr.w	r3, r3, #3328	; 0xd00
    9b88:	6023      	str	r3, [r4, #0]
    9b8a:	46bb      	mov	r11, r7
    9b8c:	2300      	movs	r3, #0
    9b8e:	6832      	ldr	r2, [r6, #0]
    9b90:	a905      	add	r1, sp, #20
    9b92:	f851 0023 	ldr.w	r0, [r1, r3, lsl #2]
    9b96:	7811      	ldrb	r1, [r2, #0]
    9b98:	2202      	movs	r2, #2
    9b9a:	9301      	str	r3, [sp, #4]
    9b9c:	f7fe f9bc 	bl	7f18 <memchr>
    9ba0:	9b01      	ldr	r3, [sp, #4]
    9ba2:	2800      	cmp	r0, #0
    9ba4:	d035      	beq.n	9c12 <_scanf_i+0xde>
    9ba6:	2b01      	cmp	r3, #1
    9ba8:	d10b      	bne.n	9bc2 <_scanf_i+0x8e>
    9baa:	6862      	ldr	r2, [r4, #4]
    9bac:	b92a      	cbnz	r2, 9bba <_scanf_i+0x86>
    9bae:	2208      	movs	r2, #8
    9bb0:	6062      	str	r2, [r4, #4]
    9bb2:	6822      	ldr	r2, [r4, #0]
    9bb4:	f442 7200 	orr.w	r2, r2, #512	; 0x200
    9bb8:	6022      	str	r2, [r4, #0]
    9bba:	6822      	ldr	r2, [r4, #0]
    9bbc:	f422 62a0 	bic.w	r2, r2, #1280	; 0x500
    9bc0:	e00b      	b.n	9bda <_scanf_i+0xa6>
    9bc2:	2b02      	cmp	r3, #2
    9bc4:	d10a      	bne.n	9bdc <_scanf_i+0xa8>
    9bc6:	6822      	ldr	r2, [r4, #0]
    9bc8:	f402 61c0 	and.w	r1, r2, #1536	; 0x600
    9bcc:	f5b1 7f00 	cmp.w	r1, #512	; 0x200
    9bd0:	d11f      	bne.n	9c12 <_scanf_i+0xde>
    9bd2:	2110      	movs	r1, #16
    9bd4:	6061      	str	r1, [r4, #4]
    9bd6:	f442 7280 	orr.w	r2, r2, #256	; 0x100
    9bda:	6022      	str	r2, [r4, #0]
    9bdc:	68a2      	ldr	r2, [r4, #8]
    9bde:	1e51      	subs	r1, r2, #1
    9be0:	60a1      	str	r1, [r4, #8]
    9be2:	b1b2      	cbz	r2, 9c12 <_scanf_i+0xde>
    9be4:	6832      	ldr	r2, [r6, #0]
    9be6:	f10b 0501 	add.w	r5, r11, #1
    9bea:	1c51      	adds	r1, r2, #1
    9bec:	6031      	str	r1, [r6, #0]
    9bee:	7812      	ldrb	r2, [r2, #0]
    9bf0:	f88b 2000 	strb.w	r2, [r11]
    9bf4:	6872      	ldr	r2, [r6, #4]
    9bf6:	3a01      	subs	r2, #1
    9bf8:	2a00      	cmp	r2, #0
    9bfa:	6072      	str	r2, [r6, #4]
    9bfc:	dc08      	bgt.n	9c10 <_scanf_i+0xdc>
    9bfe:	9301      	str	r3, [sp, #4]
    9c00:	f8d4 2180 	ldr.w	r2, [r4, #384]	; 0x180
    9c04:	4648      	mov	r0, r9
    9c06:	4631      	mov	r1, r6
    9c08:	4790      	blx	r2
    9c0a:	9b01      	ldr	r3, [sp, #4]
    9c0c:	2800      	cmp	r0, #0
    9c0e:	d141      	bne.n	9c94 <_scanf_i+0x160>
    9c10:	46ab      	mov	r11, r5
    9c12:	3301      	adds	r3, #1
    9c14:	2b03      	cmp	r3, #3
    9c16:	d1ba      	bne.n	9b8e <_scanf_i+0x5a>
    9c18:	6863      	ldr	r3, [r4, #4]
    9c1a:	b90b      	cbnz	r3, 9c20 <_scanf_i+0xec>
    9c1c:	230a      	movs	r3, #10
    9c1e:	6063      	str	r3, [r4, #4]
    9c20:	6863      	ldr	r3, [r4, #4]
    9c22:	493e      	ldr	r1, [pc, #248]	; (9d1c <_scanf_i+0x1e8>)
    9c24:	6960      	ldr	r0, [r4, #20]
    9c26:	1ac9      	subs	r1, r1, r3
    9c28:	f001 fca0 	bl	b56c <__sccl>
    9c2c:	465d      	mov	r5, r11
    9c2e:	f04f 0b00 	mov.w	r11, #0
    9c32:	68a3      	ldr	r3, [r4, #8]
    9c34:	2b00      	cmp	r3, #0
    9c36:	d02f      	beq.n	9c98 <_scanf_i+0x164>
    9c38:	6832      	ldr	r2, [r6, #0]
    9c3a:	6960      	ldr	r0, [r4, #20]
    9c3c:	7811      	ldrb	r1, [r2, #0]
    9c3e:	5c40      	ldrb	r0, [r0, r1]
    9c40:	b350      	cbz	r0, 9c98 <_scanf_i+0x164>
    9c42:	2930      	cmp	r1, #48	; 0x30
    9c44:	6821      	ldr	r1, [r4, #0]
    9c46:	d10b      	bne.n	9c60 <_scanf_i+0x12c>
    9c48:	0508      	lsls	r0, r1, #20
    9c4a:	d509      	bpl.n	9c60 <_scanf_i+0x12c>
    9c4c:	f10b 0b01 	add.w	r11, r11, #1
    9c50:	f1ba 0f00 	cmp.w	r10, #0
    9c54:	d00b      	beq.n	9c6e <_scanf_i+0x13a>
    9c56:	3301      	adds	r3, #1
    9c58:	f10a 3aff 	add.w	r10, r10, #4294967295
    9c5c:	60a3      	str	r3, [r4, #8]
    9c5e:	e006      	b.n	9c6e <_scanf_i+0x13a>
    9c60:	f421 6110 	bic.w	r1, r1, #2304	; 0x900
    9c64:	6021      	str	r1, [r4, #0]
    9c66:	7813      	ldrb	r3, [r2, #0]
    9c68:	3501      	adds	r5, #1
    9c6a:	f805 3c01 	strb.w	r3, [r5, #-1]
    9c6e:	6873      	ldr	r3, [r6, #4]
    9c70:	3b01      	subs	r3, #1
    9c72:	2b00      	cmp	r3, #0
    9c74:	6073      	str	r3, [r6, #4]
    9c76:	dd03      	ble.n	9c80 <_scanf_i+0x14c>
    9c78:	6833      	ldr	r3, [r6, #0]
    9c7a:	3301      	adds	r3, #1
    9c7c:	6033      	str	r3, [r6, #0]
    9c7e:	e005      	b.n	9c8c <_scanf_i+0x158>
    9c80:	f8d4 3180 	ldr.w	r3, [r4, #384]	; 0x180
    9c84:	4648      	mov	r0, r9
    9c86:	4631      	mov	r1, r6
    9c88:	4798      	blx	r3
    9c8a:	b928      	cbnz	r0, 9c98 <_scanf_i+0x164>
    9c8c:	68a3      	ldr	r3, [r4, #8]
    9c8e:	3b01      	subs	r3, #1
    9c90:	60a3      	str	r3, [r4, #8]
    9c92:	e7ce      	b.n	9c32 <_scanf_i+0xfe>
    9c94:	f04f 0b00 	mov.w	r11, #0
    9c98:	6823      	ldr	r3, [r4, #0]
    9c9a:	05d9      	lsls	r1, r3, #23
    9c9c:	d50d      	bpl.n	9cba <_scanf_i+0x186>
    9c9e:	42bd      	cmp	r5, r7
    9ca0:	d909      	bls.n	9cb6 <_scanf_i+0x182>
    9ca2:	f815 1c01 	ldrb.w	r1, [r5, #-1]
    9ca6:	f8d4 317c 	ldr.w	r3, [r4, #380]	; 0x17c
    9caa:	4648      	mov	r0, r9
    9cac:	4632      	mov	r2, r6
    9cae:	4798      	blx	r3
    9cb0:	f105 3aff 	add.w	r10, r5, #4294967295
    9cb4:	4655      	mov	r5, r10
    9cb6:	42bd      	cmp	r5, r7
    9cb8:	d026      	beq.n	9d08 <_scanf_i+0x1d4>
    9cba:	6822      	ldr	r2, [r4, #0]
    9cbc:	f012 0210 	ands.w	r2, r2, #16
    9cc0:	d11b      	bne.n	9cfa <_scanf_i+0x1c6>
    9cc2:	702a      	strb	r2, [r5, #0]
    9cc4:	6863      	ldr	r3, [r4, #4]
    9cc6:	4648      	mov	r0, r9
    9cc8:	4639      	mov	r1, r7
    9cca:	9e03      	ldr	r6, [sp, #12]
    9ccc:	47b0      	blx	r6
    9cce:	6822      	ldr	r2, [r4, #0]
    9cd0:	f8d8 3000 	ldr.w	r3, [r8]
    9cd4:	f012 0f20 	tst.w	r2, #32
    9cd8:	d107      	bne.n	9cea <_scanf_i+0x1b6>
    9cda:	07d2      	lsls	r2, r2, #31
    9cdc:	d505      	bpl.n	9cea <_scanf_i+0x1b6>
    9cde:	1d1a      	adds	r2, r3, #4
    9ce0:	f8c8 2000 	str.w	r2, [r8]
    9ce4:	681b      	ldr	r3, [r3, #0]
    9ce6:	8018      	strh	r0, [r3, #0]
    9ce8:	e004      	b.n	9cf4 <_scanf_i+0x1c0>
    9cea:	1d1a      	adds	r2, r3, #4
    9cec:	f8c8 2000 	str.w	r2, [r8]
    9cf0:	681b      	ldr	r3, [r3, #0]
    9cf2:	6018      	str	r0, [r3, #0]
    9cf4:	68e3      	ldr	r3, [r4, #12]
    9cf6:	3301      	adds	r3, #1
    9cf8:	60e3      	str	r3, [r4, #12]
    9cfa:	6923      	ldr	r3, [r4, #16]
    9cfc:	1bed      	subs	r5, r5, r7
    9cfe:	44ab      	add	r11, r5
    9d00:	445b      	add	r3, r11
    9d02:	6123      	str	r3, [r4, #16]
    9d04:	2000      	movs	r0, #0
    9d06:	e000      	b.n	9d0a <_scanf_i+0x1d6>
    9d08:	2001      	movs	r0, #1
    9d0a:	b009      	add	sp, #36	; 0x24
    9d0c:	e8bd 8ff0 	ldmia.w	sp!, {r4, r5, r6, r7, r8, r9, r10, r11, pc}
    9d10:	0000df10 	.word	0x0000df10
    9d14:	0000c279 	.word	0x0000c279
    9d18:	0000c37d 	.word	0x0000c37d
    9d1c:	0000df2c 	.word	0x0000df2c

00009d20 <__swbuf_r>:
    9d20:	b570      	push	{r4, r5, r6, lr}
    9d22:	460e      	mov	r6, r1
    9d24:	4614      	mov	r4, r2
    9d26:	4605      	mov	r5, r0
    9d28:	b118      	cbz	r0, 9d32 <__swbuf_r+0x12>
    9d2a:	6983      	ldr	r3, [r0, #24]
    9d2c:	b90b      	cbnz	r3, 9d32 <__swbuf_r+0x12>
    9d2e:	f7fd fec3 	bl	7ab8 <__sinit>
    9d32:	4b22      	ldr	r3, [pc, #136]	; (9dbc <__swbuf_r+0x9c>)
    9d34:	429c      	cmp	r4, r3
    9d36:	d101      	bne.n	9d3c <__swbuf_r+0x1c>
    9d38:	686c      	ldr	r4, [r5, #4]
    9d3a:	e008      	b.n	9d4e <__swbuf_r+0x2e>
    9d3c:	4b20      	ldr	r3, [pc, #128]	; (9dc0 <__swbuf_r+0xa0>)
    9d3e:	429c      	cmp	r4, r3
    9d40:	d101      	bne.n	9d46 <__swbuf_r+0x26>
    9d42:	68ac      	ldr	r4, [r5, #8]
    9d44:	e003      	b.n	9d4e <__swbuf_r+0x2e>
    9d46:	4b1f      	ldr	r3, [pc, #124]	; (9dc4 <__swbuf_r+0xa4>)
    9d48:	429c      	cmp	r4, r3
    9d4a:	bf08      	it	eq
    9d4c:	68ec      	ldreq	r4, [r5, #12]
    9d4e:	69a3      	ldr	r3, [r4, #24]
    9d50:	60a3      	str	r3, [r4, #8]
    9d52:	89a3      	ldrh	r3, [r4, #12]
    9d54:	071a      	lsls	r2, r3, #28
    9d56:	d509      	bpl.n	9d6c <__swbuf_r+0x4c>
    9d58:	6923      	ldr	r3, [r4, #16]
    9d5a:	b13b      	cbz	r3, 9d6c <__swbuf_r+0x4c>
    9d5c:	6923      	ldr	r3, [r4, #16]
    9d5e:	6820      	ldr	r0, [r4, #0]
    9d60:	b2f6      	uxtb	r6, r6
    9d62:	1ac0      	subs	r0, r0, r3
    9d64:	6963      	ldr	r3, [r4, #20]
    9d66:	4298      	cmp	r0, r3
    9d68:	db0f      	blt.n	9d8a <__swbuf_r+0x6a>
    9d6a:	e008      	b.n	9d7e <__swbuf_r+0x5e>
    9d6c:	4628      	mov	r0, r5
    9d6e:	4621      	mov	r1, r4
    9d70:	f000 f83c 	bl	9dec <__swsetup_r>
    9d74:	2800      	cmp	r0, #0
    9d76:	d0f1      	beq.n	9d5c <__swbuf_r+0x3c>
    9d78:	f04f 30ff 	mov.w	r0, #4294967295
    9d7c:	bd70      	pop	{r4, r5, r6, pc}
    9d7e:	4628      	mov	r0, r5
    9d80:	4621      	mov	r1, r4
    9d82:	f7fd fdd5 	bl	7930 <_fflush_r>
    9d86:	2800      	cmp	r0, #0
    9d88:	d1f6      	bne.n	9d78 <__swbuf_r+0x58>
    9d8a:	68a3      	ldr	r3, [r4, #8]
    9d8c:	3001      	adds	r0, #1
    9d8e:	3b01      	subs	r3, #1
    9d90:	60a3      	str	r3, [r4, #8]
    9d92:	6823      	ldr	r3, [r4, #0]
    9d94:	1c5a      	adds	r2, r3, #1
    9d96:	6022      	str	r2, [r4, #0]
    9d98:	701e      	strb	r6, [r3, #0]
    9d9a:	6963      	ldr	r3, [r4, #20]
    9d9c:	4298      	cmp	r0, r3
    9d9e:	d004      	beq.n	9daa <__swbuf_r+0x8a>
    9da0:	89a3      	ldrh	r3, [r4, #12]
    9da2:	07db      	lsls	r3, r3, #31
    9da4:	d507      	bpl.n	9db6 <__swbuf_r+0x96>
    9da6:	2e0a      	cmp	r6, #10
    9da8:	d105      	bne.n	9db6 <__swbuf_r+0x96>
    9daa:	4628      	mov	r0, r5
    9dac:	4621      	mov	r1, r4
    9dae:	f7fd fdbf 	bl	7930 <_fflush_r>
    9db2:	2800      	cmp	r0, #0
    9db4:	d1e0      	bne.n	9d78 <__swbuf_r+0x58>
    9db6:	4630      	mov	r0, r6
    9db8:	bd70      	pop	{r4, r5, r6, pc}
    9dba:	bf00      	nop
    9dbc:	0000de60 	.word	0x0000de60
    9dc0:	0000de80 	.word	0x0000de80
    9dc4:	0000dea0 	.word	0x0000dea0

00009dc8 <_write_r>:
    9dc8:	b538      	push	{r3, r4, r5, lr}
    9dca:	4c07      	ldr	r4, [pc, #28]	; (9de8 <_write_r+0x20>)
    9dcc:	4605      	mov	r5, r0
    9dce:	2000      	movs	r0, #0
    9dd0:	6020      	str	r0, [r4, #0]
    9dd2:	4608      	mov	r0, r1
    9dd4:	4611      	mov	r1, r2
    9dd6:	461a      	mov	r2, r3
    9dd8:	f7f7 f9a0 	bl	111c <__wrap__write>
    9ddc:	1c43      	adds	r3, r0, #1
    9dde:	d102      	bne.n	9de6 <_write_r+0x1e>
    9de0:	6823      	ldr	r3, [r4, #0]
    9de2:	b103      	cbz	r3, 9de6 <_write_r+0x1e>
    9de4:	602b      	str	r3, [r5, #0]
    9de6:	bd38      	pop	{r3, r4, r5, pc}
    9de8:	10000c90 	.word	0x10000c90

00009dec <__swsetup_r>:
    9dec:	4b32      	ldr	r3, [pc, #200]	; (9eb8 <__swsetup_r+0xcc>)
    9dee:	b570      	push	{r4, r5, r6, lr}
    9df0:	681d      	ldr	r5, [r3, #0]
    9df2:	4606      	mov	r6, r0
    9df4:	460c      	mov	r4, r1
    9df6:	b125      	cbz	r5, 9e02 <__swsetup_r+0x16>
    9df8:	69ab      	ldr	r3, [r5, #24]
    9dfa:	b913      	cbnz	r3, 9e02 <__swsetup_r+0x16>
    9dfc:	4628      	mov	r0, r5
    9dfe:	f7fd fe5b 	bl	7ab8 <__sinit>
    9e02:	4b2e      	ldr	r3, [pc, #184]	; (9ebc <__swsetup_r+0xd0>)
    9e04:	429c      	cmp	r4, r3
    9e06:	d101      	bne.n	9e0c <__swsetup_r+0x20>
    9e08:	686c      	ldr	r4, [r5, #4]
    9e0a:	e008      	b.n	9e1e <__swsetup_r+0x32>
    9e0c:	4b2c      	ldr	r3, [pc, #176]	; (9ec0 <__swsetup_r+0xd4>)
    9e0e:	429c      	cmp	r4, r3
    9e10:	d101      	bne.n	9e16 <__swsetup_r+0x2a>
    9e12:	68ac      	ldr	r4, [r5, #8]
    9e14:	e003      	b.n	9e1e <__swsetup_r+0x32>
    9e16:	4b2b      	ldr	r3, [pc, #172]	; (9ec4 <__swsetup_r+0xd8>)
    9e18:	429c      	cmp	r4, r3
    9e1a:	bf08      	it	eq
    9e1c:	68ec      	ldreq	r4, [r5, #12]
    9e1e:	89a2      	ldrh	r2, [r4, #12]
    9e20:	b293      	uxth	r3, r2
    9e22:	0719      	lsls	r1, r3, #28
    9e24:	d420      	bmi.n	9e68 <__swsetup_r+0x7c>
    9e26:	06dd      	lsls	r5, r3, #27
    9e28:	d405      	bmi.n	9e36 <__swsetup_r+0x4a>
    9e2a:	2309      	movs	r3, #9
    9e2c:	f042 0240 	orr.w	r2, r2, #64	; 0x40
    9e30:	6033      	str	r3, [r6, #0]
    9e32:	81a2      	strh	r2, [r4, #12]
    9e34:	e03b      	b.n	9eae <__swsetup_r+0xc2>
    9e36:	0758      	lsls	r0, r3, #29
    9e38:	d512      	bpl.n	9e60 <__swsetup_r+0x74>
    9e3a:	6b61      	ldr	r1, [r4, #52]	; 0x34
    9e3c:	b141      	cbz	r1, 9e50 <__swsetup_r+0x64>
    9e3e:	f104 0344 	add.w	r3, r4, #68	; 0x44
    9e42:	4299      	cmp	r1, r3
    9e44:	d002      	beq.n	9e4c <__swsetup_r+0x60>
    9e46:	4630      	mov	r0, r6
    9e48:	f7fe f886 	bl	7f58 <_free_r>
    9e4c:	2300      	movs	r3, #0
    9e4e:	6363      	str	r3, [r4, #52]	; 0x34
    9e50:	89a3      	ldrh	r3, [r4, #12]
    9e52:	f023 0324 	bic.w	r3, r3, #36	; 0x24
    9e56:	81a3      	strh	r3, [r4, #12]
    9e58:	2300      	movs	r3, #0
    9e5a:	6063      	str	r3, [r4, #4]
    9e5c:	6923      	ldr	r3, [r4, #16]
    9e5e:	6023      	str	r3, [r4, #0]
    9e60:	89a3      	ldrh	r3, [r4, #12]
    9e62:	f043 0308 	orr.w	r3, r3, #8
    9e66:	81a3      	strh	r3, [r4, #12]
    9e68:	6923      	ldr	r3, [r4, #16]
    9e6a:	b94b      	cbnz	r3, 9e80 <__swsetup_r+0x94>
    9e6c:	89a3      	ldrh	r3, [r4, #12]
    9e6e:	f403 7320 	and.w	r3, r3, #640	; 0x280
    9e72:	f5b3 7f00 	cmp.w	r3, #512	; 0x200
    9e76:	d003      	beq.n	9e80 <__swsetup_r+0x94>
    9e78:	4630      	mov	r0, r6
    9e7a:	4621      	mov	r1, r4
    9e7c:	f7fd fff0 	bl	7e60 <__smakebuf_r>
    9e80:	89a3      	ldrh	r3, [r4, #12]
    9e82:	f013 0201 	ands.w	r2, r3, #1
    9e86:	d005      	beq.n	9e94 <__swsetup_r+0xa8>
    9e88:	2200      	movs	r2, #0
    9e8a:	60a2      	str	r2, [r4, #8]
    9e8c:	6962      	ldr	r2, [r4, #20]
    9e8e:	4252      	negs	r2, r2
    9e90:	61a2      	str	r2, [r4, #24]
    9e92:	e003      	b.n	9e9c <__swsetup_r+0xb0>
    9e94:	0799      	lsls	r1, r3, #30
    9e96:	bf58      	it	pl
    9e98:	6962      	ldrpl	r2, [r4, #20]
    9e9a:	60a2      	str	r2, [r4, #8]
    9e9c:	6922      	ldr	r2, [r4, #16]
    9e9e:	b94a      	cbnz	r2, 9eb4 <__swsetup_r+0xc8>
    9ea0:	f003 0080 	and.w	r0, r3, #128	; 0x80
    9ea4:	b280      	uxth	r0, r0
    9ea6:	b130      	cbz	r0, 9eb6 <__swsetup_r+0xca>
    9ea8:	f043 0340 	orr.w	r3, r3, #64	; 0x40
    9eac:	81a3      	strh	r3, [r4, #12]
    9eae:	f04f 30ff 	mov.w	r0, #4294967295
    9eb2:	bd70      	pop	{r4, r5, r6, pc}
    9eb4:	2000      	movs	r0, #0
    9eb6:	bd70      	pop	{r4, r5, r6, pc}
    9eb8:	1000013c 	.word	0x1000013c
    9ebc:	0000de60 	.word	0x0000de60
    9ec0:	0000de80 	.word	0x0000de80
    9ec4:	0000dea0 	.word	0x0000dea0

00009ec8 <_close_r>:
    9ec8:	b538      	push	{r3, r4, r5, lr}
    9eca:	4c06      	ldr	r4, [pc, #24]	; (9ee4 <_close_r+0x1c>)
    9ecc:	2300      	movs	r3, #0
    9ece:	4605      	mov	r5, r0
    9ed0:	4608      	mov	r0, r1
    9ed2:	6023      	str	r3, [r4, #0]
    9ed4:	f7fa fb88 	bl	45e8 <_close>
    9ed8:	1c43      	adds	r3, r0, #1
    9eda:	d102      	bne.n	9ee2 <_close_r+0x1a>
    9edc:	6823      	ldr	r3, [r4, #0]
    9ede:	b103      	cbz	r3, 9ee2 <_close_r+0x1a>
    9ee0:	602b      	str	r3, [r5, #0]
    9ee2:	bd38      	pop	{r3, r4, r5, pc}
    9ee4:	10000c90 	.word	0x10000c90

00009ee8 <quorem>:
    9ee8:	e92d 4ff7 	stmdb	sp!, {r0, r1, r2, r4, r5, r6, r7, r8, r9, r10, r11, lr}
    9eec:	6903      	ldr	r3, [r0, #16]
    9eee:	690c      	ldr	r4, [r1, #16]
    9ef0:	4680      	mov	r8, r0
    9ef2:	42a3      	cmp	r3, r4
    9ef4:	f2c0 8083 	blt.w	9ffe <quorem+0x116>
    9ef8:	3c01      	subs	r4, #1
    9efa:	00a2      	lsls	r2, r4, #2
    9efc:	f101 0714 	add.w	r7, r1, #20
    9f00:	f100 0514 	add.w	r5, r0, #20
    9f04:	4691      	mov	r9, r2
    9f06:	9200      	str	r2, [sp, #0]
    9f08:	f857 6024 	ldr.w	r6, [r7, r4, lsl #2]
    9f0c:	442a      	add	r2, r5
    9f0e:	9201      	str	r2, [sp, #4]
    9f10:	f855 2024 	ldr.w	r2, [r5, r4, lsl #2]
    9f14:	3601      	adds	r6, #1
    9f16:	fbb2 f6f6 	udiv	r6, r2, r6
    9f1a:	44b9      	add	r9, r7
    9f1c:	2e00      	cmp	r6, #0
    9f1e:	d03b      	beq.n	9f98 <quorem+0xb0>
    9f20:	f04f 0e00 	mov.w	lr, #0
    9f24:	463a      	mov	r2, r7
    9f26:	4628      	mov	r0, r5
    9f28:	46f3      	mov	r11, lr
    9f2a:	f852 cb04 	ldr.w	r12, [r2], #4
    9f2e:	6803      	ldr	r3, [r0, #0]
    9f30:	fa1f fa8c 	uxth.w	r10, r12
    9f34:	ea4f 4c1c 	mov.w	r12, r12, lsr #16
    9f38:	fb0a ea06 	mla	r10, r10, r6, lr
    9f3c:	fb0c fc06 	mul.w	r12, r12, r6
    9f40:	eb0c 4c1a 	add.w	r12, r12, r10, lsr #16
    9f44:	fa1f fa8a 	uxth.w	r10, r10
    9f48:	ebca 0b0b 	rsb	r11, r10, r11
    9f4c:	ea4f 4e1c 	mov.w	lr, r12, lsr #16
    9f50:	fa1f fa83 	uxth.w	r10, r3
    9f54:	fa1f fc8c 	uxth.w	r12, r12
    9f58:	44da      	add	r10, r11
    9f5a:	ebcc 4c13 	rsb	r12, r12, r3, lsr #16
    9f5e:	eb0c 4c2a 	add.w	r12, r12, r10, asr #16
    9f62:	fa1f fa8a 	uxth.w	r10, r10
    9f66:	ea4a 4a0c 	orr.w	r10, r10, r12, lsl #16
    9f6a:	454a      	cmp	r2, r9
    9f6c:	ea4f 4b2c 	mov.w	r11, r12, asr #16
    9f70:	f840 ab04 	str.w	r10, [r0], #4
    9f74:	d9d9      	bls.n	9f2a <quorem+0x42>
    9f76:	9a00      	ldr	r2, [sp, #0]
    9f78:	58ab      	ldr	r3, [r5, r2]
    9f7a:	b96b      	cbnz	r3, 9f98 <quorem+0xb0>
    9f7c:	9a01      	ldr	r2, [sp, #4]
    9f7e:	1f13      	subs	r3, r2, #4
    9f80:	42ab      	cmp	r3, r5
    9f82:	461a      	mov	r2, r3
    9f84:	d802      	bhi.n	9f8c <quorem+0xa4>
    9f86:	f8c8 4010 	str.w	r4, [r8, #16]
    9f8a:	e005      	b.n	9f98 <quorem+0xb0>
    9f8c:	6812      	ldr	r2, [r2, #0]
    9f8e:	3b04      	subs	r3, #4
    9f90:	2a00      	cmp	r2, #0
    9f92:	d1f8      	bne.n	9f86 <quorem+0x9e>
    9f94:	3c01      	subs	r4, #1
    9f96:	e7f3      	b.n	9f80 <quorem+0x98>
    9f98:	4640      	mov	r0, r8
    9f9a:	f001 f8d8 	bl	b14e <__mcmp>
    9f9e:	2800      	cmp	r0, #0
    9fa0:	db2b      	blt.n	9ffa <quorem+0x112>
    9fa2:	3601      	adds	r6, #1
    9fa4:	462b      	mov	r3, r5
    9fa6:	2000      	movs	r0, #0
    9fa8:	f857 cb04 	ldr.w	r12, [r7], #4
    9fac:	681a      	ldr	r2, [r3, #0]
    9fae:	fa1f f18c 	uxth.w	r1, r12
    9fb2:	1a41      	subs	r1, r0, r1
    9fb4:	fa1f fa82 	uxth.w	r10, r2
    9fb8:	ea4f 4c1c 	mov.w	r12, r12, lsr #16
    9fbc:	4451      	add	r1, r10
    9fbe:	ebcc 4212 	rsb	r2, r12, r2, lsr #16
    9fc2:	eb02 4221 	add.w	r2, r2, r1, asr #16
    9fc6:	b289      	uxth	r1, r1
    9fc8:	1410      	asrs	r0, r2, #16
    9fca:	454f      	cmp	r7, r9
    9fcc:	ea41 4202 	orr.w	r2, r1, r2, lsl #16
    9fd0:	f843 2b04 	str.w	r2, [r3], #4
    9fd4:	d9e8      	bls.n	9fa8 <quorem+0xc0>
    9fd6:	f855 2024 	ldr.w	r2, [r5, r4, lsl #2]
    9fda:	eb05 0384 	add.w	r3, r5, r4, lsl #2
    9fde:	b962      	cbnz	r2, 9ffa <quorem+0x112>
    9fe0:	3b04      	subs	r3, #4
    9fe2:	42ab      	cmp	r3, r5
    9fe4:	461a      	mov	r2, r3
    9fe6:	d802      	bhi.n	9fee <quorem+0x106>
    9fe8:	f8c8 4010 	str.w	r4, [r8, #16]
    9fec:	e005      	b.n	9ffa <quorem+0x112>
    9fee:	6812      	ldr	r2, [r2, #0]
    9ff0:	3b04      	subs	r3, #4
    9ff2:	2a00      	cmp	r2, #0
    9ff4:	d1f8      	bne.n	9fe8 <quorem+0x100>
    9ff6:	3c01      	subs	r4, #1
    9ff8:	e7f3      	b.n	9fe2 <quorem+0xfa>
    9ffa:	4630      	mov	r0, r6
    9ffc:	e000      	b.n	a000 <quorem+0x118>
    9ffe:	2000      	movs	r0, #0
    a000:	b003      	add	sp, #12
    a002:	e8bd 8ff0 	ldmia.w	sp!, {r4, r5, r6, r7, r8, r9, r10, r11, pc}
	...

0000a008 <_dtoa_r>:
    a008:	e92d 4ff0 	stmdb	sp!, {r4, r5, r6, r7, r8, r9, r10, r11, lr}
    a00c:	6a45      	ldr	r5, [r0, #36]	; 0x24
    a00e:	b09b      	sub	sp, #108	; 0x6c
    a010:	4682      	mov	r10, r0
    a012:	9c27      	ldr	r4, [sp, #156]	; 0x9c
    a014:	e9cd 2304 	strd	r2, r3, [sp, #16]
    a018:	b945      	cbnz	r5, a02c <_dtoa_r+0x24>
    a01a:	2010      	movs	r0, #16
    a01c:	f7f7 f8b2 	bl	1184 <__wrap_malloc>
    a020:	f8ca 0024 	str.w	r0, [r10, #36]	; 0x24
    a024:	6045      	str	r5, [r0, #4]
    a026:	6085      	str	r5, [r0, #8]
    a028:	6005      	str	r5, [r0, #0]
    a02a:	60c5      	str	r5, [r0, #12]
    a02c:	f8da 3024 	ldr.w	r3, [r10, #36]	; 0x24
    a030:	6819      	ldr	r1, [r3, #0]
    a032:	b161      	cbz	r1, a04e <_dtoa_r+0x46>
    a034:	685b      	ldr	r3, [r3, #4]
    a036:	2201      	movs	r2, #1
    a038:	604b      	str	r3, [r1, #4]
    a03a:	fa02 f303 	lsl.w	r3, r2, r3
    a03e:	4650      	mov	r0, r10
    a040:	608b      	str	r3, [r1, #8]
    a042:	f000 fe61 	bl	ad08 <_Bfree>
    a046:	f8da 3024 	ldr.w	r3, [r10, #36]	; 0x24
    a04a:	2200      	movs	r2, #0
    a04c:	601a      	str	r2, [r3, #0]
    a04e:	9805      	ldr	r0, [sp, #20]
    a050:	2800      	cmp	r0, #0
    a052:	da05      	bge.n	a060 <_dtoa_r+0x58>
    a054:	2301      	movs	r3, #1
    a056:	f020 4100 	bic.w	r1, r0, #2147483648	; 0x80000000
    a05a:	6023      	str	r3, [r4, #0]
    a05c:	9105      	str	r1, [sp, #20]
    a05e:	e001      	b.n	a064 <_dtoa_r+0x5c>
    a060:	2300      	movs	r3, #0
    a062:	6023      	str	r3, [r4, #0]
    a064:	9f05      	ldr	r7, [sp, #20]
    a066:	4a9c      	ldr	r2, [pc, #624]	; (a2d8 <_dtoa_r+0x2d0>)
    a068:	f027 4300 	bic.w	r3, r7, #2147483648	; 0x80000000
    a06c:	0d1b      	lsrs	r3, r3, #20
    a06e:	051b      	lsls	r3, r3, #20
    a070:	4293      	cmp	r3, r2
    a072:	d11d      	bne.n	a0b0 <_dtoa_r+0xa8>
    a074:	9a26      	ldr	r2, [sp, #152]	; 0x98
    a076:	f242 730f 	movw	r3, #9999	; 0x270f
    a07a:	6013      	str	r3, [r2, #0]
    a07c:	9b04      	ldr	r3, [sp, #16]
    a07e:	b943      	cbnz	r3, a092 <_dtoa_r+0x8a>
    a080:	4b96      	ldr	r3, [pc, #600]	; (a2dc <_dtoa_r+0x2d4>)
    a082:	4a97      	ldr	r2, [pc, #604]	; (a2e0 <_dtoa_r+0x2d8>)
    a084:	f3c7 0013 	ubfx	r0, r7, #0, #20
    a088:	2800      	cmp	r0, #0
    a08a:	bf0c      	ite	eq
    a08c:	4610      	moveq	r0, r2
    a08e:	4618      	movne	r0, r3
    a090:	e000      	b.n	a094 <_dtoa_r+0x8c>
    a092:	4892      	ldr	r0, [pc, #584]	; (a2dc <_dtoa_r+0x2d4>)
    a094:	9f28      	ldr	r7, [sp, #160]	; 0xa0
    a096:	2f00      	cmp	r7, #0
    a098:	f000 8571 	beq.w	ab7e <_dtoa_r+0xb76>
    a09c:	78c3      	ldrb	r3, [r0, #3]
    a09e:	b113      	cbz	r3, a0a6 <_dtoa_r+0x9e>
    a0a0:	f100 0308 	add.w	r3, r0, #8
    a0a4:	e000      	b.n	a0a8 <_dtoa_r+0xa0>
    a0a6:	1cc3      	adds	r3, r0, #3
    a0a8:	9f28      	ldr	r7, [sp, #160]	; 0xa0
    a0aa:	603b      	str	r3, [r7, #0]
    a0ac:	f000 bd67 	b.w	ab7e <_dtoa_r+0xb76>
    a0b0:	e9dd 4504 	ldrd	r4, r5, [sp, #16]
    a0b4:	2200      	movs	r2, #0
    a0b6:	4620      	mov	r0, r4
    a0b8:	4629      	mov	r1, r5
    a0ba:	2300      	movs	r3, #0
    a0bc:	f002 fd52 	bl	cb64 <__aeabi_dcmpeq>
    a0c0:	4680      	mov	r8, r0
    a0c2:	b158      	cbz	r0, a0dc <_dtoa_r+0xd4>
    a0c4:	9f26      	ldr	r7, [sp, #152]	; 0x98
    a0c6:	2301      	movs	r3, #1
    a0c8:	603b      	str	r3, [r7, #0]
    a0ca:	9f28      	ldr	r7, [sp, #160]	; 0xa0
    a0cc:	2f00      	cmp	r7, #0
    a0ce:	f000 8553 	beq.w	ab78 <_dtoa_r+0xb70>
    a0d2:	4884      	ldr	r0, [pc, #528]	; (a2e4 <_dtoa_r+0x2dc>)
    a0d4:	6038      	str	r0, [r7, #0]
    a0d6:	3801      	subs	r0, #1
    a0d8:	f000 bd51 	b.w	ab7e <_dtoa_r+0xb76>
    a0dc:	ab19      	add	r3, sp, #100	; 0x64
    a0de:	9300      	str	r3, [sp, #0]
    a0e0:	ab18      	add	r3, sp, #96	; 0x60
    a0e2:	9301      	str	r3, [sp, #4]
    a0e4:	4650      	mov	r0, r10
    a0e6:	4622      	mov	r2, r4
    a0e8:	462b      	mov	r3, r5
    a0ea:	f001 f922 	bl	b332 <__d2b>
    a0ee:	f3c7 560a 	ubfx	r6, r7, #20, #11
    a0f2:	4683      	mov	r11, r0
    a0f4:	b15e      	cbz	r6, a10e <_dtoa_r+0x106>
    a0f6:	f3c5 0313 	ubfx	r3, r5, #0, #20
    a0fa:	f043 517f 	orr.w	r1, r3, #1069547520	; 0x3fc00000
    a0fe:	4620      	mov	r0, r4
    a100:	f441 1140 	orr.w	r1, r1, #3145728	; 0x300000
    a104:	f2a6 36ff 	subw	r6, r6, #1023	; 0x3ff
    a108:	f8cd 8054 	str.w	r8, [sp, #84]	; 0x54
    a10c:	e01c      	b.n	a148 <_dtoa_r+0x140>
    a10e:	9b19      	ldr	r3, [sp, #100]	; 0x64
    a110:	9e18      	ldr	r6, [sp, #96]	; 0x60
    a112:	441e      	add	r6, r3
    a114:	f46f 6382 	mvn.w	r3, #1040	; 0x410
    a118:	429e      	cmp	r6, r3
    a11a:	db09      	blt.n	a130 <_dtoa_r+0x128>
    a11c:	9904      	ldr	r1, [sp, #16]
    a11e:	331f      	adds	r3, #31
    a120:	f206 4012 	addw	r0, r6, #1042	; 0x412
    a124:	1b9b      	subs	r3, r3, r6
    a126:	fa21 f000 	lsr.w	r0, r1, r0
    a12a:	409f      	lsls	r7, r3
    a12c:	4338      	orrs	r0, r7
    a12e:	e004      	b.n	a13a <_dtoa_r+0x132>
    a130:	486d      	ldr	r0, [pc, #436]	; (a2e8 <_dtoa_r+0x2e0>)
    a132:	9a04      	ldr	r2, [sp, #16]
    a134:	1b80      	subs	r0, r0, r6
    a136:	fa02 f000 	lsl.w	r0, r2, r0
    a13a:	f7fc fceb 	bl	6b14 <__aeabi_ui2d>
    a13e:	2701      	movs	r7, #1
    a140:	f1a1 71f8 	sub.w	r1, r1, #32505856	; 0x1f00000
    a144:	3e01      	subs	r6, #1
    a146:	9715      	str	r7, [sp, #84]	; 0x54
    a148:	2200      	movs	r2, #0
    a14a:	4b68      	ldr	r3, [pc, #416]	; (a2ec <_dtoa_r+0x2e4>)
    a14c:	f7fc fba4 	bl	6898 <__aeabi_dsub>
    a150:	a35b      	add	r3, pc, #364	; (adr r3, a2c0 <_dtoa_r+0x2b8>)
    a152:	e9d3 2300 	ldrd	r2, r3, [r3]
    a156:	f7fc fd53 	bl	6c00 <__aeabi_dmul>
    a15a:	a35b      	add	r3, pc, #364	; (adr r3, a2c8 <_dtoa_r+0x2c0>)
    a15c:	e9d3 2300 	ldrd	r2, r3, [r3]
    a160:	f7fc fb9c 	bl	689c <__adddf3>
    a164:	4604      	mov	r4, r0
    a166:	4630      	mov	r0, r6
    a168:	460d      	mov	r5, r1
    a16a:	f7fc fce3 	bl	6b34 <__aeabi_i2d>
    a16e:	a358      	add	r3, pc, #352	; (adr r3, a2d0 <_dtoa_r+0x2c8>)
    a170:	e9d3 2300 	ldrd	r2, r3, [r3]
    a174:	f7fc fd44 	bl	6c00 <__aeabi_dmul>
    a178:	4602      	mov	r2, r0
    a17a:	460b      	mov	r3, r1
    a17c:	4620      	mov	r0, r4
    a17e:	4629      	mov	r1, r5
    a180:	f7fc fb8c 	bl	689c <__adddf3>
    a184:	4604      	mov	r4, r0
    a186:	460d      	mov	r5, r1
    a188:	f7fc ff4c 	bl	7024 <__aeabi_d2iz>
    a18c:	4629      	mov	r1, r5
    a18e:	4681      	mov	r9, r0
    a190:	2200      	movs	r2, #0
    a192:	4620      	mov	r0, r4
    a194:	2300      	movs	r3, #0
    a196:	f002 fcef 	bl	cb78 <__aeabi_dcmplt>
    a19a:	b158      	cbz	r0, a1b4 <_dtoa_r+0x1ac>
    a19c:	4648      	mov	r0, r9
    a19e:	f7fc fcc9 	bl	6b34 <__aeabi_i2d>
    a1a2:	4602      	mov	r2, r0
    a1a4:	460b      	mov	r3, r1
    a1a6:	4620      	mov	r0, r4
    a1a8:	4629      	mov	r1, r5
    a1aa:	f002 fcdb 	bl	cb64 <__aeabi_dcmpeq>
    a1ae:	b908      	cbnz	r0, a1b4 <_dtoa_r+0x1ac>
    a1b0:	f109 39ff 	add.w	r9, r9, #4294967295
    a1b4:	f1b9 0f16 	cmp.w	r9, #22
    a1b8:	d80d      	bhi.n	a1d6 <_dtoa_r+0x1ce>
    a1ba:	4b4d      	ldr	r3, [pc, #308]	; (a2f0 <_dtoa_r+0x2e8>)
    a1bc:	eb03 03c9 	add.w	r3, r3, r9, lsl #3
    a1c0:	e9d3 0100 	ldrd	r0, r1, [r3]
    a1c4:	e9dd 2304 	ldrd	r2, r3, [sp, #16]
    a1c8:	f002 fcf4 	bl	cbb4 <__aeabi_dcmpgt>
    a1cc:	b130      	cbz	r0, a1dc <_dtoa_r+0x1d4>
    a1ce:	f109 39ff 	add.w	r9, r9, #4294967295
    a1d2:	2700      	movs	r7, #0
    a1d4:	e000      	b.n	a1d8 <_dtoa_r+0x1d0>
    a1d6:	2701      	movs	r7, #1
    a1d8:	9714      	str	r7, [sp, #80]	; 0x50
    a1da:	e000      	b.n	a1de <_dtoa_r+0x1d6>
    a1dc:	9014      	str	r0, [sp, #80]	; 0x50
    a1de:	9b18      	ldr	r3, [sp, #96]	; 0x60
    a1e0:	1b9e      	subs	r6, r3, r6
    a1e2:	3e01      	subs	r6, #1
    a1e4:	9609      	str	r6, [sp, #36]	; 0x24
    a1e6:	d504      	bpl.n	a1f2 <_dtoa_r+0x1ea>
    a1e8:	4277      	negs	r7, r6
    a1ea:	9708      	str	r7, [sp, #32]
    a1ec:	2700      	movs	r7, #0
    a1ee:	9709      	str	r7, [sp, #36]	; 0x24
    a1f0:	e001      	b.n	a1f6 <_dtoa_r+0x1ee>
    a1f2:	2700      	movs	r7, #0
    a1f4:	9708      	str	r7, [sp, #32]
    a1f6:	f1b9 0f00 	cmp.w	r9, #0
    a1fa:	db07      	blt.n	a20c <_dtoa_r+0x204>
    a1fc:	9f09      	ldr	r7, [sp, #36]	; 0x24
    a1fe:	f8cd 9044 	str.w	r9, [sp, #68]	; 0x44
    a202:	444f      	add	r7, r9
    a204:	9709      	str	r7, [sp, #36]	; 0x24
    a206:	2700      	movs	r7, #0
    a208:	970e      	str	r7, [sp, #56]	; 0x38
    a20a:	e008      	b.n	a21e <_dtoa_r+0x216>
    a20c:	9f08      	ldr	r7, [sp, #32]
    a20e:	ebc9 0707 	rsb	r7, r9, r7
    a212:	9708      	str	r7, [sp, #32]
    a214:	f1c9 0700 	rsb	r7, r9, #0
    a218:	970e      	str	r7, [sp, #56]	; 0x38
    a21a:	2700      	movs	r7, #0
    a21c:	9711      	str	r7, [sp, #68]	; 0x44
    a21e:	9f24      	ldr	r7, [sp, #144]	; 0x90
    a220:	2f09      	cmp	r7, #9
    a222:	d829      	bhi.n	a278 <_dtoa_r+0x270>
    a224:	2f05      	cmp	r7, #5
    a226:	bfc4      	itt	gt
    a228:	3f04      	subgt	r7, #4
    a22a:	9724      	strgt	r7, [sp, #144]	; 0x90
    a22c:	9f24      	ldr	r7, [sp, #144]	; 0x90
    a22e:	bfc8      	it	gt
    a230:	2500      	movgt	r5, #0
    a232:	f1a7 0302 	sub.w	r3, r7, #2
    a236:	bfd8      	it	le
    a238:	2501      	movle	r5, #1
    a23a:	2b03      	cmp	r3, #3
    a23c:	d821      	bhi.n	a282 <_dtoa_r+0x27a>
    a23e:	e8df f003 	tbb	[pc, r3]
    a242:	0f06      	.short	0x0f06
    a244:	0402      	.short	0x0402
    a246:	2701      	movs	r7, #1
    a248:	e002      	b.n	a250 <_dtoa_r+0x248>
    a24a:	2701      	movs	r7, #1
    a24c:	e009      	b.n	a262 <_dtoa_r+0x25a>
    a24e:	2700      	movs	r7, #0
    a250:	970f      	str	r7, [sp, #60]	; 0x3c
    a252:	9f25      	ldr	r7, [sp, #148]	; 0x94
    a254:	2f00      	cmp	r7, #0
    a256:	dd1e      	ble.n	a296 <_dtoa_r+0x28e>
    a258:	970b      	str	r7, [sp, #44]	; 0x2c
    a25a:	9707      	str	r7, [sp, #28]
    a25c:	463b      	mov	r3, r7
    a25e:	e01f      	b.n	a2a0 <_dtoa_r+0x298>
    a260:	2700      	movs	r7, #0
    a262:	970f      	str	r7, [sp, #60]	; 0x3c
    a264:	9f25      	ldr	r7, [sp, #148]	; 0x94
    a266:	444f      	add	r7, r9
    a268:	970b      	str	r7, [sp, #44]	; 0x2c
    a26a:	3701      	adds	r7, #1
    a26c:	463b      	mov	r3, r7
    a26e:	9707      	str	r7, [sp, #28]
    a270:	2b01      	cmp	r3, #1
    a272:	bfb8      	it	lt
    a274:	2301      	movlt	r3, #1
    a276:	e013      	b.n	a2a0 <_dtoa_r+0x298>
    a278:	2501      	movs	r5, #1
    a27a:	2700      	movs	r7, #0
    a27c:	9724      	str	r7, [sp, #144]	; 0x90
    a27e:	950f      	str	r5, [sp, #60]	; 0x3c
    a280:	e001      	b.n	a286 <_dtoa_r+0x27e>
    a282:	2701      	movs	r7, #1
    a284:	970f      	str	r7, [sp, #60]	; 0x3c
    a286:	f04f 37ff 	mov.w	r7, #4294967295
    a28a:	970b      	str	r7, [sp, #44]	; 0x2c
    a28c:	9707      	str	r7, [sp, #28]
    a28e:	2700      	movs	r7, #0
    a290:	2312      	movs	r3, #18
    a292:	9725      	str	r7, [sp, #148]	; 0x94
    a294:	e004      	b.n	a2a0 <_dtoa_r+0x298>
    a296:	2701      	movs	r7, #1
    a298:	970b      	str	r7, [sp, #44]	; 0x2c
    a29a:	9707      	str	r7, [sp, #28]
    a29c:	463b      	mov	r3, r7
    a29e:	9725      	str	r7, [sp, #148]	; 0x94
    a2a0:	f8da 4024 	ldr.w	r4, [r10, #36]	; 0x24
    a2a4:	2200      	movs	r2, #0
    a2a6:	6062      	str	r2, [r4, #4]
    a2a8:	2104      	movs	r1, #4
    a2aa:	f101 0214 	add.w	r2, r1, #20
    a2ae:	429a      	cmp	r2, r3
    a2b0:	d820      	bhi.n	a2f4 <_dtoa_r+0x2ec>
    a2b2:	6862      	ldr	r2, [r4, #4]
    a2b4:	0049      	lsls	r1, r1, #1
    a2b6:	3201      	adds	r2, #1
    a2b8:	6062      	str	r2, [r4, #4]
    a2ba:	e7f6      	b.n	a2aa <_dtoa_r+0x2a2>
    a2bc:	f3af 8000 	nop.w
    a2c0:	636f4361 	.word	0x636f4361
    a2c4:	3fd287a7 	.word	0x3fd287a7
    a2c8:	8b60c8b3 	.word	0x8b60c8b3
    a2cc:	3fc68a28 	.word	0x3fc68a28
    a2d0:	509f79fb 	.word	0x509f79fb
    a2d4:	3fd34413 	.word	0x3fd34413
    a2d8:	7ff00000 	.word	0x7ff00000
    a2dc:	0000e041 	.word	0x0000e041
    a2e0:	0000e038 	.word	0x0000e038
    a2e4:	0000df33 	.word	0x0000df33
    a2e8:	fffffbee 	.word	0xfffffbee
    a2ec:	3ff80000 	.word	0x3ff80000
    a2f0:	0000e050 	.word	0x0000e050
    a2f4:	4650      	mov	r0, r10
    a2f6:	6861      	ldr	r1, [r4, #4]
    a2f8:	f000 fcd1 	bl	ac9e <_Balloc>
    a2fc:	f8da 3024 	ldr.w	r3, [r10, #36]	; 0x24
    a300:	6020      	str	r0, [r4, #0]
    a302:	9f07      	ldr	r7, [sp, #28]
    a304:	681b      	ldr	r3, [r3, #0]
    a306:	2f0e      	cmp	r7, #14
    a308:	930a      	str	r3, [sp, #40]	; 0x28
    a30a:	f200 816b 	bhi.w	a5e4 <_dtoa_r+0x5dc>
    a30e:	2d00      	cmp	r5, #0
    a310:	f000 8168 	beq.w	a5e4 <_dtoa_r+0x5dc>
    a314:	f1b9 0f00 	cmp.w	r9, #0
    a318:	e9dd 0104 	ldrd	r0, r1, [sp, #16]
    a31c:	e9cd 0112 	strd	r0, r1, [sp, #72]	; 0x48
    a320:	dd31      	ble.n	a386 <_dtoa_r+0x37e>
    a322:	4a81      	ldr	r2, [pc, #516]	; (a528 <_dtoa_r+0x520>)
    a324:	f009 030f 	and.w	r3, r9, #15
    a328:	eb02 03c3 	add.w	r3, r2, r3, lsl #3
    a32c:	ea4f 1429 	mov.w	r4, r9, asr #4
    a330:	e9d3 0100 	ldrd	r0, r1, [r3]
    a334:	e9cd 010c 	strd	r0, r1, [sp, #48]	; 0x30
    a338:	06e0      	lsls	r0, r4, #27
    a33a:	d50c      	bpl.n	a356 <_dtoa_r+0x34e>
    a33c:	e9dd 0112 	ldrd	r0, r1, [sp, #72]	; 0x48
    a340:	4b7a      	ldr	r3, [pc, #488]	; (a52c <_dtoa_r+0x524>)
    a342:	f004 040f 	and.w	r4, r4, #15
    a346:	e9d3 2308 	ldrd	r2, r3, [r3, #32]
    a34a:	f7fc fd83 	bl	6e54 <__aeabi_ddiv>
    a34e:	2703      	movs	r7, #3
    a350:	e9cd 0104 	strd	r0, r1, [sp, #16]
    a354:	e000      	b.n	a358 <_dtoa_r+0x350>
    a356:	2702      	movs	r7, #2
    a358:	4d74      	ldr	r5, [pc, #464]	; (a52c <_dtoa_r+0x524>)
    a35a:	b16c      	cbz	r4, a378 <_dtoa_r+0x370>
    a35c:	07e1      	lsls	r1, r4, #31
    a35e:	d508      	bpl.n	a372 <_dtoa_r+0x36a>
    a360:	e9dd 010c 	ldrd	r0, r1, [sp, #48]	; 0x30
    a364:	e9d5 2300 	ldrd	r2, r3, [r5]
    a368:	f7fc fc4a 	bl	6c00 <__aeabi_dmul>
    a36c:	e9cd 010c 	strd	r0, r1, [sp, #48]	; 0x30
    a370:	3701      	adds	r7, #1
    a372:	1064      	asrs	r4, r4, #1
    a374:	3508      	adds	r5, #8
    a376:	e7f0      	b.n	a35a <_dtoa_r+0x352>
    a378:	e9dd 0104 	ldrd	r0, r1, [sp, #16]
    a37c:	e9dd 230c 	ldrd	r2, r3, [sp, #48]	; 0x30
    a380:	f7fc fd68 	bl	6e54 <__aeabi_ddiv>
    a384:	e01b      	b.n	a3be <_dtoa_r+0x3b6>
    a386:	f1c9 0400 	rsb	r4, r9, #0
    a38a:	b1dc      	cbz	r4, a3c4 <_dtoa_r+0x3bc>
    a38c:	4b66      	ldr	r3, [pc, #408]	; (a528 <_dtoa_r+0x520>)
    a38e:	f004 020f 	and.w	r2, r4, #15
    a392:	eb03 03c2 	add.w	r3, r3, r2, lsl #3
    a396:	e9dd 0112 	ldrd	r0, r1, [sp, #72]	; 0x48
    a39a:	e9d3 2300 	ldrd	r2, r3, [r3]
    a39e:	f7fc fc2f 	bl	6c00 <__aeabi_dmul>
    a3a2:	4d62      	ldr	r5, [pc, #392]	; (a52c <_dtoa_r+0x524>)
    a3a4:	1124      	asrs	r4, r4, #4
    a3a6:	2702      	movs	r7, #2
    a3a8:	b14c      	cbz	r4, a3be <_dtoa_r+0x3b6>
    a3aa:	07e2      	lsls	r2, r4, #31
    a3ac:	d504      	bpl.n	a3b8 <_dtoa_r+0x3b0>
    a3ae:	e9d5 2300 	ldrd	r2, r3, [r5]
    a3b2:	3701      	adds	r7, #1
    a3b4:	f7fc fc24 	bl	6c00 <__aeabi_dmul>
    a3b8:	1064      	asrs	r4, r4, #1
    a3ba:	3508      	adds	r5, #8
    a3bc:	e7f4      	b.n	a3a8 <_dtoa_r+0x3a0>
    a3be:	e9cd 0104 	strd	r0, r1, [sp, #16]
    a3c2:	e000      	b.n	a3c6 <_dtoa_r+0x3be>
    a3c4:	2702      	movs	r7, #2
    a3c6:	9914      	ldr	r1, [sp, #80]	; 0x50
    a3c8:	b1e9      	cbz	r1, a406 <_dtoa_r+0x3fe>
    a3ca:	e9dd 4504 	ldrd	r4, r5, [sp, #16]
    a3ce:	2200      	movs	r2, #0
    a3d0:	4620      	mov	r0, r4
    a3d2:	4629      	mov	r1, r5
    a3d4:	4b56      	ldr	r3, [pc, #344]	; (a530 <_dtoa_r+0x528>)
    a3d6:	f002 fbcf 	bl	cb78 <__aeabi_dcmplt>
    a3da:	b1c8      	cbz	r0, a410 <_dtoa_r+0x408>
    a3dc:	9a07      	ldr	r2, [sp, #28]
    a3de:	b1e2      	cbz	r2, a41a <_dtoa_r+0x412>
    a3e0:	9b0b      	ldr	r3, [sp, #44]	; 0x2c
    a3e2:	2b00      	cmp	r3, #0
    a3e4:	f340 80fa 	ble.w	a5dc <_dtoa_r+0x5d4>
    a3e8:	f109 30ff 	add.w	r0, r9, #4294967295
    a3ec:	9010      	str	r0, [sp, #64]	; 0x40
    a3ee:	4629      	mov	r1, r5
    a3f0:	4620      	mov	r0, r4
    a3f2:	2200      	movs	r2, #0
    a3f4:	4b4f      	ldr	r3, [pc, #316]	; (a534 <_dtoa_r+0x52c>)
    a3f6:	f7fc fc03 	bl	6c00 <__aeabi_dmul>
    a3fa:	e9cd 0104 	strd	r0, r1, [sp, #16]
    a3fe:	990b      	ldr	r1, [sp, #44]	; 0x2c
    a400:	3701      	adds	r7, #1
    a402:	910c      	str	r1, [sp, #48]	; 0x30
    a404:	e00d      	b.n	a422 <_dtoa_r+0x41a>
    a406:	9a07      	ldr	r2, [sp, #28]
    a408:	f8cd 9040 	str.w	r9, [sp, #64]	; 0x40
    a40c:	920c      	str	r2, [sp, #48]	; 0x30
    a40e:	e008      	b.n	a422 <_dtoa_r+0x41a>
    a410:	9b07      	ldr	r3, [sp, #28]
    a412:	f8cd 9040 	str.w	r9, [sp, #64]	; 0x40
    a416:	930c      	str	r3, [sp, #48]	; 0x30
    a418:	e003      	b.n	a422 <_dtoa_r+0x41a>
    a41a:	9807      	ldr	r0, [sp, #28]
    a41c:	f8cd 9040 	str.w	r9, [sp, #64]	; 0x40
    a420:	900c      	str	r0, [sp, #48]	; 0x30
    a422:	4638      	mov	r0, r7
    a424:	f7fc fb86 	bl	6b34 <__aeabi_i2d>
    a428:	e9dd 2304 	ldrd	r2, r3, [sp, #16]
    a42c:	f7fc fbe8 	bl	6c00 <__aeabi_dmul>
    a430:	2200      	movs	r2, #0
    a432:	4b41      	ldr	r3, [pc, #260]	; (a538 <_dtoa_r+0x530>)
    a434:	f7fc fa32 	bl	689c <__adddf3>
    a438:	9f0c      	ldr	r7, [sp, #48]	; 0x30
    a43a:	4604      	mov	r4, r0
    a43c:	f1a1 7550 	sub.w	r5, r1, #54525952	; 0x3400000
    a440:	b9cf      	cbnz	r7, a476 <_dtoa_r+0x46e>
    a442:	2200      	movs	r2, #0
    a444:	4b3d      	ldr	r3, [pc, #244]	; (a53c <_dtoa_r+0x534>)
    a446:	e9dd 0104 	ldrd	r0, r1, [sp, #16]
    a44a:	f7fc fa25 	bl	6898 <__aeabi_dsub>
    a44e:	4622      	mov	r2, r4
    a450:	462b      	mov	r3, r5
    a452:	4606      	mov	r6, r0
    a454:	460f      	mov	r7, r1
    a456:	f002 fbad 	bl	cbb4 <__aeabi_dcmpgt>
    a45a:	2800      	cmp	r0, #0
    a45c:	f040 8253 	bne.w	a906 <_dtoa_r+0x8fe>
    a460:	4622      	mov	r2, r4
    a462:	f105 4300 	add.w	r3, r5, #2147483648	; 0x80000000
    a466:	4630      	mov	r0, r6
    a468:	4639      	mov	r1, r7
    a46a:	f002 fb85 	bl	cb78 <__aeabi_dcmplt>
    a46e:	2800      	cmp	r0, #0
    a470:	f040 823f 	bne.w	a8f2 <_dtoa_r+0x8ea>
    a474:	e0b2      	b.n	a5dc <_dtoa_r+0x5d4>
    a476:	9f0c      	ldr	r7, [sp, #48]	; 0x30
    a478:	4b2b      	ldr	r3, [pc, #172]	; (a528 <_dtoa_r+0x520>)
    a47a:	1e7a      	subs	r2, r7, #1
    a47c:	9f0f      	ldr	r7, [sp, #60]	; 0x3c
    a47e:	eb03 03c2 	add.w	r3, r3, r2, lsl #3
    a482:	2f00      	cmp	r7, #0
    a484:	d05e      	beq.n	a544 <_dtoa_r+0x53c>
    a486:	e9d3 2300 	ldrd	r2, r3, [r3]
    a48a:	2000      	movs	r0, #0
    a48c:	492c      	ldr	r1, [pc, #176]	; (a540 <_dtoa_r+0x538>)
    a48e:	f7fc fce1 	bl	6e54 <__aeabi_ddiv>
    a492:	4622      	mov	r2, r4
    a494:	462b      	mov	r3, r5
    a496:	f7fc f9ff 	bl	6898 <__aeabi_dsub>
    a49a:	e9dd 6704 	ldrd	r6, r7, [sp, #16]
    a49e:	f8dd 8028 	ldr.w	r8, [sp, #40]	; 0x28
    a4a2:	4604      	mov	r4, r0
    a4a4:	460d      	mov	r5, r1
    a4a6:	4639      	mov	r1, r7
    a4a8:	4630      	mov	r0, r6
    a4aa:	f7fc fdbb 	bl	7024 <__aeabi_d2iz>
    a4ae:	9002      	str	r0, [sp, #8]
    a4b0:	f7fc fb40 	bl	6b34 <__aeabi_i2d>
    a4b4:	4602      	mov	r2, r0
    a4b6:	460b      	mov	r3, r1
    a4b8:	4630      	mov	r0, r6
    a4ba:	4639      	mov	r1, r7
    a4bc:	f7fc f9ec 	bl	6898 <__aeabi_dsub>
    a4c0:	f8dd c008 	ldr.w	r12, [sp, #8]
    a4c4:	4622      	mov	r2, r4
    a4c6:	f10c 0330 	add.w	r3, r12, #48	; 0x30
    a4ca:	f808 3b01 	strb.w	r3, [r8], #1
    a4ce:	462b      	mov	r3, r5
    a4d0:	4606      	mov	r6, r0
    a4d2:	460f      	mov	r7, r1
    a4d4:	f002 fb50 	bl	cb78 <__aeabi_dcmplt>
    a4d8:	2800      	cmp	r0, #0
    a4da:	f040 833b 	bne.w	ab54 <_dtoa_r+0xb4c>
    a4de:	4632      	mov	r2, r6
    a4e0:	463b      	mov	r3, r7
    a4e2:	2000      	movs	r0, #0
    a4e4:	4912      	ldr	r1, [pc, #72]	; (a530 <_dtoa_r+0x528>)
    a4e6:	f7fc f9d7 	bl	6898 <__aeabi_dsub>
    a4ea:	4622      	mov	r2, r4
    a4ec:	462b      	mov	r3, r5
    a4ee:	f002 fb43 	bl	cb78 <__aeabi_dcmplt>
    a4f2:	2800      	cmp	r0, #0
    a4f4:	f040 80d5 	bne.w	a6a2 <_dtoa_r+0x69a>
    a4f8:	980a      	ldr	r0, [sp, #40]	; 0x28
    a4fa:	990c      	ldr	r1, [sp, #48]	; 0x30
    a4fc:	ebc0 0308 	rsb	r3, r0, r8
    a500:	428b      	cmp	r3, r1
    a502:	da6b      	bge.n	a5dc <_dtoa_r+0x5d4>
    a504:	4620      	mov	r0, r4
    a506:	4629      	mov	r1, r5
    a508:	2200      	movs	r2, #0
    a50a:	4b0a      	ldr	r3, [pc, #40]	; (a534 <_dtoa_r+0x52c>)
    a50c:	f7fc fb78 	bl	6c00 <__aeabi_dmul>
    a510:	2200      	movs	r2, #0
    a512:	4604      	mov	r4, r0
    a514:	460d      	mov	r5, r1
    a516:	4630      	mov	r0, r6
    a518:	4639      	mov	r1, r7
    a51a:	4b06      	ldr	r3, [pc, #24]	; (a534 <_dtoa_r+0x52c>)
    a51c:	f7fc fb70 	bl	6c00 <__aeabi_dmul>
    a520:	4606      	mov	r6, r0
    a522:	460f      	mov	r7, r1
    a524:	e7bf      	b.n	a4a6 <_dtoa_r+0x49e>
    a526:	bf00      	nop
    a528:	0000e050 	.word	0x0000e050
    a52c:	0000e118 	.word	0x0000e118
    a530:	3ff00000 	.word	0x3ff00000
    a534:	40240000 	.word	0x40240000
    a538:	401c0000 	.word	0x401c0000
    a53c:	40140000 	.word	0x40140000
    a540:	3fe00000 	.word	0x3fe00000
    a544:	4622      	mov	r2, r4
    a546:	e9d3 0100 	ldrd	r0, r1, [r3]
    a54a:	462b      	mov	r3, r5
    a54c:	f7fc fb58 	bl	6c00 <__aeabi_dmul>
    a550:	e9dd 6704 	ldrd	r6, r7, [sp, #16]
    a554:	f8dd 8028 	ldr.w	r8, [sp, #40]	; 0x28
    a558:	9a0c      	ldr	r2, [sp, #48]	; 0x30
    a55a:	e9cd 0116 	strd	r0, r1, [sp, #88]	; 0x58
    a55e:	9c0a      	ldr	r4, [sp, #40]	; 0x28
    a560:	4490      	add	r8, r2
    a562:	4639      	mov	r1, r7
    a564:	4630      	mov	r0, r6
    a566:	f7fc fd5d 	bl	7024 <__aeabi_d2iz>
    a56a:	4605      	mov	r5, r0
    a56c:	f7fc fae2 	bl	6b34 <__aeabi_i2d>
    a570:	4602      	mov	r2, r0
    a572:	460b      	mov	r3, r1
    a574:	4630      	mov	r0, r6
    a576:	4639      	mov	r1, r7
    a578:	f7fc f98e 	bl	6898 <__aeabi_dsub>
    a57c:	3530      	adds	r5, #48	; 0x30
    a57e:	f804 5b01 	strb.w	r5, [r4], #1
    a582:	4544      	cmp	r4, r8
    a584:	4606      	mov	r6, r0
    a586:	460f      	mov	r7, r1
    a588:	d121      	bne.n	a5ce <_dtoa_r+0x5c6>
    a58a:	2200      	movs	r2, #0
    a58c:	4b87      	ldr	r3, [pc, #540]	; (a7ac <_dtoa_r+0x7a4>)
    a58e:	e9dd 0116 	ldrd	r0, r1, [sp, #88]	; 0x58
    a592:	f7fc f983 	bl	689c <__adddf3>
    a596:	4602      	mov	r2, r0
    a598:	460b      	mov	r3, r1
    a59a:	4630      	mov	r0, r6
    a59c:	4639      	mov	r1, r7
    a59e:	f002 fb09 	bl	cbb4 <__aeabi_dcmpgt>
    a5a2:	2800      	cmp	r0, #0
    a5a4:	d17d      	bne.n	a6a2 <_dtoa_r+0x69a>
    a5a6:	e9dd 2316 	ldrd	r2, r3, [sp, #88]	; 0x58
    a5aa:	2000      	movs	r0, #0
    a5ac:	497f      	ldr	r1, [pc, #508]	; (a7ac <_dtoa_r+0x7a4>)
    a5ae:	f7fc f973 	bl	6898 <__aeabi_dsub>
    a5b2:	4602      	mov	r2, r0
    a5b4:	460b      	mov	r3, r1
    a5b6:	4630      	mov	r0, r6
    a5b8:	4639      	mov	r1, r7
    a5ba:	f002 fadd 	bl	cb78 <__aeabi_dcmplt>
    a5be:	b168      	cbz	r0, a5dc <_dtoa_r+0x5d4>
    a5c0:	46a0      	mov	r8, r4
    a5c2:	f818 3c01 	ldrb.w	r3, [r8, #-1]
    a5c6:	3c01      	subs	r4, #1
    a5c8:	2b30      	cmp	r3, #48	; 0x30
    a5ca:	d0f9      	beq.n	a5c0 <_dtoa_r+0x5b8>
    a5cc:	e2c2      	b.n	ab54 <_dtoa_r+0xb4c>
    a5ce:	2200      	movs	r2, #0
    a5d0:	4b77      	ldr	r3, [pc, #476]	; (a7b0 <_dtoa_r+0x7a8>)
    a5d2:	f7fc fb15 	bl	6c00 <__aeabi_dmul>
    a5d6:	4606      	mov	r6, r0
    a5d8:	460f      	mov	r7, r1
    a5da:	e7c2      	b.n	a562 <_dtoa_r+0x55a>
    a5dc:	e9dd 0112 	ldrd	r0, r1, [sp, #72]	; 0x48
    a5e0:	e9cd 0104 	strd	r0, r1, [sp, #16]
    a5e4:	9b19      	ldr	r3, [sp, #100]	; 0x64
    a5e6:	2b00      	cmp	r3, #0
    a5e8:	db7c      	blt.n	a6e4 <_dtoa_r+0x6dc>
    a5ea:	f1b9 0f0e 	cmp.w	r9, #14
    a5ee:	dc79      	bgt.n	a6e4 <_dtoa_r+0x6dc>
    a5f0:	4b70      	ldr	r3, [pc, #448]	; (a7b4 <_dtoa_r+0x7ac>)
    a5f2:	9f25      	ldr	r7, [sp, #148]	; 0x94
    a5f4:	eb03 03c9 	add.w	r3, r3, r9, lsl #3
    a5f8:	2f00      	cmp	r7, #0
    a5fa:	e9d3 4500 	ldrd	r4, r5, [r3]
    a5fe:	da14      	bge.n	a62a <_dtoa_r+0x622>
    a600:	9f07      	ldr	r7, [sp, #28]
    a602:	2f00      	cmp	r7, #0
    a604:	dc11      	bgt.n	a62a <_dtoa_r+0x622>
    a606:	f040 8176 	bne.w	a8f6 <_dtoa_r+0x8ee>
    a60a:	4620      	mov	r0, r4
    a60c:	4629      	mov	r1, r5
    a60e:	2200      	movs	r2, #0
    a610:	4b69      	ldr	r3, [pc, #420]	; (a7b8 <_dtoa_r+0x7b0>)
    a612:	f7fc faf5 	bl	6c00 <__aeabi_dmul>
    a616:	e9dd 2304 	ldrd	r2, r3, [sp, #16]
    a61a:	f002 fac1 	bl	cba0 <__aeabi_dcmpge>
    a61e:	9d07      	ldr	r5, [sp, #28]
    a620:	462c      	mov	r4, r5
    a622:	2800      	cmp	r0, #0
    a624:	f040 8169 	bne.w	a8fa <_dtoa_r+0x8f2>
    a628:	e171      	b.n	a90e <_dtoa_r+0x906>
    a62a:	f8dd 8028 	ldr.w	r8, [sp, #40]	; 0x28
    a62e:	e9dd 6704 	ldrd	r6, r7, [sp, #16]
    a632:	4622      	mov	r2, r4
    a634:	462b      	mov	r3, r5
    a636:	4630      	mov	r0, r6
    a638:	4639      	mov	r1, r7
    a63a:	f7fc fc0b 	bl	6e54 <__aeabi_ddiv>
    a63e:	f7fc fcf1 	bl	7024 <__aeabi_d2iz>
    a642:	9004      	str	r0, [sp, #16]
    a644:	f7fc fa76 	bl	6b34 <__aeabi_i2d>
    a648:	4622      	mov	r2, r4
    a64a:	462b      	mov	r3, r5
    a64c:	f7fc fad8 	bl	6c00 <__aeabi_dmul>
    a650:	4602      	mov	r2, r0
    a652:	460b      	mov	r3, r1
    a654:	4630      	mov	r0, r6
    a656:	4639      	mov	r1, r7
    a658:	f7fc f91e 	bl	6898 <__aeabi_dsub>
    a65c:	9f04      	ldr	r7, [sp, #16]
    a65e:	4602      	mov	r2, r0
    a660:	f107 0630 	add.w	r6, r7, #48	; 0x30
    a664:	9f0a      	ldr	r7, [sp, #40]	; 0x28
    a666:	f808 6b01 	strb.w	r6, [r8], #1
    a66a:	ebc7 0608 	rsb	r6, r7, r8
    a66e:	9f07      	ldr	r7, [sp, #28]
    a670:	460b      	mov	r3, r1
    a672:	42be      	cmp	r6, r7
    a674:	d129      	bne.n	a6ca <_dtoa_r+0x6c2>
    a676:	f7fc f911 	bl	689c <__adddf3>
    a67a:	4622      	mov	r2, r4
    a67c:	462b      	mov	r3, r5
    a67e:	4606      	mov	r6, r0
    a680:	460f      	mov	r7, r1
    a682:	f002 fa97 	bl	cbb4 <__aeabi_dcmpgt>
    a686:	b970      	cbnz	r0, a6a6 <_dtoa_r+0x69e>
    a688:	4630      	mov	r0, r6
    a68a:	4639      	mov	r1, r7
    a68c:	4622      	mov	r2, r4
    a68e:	462b      	mov	r3, r5
    a690:	f002 fa68 	bl	cb64 <__aeabi_dcmpeq>
    a694:	2800      	cmp	r0, #0
    a696:	f000 825f 	beq.w	ab58 <_dtoa_r+0xb50>
    a69a:	9f04      	ldr	r7, [sp, #16]
    a69c:	07fb      	lsls	r3, r7, #31
    a69e:	d402      	bmi.n	a6a6 <_dtoa_r+0x69e>
    a6a0:	e25a      	b.n	ab58 <_dtoa_r+0xb50>
    a6a2:	f8dd 9040 	ldr.w	r9, [sp, #64]	; 0x40
    a6a6:	4643      	mov	r3, r8
    a6a8:	4698      	mov	r8, r3
    a6aa:	f818 2c01 	ldrb.w	r2, [r8, #-1]
    a6ae:	3b01      	subs	r3, #1
    a6b0:	2a39      	cmp	r2, #57	; 0x39
    a6b2:	d106      	bne.n	a6c2 <_dtoa_r+0x6ba>
    a6b4:	9f0a      	ldr	r7, [sp, #40]	; 0x28
    a6b6:	429f      	cmp	r7, r3
    a6b8:	d1f6      	bne.n	a6a8 <_dtoa_r+0x6a0>
    a6ba:	2230      	movs	r2, #48	; 0x30
    a6bc:	f109 0901 	add.w	r9, r9, #1
    a6c0:	703a      	strb	r2, [r7, #0]
    a6c2:	781a      	ldrb	r2, [r3, #0]
    a6c4:	3201      	adds	r2, #1
    a6c6:	701a      	strb	r2, [r3, #0]
    a6c8:	e246      	b.n	ab58 <_dtoa_r+0xb50>
    a6ca:	2200      	movs	r2, #0
    a6cc:	4b38      	ldr	r3, [pc, #224]	; (a7b0 <_dtoa_r+0x7a8>)
    a6ce:	f7fc fa97 	bl	6c00 <__aeabi_dmul>
    a6d2:	2200      	movs	r2, #0
    a6d4:	2300      	movs	r3, #0
    a6d6:	4606      	mov	r6, r0
    a6d8:	460f      	mov	r7, r1
    a6da:	f002 fa43 	bl	cb64 <__aeabi_dcmpeq>
    a6de:	2800      	cmp	r0, #0
    a6e0:	d0a7      	beq.n	a632 <_dtoa_r+0x62a>
    a6e2:	e239      	b.n	ab58 <_dtoa_r+0xb50>
    a6e4:	9f0f      	ldr	r7, [sp, #60]	; 0x3c
    a6e6:	2f00      	cmp	r7, #0
    a6e8:	d030      	beq.n	a74c <_dtoa_r+0x744>
    a6ea:	9f24      	ldr	r7, [sp, #144]	; 0x90
    a6ec:	2f01      	cmp	r7, #1
    a6ee:	dc0a      	bgt.n	a706 <_dtoa_r+0x6fe>
    a6f0:	9f15      	ldr	r7, [sp, #84]	; 0x54
    a6f2:	b117      	cbz	r7, a6fa <_dtoa_r+0x6f2>
    a6f4:	f203 4333 	addw	r3, r3, #1075	; 0x433
    a6f8:	e002      	b.n	a700 <_dtoa_r+0x6f8>
    a6fa:	9b18      	ldr	r3, [sp, #96]	; 0x60
    a6fc:	f1c3 0336 	rsb	r3, r3, #54	; 0x36
    a700:	9d0e      	ldr	r5, [sp, #56]	; 0x38
    a702:	9e08      	ldr	r6, [sp, #32]
    a704:	e016      	b.n	a734 <_dtoa_r+0x72c>
    a706:	9f07      	ldr	r7, [sp, #28]
    a708:	1e7d      	subs	r5, r7, #1
    a70a:	9f0e      	ldr	r7, [sp, #56]	; 0x38
    a70c:	42af      	cmp	r7, r5
    a70e:	db01      	blt.n	a714 <_dtoa_r+0x70c>
    a710:	1b7d      	subs	r5, r7, r5
    a712:	e006      	b.n	a722 <_dtoa_r+0x71a>
    a714:	9f0e      	ldr	r7, [sp, #56]	; 0x38
    a716:	950e      	str	r5, [sp, #56]	; 0x38
    a718:	1beb      	subs	r3, r5, r7
    a71a:	9f11      	ldr	r7, [sp, #68]	; 0x44
    a71c:	2500      	movs	r5, #0
    a71e:	441f      	add	r7, r3
    a720:	9711      	str	r7, [sp, #68]	; 0x44
    a722:	9f07      	ldr	r7, [sp, #28]
    a724:	2f00      	cmp	r7, #0
    a726:	da03      	bge.n	a730 <_dtoa_r+0x728>
    a728:	9808      	ldr	r0, [sp, #32]
    a72a:	2300      	movs	r3, #0
    a72c:	1bc6      	subs	r6, r0, r7
    a72e:	e001      	b.n	a734 <_dtoa_r+0x72c>
    a730:	9e08      	ldr	r6, [sp, #32]
    a732:	9b07      	ldr	r3, [sp, #28]
    a734:	9f08      	ldr	r7, [sp, #32]
    a736:	4650      	mov	r0, r10
    a738:	441f      	add	r7, r3
    a73a:	9708      	str	r7, [sp, #32]
    a73c:	9f09      	ldr	r7, [sp, #36]	; 0x24
    a73e:	2101      	movs	r1, #1
    a740:	441f      	add	r7, r3
    a742:	9709      	str	r7, [sp, #36]	; 0x24
    a744:	f000 fbc0 	bl	aec8 <__i2b>
    a748:	4604      	mov	r4, r0
    a74a:	e002      	b.n	a752 <_dtoa_r+0x74a>
    a74c:	9d0e      	ldr	r5, [sp, #56]	; 0x38
    a74e:	9e08      	ldr	r6, [sp, #32]
    a750:	9c0f      	ldr	r4, [sp, #60]	; 0x3c
    a752:	b16e      	cbz	r6, a770 <_dtoa_r+0x768>
    a754:	9f09      	ldr	r7, [sp, #36]	; 0x24
    a756:	2f00      	cmp	r7, #0
    a758:	dd0a      	ble.n	a770 <_dtoa_r+0x768>
    a75a:	463b      	mov	r3, r7
    a75c:	9f08      	ldr	r7, [sp, #32]
    a75e:	42b3      	cmp	r3, r6
    a760:	bfa8      	it	ge
    a762:	4633      	movge	r3, r6
    a764:	1aff      	subs	r7, r7, r3
    a766:	9708      	str	r7, [sp, #32]
    a768:	9f09      	ldr	r7, [sp, #36]	; 0x24
    a76a:	1af6      	subs	r6, r6, r3
    a76c:	1aff      	subs	r7, r7, r3
    a76e:	9709      	str	r7, [sp, #36]	; 0x24
    a770:	9f0e      	ldr	r7, [sp, #56]	; 0x38
    a772:	2f00      	cmp	r7, #0
    a774:	dd28      	ble.n	a7c8 <_dtoa_r+0x7c0>
    a776:	9f0f      	ldr	r7, [sp, #60]	; 0x3c
    a778:	b307      	cbz	r7, a7bc <_dtoa_r+0x7b4>
    a77a:	2d00      	cmp	r5, #0
    a77c:	dd10      	ble.n	a7a0 <_dtoa_r+0x798>
    a77e:	4621      	mov	r1, r4
    a780:	462a      	mov	r2, r5
    a782:	4650      	mov	r0, r10
    a784:	f000 fc42 	bl	b00c <__pow5mult>
    a788:	4604      	mov	r4, r0
    a78a:	465a      	mov	r2, r11
    a78c:	4621      	mov	r1, r4
    a78e:	4650      	mov	r0, r10
    a790:	f000 fba3 	bl	aeda <__multiply>
    a794:	4659      	mov	r1, r11
    a796:	4607      	mov	r7, r0
    a798:	4650      	mov	r0, r10
    a79a:	f000 fab5 	bl	ad08 <_Bfree>
    a79e:	46bb      	mov	r11, r7
    a7a0:	9f0e      	ldr	r7, [sp, #56]	; 0x38
    a7a2:	1b7a      	subs	r2, r7, r5
    a7a4:	d010      	beq.n	a7c8 <_dtoa_r+0x7c0>
    a7a6:	4650      	mov	r0, r10
    a7a8:	4659      	mov	r1, r11
    a7aa:	e00a      	b.n	a7c2 <_dtoa_r+0x7ba>
    a7ac:	3fe00000 	.word	0x3fe00000
    a7b0:	40240000 	.word	0x40240000
    a7b4:	0000e050 	.word	0x0000e050
    a7b8:	40140000 	.word	0x40140000
    a7bc:	9a0e      	ldr	r2, [sp, #56]	; 0x38
    a7be:	4650      	mov	r0, r10
    a7c0:	4659      	mov	r1, r11
    a7c2:	f000 fc23 	bl	b00c <__pow5mult>
    a7c6:	4683      	mov	r11, r0
    a7c8:	4650      	mov	r0, r10
    a7ca:	2101      	movs	r1, #1
    a7cc:	f000 fb7c 	bl	aec8 <__i2b>
    a7d0:	9f11      	ldr	r7, [sp, #68]	; 0x44
    a7d2:	4605      	mov	r5, r0
    a7d4:	2f00      	cmp	r7, #0
    a7d6:	dd05      	ble.n	a7e4 <_dtoa_r+0x7dc>
    a7d8:	4629      	mov	r1, r5
    a7da:	4650      	mov	r0, r10
    a7dc:	463a      	mov	r2, r7
    a7de:	f000 fc15 	bl	b00c <__pow5mult>
    a7e2:	4605      	mov	r5, r0
    a7e4:	9f24      	ldr	r7, [sp, #144]	; 0x90
    a7e6:	2f01      	cmp	r7, #1
    a7e8:	dc12      	bgt.n	a810 <_dtoa_r+0x808>
    a7ea:	9804      	ldr	r0, [sp, #16]
    a7ec:	b980      	cbnz	r0, a810 <_dtoa_r+0x808>
    a7ee:	9905      	ldr	r1, [sp, #20]
    a7f0:	f3c1 0313 	ubfx	r3, r1, #0, #20
    a7f4:	b973      	cbnz	r3, a814 <_dtoa_r+0x80c>
    a7f6:	f021 4700 	bic.w	r7, r1, #2147483648	; 0x80000000
    a7fa:	0d3f      	lsrs	r7, r7, #20
    a7fc:	053f      	lsls	r7, r7, #20
    a7fe:	b157      	cbz	r7, a816 <_dtoa_r+0x80e>
    a800:	9f08      	ldr	r7, [sp, #32]
    a802:	3701      	adds	r7, #1
    a804:	9708      	str	r7, [sp, #32]
    a806:	9f09      	ldr	r7, [sp, #36]	; 0x24
    a808:	3701      	adds	r7, #1
    a80a:	9709      	str	r7, [sp, #36]	; 0x24
    a80c:	2701      	movs	r7, #1
    a80e:	e002      	b.n	a816 <_dtoa_r+0x80e>
    a810:	2700      	movs	r7, #0
    a812:	e000      	b.n	a816 <_dtoa_r+0x80e>
    a814:	9f04      	ldr	r7, [sp, #16]
    a816:	9811      	ldr	r0, [sp, #68]	; 0x44
    a818:	b140      	cbz	r0, a82c <_dtoa_r+0x824>
    a81a:	692b      	ldr	r3, [r5, #16]
    a81c:	eb05 0383 	add.w	r3, r5, r3, lsl #2
    a820:	6918      	ldr	r0, [r3, #16]
    a822:	f000 fb04 	bl	ae2e <__hi0bits>
    a826:	f1c0 0020 	rsb	r0, r0, #32
    a82a:	e000      	b.n	a82e <_dtoa_r+0x826>
    a82c:	2001      	movs	r0, #1
    a82e:	9b09      	ldr	r3, [sp, #36]	; 0x24
    a830:	4403      	add	r3, r0
    a832:	f013 031f 	ands.w	r3, r3, #31
    a836:	d00f      	beq.n	a858 <_dtoa_r+0x850>
    a838:	f1c3 0220 	rsb	r2, r3, #32
    a83c:	2a04      	cmp	r2, #4
    a83e:	dd09      	ble.n	a854 <_dtoa_r+0x84c>
    a840:	9908      	ldr	r1, [sp, #32]
    a842:	9a09      	ldr	r2, [sp, #36]	; 0x24
    a844:	f1c3 031c 	rsb	r3, r3, #28
    a848:	4419      	add	r1, r3
    a84a:	441a      	add	r2, r3
    a84c:	9108      	str	r1, [sp, #32]
    a84e:	441e      	add	r6, r3
    a850:	9209      	str	r2, [sp, #36]	; 0x24
    a852:	e009      	b.n	a868 <_dtoa_r+0x860>
    a854:	d008      	beq.n	a868 <_dtoa_r+0x860>
    a856:	4613      	mov	r3, r2
    a858:	9808      	ldr	r0, [sp, #32]
    a85a:	9909      	ldr	r1, [sp, #36]	; 0x24
    a85c:	331c      	adds	r3, #28
    a85e:	4418      	add	r0, r3
    a860:	4419      	add	r1, r3
    a862:	9008      	str	r0, [sp, #32]
    a864:	441e      	add	r6, r3
    a866:	9109      	str	r1, [sp, #36]	; 0x24
    a868:	9a08      	ldr	r2, [sp, #32]
    a86a:	2a00      	cmp	r2, #0
    a86c:	dd04      	ble.n	a878 <_dtoa_r+0x870>
    a86e:	4659      	mov	r1, r11
    a870:	4650      	mov	r0, r10
    a872:	f000 fc19 	bl	b0a8 <__lshift>
    a876:	4683      	mov	r11, r0
    a878:	9b09      	ldr	r3, [sp, #36]	; 0x24
    a87a:	2b00      	cmp	r3, #0
    a87c:	dd05      	ble.n	a88a <_dtoa_r+0x882>
    a87e:	4629      	mov	r1, r5
    a880:	4650      	mov	r0, r10
    a882:	461a      	mov	r2, r3
    a884:	f000 fc10 	bl	b0a8 <__lshift>
    a888:	4605      	mov	r5, r0
    a88a:	9814      	ldr	r0, [sp, #80]	; 0x50
    a88c:	b1e0      	cbz	r0, a8c8 <_dtoa_r+0x8c0>
    a88e:	4658      	mov	r0, r11
    a890:	4629      	mov	r1, r5
    a892:	f000 fc5c 	bl	b14e <__mcmp>
    a896:	2800      	cmp	r0, #0
    a898:	da16      	bge.n	a8c8 <_dtoa_r+0x8c0>
    a89a:	4659      	mov	r1, r11
    a89c:	4650      	mov	r0, r10
    a89e:	220a      	movs	r2, #10
    a8a0:	2300      	movs	r3, #0
    a8a2:	f000 fa48 	bl	ad36 <__multadd>
    a8a6:	990f      	ldr	r1, [sp, #60]	; 0x3c
    a8a8:	f109 39ff 	add.w	r9, r9, #4294967295
    a8ac:	4683      	mov	r11, r0
    a8ae:	b149      	cbz	r1, a8c4 <_dtoa_r+0x8bc>
    a8b0:	4621      	mov	r1, r4
    a8b2:	220a      	movs	r2, #10
    a8b4:	4650      	mov	r0, r10
    a8b6:	2300      	movs	r3, #0
    a8b8:	f000 fa3d 	bl	ad36 <__multadd>
    a8bc:	9a0b      	ldr	r2, [sp, #44]	; 0x2c
    a8be:	4604      	mov	r4, r0
    a8c0:	9207      	str	r2, [sp, #28]
    a8c2:	e001      	b.n	a8c8 <_dtoa_r+0x8c0>
    a8c4:	9b0b      	ldr	r3, [sp, #44]	; 0x2c
    a8c6:	9307      	str	r3, [sp, #28]
    a8c8:	9807      	ldr	r0, [sp, #28]
    a8ca:	2800      	cmp	r0, #0
    a8cc:	dc29      	bgt.n	a922 <_dtoa_r+0x91a>
    a8ce:	9924      	ldr	r1, [sp, #144]	; 0x90
    a8d0:	2902      	cmp	r1, #2
    a8d2:	dd26      	ble.n	a922 <_dtoa_r+0x91a>
    a8d4:	b988      	cbnz	r0, a8fa <_dtoa_r+0x8f2>
    a8d6:	4629      	mov	r1, r5
    a8d8:	2205      	movs	r2, #5
    a8da:	9b07      	ldr	r3, [sp, #28]
    a8dc:	4650      	mov	r0, r10
    a8de:	f000 fa2a 	bl	ad36 <__multadd>
    a8e2:	4605      	mov	r5, r0
    a8e4:	4629      	mov	r1, r5
    a8e6:	4658      	mov	r0, r11
    a8e8:	f000 fc31 	bl	b14e <__mcmp>
    a8ec:	2800      	cmp	r0, #0
    a8ee:	dc0e      	bgt.n	a90e <_dtoa_r+0x906>
    a8f0:	e003      	b.n	a8fa <_dtoa_r+0x8f2>
    a8f2:	9d0c      	ldr	r5, [sp, #48]	; 0x30
    a8f4:	e000      	b.n	a8f8 <_dtoa_r+0x8f0>
    a8f6:	2500      	movs	r5, #0
    a8f8:	462c      	mov	r4, r5
    a8fa:	9f25      	ldr	r7, [sp, #148]	; 0x94
    a8fc:	f8dd 8028 	ldr.w	r8, [sp, #40]	; 0x28
    a900:	ea6f 0907 	mvn.w	r9, r7
    a904:	e00a      	b.n	a91c <_dtoa_r+0x914>
    a906:	9d0c      	ldr	r5, [sp, #48]	; 0x30
    a908:	f8dd 9040 	ldr.w	r9, [sp, #64]	; 0x40
    a90c:	462c      	mov	r4, r5
    a90e:	9f0a      	ldr	r7, [sp, #40]	; 0x28
    a910:	2331      	movs	r3, #49	; 0x31
    a912:	f107 0801 	add.w	r8, r7, #1
    a916:	703b      	strb	r3, [r7, #0]
    a918:	f109 0901 	add.w	r9, r9, #1
    a91c:	4627      	mov	r7, r4
    a91e:	2400      	movs	r4, #0
    a920:	e107      	b.n	ab32 <_dtoa_r+0xb2a>
    a922:	980f      	ldr	r0, [sp, #60]	; 0x3c
    a924:	2800      	cmp	r0, #0
    a926:	f000 80bb 	beq.w	aaa0 <_dtoa_r+0xa98>
    a92a:	2e00      	cmp	r6, #0
    a92c:	dd05      	ble.n	a93a <_dtoa_r+0x932>
    a92e:	4621      	mov	r1, r4
    a930:	4650      	mov	r0, r10
    a932:	4632      	mov	r2, r6
    a934:	f000 fbb8 	bl	b0a8 <__lshift>
    a938:	4604      	mov	r4, r0
    a93a:	b19f      	cbz	r7, a964 <_dtoa_r+0x95c>
    a93c:	6861      	ldr	r1, [r4, #4]
    a93e:	4650      	mov	r0, r10
    a940:	f000 f9ad 	bl	ac9e <_Balloc>
    a944:	6922      	ldr	r2, [r4, #16]
    a946:	4606      	mov	r6, r0
    a948:	3202      	adds	r2, #2
    a94a:	f104 010c 	add.w	r1, r4, #12
    a94e:	0092      	lsls	r2, r2, #2
    a950:	300c      	adds	r0, #12
    a952:	f7fd faef 	bl	7f34 <memcpy>
    a956:	4650      	mov	r0, r10
    a958:	4631      	mov	r1, r6
    a95a:	2201      	movs	r2, #1
    a95c:	f000 fba4 	bl	b0a8 <__lshift>
    a960:	4607      	mov	r7, r0
    a962:	e000      	b.n	a966 <_dtoa_r+0x95e>
    a964:	4627      	mov	r7, r4
    a966:	9e0a      	ldr	r6, [sp, #40]	; 0x28
    a968:	4629      	mov	r1, r5
    a96a:	4658      	mov	r0, r11
    a96c:	f7ff fabc 	bl	9ee8 <quorem>
    a970:	4621      	mov	r1, r4
    a972:	f100 0c30 	add.w	r12, r0, #48	; 0x30
    a976:	4680      	mov	r8, r0
    a978:	4658      	mov	r0, r11
    a97a:	f8cd c008 	str.w	r12, [sp, #8]
    a97e:	f000 fbe6 	bl	b14e <__mcmp>
    a982:	463a      	mov	r2, r7
    a984:	9008      	str	r0, [sp, #32]
    a986:	4629      	mov	r1, r5
    a988:	4650      	mov	r0, r10
    a98a:	f000 fbfd 	bl	b188 <__mdiff>
    a98e:	68c3      	ldr	r3, [r0, #12]
    a990:	4602      	mov	r2, r0
    a992:	f8dd c008 	ldr.w	r12, [sp, #8]
    a996:	b94b      	cbnz	r3, a9ac <_dtoa_r+0x9a4>
    a998:	4611      	mov	r1, r2
    a99a:	4658      	mov	r0, r11
    a99c:	9203      	str	r2, [sp, #12]
    a99e:	f000 fbd6 	bl	b14e <__mcmp>
    a9a2:	9a03      	ldr	r2, [sp, #12]
    a9a4:	4603      	mov	r3, r0
    a9a6:	f8dd c008 	ldr.w	r12, [sp, #8]
    a9aa:	e000      	b.n	a9ae <_dtoa_r+0x9a6>
    a9ac:	2301      	movs	r3, #1
    a9ae:	4650      	mov	r0, r10
    a9b0:	4611      	mov	r1, r2
    a9b2:	9303      	str	r3, [sp, #12]
    a9b4:	f8cd c008 	str.w	r12, [sp, #8]
    a9b8:	f000 f9a6 	bl	ad08 <_Bfree>
    a9bc:	9b03      	ldr	r3, [sp, #12]
    a9be:	f8dd c008 	ldr.w	r12, [sp, #8]
    a9c2:	b963      	cbnz	r3, a9de <_dtoa_r+0x9d6>
    a9c4:	9924      	ldr	r1, [sp, #144]	; 0x90
    a9c6:	b951      	cbnz	r1, a9de <_dtoa_r+0x9d6>
    a9c8:	9804      	ldr	r0, [sp, #16]
    a9ca:	f000 0201 	and.w	r2, r0, #1
    a9ce:	b932      	cbnz	r2, a9de <_dtoa_r+0x9d6>
    a9d0:	f1bc 0f39 	cmp.w	r12, #57	; 0x39
    a9d4:	d035      	beq.n	aa42 <_dtoa_r+0xa3a>
    a9d6:	9b08      	ldr	r3, [sp, #32]
    a9d8:	2b00      	cmp	r3, #0
    a9da:	dc24      	bgt.n	aa26 <_dtoa_r+0xa1e>
    a9dc:	e025      	b.n	aa2a <_dtoa_r+0xa22>
    a9de:	9808      	ldr	r0, [sp, #32]
    a9e0:	2800      	cmp	r0, #0
    a9e2:	da02      	bge.n	a9ea <_dtoa_r+0x9e2>
    a9e4:	2b00      	cmp	r3, #0
    a9e6:	dc08      	bgt.n	a9fa <_dtoa_r+0x9f2>
    a9e8:	e01f      	b.n	aa2a <_dtoa_r+0xa22>
    a9ea:	d123      	bne.n	aa34 <_dtoa_r+0xa2c>
    a9ec:	9924      	ldr	r1, [sp, #144]	; 0x90
    a9ee:	bb09      	cbnz	r1, aa34 <_dtoa_r+0xa2c>
    a9f0:	9804      	ldr	r0, [sp, #16]
    a9f2:	f000 0201 	and.w	r2, r0, #1
    a9f6:	b9ea      	cbnz	r2, aa34 <_dtoa_r+0xa2c>
    a9f8:	e7f4      	b.n	a9e4 <_dtoa_r+0x9dc>
    a9fa:	4659      	mov	r1, r11
    a9fc:	2201      	movs	r2, #1
    a9fe:	4650      	mov	r0, r10
    aa00:	f8cd c008 	str.w	r12, [sp, #8]
    aa04:	f000 fb50 	bl	b0a8 <__lshift>
    aa08:	4629      	mov	r1, r5
    aa0a:	4683      	mov	r11, r0
    aa0c:	f000 fb9f 	bl	b14e <__mcmp>
    aa10:	2800      	cmp	r0, #0
    aa12:	f8dd c008 	ldr.w	r12, [sp, #8]
    aa16:	dc03      	bgt.n	aa20 <_dtoa_r+0xa18>
    aa18:	d107      	bne.n	aa2a <_dtoa_r+0xa22>
    aa1a:	f01c 0f01 	tst.w	r12, #1
    aa1e:	d004      	beq.n	aa2a <_dtoa_r+0xa22>
    aa20:	f1bc 0f39 	cmp.w	r12, #57	; 0x39
    aa24:	d00d      	beq.n	aa42 <_dtoa_r+0xa3a>
    aa26:	f108 0c31 	add.w	r12, r8, #49	; 0x31
    aa2a:	f106 0801 	add.w	r8, r6, #1
    aa2e:	f886 c000 	strb.w	r12, [r6]
    aa32:	e07e      	b.n	ab32 <_dtoa_r+0xb2a>
    aa34:	2b00      	cmp	r3, #0
    aa36:	f106 0801 	add.w	r8, r6, #1
    aa3a:	dd09      	ble.n	aa50 <_dtoa_r+0xa48>
    aa3c:	f1bc 0f39 	cmp.w	r12, #57	; 0x39
    aa40:	d103      	bne.n	aa4a <_dtoa_r+0xa42>
    aa42:	2339      	movs	r3, #57	; 0x39
    aa44:	7033      	strb	r3, [r6, #0]
    aa46:	3601      	adds	r6, #1
    aa48:	e05b      	b.n	ab02 <_dtoa_r+0xafa>
    aa4a:	f10c 0301 	add.w	r3, r12, #1
    aa4e:	e068      	b.n	ab22 <_dtoa_r+0xb1a>
    aa50:	990a      	ldr	r1, [sp, #40]	; 0x28
    aa52:	9a07      	ldr	r2, [sp, #28]
    aa54:	ebc1 0308 	rsb	r3, r1, r8
    aa58:	4646      	mov	r6, r8
    aa5a:	4293      	cmp	r3, r2
    aa5c:	f806 cc01 	strb.w	r12, [r6, #-1]
    aa60:	d03c      	beq.n	aadc <_dtoa_r+0xad4>
    aa62:	4659      	mov	r1, r11
    aa64:	220a      	movs	r2, #10
    aa66:	2300      	movs	r3, #0
    aa68:	4650      	mov	r0, r10
    aa6a:	f000 f964 	bl	ad36 <__multadd>
    aa6e:	42bc      	cmp	r4, r7
    aa70:	4683      	mov	r11, r0
    aa72:	4621      	mov	r1, r4
    aa74:	4650      	mov	r0, r10
    aa76:	f04f 020a 	mov.w	r2, #10
    aa7a:	f04f 0300 	mov.w	r3, #0
    aa7e:	d104      	bne.n	aa8a <_dtoa_r+0xa82>
    aa80:	f000 f959 	bl	ad36 <__multadd>
    aa84:	4604      	mov	r4, r0
    aa86:	4607      	mov	r7, r0
    aa88:	e76e      	b.n	a968 <_dtoa_r+0x960>
    aa8a:	f000 f954 	bl	ad36 <__multadd>
    aa8e:	4639      	mov	r1, r7
    aa90:	4604      	mov	r4, r0
    aa92:	220a      	movs	r2, #10
    aa94:	4650      	mov	r0, r10
    aa96:	2300      	movs	r3, #0
    aa98:	f000 f94d 	bl	ad36 <__multadd>
    aa9c:	4607      	mov	r7, r0
    aa9e:	e763      	b.n	a968 <_dtoa_r+0x960>
    aaa0:	9e0f      	ldr	r6, [sp, #60]	; 0x3c
    aaa2:	4658      	mov	r0, r11
    aaa4:	4629      	mov	r1, r5
    aaa6:	f7ff fa1f 	bl	9ee8 <quorem>
    aaaa:	9f0a      	ldr	r7, [sp, #40]	; 0x28
    aaac:	f100 0c30 	add.w	r12, r0, #48	; 0x30
    aab0:	f807 c006 	strb.w	r12, [r7, r6]
    aab4:	9f07      	ldr	r7, [sp, #28]
    aab6:	3601      	adds	r6, #1
    aab8:	42be      	cmp	r6, r7
    aaba:	db07      	blt.n	aacc <_dtoa_r+0xac4>
    aabc:	9e0a      	ldr	r6, [sp, #40]	; 0x28
    aabe:	2f01      	cmp	r7, #1
    aac0:	bfac      	ite	ge
    aac2:	19f6      	addge	r6, r6, r7
    aac4:	3601      	addlt	r6, #1
    aac6:	4627      	mov	r7, r4
    aac8:	2400      	movs	r4, #0
    aaca:	e007      	b.n	aadc <_dtoa_r+0xad4>
    aacc:	4659      	mov	r1, r11
    aace:	4650      	mov	r0, r10
    aad0:	220a      	movs	r2, #10
    aad2:	2300      	movs	r3, #0
    aad4:	f000 f92f 	bl	ad36 <__multadd>
    aad8:	4683      	mov	r11, r0
    aada:	e7e2      	b.n	aaa2 <_dtoa_r+0xa9a>
    aadc:	4659      	mov	r1, r11
    aade:	2201      	movs	r2, #1
    aae0:	4650      	mov	r0, r10
    aae2:	f8cd c008 	str.w	r12, [sp, #8]
    aae6:	f000 fadf 	bl	b0a8 <__lshift>
    aaea:	4629      	mov	r1, r5
    aaec:	4683      	mov	r11, r0
    aaee:	f000 fb2e 	bl	b14e <__mcmp>
    aaf2:	2800      	cmp	r0, #0
    aaf4:	f8dd c008 	ldr.w	r12, [sp, #8]
    aaf8:	dc03      	bgt.n	ab02 <_dtoa_r+0xafa>
    aafa:	d114      	bne.n	ab26 <_dtoa_r+0xb1e>
    aafc:	f01c 0f01 	tst.w	r12, #1
    ab00:	d011      	beq.n	ab26 <_dtoa_r+0xb1e>
    ab02:	f816 3c01 	ldrb.w	r3, [r6, #-1]
    ab06:	46b0      	mov	r8, r6
    ab08:	2b39      	cmp	r3, #57	; 0x39
    ab0a:	f106 36ff 	add.w	r6, r6, #4294967295
    ab0e:	d107      	bne.n	ab20 <_dtoa_r+0xb18>
    ab10:	980a      	ldr	r0, [sp, #40]	; 0x28
    ab12:	42b0      	cmp	r0, r6
    ab14:	d1f5      	bne.n	ab02 <_dtoa_r+0xafa>
    ab16:	2331      	movs	r3, #49	; 0x31
    ab18:	f109 0901 	add.w	r9, r9, #1
    ab1c:	7003      	strb	r3, [r0, #0]
    ab1e:	e008      	b.n	ab32 <_dtoa_r+0xb2a>
    ab20:	3301      	adds	r3, #1
    ab22:	7033      	strb	r3, [r6, #0]
    ab24:	e005      	b.n	ab32 <_dtoa_r+0xb2a>
    ab26:	46b0      	mov	r8, r6
    ab28:	f818 3c01 	ldrb.w	r3, [r8, #-1]
    ab2c:	3e01      	subs	r6, #1
    ab2e:	2b30      	cmp	r3, #48	; 0x30
    ab30:	d0f9      	beq.n	ab26 <_dtoa_r+0xb1e>
    ab32:	4650      	mov	r0, r10
    ab34:	4629      	mov	r1, r5
    ab36:	f000 f8e7 	bl	ad08 <_Bfree>
    ab3a:	b16f      	cbz	r7, ab58 <_dtoa_r+0xb50>
    ab3c:	b12c      	cbz	r4, ab4a <_dtoa_r+0xb42>
    ab3e:	42bc      	cmp	r4, r7
    ab40:	d003      	beq.n	ab4a <_dtoa_r+0xb42>
    ab42:	4650      	mov	r0, r10
    ab44:	4621      	mov	r1, r4
    ab46:	f000 f8df 	bl	ad08 <_Bfree>
    ab4a:	4650      	mov	r0, r10
    ab4c:	4639      	mov	r1, r7
    ab4e:	f000 f8db 	bl	ad08 <_Bfree>
    ab52:	e001      	b.n	ab58 <_dtoa_r+0xb50>
    ab54:	f8dd 9040 	ldr.w	r9, [sp, #64]	; 0x40
    ab58:	4650      	mov	r0, r10
    ab5a:	4659      	mov	r1, r11
    ab5c:	f000 f8d4 	bl	ad08 <_Bfree>
    ab60:	2300      	movs	r3, #0
    ab62:	9f26      	ldr	r7, [sp, #152]	; 0x98
    ab64:	f888 3000 	strb.w	r3, [r8]
    ab68:	f109 0301 	add.w	r3, r9, #1
    ab6c:	603b      	str	r3, [r7, #0]
    ab6e:	9f28      	ldr	r7, [sp, #160]	; 0xa0
    ab70:	b127      	cbz	r7, ab7c <_dtoa_r+0xb74>
    ab72:	f8c7 8000 	str.w	r8, [r7]
    ab76:	e001      	b.n	ab7c <_dtoa_r+0xb74>
    ab78:	4802      	ldr	r0, [pc, #8]	; (ab84 <_dtoa_r+0xb7c>)
    ab7a:	e000      	b.n	ab7e <_dtoa_r+0xb76>
    ab7c:	980a      	ldr	r0, [sp, #40]	; 0x28
    ab7e:	b01b      	add	sp, #108	; 0x6c
    ab80:	e8bd 8ff0 	ldmia.w	sp!, {r4, r5, r6, r7, r8, r9, r10, r11, pc}
    ab84:	0000df32 	.word	0x0000df32

0000ab88 <__sflags>:
    ab88:	780b      	ldrb	r3, [r1, #0]
    ab8a:	b530      	push	{r4, r5, lr}
    ab8c:	2b72      	cmp	r3, #114	; 0x72
    ab8e:	d009      	beq.n	aba4 <__sflags+0x1c>
    ab90:	2b77      	cmp	r3, #119	; 0x77
    ab92:	d00b      	beq.n	abac <__sflags+0x24>
    ab94:	2b61      	cmp	r3, #97	; 0x61
    ab96:	d10e      	bne.n	abb6 <__sflags+0x2e>
    ab98:	f44f 7402 	mov.w	r4, #520	; 0x208
    ab9c:	2301      	movs	r3, #1
    ab9e:	f44f 7084 	mov.w	r0, #264	; 0x108
    aba2:	e01b      	b.n	abdc <__sflags+0x54>
    aba4:	2400      	movs	r4, #0
    aba6:	4623      	mov	r3, r4
    aba8:	2004      	movs	r0, #4
    abaa:	e017      	b.n	abdc <__sflags+0x54>
    abac:	f44f 64c0 	mov.w	r4, #1536	; 0x600
    abb0:	2301      	movs	r3, #1
    abb2:	2008      	movs	r0, #8
    abb4:	e012      	b.n	abdc <__sflags+0x54>
    abb6:	2316      	movs	r3, #22
    abb8:	6003      	str	r3, [r0, #0]
    abba:	2000      	movs	r0, #0
    abbc:	bd30      	pop	{r4, r5, pc}
    abbe:	2d62      	cmp	r5, #98	; 0x62
    abc0:	d010      	beq.n	abe4 <__sflags+0x5c>
    abc2:	2d78      	cmp	r5, #120	; 0x78
    abc4:	d011      	beq.n	abea <__sflags+0x62>
    abc6:	2d2b      	cmp	r5, #43	; 0x2b
    abc8:	d107      	bne.n	abda <__sflags+0x52>
    abca:	f020 001c 	bic.w	r0, r0, #28
    abce:	f023 0303 	bic.w	r3, r3, #3
    abd2:	f040 0010 	orr.w	r0, r0, #16
    abd6:	f043 0302 	orr.w	r3, r3, #2
    abda:	3101      	adds	r1, #1
    abdc:	784d      	ldrb	r5, [r1, #1]
    abde:	2d00      	cmp	r5, #0
    abe0:	d1ed      	bne.n	abbe <__sflags+0x36>
    abe2:	e005      	b.n	abf0 <__sflags+0x68>
    abe4:	f443 3380 	orr.w	r3, r3, #65536	; 0x10000
    abe8:	e7f7      	b.n	abda <__sflags+0x52>
    abea:	f443 6300 	orr.w	r3, r3, #2048	; 0x800
    abee:	e7f4      	b.n	abda <__sflags+0x52>
    abf0:	4323      	orrs	r3, r4
    abf2:	6013      	str	r3, [r2, #0]
    abf4:	bd30      	pop	{r4, r5, pc}
	...

0000abf8 <_fstat_r>:
    abf8:	b538      	push	{r3, r4, r5, lr}
    abfa:	4c07      	ldr	r4, [pc, #28]	; (ac18 <_fstat_r+0x20>)
    abfc:	2300      	movs	r3, #0
    abfe:	4605      	mov	r5, r0
    ac00:	4608      	mov	r0, r1
    ac02:	4611      	mov	r1, r2
    ac04:	6023      	str	r3, [r4, #0]
    ac06:	f7f9 fdd5 	bl	47b4 <_fstat>
    ac0a:	1c43      	adds	r3, r0, #1
    ac0c:	d102      	bne.n	ac14 <_fstat_r+0x1c>
    ac0e:	6823      	ldr	r3, [r4, #0]
    ac10:	b103      	cbz	r3, ac14 <_fstat_r+0x1c>
    ac12:	602b      	str	r3, [r5, #0]
    ac14:	bd38      	pop	{r3, r4, r5, pc}
    ac16:	bf00      	nop
    ac18:	10000c90 	.word	0x10000c90

0000ac1c <_isatty_r>:
    ac1c:	b538      	push	{r3, r4, r5, lr}
    ac1e:	4c06      	ldr	r4, [pc, #24]	; (ac38 <_isatty_r+0x1c>)
    ac20:	2300      	movs	r3, #0
    ac22:	4605      	mov	r5, r0
    ac24:	4608      	mov	r0, r1
    ac26:	6023      	str	r3, [r4, #0]
    ac28:	f7f6 fa92 	bl	1150 <__wrap__isatty>
    ac2c:	1c43      	adds	r3, r0, #1
    ac2e:	d102      	bne.n	ac36 <_isatty_r+0x1a>
    ac30:	6823      	ldr	r3, [r4, #0]
    ac32:	b103      	cbz	r3, ac36 <_isatty_r+0x1a>
    ac34:	602b      	str	r3, [r5, #0]
    ac36:	bd38      	pop	{r3, r4, r5, pc}
    ac38:	10000c90 	.word	0x10000c90

0000ac3c <_localeconv_r>:
    ac3c:	4800      	ldr	r0, [pc, #0]	; (ac40 <_localeconv_r+0x4>)
    ac3e:	4770      	bx	lr
    ac40:	10000144 	.word	0x10000144

0000ac44 <_lseek_r>:
    ac44:	b538      	push	{r3, r4, r5, lr}
    ac46:	4c07      	ldr	r4, [pc, #28]	; (ac64 <_lseek_r+0x20>)
    ac48:	4605      	mov	r5, r0
    ac4a:	2000      	movs	r0, #0
    ac4c:	6020      	str	r0, [r4, #0]
    ac4e:	4608      	mov	r0, r1
    ac50:	4611      	mov	r1, r2
    ac52:	461a      	mov	r2, r3
    ac54:	f7f9 fd88 	bl	4768 <_lseek>
    ac58:	1c43      	adds	r3, r0, #1
    ac5a:	d102      	bne.n	ac62 <_lseek_r+0x1e>
    ac5c:	6823      	ldr	r3, [r4, #0]
    ac5e:	b103      	cbz	r3, ac62 <_lseek_r+0x1e>
    ac60:	602b      	str	r3, [r5, #0]
    ac62:	bd38      	pop	{r3, r4, r5, pc}
    ac64:	10000c90 	.word	0x10000c90

0000ac68 <memmove>:
    ac68:	4281      	cmp	r1, r0
    ac6a:	b570      	push	{r4, r5, r6, lr}
    ac6c:	d301      	bcc.n	ac72 <memmove+0xa>
    ac6e:	2300      	movs	r3, #0
    ac70:	e00e      	b.n	ac90 <memmove+0x28>
    ac72:	188c      	adds	r4, r1, r2
    ac74:	42a0      	cmp	r0, r4
    ac76:	d2fa      	bcs.n	ac6e <memmove+0x6>
    ac78:	1885      	adds	r5, r0, r2
    ac7a:	4613      	mov	r3, r2
    ac7c:	f113 33ff 	adds.w	r3, r3, #4294967295
    ac80:	d305      	bcc.n	ac8e <memmove+0x26>
    ac82:	4251      	negs	r1, r2
    ac84:	1866      	adds	r6, r4, r1
    ac86:	5cf6      	ldrb	r6, [r6, r3]
    ac88:	4429      	add	r1, r5
    ac8a:	54ce      	strb	r6, [r1, r3]
    ac8c:	e7f6      	b.n	ac7c <memmove+0x14>
    ac8e:	bd70      	pop	{r4, r5, r6, pc}
    ac90:	4293      	cmp	r3, r2
    ac92:	d003      	beq.n	ac9c <memmove+0x34>
    ac94:	5ccc      	ldrb	r4, [r1, r3]
    ac96:	54c4      	strb	r4, [r0, r3]
    ac98:	3301      	adds	r3, #1
    ac9a:	e7f9      	b.n	ac90 <memmove+0x28>
    ac9c:	bd70      	pop	{r4, r5, r6, pc}

0000ac9e <_Balloc>:
    ac9e:	b570      	push	{r4, r5, r6, lr}
    aca0:	6a45      	ldr	r5, [r0, #36]	; 0x24
    aca2:	4604      	mov	r4, r0
    aca4:	460e      	mov	r6, r1
    aca6:	b93d      	cbnz	r5, acb8 <_Balloc+0x1a>
    aca8:	2010      	movs	r0, #16
    acaa:	f7f6 fa6b 	bl	1184 <__wrap_malloc>
    acae:	6260      	str	r0, [r4, #36]	; 0x24
    acb0:	6045      	str	r5, [r0, #4]
    acb2:	6085      	str	r5, [r0, #8]
    acb4:	6005      	str	r5, [r0, #0]
    acb6:	60c5      	str	r5, [r0, #12]
    acb8:	6a65      	ldr	r5, [r4, #36]	; 0x24
    acba:	68eb      	ldr	r3, [r5, #12]
    acbc:	b143      	cbz	r3, acd0 <_Balloc+0x32>
    acbe:	6a63      	ldr	r3, [r4, #36]	; 0x24
    acc0:	68da      	ldr	r2, [r3, #12]
    acc2:	f852 0026 	ldr.w	r0, [r2, r6, lsl #2]
    acc6:	b178      	cbz	r0, ace8 <_Balloc+0x4a>
    acc8:	6801      	ldr	r1, [r0, #0]
    acca:	f842 1026 	str.w	r1, [r2, r6, lsl #2]
    acce:	e017      	b.n	ad00 <_Balloc+0x62>
    acd0:	4620      	mov	r0, r4
    acd2:	2104      	movs	r1, #4
    acd4:	2221      	movs	r2, #33	; 0x21
    acd6:	f000 fbe0 	bl	b49a <_calloc_r>
    acda:	6a63      	ldr	r3, [r4, #36]	; 0x24
    acdc:	60e8      	str	r0, [r5, #12]
    acde:	68db      	ldr	r3, [r3, #12]
    ace0:	2b00      	cmp	r3, #0
    ace2:	d1ec      	bne.n	acbe <_Balloc+0x20>
    ace4:	2000      	movs	r0, #0
    ace6:	bd70      	pop	{r4, r5, r6, pc}
    ace8:	2101      	movs	r1, #1
    acea:	fa01 f506 	lsl.w	r5, r1, r6
    acee:	1d6a      	adds	r2, r5, #5
    acf0:	4620      	mov	r0, r4
    acf2:	0092      	lsls	r2, r2, #2
    acf4:	f000 fbd1 	bl	b49a <_calloc_r>
    acf8:	2800      	cmp	r0, #0
    acfa:	d0f3      	beq.n	ace4 <_Balloc+0x46>
    acfc:	6046      	str	r6, [r0, #4]
    acfe:	6085      	str	r5, [r0, #8]
    ad00:	2200      	movs	r2, #0
    ad02:	6102      	str	r2, [r0, #16]
    ad04:	60c2      	str	r2, [r0, #12]
    ad06:	bd70      	pop	{r4, r5, r6, pc}

0000ad08 <_Bfree>:
    ad08:	b570      	push	{r4, r5, r6, lr}
    ad0a:	6a44      	ldr	r4, [r0, #36]	; 0x24
    ad0c:	4606      	mov	r6, r0
    ad0e:	460d      	mov	r5, r1
    ad10:	b93c      	cbnz	r4, ad22 <_Bfree+0x1a>
    ad12:	2010      	movs	r0, #16
    ad14:	f7f6 fa36 	bl	1184 <__wrap_malloc>
    ad18:	6270      	str	r0, [r6, #36]	; 0x24
    ad1a:	6044      	str	r4, [r0, #4]
    ad1c:	6084      	str	r4, [r0, #8]
    ad1e:	6004      	str	r4, [r0, #0]
    ad20:	60c4      	str	r4, [r0, #12]
    ad22:	b13d      	cbz	r5, ad34 <_Bfree+0x2c>
    ad24:	6a73      	ldr	r3, [r6, #36]	; 0x24
    ad26:	686a      	ldr	r2, [r5, #4]
    ad28:	68db      	ldr	r3, [r3, #12]
    ad2a:	f853 1022 	ldr.w	r1, [r3, r2, lsl #2]
    ad2e:	6029      	str	r1, [r5, #0]
    ad30:	f843 5022 	str.w	r5, [r3, r2, lsl #2]
    ad34:	bd70      	pop	{r4, r5, r6, pc}

0000ad36 <__multadd>:
    ad36:	e92d 41f0 	stmdb	sp!, {r4, r5, r6, r7, r8, lr}
    ad3a:	460c      	mov	r4, r1
    ad3c:	461e      	mov	r6, r3
    ad3e:	690d      	ldr	r5, [r1, #16]
    ad40:	4607      	mov	r7, r0
    ad42:	3114      	adds	r1, #20
    ad44:	2300      	movs	r3, #0
    ad46:	6808      	ldr	r0, [r1, #0]
    ad48:	3301      	adds	r3, #1
    ad4a:	fa1f fc80 	uxth.w	r12, r0
    ad4e:	0c00      	lsrs	r0, r0, #16
    ad50:	fb02 6c0c 	mla	r12, r2, r12, r6
    ad54:	4350      	muls	r0, r2
    ad56:	eb00 401c 	add.w	r0, r0, r12, lsr #16
    ad5a:	fa1f fc8c 	uxth.w	r12, r12
    ad5e:	0c06      	lsrs	r6, r0, #16
    ad60:	42ab      	cmp	r3, r5
    ad62:	eb0c 4000 	add.w	r0, r12, r0, lsl #16
    ad66:	f841 0b04 	str.w	r0, [r1], #4
    ad6a:	dbec      	blt.n	ad46 <__multadd+0x10>
    ad6c:	b1d6      	cbz	r6, ada4 <__multadd+0x6e>
    ad6e:	68a3      	ldr	r3, [r4, #8]
    ad70:	429d      	cmp	r5, r3
    ad72:	db12      	blt.n	ad9a <__multadd+0x64>
    ad74:	6861      	ldr	r1, [r4, #4]
    ad76:	4638      	mov	r0, r7
    ad78:	3101      	adds	r1, #1
    ad7a:	f7ff ff90 	bl	ac9e <_Balloc>
    ad7e:	6922      	ldr	r2, [r4, #16]
    ad80:	f104 010c 	add.w	r1, r4, #12
    ad84:	3202      	adds	r2, #2
    ad86:	4680      	mov	r8, r0
    ad88:	0092      	lsls	r2, r2, #2
    ad8a:	300c      	adds	r0, #12
    ad8c:	f7fd f8d2 	bl	7f34 <memcpy>
    ad90:	4621      	mov	r1, r4
    ad92:	4638      	mov	r0, r7
    ad94:	f7ff ffb8 	bl	ad08 <_Bfree>
    ad98:	4644      	mov	r4, r8
    ad9a:	eb04 0385 	add.w	r3, r4, r5, lsl #2
    ad9e:	3501      	adds	r5, #1
    ada0:	615e      	str	r6, [r3, #20]
    ada2:	6125      	str	r5, [r4, #16]
    ada4:	4620      	mov	r0, r4
    ada6:	e8bd 81f0 	ldmia.w	sp!, {r4, r5, r6, r7, r8, pc}

0000adaa <__s2b>:
    adaa:	e92d 43f8 	stmdb	sp!, {r3, r4, r5, r6, r7, r8, r9, lr}
    adae:	4614      	mov	r4, r2
    adb0:	4698      	mov	r8, r3
    adb2:	f103 0208 	add.w	r2, r3, #8
    adb6:	2309      	movs	r3, #9
    adb8:	460d      	mov	r5, r1
    adba:	fb92 f2f3 	sdiv	r2, r2, r3
    adbe:	4606      	mov	r6, r0
    adc0:	2301      	movs	r3, #1
    adc2:	2100      	movs	r1, #0
    adc4:	429a      	cmp	r2, r3
    adc6:	dd02      	ble.n	adce <__s2b+0x24>
    adc8:	005b      	lsls	r3, r3, #1
    adca:	3101      	adds	r1, #1
    adcc:	e7fa      	b.n	adc4 <__s2b+0x1a>
    adce:	4630      	mov	r0, r6
    add0:	f7ff ff65 	bl	ac9e <_Balloc>
    add4:	9b08      	ldr	r3, [sp, #32]
    add6:	2c09      	cmp	r4, #9
    add8:	6143      	str	r3, [r0, #20]
    adda:	f04f 0301 	mov.w	r3, #1
    adde:	4601      	mov	r1, r0
    ade0:	6103      	str	r3, [r0, #16]
    ade2:	dd11      	ble.n	ae08 <__s2b+0x5e>
    ade4:	f105 0909 	add.w	r9, r5, #9
    ade8:	464f      	mov	r7, r9
    adea:	4425      	add	r5, r4
    adec:	f817 3b01 	ldrb.w	r3, [r7], #1
    adf0:	4630      	mov	r0, r6
    adf2:	220a      	movs	r2, #10
    adf4:	3b30      	subs	r3, #48	; 0x30
    adf6:	f7ff ff9e 	bl	ad36 <__multadd>
    adfa:	42af      	cmp	r7, r5
    adfc:	4601      	mov	r1, r0
    adfe:	d1f5      	bne.n	adec <__s2b+0x42>
    ae00:	eb09 0704 	add.w	r7, r9, r4
    ae04:	3f08      	subs	r7, #8
    ae06:	e002      	b.n	ae0e <__s2b+0x64>
    ae08:	f105 070a 	add.w	r7, r5, #10
    ae0c:	2409      	movs	r4, #9
    ae0e:	4625      	mov	r5, r4
    ae10:	4545      	cmp	r5, r8
    ae12:	da09      	bge.n	ae28 <__s2b+0x7e>
    ae14:	1b3b      	subs	r3, r7, r4
    ae16:	5d5b      	ldrb	r3, [r3, r5]
    ae18:	4630      	mov	r0, r6
    ae1a:	220a      	movs	r2, #10
    ae1c:	3b30      	subs	r3, #48	; 0x30
    ae1e:	f7ff ff8a 	bl	ad36 <__multadd>
    ae22:	3501      	adds	r5, #1
    ae24:	4601      	mov	r1, r0
    ae26:	e7f3      	b.n	ae10 <__s2b+0x66>
    ae28:	4608      	mov	r0, r1
    ae2a:	e8bd 83f8 	ldmia.w	sp!, {r3, r4, r5, r6, r7, r8, r9, pc}

0000ae2e <__hi0bits>:
    ae2e:	0c03      	lsrs	r3, r0, #16
    ae30:	041b      	lsls	r3, r3, #16
    ae32:	b913      	cbnz	r3, ae3a <__hi0bits+0xc>
    ae34:	0400      	lsls	r0, r0, #16
    ae36:	2310      	movs	r3, #16
    ae38:	e000      	b.n	ae3c <__hi0bits+0xe>
    ae3a:	2300      	movs	r3, #0
    ae3c:	f010 4f7f 	tst.w	r0, #4278190080	; 0xff000000
    ae40:	bf04      	itt	eq
    ae42:	0200      	lsleq	r0, r0, #8
    ae44:	3308      	addeq	r3, #8
    ae46:	f010 4f70 	tst.w	r0, #4026531840	; 0xf0000000
    ae4a:	bf04      	itt	eq
    ae4c:	0100      	lsleq	r0, r0, #4
    ae4e:	3304      	addeq	r3, #4
    ae50:	f010 4f40 	tst.w	r0, #3221225472	; 0xc0000000
    ae54:	bf04      	itt	eq
    ae56:	0080      	lsleq	r0, r0, #2
    ae58:	3302      	addeq	r3, #2
    ae5a:	2800      	cmp	r0, #0
    ae5c:	db03      	blt.n	ae66 <__hi0bits+0x38>
    ae5e:	0042      	lsls	r2, r0, #1
    ae60:	d503      	bpl.n	ae6a <__hi0bits+0x3c>
    ae62:	1c58      	adds	r0, r3, #1
    ae64:	4770      	bx	lr
    ae66:	4618      	mov	r0, r3
    ae68:	4770      	bx	lr
    ae6a:	2020      	movs	r0, #32
    ae6c:	4770      	bx	lr

0000ae6e <__lo0bits>:
    ae6e:	6803      	ldr	r3, [r0, #0]
    ae70:	f013 0207 	ands.w	r2, r3, #7
    ae74:	d00b      	beq.n	ae8e <__lo0bits+0x20>
    ae76:	07d9      	lsls	r1, r3, #31
    ae78:	d422      	bmi.n	aec0 <__lo0bits+0x52>
    ae7a:	079a      	lsls	r2, r3, #30
    ae7c:	d503      	bpl.n	ae86 <__lo0bits+0x18>
    ae7e:	085b      	lsrs	r3, r3, #1
    ae80:	6003      	str	r3, [r0, #0]
    ae82:	2001      	movs	r0, #1
    ae84:	4770      	bx	lr
    ae86:	089b      	lsrs	r3, r3, #2
    ae88:	6003      	str	r3, [r0, #0]
    ae8a:	2002      	movs	r0, #2
    ae8c:	4770      	bx	lr
    ae8e:	b299      	uxth	r1, r3
    ae90:	b909      	cbnz	r1, ae96 <__lo0bits+0x28>
    ae92:	0c1b      	lsrs	r3, r3, #16
    ae94:	2210      	movs	r2, #16
    ae96:	f013 0fff 	tst.w	r3, #255	; 0xff
    ae9a:	bf04      	itt	eq
    ae9c:	0a1b      	lsreq	r3, r3, #8
    ae9e:	3208      	addeq	r2, #8
    aea0:	0719      	lsls	r1, r3, #28
    aea2:	bf04      	itt	eq
    aea4:	091b      	lsreq	r3, r3, #4
    aea6:	3204      	addeq	r2, #4
    aea8:	0799      	lsls	r1, r3, #30
    aeaa:	bf04      	itt	eq
    aeac:	089b      	lsreq	r3, r3, #2
    aeae:	3202      	addeq	r2, #2
    aeb0:	07d9      	lsls	r1, r3, #31
    aeb2:	d402      	bmi.n	aeba <__lo0bits+0x4c>
    aeb4:	085b      	lsrs	r3, r3, #1
    aeb6:	d005      	beq.n	aec4 <__lo0bits+0x56>
    aeb8:	3201      	adds	r2, #1
    aeba:	6003      	str	r3, [r0, #0]
    aebc:	4610      	mov	r0, r2
    aebe:	4770      	bx	lr
    aec0:	2000      	movs	r0, #0
    aec2:	4770      	bx	lr
    aec4:	2020      	movs	r0, #32
    aec6:	4770      	bx	lr

0000aec8 <__i2b>:
    aec8:	b510      	push	{r4, lr}
    aeca:	460c      	mov	r4, r1
    aecc:	2101      	movs	r1, #1
    aece:	f7ff fee6 	bl	ac9e <_Balloc>
    aed2:	2201      	movs	r2, #1
    aed4:	6144      	str	r4, [r0, #20]
    aed6:	6102      	str	r2, [r0, #16]
    aed8:	bd10      	pop	{r4, pc}

0000aeda <__multiply>:
    aeda:	e92d 4ff0 	stmdb	sp!, {r4, r5, r6, r7, r8, r9, r10, r11, lr}
    aede:	4616      	mov	r6, r2
    aee0:	6933      	ldr	r3, [r6, #16]
    aee2:	690a      	ldr	r2, [r1, #16]
    aee4:	b085      	sub	sp, #20
    aee6:	429a      	cmp	r2, r3
    aee8:	460d      	mov	r5, r1
    aeea:	da01      	bge.n	aef0 <__multiply+0x16>
    aeec:	4635      	mov	r5, r6
    aeee:	460e      	mov	r6, r1
    aef0:	f8d5 8010 	ldr.w	r8, [r5, #16]
    aef4:	6937      	ldr	r7, [r6, #16]
    aef6:	68ab      	ldr	r3, [r5, #8]
    aef8:	6869      	ldr	r1, [r5, #4]
    aefa:	eb08 0407 	add.w	r4, r8, r7
    aefe:	429c      	cmp	r4, r3
    af00:	bfc8      	it	gt
    af02:	3101      	addgt	r1, #1
    af04:	f7ff fecb 	bl	ac9e <_Balloc>
    af08:	f100 0314 	add.w	r3, r0, #20
    af0c:	eb03 0184 	add.w	r1, r3, r4, lsl #2
    af10:	9101      	str	r1, [sp, #4]
    af12:	461a      	mov	r2, r3
    af14:	f8dd a004 	ldr.w	r10, [sp, #4]
    af18:	4552      	cmp	r2, r10
    af1a:	d203      	bcs.n	af24 <__multiply+0x4a>
    af1c:	2100      	movs	r1, #0
    af1e:	f842 1b04 	str.w	r1, [r2], #4
    af22:	e7f7      	b.n	af14 <__multiply+0x3a>
    af24:	f105 0114 	add.w	r1, r5, #20
    af28:	f106 0214 	add.w	r2, r6, #20
    af2c:	eb01 0888 	add.w	r8, r1, r8, lsl #2
    af30:	eb02 0787 	add.w	r7, r2, r7, lsl #2
    af34:	f8cd 8008 	str.w	r8, [sp, #8]
    af38:	9703      	str	r7, [sp, #12]
    af3a:	9e03      	ldr	r6, [sp, #12]
    af3c:	4615      	mov	r5, r2
    af3e:	42b2      	cmp	r2, r6
    af40:	d256      	bcs.n	aff0 <__multiply+0x116>
    af42:	f8b5 c000 	ldrh.w	r12, [r5]
    af46:	3204      	adds	r2, #4
    af48:	f1bc 0f00 	cmp.w	r12, #0
    af4c:	d025      	beq.n	af9a <__multiply+0xc0>
    af4e:	460f      	mov	r7, r1
    af50:	461d      	mov	r5, r3
    af52:	2600      	movs	r6, #0
    af54:	f857 9b04 	ldr.w	r9, [r7], #4
    af58:	f8d5 8000 	ldr.w	r8, [r5]
    af5c:	fa1f fb89 	uxth.w	r11, r9
    af60:	fa1f fa88 	uxth.w	r10, r8
    af64:	fb0c aa0b 	mla	r10, r12, r11, r10
    af68:	ea4f 4919 	mov.w	r9, r9, lsr #16
    af6c:	ea4f 4818 	mov.w	r8, r8, lsr #16
    af70:	fb0c 8809 	mla	r8, r12, r9, r8
    af74:	44b2      	add	r10, r6
    af76:	eb08 481a 	add.w	r8, r8, r10, lsr #16
    af7a:	fa1f fa8a 	uxth.w	r10, r10
    af7e:	ea4a 4a08 	orr.w	r10, r10, r8, lsl #16
    af82:	ea4f 4618 	mov.w	r6, r8, lsr #16
    af86:	f8dd 8008 	ldr.w	r8, [sp, #8]
    af8a:	46ab      	mov	r11, r5
    af8c:	45b8      	cmp	r8, r7
    af8e:	f84b ab04 	str.w	r10, [r11], #4
    af92:	d901      	bls.n	af98 <__multiply+0xbe>
    af94:	465d      	mov	r5, r11
    af96:	e7dd      	b.n	af54 <__multiply+0x7a>
    af98:	606e      	str	r6, [r5, #4]
    af9a:	f832 8c02 	ldrh.w	r8, [r2, #-2]
    af9e:	f1b8 0f00 	cmp.w	r8, #0
    afa2:	d023      	beq.n	afec <__multiply+0x112>
    afa4:	681e      	ldr	r6, [r3, #0]
    afa6:	460f      	mov	r7, r1
    afa8:	461d      	mov	r5, r3
    afaa:	f04f 0900 	mov.w	r9, #0
    afae:	f8b7 a000 	ldrh.w	r10, [r7]
    afb2:	f8b5 c002 	ldrh.w	r12, [r5, #2]
    afb6:	b2b6      	uxth	r6, r6
    afb8:	fb08 cc0a 	mla	r12, r8, r10, r12
    afbc:	44e1      	add	r9, r12
    afbe:	ea46 4609 	orr.w	r6, r6, r9, lsl #16
    afc2:	46ac      	mov	r12, r5
    afc4:	f84c 6b04 	str.w	r6, [r12], #4
    afc8:	f857 6b04 	ldr.w	r6, [r7], #4
    afcc:	f8b5 a004 	ldrh.w	r10, [r5, #4]
    afd0:	0c36      	lsrs	r6, r6, #16
    afd2:	fb08 a606 	mla	r6, r8, r6, r10
    afd6:	f8dd a008 	ldr.w	r10, [sp, #8]
    afda:	eb06 4619 	add.w	r6, r6, r9, lsr #16
    afde:	4557      	cmp	r7, r10
    afe0:	ea4f 4916 	mov.w	r9, r6, lsr #16
    afe4:	d201      	bcs.n	afea <__multiply+0x110>
    afe6:	4665      	mov	r5, r12
    afe8:	e7e1      	b.n	afae <__multiply+0xd4>
    afea:	606e      	str	r6, [r5, #4]
    afec:	3304      	adds	r3, #4
    afee:	e7a4      	b.n	af3a <__multiply+0x60>
    aff0:	9b01      	ldr	r3, [sp, #4]
    aff2:	2c00      	cmp	r4, #0
    aff4:	dc03      	bgt.n	affe <__multiply+0x124>
    aff6:	6104      	str	r4, [r0, #16]
    aff8:	b005      	add	sp, #20
    affa:	e8bd 8ff0 	ldmia.w	sp!, {r4, r5, r6, r7, r8, r9, r10, r11, pc}
    affe:	f853 2d04 	ldr.w	r2, [r3, #-4]!
    b002:	2a00      	cmp	r2, #0
    b004:	d1f7      	bne.n	aff6 <__multiply+0x11c>
    b006:	3c01      	subs	r4, #1
    b008:	e7f3      	b.n	aff2 <__multiply+0x118>
	...

0000b00c <__pow5mult>:
    b00c:	f012 0303 	ands.w	r3, r2, #3
    b010:	e92d 41f0 	stmdb	sp!, {r4, r5, r6, r7, r8, lr}
    b014:	4605      	mov	r5, r0
    b016:	460e      	mov	r6, r1
    b018:	4617      	mov	r7, r2
    b01a:	d007      	beq.n	b02c <__pow5mult+0x20>
    b01c:	4a21      	ldr	r2, [pc, #132]	; (b0a4 <__pow5mult+0x98>)
    b01e:	3b01      	subs	r3, #1
    b020:	f852 2023 	ldr.w	r2, [r2, r3, lsl #2]
    b024:	2300      	movs	r3, #0
    b026:	f7ff fe86 	bl	ad36 <__multadd>
    b02a:	4606      	mov	r6, r0
    b02c:	10bf      	asrs	r7, r7, #2
    b02e:	d035      	beq.n	b09c <__pow5mult+0x90>
    b030:	6a6c      	ldr	r4, [r5, #36]	; 0x24
    b032:	b93c      	cbnz	r4, b044 <__pow5mult+0x38>
    b034:	2010      	movs	r0, #16
    b036:	f7f6 f8a5 	bl	1184 <__wrap_malloc>
    b03a:	6268      	str	r0, [r5, #36]	; 0x24
    b03c:	6044      	str	r4, [r0, #4]
    b03e:	6084      	str	r4, [r0, #8]
    b040:	6004      	str	r4, [r0, #0]
    b042:	60c4      	str	r4, [r0, #12]
    b044:	f8d5 8024 	ldr.w	r8, [r5, #36]	; 0x24
    b048:	f8d8 4008 	ldr.w	r4, [r8, #8]
    b04c:	b97c      	cbnz	r4, b06e <__pow5mult+0x62>
    b04e:	4628      	mov	r0, r5
    b050:	f240 2171 	movw	r1, #625	; 0x271
    b054:	f7ff ff38 	bl	aec8 <__i2b>
    b058:	2300      	movs	r3, #0
    b05a:	f8c8 0008 	str.w	r0, [r8, #8]
    b05e:	4604      	mov	r4, r0
    b060:	6003      	str	r3, [r0, #0]
    b062:	e004      	b.n	b06e <__pow5mult+0x62>
    b064:	107f      	asrs	r7, r7, #1
    b066:	d019      	beq.n	b09c <__pow5mult+0x90>
    b068:	6820      	ldr	r0, [r4, #0]
    b06a:	b170      	cbz	r0, b08a <__pow5mult+0x7e>
    b06c:	4604      	mov	r4, r0
    b06e:	07fb      	lsls	r3, r7, #31
    b070:	d5f8      	bpl.n	b064 <__pow5mult+0x58>
    b072:	4631      	mov	r1, r6
    b074:	4622      	mov	r2, r4
    b076:	4628      	mov	r0, r5
    b078:	f7ff ff2f 	bl	aeda <__multiply>
    b07c:	4631      	mov	r1, r6
    b07e:	4680      	mov	r8, r0
    b080:	4628      	mov	r0, r5
    b082:	f7ff fe41 	bl	ad08 <_Bfree>
    b086:	4646      	mov	r6, r8
    b088:	e7ec      	b.n	b064 <__pow5mult+0x58>
    b08a:	4628      	mov	r0, r5
    b08c:	4621      	mov	r1, r4
    b08e:	4622      	mov	r2, r4
    b090:	f7ff ff23 	bl	aeda <__multiply>
    b094:	2300      	movs	r3, #0
    b096:	6020      	str	r0, [r4, #0]
    b098:	6003      	str	r3, [r0, #0]
    b09a:	e7e7      	b.n	b06c <__pow5mult+0x60>
    b09c:	4630      	mov	r0, r6
    b09e:	e8bd 81f0 	ldmia.w	sp!, {r4, r5, r6, r7, r8, pc}
    b0a2:	bf00      	nop
    b0a4:	0000e140 	.word	0x0000e140

0000b0a8 <__lshift>:
    b0a8:	e92d 47f0 	stmdb	sp!, {r4, r5, r6, r7, r8, r9, r10, lr}
    b0ac:	460c      	mov	r4, r1
    b0ae:	6923      	ldr	r3, [r4, #16]
    b0b0:	ea4f 1a62 	mov.w	r10, r2, asr #5
    b0b4:	eb0a 0903 	add.w	r9, r10, r3
    b0b8:	6849      	ldr	r1, [r1, #4]
    b0ba:	68a3      	ldr	r3, [r4, #8]
    b0bc:	4680      	mov	r8, r0
    b0be:	4615      	mov	r5, r2
    b0c0:	f109 0701 	add.w	r7, r9, #1
    b0c4:	429f      	cmp	r7, r3
    b0c6:	dd02      	ble.n	b0ce <__lshift+0x26>
    b0c8:	3101      	adds	r1, #1
    b0ca:	005b      	lsls	r3, r3, #1
    b0cc:	e7fa      	b.n	b0c4 <__lshift+0x1c>
    b0ce:	4640      	mov	r0, r8
    b0d0:	f7ff fde5 	bl	ac9e <_Balloc>
    b0d4:	2300      	movs	r3, #0
    b0d6:	4606      	mov	r6, r0
    b0d8:	f100 0214 	add.w	r2, r0, #20
    b0dc:	4553      	cmp	r3, r10
    b0de:	da04      	bge.n	b0ea <__lshift+0x42>
    b0e0:	2100      	movs	r1, #0
    b0e2:	f842 1023 	str.w	r1, [r2, r3, lsl #2]
    b0e6:	3301      	adds	r3, #1
    b0e8:	e7f8      	b.n	b0dc <__lshift+0x34>
    b0ea:	6920      	ldr	r0, [r4, #16]
    b0ec:	ea2a 71ea 	bic.w	r1, r10, r10, asr #31
    b0f0:	f104 0314 	add.w	r3, r4, #20
    b0f4:	f015 0c1f 	ands.w	r12, r5, #31
    b0f8:	eb02 0181 	add.w	r1, r2, r1, lsl #2
    b0fc:	eb03 0e80 	add.w	lr, r3, r0, lsl #2
    b100:	d016      	beq.n	b130 <__lshift+0x88>
    b102:	f1cc 0a20 	rsb	r10, r12, #32
    b106:	2500      	movs	r5, #0
    b108:	6818      	ldr	r0, [r3, #0]
    b10a:	460a      	mov	r2, r1
    b10c:	fa00 f00c 	lsl.w	r0, r0, r12
    b110:	4305      	orrs	r5, r0
    b112:	f842 5b04 	str.w	r5, [r2], #4
    b116:	f853 5b04 	ldr.w	r5, [r3], #4
    b11a:	4573      	cmp	r3, lr
    b11c:	fa25 f50a 	lsr.w	r5, r5, r10
    b120:	d201      	bcs.n	b126 <__lshift+0x7e>
    b122:	4611      	mov	r1, r2
    b124:	e7f0      	b.n	b108 <__lshift+0x60>
    b126:	604d      	str	r5, [r1, #4]
    b128:	b145      	cbz	r5, b13c <__lshift+0x94>
    b12a:	f109 0702 	add.w	r7, r9, #2
    b12e:	e005      	b.n	b13c <__lshift+0x94>
    b130:	f853 2b04 	ldr.w	r2, [r3], #4
    b134:	4573      	cmp	r3, lr
    b136:	f841 2b04 	str.w	r2, [r1], #4
    b13a:	d3f9      	bcc.n	b130 <__lshift+0x88>
    b13c:	3f01      	subs	r7, #1
    b13e:	4640      	mov	r0, r8
    b140:	6137      	str	r7, [r6, #16]
    b142:	4621      	mov	r1, r4
    b144:	f7ff fde0 	bl	ad08 <_Bfree>
    b148:	4630      	mov	r0, r6
    b14a:	e8bd 87f0 	ldmia.w	sp!, {r4, r5, r6, r7, r8, r9, r10, pc}

0000b14e <__mcmp>:
    b14e:	6902      	ldr	r2, [r0, #16]
    b150:	690b      	ldr	r3, [r1, #16]
    b152:	b510      	push	{r4, lr}
    b154:	1ad2      	subs	r2, r2, r3
    b156:	d113      	bne.n	b180 <__mcmp+0x32>
    b158:	009c      	lsls	r4, r3, #2
    b15a:	3014      	adds	r0, #20
    b15c:	f101 0214 	add.w	r2, r1, #20
    b160:	1903      	adds	r3, r0, r4
    b162:	4422      	add	r2, r4
    b164:	f853 4d04 	ldr.w	r4, [r3, #-4]!
    b168:	f852 1d04 	ldr.w	r1, [r2, #-4]!
    b16c:	428c      	cmp	r4, r1
    b16e:	d003      	beq.n	b178 <__mcmp+0x2a>
    b170:	d208      	bcs.n	b184 <__mcmp+0x36>
    b172:	f04f 30ff 	mov.w	r0, #4294967295
    b176:	bd10      	pop	{r4, pc}
    b178:	4298      	cmp	r0, r3
    b17a:	d3f3      	bcc.n	b164 <__mcmp+0x16>
    b17c:	2000      	movs	r0, #0
    b17e:	bd10      	pop	{r4, pc}
    b180:	4610      	mov	r0, r2
    b182:	bd10      	pop	{r4, pc}
    b184:	2001      	movs	r0, #1
    b186:	bd10      	pop	{r4, pc}

0000b188 <__mdiff>:
    b188:	e92d 47f0 	stmdb	sp!, {r4, r5, r6, r7, r8, r9, r10, lr}
    b18c:	4606      	mov	r6, r0
    b18e:	460c      	mov	r4, r1
    b190:	4608      	mov	r0, r1
    b192:	4611      	mov	r1, r2
    b194:	4615      	mov	r5, r2
    b196:	f7ff ffda 	bl	b14e <__mcmp>
    b19a:	1e07      	subs	r7, r0, #0
    b19c:	d108      	bne.n	b1b0 <__mdiff+0x28>
    b19e:	4630      	mov	r0, r6
    b1a0:	4639      	mov	r1, r7
    b1a2:	f7ff fd7c 	bl	ac9e <_Balloc>
    b1a6:	2301      	movs	r3, #1
    b1a8:	6103      	str	r3, [r0, #16]
    b1aa:	6147      	str	r7, [r0, #20]
    b1ac:	e8bd 87f0 	ldmia.w	sp!, {r4, r5, r6, r7, r8, r9, r10, pc}
    b1b0:	db01      	blt.n	b1b6 <__mdiff+0x2e>
    b1b2:	2700      	movs	r7, #0
    b1b4:	e003      	b.n	b1be <__mdiff+0x36>
    b1b6:	4623      	mov	r3, r4
    b1b8:	2701      	movs	r7, #1
    b1ba:	462c      	mov	r4, r5
    b1bc:	461d      	mov	r5, r3
    b1be:	6861      	ldr	r1, [r4, #4]
    b1c0:	4630      	mov	r0, r6
    b1c2:	f7ff fd6c 	bl	ac9e <_Balloc>
    b1c6:	6922      	ldr	r2, [r4, #16]
    b1c8:	692b      	ldr	r3, [r5, #16]
    b1ca:	3414      	adds	r4, #20
    b1cc:	f105 0614 	add.w	r6, r5, #20
    b1d0:	eb06 0a83 	add.w	r10, r6, r3, lsl #2
    b1d4:	60c7      	str	r7, [r0, #12]
    b1d6:	eb04 0c82 	add.w	r12, r4, r2, lsl #2
    b1da:	f100 0314 	add.w	r3, r0, #20
    b1de:	2100      	movs	r1, #0
    b1e0:	f854 7b04 	ldr.w	r7, [r4], #4
    b1e4:	f856 9b04 	ldr.w	r9, [r6], #4
    b1e8:	fa1f f887 	uxth.w	r8, r7
    b1ec:	fa1f f589 	uxth.w	r5, r9
    b1f0:	4441      	add	r1, r8
    b1f2:	ea4f 4919 	mov.w	r9, r9, lsr #16
    b1f6:	ebc5 0801 	rsb	r8, r5, r1
    b1fa:	ebc9 4717 	rsb	r7, r9, r7, lsr #16
    b1fe:	eb07 4728 	add.w	r7, r7, r8, asr #16
    b202:	fa1f f888 	uxth.w	r8, r8
    b206:	1439      	asrs	r1, r7, #16
    b208:	45b2      	cmp	r10, r6
    b20a:	ea48 4707 	orr.w	r7, r8, r7, lsl #16
    b20e:	4625      	mov	r5, r4
    b210:	f843 7b04 	str.w	r7, [r3], #4
    b214:	d8e4      	bhi.n	b1e0 <__mdiff+0x58>
    b216:	4565      	cmp	r5, r12
    b218:	d20d      	bcs.n	b236 <__mdiff+0xae>
    b21a:	f855 4b04 	ldr.w	r4, [r5], #4
    b21e:	b2a6      	uxth	r6, r4
    b220:	440e      	add	r6, r1
    b222:	0c24      	lsrs	r4, r4, #16
    b224:	eb04 4426 	add.w	r4, r4, r6, asr #16
    b228:	b2b6      	uxth	r6, r6
    b22a:	1421      	asrs	r1, r4, #16
    b22c:	ea46 4404 	orr.w	r4, r6, r4, lsl #16
    b230:	f843 4b04 	str.w	r4, [r3], #4
    b234:	e7ef      	b.n	b216 <__mdiff+0x8e>
    b236:	f853 1d04 	ldr.w	r1, [r3, #-4]!
    b23a:	b909      	cbnz	r1, b240 <__mdiff+0xb8>
    b23c:	3a01      	subs	r2, #1
    b23e:	e7fa      	b.n	b236 <__mdiff+0xae>
    b240:	6102      	str	r2, [r0, #16]
    b242:	e8bd 87f0 	ldmia.w	sp!, {r4, r5, r6, r7, r8, r9, r10, pc}
	...

0000b248 <__ulp>:
    b248:	4b0f      	ldr	r3, [pc, #60]	; (b288 <__ulp+0x40>)
    b24a:	400b      	ands	r3, r1
    b24c:	f1a3 7350 	sub.w	r3, r3, #54525952	; 0x3400000
    b250:	2b00      	cmp	r3, #0
    b252:	dd01      	ble.n	b258 <__ulp+0x10>
    b254:	4619      	mov	r1, r3
    b256:	e009      	b.n	b26c <__ulp+0x24>
    b258:	425b      	negs	r3, r3
    b25a:	151b      	asrs	r3, r3, #20
    b25c:	2b13      	cmp	r3, #19
    b25e:	f04f 0100 	mov.w	r1, #0
    b262:	dc05      	bgt.n	b270 <__ulp+0x28>
    b264:	f44f 2200 	mov.w	r2, #524288	; 0x80000
    b268:	fa42 f103 	asr.w	r1, r2, r3
    b26c:	2000      	movs	r0, #0
    b26e:	4770      	bx	lr
    b270:	2b32      	cmp	r3, #50	; 0x32
    b272:	f04f 0201 	mov.w	r2, #1
    b276:	bfda      	itte	le
    b278:	f1c3 0333 	rsble	r3, r3, #51	; 0x33
    b27c:	fa02 f303 	lslle.w	r3, r2, r3
    b280:	4613      	movgt	r3, r2
    b282:	4618      	mov	r0, r3
    b284:	4770      	bx	lr
    b286:	bf00      	nop
    b288:	7ff00000 	.word	0x7ff00000

0000b28c <__b2d>:
    b28c:	e92d 41f0 	stmdb	sp!, {r4, r5, r6, r7, r8, lr}
    b290:	6906      	ldr	r6, [r0, #16]
    b292:	f100 0714 	add.w	r7, r0, #20
    b296:	eb07 0686 	add.w	r6, r7, r6, lsl #2
    b29a:	f856 4c04 	ldr.w	r4, [r6, #-4]
    b29e:	4688      	mov	r8, r1
    b2a0:	4620      	mov	r0, r4
    b2a2:	f7ff fdc4 	bl	ae2e <__hi0bits>
    b2a6:	f1c0 0320 	rsb	r3, r0, #32
    b2aa:	280a      	cmp	r0, #10
    b2ac:	f1a6 0504 	sub.w	r5, r6, #4
    b2b0:	f8c8 3000 	str.w	r3, [r8]
    b2b4:	dc14      	bgt.n	b2e0 <__b2d+0x54>
    b2b6:	42bd      	cmp	r5, r7
    b2b8:	f1c0 010b 	rsb	r1, r0, #11
    b2bc:	bf88      	it	hi
    b2be:	f856 5c08 	ldrhi.w	r5, [r6, #-8]
    b2c2:	fa24 fc01 	lsr.w	r12, r4, r1
    b2c6:	bf98      	it	ls
    b2c8:	2500      	movls	r5, #0
    b2ca:	3015      	adds	r0, #21
    b2cc:	fa25 f101 	lsr.w	r1, r5, r1
    b2d0:	4084      	lsls	r4, r0
    b2d2:	f04c 537f 	orr.w	r3, r12, #1069547520	; 0x3fc00000
    b2d6:	f443 1340 	orr.w	r3, r3, #3145728	; 0x300000
    b2da:	ea41 0204 	orr.w	r2, r1, r4
    b2de:	e024      	b.n	b32a <__b2d+0x9e>
    b2e0:	42bd      	cmp	r5, r7
    b2e2:	bf86      	itte	hi
    b2e4:	f1a6 0508 	subhi.w	r5, r6, #8
    b2e8:	f856 1c08 	ldrhi.w	r1, [r6, #-8]
    b2ec:	2100      	movls	r1, #0
    b2ee:	f1b0 060b 	subs.w	r6, r0, #11
    b2f2:	d015      	beq.n	b320 <__b2d+0x94>
    b2f4:	40b4      	lsls	r4, r6
    b2f6:	f1c0 002b 	rsb	r0, r0, #43	; 0x2b
    b2fa:	fa21 fc00 	lsr.w	r12, r1, r0
    b2fe:	f044 547f 	orr.w	r4, r4, #1069547520	; 0x3fc00000
    b302:	f444 1440 	orr.w	r4, r4, #3145728	; 0x300000
    b306:	42bd      	cmp	r5, r7
    b308:	ea44 030c 	orr.w	r3, r4, r12
    b30c:	bf8c      	ite	hi
    b30e:	f855 4c04 	ldrhi.w	r4, [r5, #-4]
    b312:	2400      	movls	r4, #0
    b314:	fa24 f000 	lsr.w	r0, r4, r0
    b318:	40b1      	lsls	r1, r6
    b31a:	ea40 0201 	orr.w	r2, r0, r1
    b31e:	e004      	b.n	b32a <__b2d+0x9e>
    b320:	f044 537f 	orr.w	r3, r4, #1069547520	; 0x3fc00000
    b324:	f443 1340 	orr.w	r3, r3, #3145728	; 0x300000
    b328:	460a      	mov	r2, r1
    b32a:	4610      	mov	r0, r2
    b32c:	4619      	mov	r1, r3
    b32e:	e8bd 81f0 	ldmia.w	sp!, {r4, r5, r6, r7, r8, pc}

0000b332 <__d2b>:
    b332:	e92d 43f7 	stmdb	sp!, {r0, r1, r2, r4, r5, r6, r7, r8, r9, lr}
    b336:	2101      	movs	r1, #1
    b338:	461d      	mov	r5, r3
    b33a:	f8dd 9028 	ldr.w	r9, [sp, #40]	; 0x28
    b33e:	f8dd 802c 	ldr.w	r8, [sp, #44]	; 0x2c
    b342:	4614      	mov	r4, r2
    b344:	f7ff fcab 	bl	ac9e <_Balloc>
    b348:	f3c5 570a 	ubfx	r7, r5, #20, #11
    b34c:	4606      	mov	r6, r0
    b34e:	f3c5 0313 	ubfx	r3, r5, #0, #20
    b352:	b10f      	cbz	r7, b358 <__d2b+0x26>
    b354:	f443 1380 	orr.w	r3, r3, #1048576	; 0x100000
    b358:	9301      	str	r3, [sp, #4]
    b35a:	b1d4      	cbz	r4, b392 <__d2b+0x60>
    b35c:	a802      	add	r0, sp, #8
    b35e:	f840 4d08 	str.w	r4, [r0, #-8]!
    b362:	4668      	mov	r0, sp
    b364:	f7ff fd83 	bl	ae6e <__lo0bits>
    b368:	9b00      	ldr	r3, [sp, #0]
    b36a:	b148      	cbz	r0, b380 <__d2b+0x4e>
    b36c:	9a01      	ldr	r2, [sp, #4]
    b36e:	f1c0 0120 	rsb	r1, r0, #32
    b372:	fa02 f101 	lsl.w	r1, r2, r1
    b376:	40c2      	lsrs	r2, r0
    b378:	430b      	orrs	r3, r1
    b37a:	6173      	str	r3, [r6, #20]
    b37c:	9201      	str	r2, [sp, #4]
    b37e:	e000      	b.n	b382 <__d2b+0x50>
    b380:	6173      	str	r3, [r6, #20]
    b382:	9b01      	ldr	r3, [sp, #4]
    b384:	2b00      	cmp	r3, #0
    b386:	bf0c      	ite	eq
    b388:	2401      	moveq	r4, #1
    b38a:	2402      	movne	r4, #2
    b38c:	61b3      	str	r3, [r6, #24]
    b38e:	6134      	str	r4, [r6, #16]
    b390:	e007      	b.n	b3a2 <__d2b+0x70>
    b392:	a801      	add	r0, sp, #4
    b394:	f7ff fd6b 	bl	ae6e <__lo0bits>
    b398:	9b01      	ldr	r3, [sp, #4]
    b39a:	2401      	movs	r4, #1
    b39c:	6173      	str	r3, [r6, #20]
    b39e:	6134      	str	r4, [r6, #16]
    b3a0:	3020      	adds	r0, #32
    b3a2:	b13f      	cbz	r7, b3b4 <__d2b+0x82>
    b3a4:	f2a7 4733 	subw	r7, r7, #1075	; 0x433
    b3a8:	4407      	add	r7, r0
    b3aa:	f8c9 7000 	str.w	r7, [r9]
    b3ae:	f1c0 0035 	rsb	r0, r0, #53	; 0x35
    b3b2:	e00a      	b.n	b3ca <__d2b+0x98>
    b3b4:	f2a0 4032 	subw	r0, r0, #1074	; 0x432
    b3b8:	eb06 0384 	add.w	r3, r6, r4, lsl #2
    b3bc:	f8c9 0000 	str.w	r0, [r9]
    b3c0:	6918      	ldr	r0, [r3, #16]
    b3c2:	f7ff fd34 	bl	ae2e <__hi0bits>
    b3c6:	ebc0 1044 	rsb	r0, r0, r4, lsl #5
    b3ca:	f8c8 0000 	str.w	r0, [r8]
    b3ce:	4630      	mov	r0, r6
    b3d0:	b003      	add	sp, #12
    b3d2:	e8bd 83f0 	ldmia.w	sp!, {r4, r5, r6, r7, r8, r9, pc}

0000b3d6 <__ratio>:
    b3d6:	e92d 41f3 	stmdb	sp!, {r0, r1, r4, r5, r6, r7, r8, lr}
    b3da:	460e      	mov	r6, r1
    b3dc:	4669      	mov	r1, sp
    b3de:	4680      	mov	r8, r0
    b3e0:	f7ff ff54 	bl	b28c <__b2d>
    b3e4:	460d      	mov	r5, r1
    b3e6:	4604      	mov	r4, r0
    b3e8:	a901      	add	r1, sp, #4
    b3ea:	4630      	mov	r0, r6
    b3ec:	f7ff ff4e 	bl	b28c <__b2d>
    b3f0:	9f00      	ldr	r7, [sp, #0]
    b3f2:	460b      	mov	r3, r1
    b3f4:	9901      	ldr	r1, [sp, #4]
    b3f6:	4602      	mov	r2, r0
    b3f8:	1a7f      	subs	r7, r7, r1
    b3fa:	f8d8 0010 	ldr.w	r0, [r8, #16]
    b3fe:	6931      	ldr	r1, [r6, #16]
    b400:	1a41      	subs	r1, r0, r1
    b402:	eb07 1141 	add.w	r1, r7, r1, lsl #5
    b406:	2900      	cmp	r1, #0
    b408:	bfcc      	ite	gt
    b40a:	eb05 5501 	addgt.w	r5, r5, r1, lsl #20
    b40e:	eba3 5301 	suble.w	r3, r3, r1, lsl #20
    b412:	4620      	mov	r0, r4
    b414:	4629      	mov	r1, r5
    b416:	f7fb fd1d 	bl	6e54 <__aeabi_ddiv>
    b41a:	b002      	add	sp, #8
    b41c:	e8bd 81f0 	ldmia.w	sp!, {r4, r5, r6, r7, r8, pc}

0000b420 <__copybits>:
    b420:	b510      	push	{r4, lr}
    b422:	3901      	subs	r1, #1
    b424:	f102 0314 	add.w	r3, r2, #20
    b428:	1149      	asrs	r1, r1, #5
    b42a:	6912      	ldr	r2, [r2, #16]
    b42c:	3101      	adds	r1, #1
    b42e:	eb00 0181 	add.w	r1, r0, r1, lsl #2
    b432:	eb03 0282 	add.w	r2, r3, r2, lsl #2
    b436:	4293      	cmp	r3, r2
    b438:	d204      	bcs.n	b444 <__copybits+0x24>
    b43a:	f853 4b04 	ldr.w	r4, [r3], #4
    b43e:	f840 4b04 	str.w	r4, [r0], #4
    b442:	e7f8      	b.n	b436 <__copybits+0x16>
    b444:	4288      	cmp	r0, r1
    b446:	d203      	bcs.n	b450 <__copybits+0x30>
    b448:	2300      	movs	r3, #0
    b44a:	f840 3b04 	str.w	r3, [r0], #4
    b44e:	e7f9      	b.n	b444 <__copybits+0x24>
    b450:	bd10      	pop	{r4, pc}

0000b452 <__any_on>:
    b452:	f100 0214 	add.w	r2, r0, #20
    b456:	6900      	ldr	r0, [r0, #16]
    b458:	114b      	asrs	r3, r1, #5
    b45a:	4283      	cmp	r3, r0
    b45c:	b510      	push	{r4, lr}
    b45e:	dc0c      	bgt.n	b47a <__any_on+0x28>
    b460:	da0c      	bge.n	b47c <__any_on+0x2a>
    b462:	f011 011f 	ands.w	r1, r1, #31
    b466:	d009      	beq.n	b47c <__any_on+0x2a>
    b468:	f852 0023 	ldr.w	r0, [r2, r3, lsl #2]
    b46c:	fa20 f401 	lsr.w	r4, r0, r1
    b470:	fa04 f101 	lsl.w	r1, r4, r1
    b474:	4281      	cmp	r1, r0
    b476:	d10e      	bne.n	b496 <__any_on+0x44>
    b478:	e000      	b.n	b47c <__any_on+0x2a>
    b47a:	4603      	mov	r3, r0
    b47c:	eb02 0383 	add.w	r3, r2, r3, lsl #2
    b480:	4293      	cmp	r3, r2
    b482:	4619      	mov	r1, r3
    b484:	d905      	bls.n	b492 <__any_on+0x40>
    b486:	f851 1c04 	ldr.w	r1, [r1, #-4]
    b48a:	3b04      	subs	r3, #4
    b48c:	2900      	cmp	r1, #0
    b48e:	d0f7      	beq.n	b480 <__any_on+0x2e>
    b490:	e001      	b.n	b496 <__any_on+0x44>
    b492:	2000      	movs	r0, #0
    b494:	bd10      	pop	{r4, pc}
    b496:	2001      	movs	r0, #1
    b498:	bd10      	pop	{r4, pc}

0000b49a <_calloc_r>:
    b49a:	b538      	push	{r3, r4, r5, lr}
    b49c:	fb02 f401 	mul.w	r4, r2, r1
    b4a0:	4621      	mov	r1, r4
    b4a2:	f7fc fd9d 	bl	7fe0 <_malloc_r>
    b4a6:	4605      	mov	r5, r0
    b4a8:	b118      	cbz	r0, b4b2 <_calloc_r+0x18>
    b4aa:	2100      	movs	r1, #0
    b4ac:	4622      	mov	r2, r4
    b4ae:	f7fc fd4a 	bl	7f46 <memset>
    b4b2:	4628      	mov	r0, r5
    b4b4:	bd38      	pop	{r3, r4, r5, pc}

0000b4b6 <_realloc_r>:
    b4b6:	b5f8      	push	{r3, r4, r5, r6, r7, lr}
    b4b8:	4606      	mov	r6, r0
    b4ba:	4614      	mov	r4, r2
    b4bc:	460d      	mov	r5, r1
    b4be:	b921      	cbnz	r1, b4ca <_realloc_r+0x14>
    b4c0:	4611      	mov	r1, r2
    b4c2:	e8bd 40f8 	ldmia.w	sp!, {r3, r4, r5, r6, r7, lr}
    b4c6:	f7fc bd8b 	b.w	7fe0 <_malloc_r>
    b4ca:	b91a      	cbnz	r2, b4d4 <_realloc_r+0x1e>
    b4cc:	f7fc fd44 	bl	7f58 <_free_r>
    b4d0:	4620      	mov	r0, r4
    b4d2:	bdf8      	pop	{r3, r4, r5, r6, r7, pc}
    b4d4:	f001 fae6 	bl	caa4 <_malloc_usable_size_r>
    b4d8:	42a0      	cmp	r0, r4
    b4da:	d20e      	bcs.n	b4fa <_realloc_r+0x44>
    b4dc:	4630      	mov	r0, r6
    b4de:	4621      	mov	r1, r4
    b4e0:	f7fc fd7e 	bl	7fe0 <_malloc_r>
    b4e4:	4607      	mov	r7, r0
    b4e6:	b150      	cbz	r0, b4fe <_realloc_r+0x48>
    b4e8:	4629      	mov	r1, r5
    b4ea:	4622      	mov	r2, r4
    b4ec:	f7fc fd22 	bl	7f34 <memcpy>
    b4f0:	4630      	mov	r0, r6
    b4f2:	4629      	mov	r1, r5
    b4f4:	f7fc fd30 	bl	7f58 <_free_r>
    b4f8:	e001      	b.n	b4fe <_realloc_r+0x48>
    b4fa:	4628      	mov	r0, r5
    b4fc:	bdf8      	pop	{r3, r4, r5, r6, r7, pc}
    b4fe:	4638      	mov	r0, r7
    b500:	bdf8      	pop	{r3, r4, r5, r6, r7, pc}
	...

0000b504 <_read_r>:
    b504:	b538      	push	{r3, r4, r5, lr}
    b506:	4c07      	ldr	r4, [pc, #28]	; (b524 <_read_r+0x20>)
    b508:	4605      	mov	r5, r0
    b50a:	2000      	movs	r0, #0
    b50c:	6020      	str	r0, [r4, #0]
    b50e:	4608      	mov	r0, r1
    b510:	4611      	mov	r1, r2
    b512:	461a      	mov	r2, r3
    b514:	f7f5 fde8 	bl	10e8 <__wrap__read>
    b518:	1c43      	adds	r3, r0, #1
    b51a:	d102      	bne.n	b522 <_read_r+0x1e>
    b51c:	6823      	ldr	r3, [r4, #0]
    b51e:	b103      	cbz	r3, b522 <_read_r+0x1e>
    b520:	602b      	str	r3, [r5, #0]
    b522:	bd38      	pop	{r3, r4, r5, pc}
    b524:	10000c90 	.word	0x10000c90

0000b528 <__fpclassifyd>:
    b528:	f031 4300 	bics.w	r3, r1, #2147483648	; 0x80000000
    b52c:	b510      	push	{r4, lr}
    b52e:	d100      	bne.n	b532 <__fpclassifyd+0xa>
    b530:	b178      	cbz	r0, b552 <__fpclassifyd+0x2a>
    b532:	4a0c      	ldr	r2, [pc, #48]	; (b564 <__fpclassifyd+0x3c>)
    b534:	f5a3 1480 	sub.w	r4, r3, #1048576	; 0x100000
    b538:	4294      	cmp	r4, r2
    b53a:	d90c      	bls.n	b556 <__fpclassifyd+0x2e>
    b53c:	f5b3 1f80 	cmp.w	r3, #1048576	; 0x100000
    b540:	d30b      	bcc.n	b55a <__fpclassifyd+0x32>
    b542:	4a09      	ldr	r2, [pc, #36]	; (b568 <__fpclassifyd+0x40>)
    b544:	4293      	cmp	r3, r2
    b546:	d10a      	bne.n	b55e <__fpclassifyd+0x36>
    b548:	f1d0 0001 	rsbs	r0, r0, #1
    b54c:	bf38      	it	cc
    b54e:	2000      	movcc	r0, #0
    b550:	bd10      	pop	{r4, pc}
    b552:	2002      	movs	r0, #2
    b554:	bd10      	pop	{r4, pc}
    b556:	2004      	movs	r0, #4
    b558:	bd10      	pop	{r4, pc}
    b55a:	2003      	movs	r0, #3
    b55c:	bd10      	pop	{r4, pc}
    b55e:	2000      	movs	r0, #0
    b560:	bd10      	pop	{r4, pc}
    b562:	bf00      	nop
    b564:	7fdfffff 	.word	0x7fdfffff
    b568:	7ff00000 	.word	0x7ff00000

0000b56c <__sccl>:
    b56c:	b5f0      	push	{r4, r5, r6, r7, lr}
    b56e:	780b      	ldrb	r3, [r1, #0]
    b570:	2b5e      	cmp	r3, #94	; 0x5e
    b572:	d002      	beq.n	b57a <__sccl+0xe>
    b574:	1c4c      	adds	r4, r1, #1
    b576:	2100      	movs	r1, #0
    b578:	e002      	b.n	b580 <__sccl+0x14>
    b57a:	1c8c      	adds	r4, r1, #2
    b57c:	784b      	ldrb	r3, [r1, #1]
    b57e:	2101      	movs	r1, #1
    b580:	2200      	movs	r2, #0
    b582:	5481      	strb	r1, [r0, r2]
    b584:	3201      	adds	r2, #1
    b586:	f5b2 7f80 	cmp.w	r2, #256	; 0x100
    b58a:	d1fa      	bne.n	b582 <__sccl+0x16>
    b58c:	b90b      	cbnz	r3, b592 <__sccl+0x26>
    b58e:	1e65      	subs	r5, r4, #1
    b590:	e01b      	b.n	b5ca <__sccl+0x5e>
    b592:	f1c1 0701 	rsb	r7, r1, #1
    b596:	b2fe      	uxtb	r6, r7
    b598:	54c6      	strb	r6, [r0, r3]
    b59a:	1c62      	adds	r2, r4, #1
    b59c:	f812 1c01 	ldrb.w	r1, [r2, #-1]
    b5a0:	1e55      	subs	r5, r2, #1
    b5a2:	292d      	cmp	r1, #45	; 0x2d
    b5a4:	4614      	mov	r4, r2
    b5a6:	d004      	beq.n	b5b2 <__sccl+0x46>
    b5a8:	295d      	cmp	r1, #93	; 0x5d
    b5aa:	d00d      	beq.n	b5c8 <__sccl+0x5c>
    b5ac:	b169      	cbz	r1, b5ca <__sccl+0x5e>
    b5ae:	460b      	mov	r3, r1
    b5b0:	e7f1      	b.n	b596 <__sccl+0x2a>
    b5b2:	7815      	ldrb	r5, [r2, #0]
    b5b4:	2d5d      	cmp	r5, #93	; 0x5d
    b5b6:	d0fa      	beq.n	b5ae <__sccl+0x42>
    b5b8:	429d      	cmp	r5, r3
    b5ba:	dbf8      	blt.n	b5ae <__sccl+0x42>
    b5bc:	3301      	adds	r3, #1
    b5be:	42ab      	cmp	r3, r5
    b5c0:	54c6      	strb	r6, [r0, r3]
    b5c2:	dbfb      	blt.n	b5bc <__sccl+0x50>
    b5c4:	3202      	adds	r2, #2
    b5c6:	e7e9      	b.n	b59c <__sccl+0x30>
    b5c8:	4615      	mov	r5, r2
    b5ca:	4628      	mov	r0, r5
    b5cc:	bdf0      	pop	{r4, r5, r6, r7, pc}
	...

0000b5d0 <nanf>:
    b5d0:	4800      	ldr	r0, [pc, #0]	; (b5d4 <nanf+0x4>)
    b5d2:	4770      	bx	lr
    b5d4:	7fc00000 	.word	0x7fc00000

0000b5d8 <match>:
    b5d8:	b530      	push	{r4, r5, lr}
    b5da:	6802      	ldr	r2, [r0, #0]
    b5dc:	f811 5b01 	ldrb.w	r5, [r1], #1
    b5e0:	1c54      	adds	r4, r2, #1
    b5e2:	b155      	cbz	r5, b5fa <match+0x22>
    b5e4:	7853      	ldrb	r3, [r2, #1]
    b5e6:	4622      	mov	r2, r4
    b5e8:	f1a3 0441 	sub.w	r4, r3, #65	; 0x41
    b5ec:	2c19      	cmp	r4, #25
    b5ee:	bf98      	it	ls
    b5f0:	3320      	addls	r3, #32
    b5f2:	42ab      	cmp	r3, r5
    b5f4:	d0f2      	beq.n	b5dc <match+0x4>
    b5f6:	2000      	movs	r0, #0
    b5f8:	bd30      	pop	{r4, r5, pc}
    b5fa:	6004      	str	r4, [r0, #0]
    b5fc:	2001      	movs	r0, #1
    b5fe:	bd30      	pop	{r4, r5, pc}

0000b600 <sulp>:
    b600:	e92d 41f0 	stmdb	sp!, {r4, r5, r6, r7, r8, lr}
    b604:	460d      	mov	r5, r1
    b606:	4690      	mov	r8, r2
    b608:	f7ff fe1e 	bl	b248 <__ulp>
    b60c:	4606      	mov	r6, r0
    b60e:	460f      	mov	r7, r1
    b610:	f1b8 0f00 	cmp.w	r8, #0
    b614:	d00f      	beq.n	b636 <sulp+0x36>
    b616:	f3c5 530a 	ubfx	r3, r5, #20, #11
    b61a:	f1c3 036b 	rsb	r3, r3, #107	; 0x6b
    b61e:	2b00      	cmp	r3, #0
    b620:	dd09      	ble.n	b636 <sulp+0x36>
    b622:	051c      	lsls	r4, r3, #20
    b624:	f104 537f 	add.w	r3, r4, #1069547520	; 0x3fc00000
    b628:	f503 1340 	add.w	r3, r3, #3145728	; 0x300000
    b62c:	2200      	movs	r2, #0
    b62e:	f7fb fae7 	bl	6c00 <__aeabi_dmul>
    b632:	e8bd 81f0 	ldmia.w	sp!, {r4, r5, r6, r7, r8, pc}
    b636:	4630      	mov	r0, r6
    b638:	4639      	mov	r1, r7
    b63a:	e8bd 81f0 	ldmia.w	sp!, {r4, r5, r6, r7, r8, pc}
	...

0000b640 <_strtod_r>:
    b640:	e92d 4ff0 	stmdb	sp!, {r4, r5, r6, r7, r8, r9, r10, r11, lr}
    b644:	2300      	movs	r3, #0
    b646:	b09f      	sub	sp, #124	; 0x7c
    b648:	4681      	mov	r9, r0
    b64a:	9104      	str	r1, [sp, #16]
    b64c:	9215      	str	r2, [sp, #84]	; 0x54
    b64e:	931a      	str	r3, [sp, #104]	; 0x68
    b650:	f04f 0a00 	mov.w	r10, #0
    b654:	f04f 0b00 	mov.w	r11, #0
    b658:	9119      	str	r1, [sp, #100]	; 0x64
    b65a:	9a19      	ldr	r2, [sp, #100]	; 0x64
    b65c:	7813      	ldrb	r3, [r2, #0]
    b65e:	2b0d      	cmp	r3, #13
    b660:	d805      	bhi.n	b66e <_strtod_r+0x2e>
    b662:	2b09      	cmp	r3, #9
    b664:	d214      	bcs.n	b690 <_strtod_r+0x50>
    b666:	2b00      	cmp	r3, #0
    b668:	f000 81b1 	beq.w	b9ce <_strtod_r+0x38e>
    b66c:	e013      	b.n	b696 <_strtod_r+0x56>
    b66e:	2b2b      	cmp	r3, #43	; 0x2b
    b670:	d007      	beq.n	b682 <_strtod_r+0x42>
    b672:	2b2d      	cmp	r3, #45	; 0x2d
    b674:	d002      	beq.n	b67c <_strtod_r+0x3c>
    b676:	2b20      	cmp	r3, #32
    b678:	d10d      	bne.n	b696 <_strtod_r+0x56>
    b67a:	e009      	b.n	b690 <_strtod_r+0x50>
    b67c:	2601      	movs	r6, #1
    b67e:	9609      	str	r6, [sp, #36]	; 0x24
    b680:	e001      	b.n	b686 <_strtod_r+0x46>
    b682:	2700      	movs	r7, #0
    b684:	9709      	str	r7, [sp, #36]	; 0x24
    b686:	1c53      	adds	r3, r2, #1
    b688:	9319      	str	r3, [sp, #100]	; 0x64
    b68a:	7853      	ldrb	r3, [r2, #1]
    b68c:	b92b      	cbnz	r3, b69a <_strtod_r+0x5a>
    b68e:	e19e      	b.n	b9ce <_strtod_r+0x38e>
    b690:	3201      	adds	r2, #1
    b692:	9219      	str	r2, [sp, #100]	; 0x64
    b694:	e7e1      	b.n	b65a <_strtod_r+0x1a>
    b696:	2600      	movs	r6, #0
    b698:	9609      	str	r6, [sp, #36]	; 0x24
    b69a:	9c19      	ldr	r4, [sp, #100]	; 0x64
    b69c:	7823      	ldrb	r3, [r4, #0]
    b69e:	2b30      	cmp	r3, #48	; 0x30
    b6a0:	d15a      	bne.n	b758 <_strtod_r+0x118>
    b6a2:	7863      	ldrb	r3, [r4, #1]
    b6a4:	2b58      	cmp	r3, #88	; 0x58
    b6a6:	d001      	beq.n	b6ac <_strtod_r+0x6c>
    b6a8:	2b78      	cmp	r3, #120	; 0x78
    b6aa:	d149      	bne.n	b740 <_strtod_r+0x100>
    b6ac:	9f09      	ldr	r7, [sp, #36]	; 0x24
    b6ae:	ab1a      	add	r3, sp, #104	; 0x68
    b6b0:	9300      	str	r3, [sp, #0]
    b6b2:	9701      	str	r7, [sp, #4]
    b6b4:	4648      	mov	r0, r9
    b6b6:	a919      	add	r1, sp, #100	; 0x64
    b6b8:	4a9c      	ldr	r2, [pc, #624]	; (b92c <_strtod_r+0x2ec>)
    b6ba:	ab1b      	add	r3, sp, #108	; 0x6c
    b6bc:	f000 ff20 	bl	c500 <__gethex>
    b6c0:	f010 0607 	ands.w	r6, r0, #7
    b6c4:	4605      	mov	r5, r0
    b6c6:	f000 85ad 	beq.w	c224 <_strtod_r+0xbe4>
    b6ca:	2e06      	cmp	r6, #6
    b6cc:	d102      	bne.n	b6d4 <_strtod_r+0x94>
    b6ce:	3401      	adds	r4, #1
    b6d0:	9419      	str	r4, [sp, #100]	; 0x64
    b6d2:	e17e      	b.n	b9d2 <_strtod_r+0x392>
    b6d4:	9a1a      	ldr	r2, [sp, #104]	; 0x68
    b6d6:	b13a      	cbz	r2, b6e8 <_strtod_r+0xa8>
    b6d8:	a81c      	add	r0, sp, #112	; 0x70
    b6da:	2135      	movs	r1, #53	; 0x35
    b6dc:	f7ff fea0 	bl	b420 <__copybits>
    b6e0:	4648      	mov	r0, r9
    b6e2:	991a      	ldr	r1, [sp, #104]	; 0x68
    b6e4:	f7ff fb10 	bl	ad08 <_Bfree>
    b6e8:	9a1b      	ldr	r2, [sp, #108]	; 0x6c
    b6ea:	2e06      	cmp	r6, #6
    b6ec:	d821      	bhi.n	b732 <_strtod_r+0xf2>
    b6ee:	e8df f006 	tbb	[pc, r6]
    b6f2:	0d04      	.short	0x0d04
    b6f4:	0d1c1708 	.word	0x0d1c1708
    b6f8:	04          	.byte	0x04
    b6f9:	00          	.byte	0x00
    b6fa:	f04f 0b00 	mov.w	r11, #0
    b6fe:	46da      	mov	r10, r11
    b700:	e017      	b.n	b732 <_strtod_r+0xf2>
    b702:	f8dd a070 	ldr.w	r10, [sp, #112]	; 0x70
    b706:	f8dd b074 	ldr.w	r11, [sp, #116]	; 0x74
    b70a:	e012      	b.n	b732 <_strtod_r+0xf2>
    b70c:	9b1d      	ldr	r3, [sp, #116]	; 0x74
    b70e:	f202 4233 	addw	r2, r2, #1075	; 0x433
    b712:	f423 1380 	bic.w	r3, r3, #1048576	; 0x100000
    b716:	f8dd a070 	ldr.w	r10, [sp, #112]	; 0x70
    b71a:	ea43 5b02 	orr.w	r11, r3, r2, lsl #20
    b71e:	e008      	b.n	b732 <_strtod_r+0xf2>
    b720:	f8df b20c 	ldr.w	r11, [pc, #524]	; b930 <_strtod_r+0x2f0>
    b724:	f04f 0a00 	mov.w	r10, #0
    b728:	e003      	b.n	b732 <_strtod_r+0xf2>
    b72a:	f06f 4b00 	mvn.w	r11, #2147483648	; 0x80000000
    b72e:	f04f 3aff 	mov.w	r10, #4294967295
    b732:	072b      	lsls	r3, r5, #28
    b734:	f140 8576 	bpl.w	c224 <_strtod_r+0xbe4>
    b738:	f04b 4b00 	orr.w	r11, r11, #2147483648	; 0x80000000
    b73c:	f000 bd72 	b.w	c224 <_strtod_r+0xbe4>
    b740:	9b19      	ldr	r3, [sp, #100]	; 0x64
    b742:	1c5a      	adds	r2, r3, #1
    b744:	9219      	str	r2, [sp, #100]	; 0x64
    b746:	785b      	ldrb	r3, [r3, #1]
    b748:	2b30      	cmp	r3, #48	; 0x30
    b74a:	d0f9      	beq.n	b740 <_strtod_r+0x100>
    b74c:	2b00      	cmp	r3, #0
    b74e:	f000 8569 	beq.w	c224 <_strtod_r+0xbe4>
    b752:	2301      	movs	r3, #1
    b754:	9305      	str	r3, [sp, #20]
    b756:	e001      	b.n	b75c <_strtod_r+0x11c>
    b758:	2600      	movs	r6, #0
    b75a:	9605      	str	r6, [sp, #20]
    b75c:	9f19      	ldr	r7, [sp, #100]	; 0x64
    b75e:	f04f 0800 	mov.w	r8, #0
    b762:	9707      	str	r7, [sp, #28]
    b764:	f8cd 800c 	str.w	r8, [sp, #12]
    b768:	4644      	mov	r4, r8
    b76a:	9e19      	ldr	r6, [sp, #100]	; 0x64
    b76c:	7835      	ldrb	r5, [r6, #0]
    b76e:	f1a5 0330 	sub.w	r3, r5, #48	; 0x30
    b772:	b2da      	uxtb	r2, r3
    b774:	2a09      	cmp	r2, #9
    b776:	d810      	bhi.n	b79a <_strtod_r+0x15a>
    b778:	2c08      	cmp	r4, #8
    b77a:	bfd8      	it	le
    b77c:	9f03      	ldrle	r7, [sp, #12]
    b77e:	f04f 020a 	mov.w	r2, #10
    b782:	bfd8      	it	le
    b784:	fb02 3707 	mlale	r7, r2, r7, r3
    b788:	f106 0601 	add.w	r6, r6, #1
    b78c:	bfd4      	ite	le
    b78e:	9703      	strle	r7, [sp, #12]
    b790:	fb02 3808 	mlagt	r8, r2, r8, r3
    b794:	3401      	adds	r4, #1
    b796:	9619      	str	r6, [sp, #100]	; 0x64
    b798:	e7e7      	b.n	b76a <_strtod_r+0x12a>
    b79a:	4648      	mov	r0, r9
    b79c:	f7ff fa4e 	bl	ac3c <_localeconv_r>
    b7a0:	6807      	ldr	r7, [r0, #0]
    b7a2:	4648      	mov	r0, r9
    b7a4:	f7ff fa4a 	bl	ac3c <_localeconv_r>
    b7a8:	6800      	ldr	r0, [r0, #0]
    b7aa:	f7fc feb4 	bl	8516 <strlen>
    b7ae:	4639      	mov	r1, r7
    b7b0:	4602      	mov	r2, r0
    b7b2:	4630      	mov	r0, r6
    b7b4:	f7fc feb7 	bl	8526 <strncmp>
    b7b8:	4606      	mov	r6, r0
    b7ba:	b128      	cbz	r0, b7c8 <_strtod_r+0x188>
    b7bc:	2300      	movs	r3, #0
    b7be:	462a      	mov	r2, r5
    b7c0:	4619      	mov	r1, r3
    b7c2:	4625      	mov	r5, r4
    b7c4:	930a      	str	r3, [sp, #40]	; 0x28
    b7c6:	e05f      	b.n	b888 <_strtod_r+0x248>
    b7c8:	4648      	mov	r0, r9
    b7ca:	9d19      	ldr	r5, [sp, #100]	; 0x64
    b7cc:	f7ff fa36 	bl	ac3c <_localeconv_r>
    b7d0:	6800      	ldr	r0, [r0, #0]
    b7d2:	f7fc fea0 	bl	8516 <strlen>
    b7d6:	182b      	adds	r3, r5, r0
    b7d8:	9319      	str	r3, [sp, #100]	; 0x64
    b7da:	5c2a      	ldrb	r2, [r5, r0]
    b7dc:	2c00      	cmp	r4, #0
    b7de:	d145      	bne.n	b86c <_strtod_r+0x22c>
    b7e0:	4623      	mov	r3, r4
    b7e2:	2a30      	cmp	r2, #48	; 0x30
    b7e4:	d105      	bne.n	b7f2 <_strtod_r+0x1b2>
    b7e6:	9a19      	ldr	r2, [sp, #100]	; 0x64
    b7e8:	3301      	adds	r3, #1
    b7ea:	1c51      	adds	r1, r2, #1
    b7ec:	9119      	str	r1, [sp, #100]	; 0x64
    b7ee:	7852      	ldrb	r2, [r2, #1]
    b7f0:	e7f7      	b.n	b7e2 <_strtod_r+0x1a2>
    b7f2:	f1a2 0131 	sub.w	r1, r2, #49	; 0x31
    b7f6:	2908      	cmp	r1, #8
    b7f8:	d842      	bhi.n	b880 <_strtod_r+0x240>
    b7fa:	9e19      	ldr	r6, [sp, #100]	; 0x64
    b7fc:	4619      	mov	r1, r3
    b7fe:	2300      	movs	r3, #0
    b800:	9607      	str	r6, [sp, #28]
    b802:	461d      	mov	r5, r3
    b804:	3a30      	subs	r2, #48	; 0x30
    b806:	f103 0001 	add.w	r0, r3, #1
    b80a:	d029      	beq.n	b860 <_strtod_r+0x220>
    b80c:	4401      	add	r1, r0
    b80e:	1c6e      	adds	r6, r5, #1
    b810:	1b77      	subs	r7, r6, r5
    b812:	4287      	cmp	r7, r0
    b814:	da10      	bge.n	b838 <_strtod_r+0x1f8>
    b816:	1e77      	subs	r7, r6, #1
    b818:	2f08      	cmp	r7, #8
    b81a:	dc06      	bgt.n	b82a <_strtod_r+0x1ea>
    b81c:	9f03      	ldr	r7, [sp, #12]
    b81e:	f04f 0c0a 	mov.w	r12, #10
    b822:	fb0c f707 	mul.w	r7, r12, r7
    b826:	9703      	str	r7, [sp, #12]
    b828:	e004      	b.n	b834 <_strtod_r+0x1f4>
    b82a:	2e10      	cmp	r6, #16
    b82c:	bfdc      	itt	le
    b82e:	270a      	movle	r7, #10
    b830:	fb07 f808 	mulle.w	r8, r7, r8
    b834:	3601      	adds	r6, #1
    b836:	e7eb      	b.n	b810 <_strtod_r+0x1d0>
    b838:	2b00      	cmp	r3, #0
    b83a:	bfac      	ite	ge
    b83c:	18eb      	addge	r3, r5, r3
    b83e:	1c2b      	addlt	r3, r5, #0
    b840:	2b08      	cmp	r3, #8
    b842:	f103 0501 	add.w	r5, r3, #1
    b846:	dc05      	bgt.n	b854 <_strtod_r+0x214>
    b848:	9e03      	ldr	r6, [sp, #12]
    b84a:	230a      	movs	r3, #10
    b84c:	fb03 2606 	mla	r6, r3, r6, r2
    b850:	9603      	str	r6, [sp, #12]
    b852:	e004      	b.n	b85e <_strtod_r+0x21e>
    b854:	2d10      	cmp	r5, #16
    b856:	bfdc      	itt	le
    b858:	230a      	movle	r3, #10
    b85a:	fb03 2808 	mlale	r8, r3, r8, r2
    b85e:	2000      	movs	r0, #0
    b860:	9b19      	ldr	r3, [sp, #100]	; 0x64
    b862:	1c5a      	adds	r2, r3, #1
    b864:	9219      	str	r2, [sp, #100]	; 0x64
    b866:	785a      	ldrb	r2, [r3, #1]
    b868:	4603      	mov	r3, r0
    b86a:	e002      	b.n	b872 <_strtod_r+0x232>
    b86c:	4625      	mov	r5, r4
    b86e:	4633      	mov	r3, r6
    b870:	4631      	mov	r1, r6
    b872:	f1a2 0030 	sub.w	r0, r2, #48	; 0x30
    b876:	2809      	cmp	r0, #9
    b878:	d9c4      	bls.n	b804 <_strtod_r+0x1c4>
    b87a:	2701      	movs	r7, #1
    b87c:	970a      	str	r7, [sp, #40]	; 0x28
    b87e:	e003      	b.n	b888 <_strtod_r+0x248>
    b880:	2500      	movs	r5, #0
    b882:	2001      	movs	r0, #1
    b884:	4629      	mov	r1, r5
    b886:	900a      	str	r0, [sp, #40]	; 0x28
    b888:	f022 0620 	bic.w	r6, r2, #32
    b88c:	2e45      	cmp	r6, #69	; 0x45
    b88e:	d153      	bne.n	b938 <_strtod_r+0x2f8>
    b890:	b925      	cbnz	r5, b89c <_strtod_r+0x25c>
    b892:	b91b      	cbnz	r3, b89c <_strtod_r+0x25c>
    b894:	9e05      	ldr	r6, [sp, #20]
    b896:	2e00      	cmp	r6, #0
    b898:	f000 8099 	beq.w	b9ce <_strtod_r+0x38e>
    b89c:	9f19      	ldr	r7, [sp, #100]	; 0x64
    b89e:	1c7a      	adds	r2, r7, #1
    b8a0:	9219      	str	r2, [sp, #100]	; 0x64
    b8a2:	787a      	ldrb	r2, [r7, #1]
    b8a4:	9704      	str	r7, [sp, #16]
    b8a6:	2a2b      	cmp	r2, #43	; 0x2b
    b8a8:	d004      	beq.n	b8b4 <_strtod_r+0x274>
    b8aa:	2a2d      	cmp	r2, #45	; 0x2d
    b8ac:	d005      	beq.n	b8ba <_strtod_r+0x27a>
    b8ae:	2600      	movs	r6, #0
    b8b0:	960f      	str	r6, [sp, #60]	; 0x3c
    b8b2:	e008      	b.n	b8c6 <_strtod_r+0x286>
    b8b4:	2000      	movs	r0, #0
    b8b6:	900f      	str	r0, [sp, #60]	; 0x3c
    b8b8:	e001      	b.n	b8be <_strtod_r+0x27e>
    b8ba:	2701      	movs	r7, #1
    b8bc:	970f      	str	r7, [sp, #60]	; 0x3c
    b8be:	9e04      	ldr	r6, [sp, #16]
    b8c0:	1cb2      	adds	r2, r6, #2
    b8c2:	9219      	str	r2, [sp, #100]	; 0x64
    b8c4:	78b2      	ldrb	r2, [r6, #2]
    b8c6:	f1a2 0730 	sub.w	r7, r2, #48	; 0x30
    b8ca:	2f09      	cmp	r7, #9
    b8cc:	d832      	bhi.n	b934 <_strtod_r+0x2f4>
    b8ce:	2a30      	cmp	r2, #48	; 0x30
    b8d0:	d104      	bne.n	b8dc <_strtod_r+0x29c>
    b8d2:	9a19      	ldr	r2, [sp, #100]	; 0x64
    b8d4:	1c57      	adds	r7, r2, #1
    b8d6:	9719      	str	r7, [sp, #100]	; 0x64
    b8d8:	7852      	ldrb	r2, [r2, #1]
    b8da:	e7f8      	b.n	b8ce <_strtod_r+0x28e>
    b8dc:	f1a2 0731 	sub.w	r7, r2, #49	; 0x31
    b8e0:	2f08      	cmp	r7, #8
    b8e2:	d829      	bhi.n	b938 <_strtod_r+0x2f8>
    b8e4:	9819      	ldr	r0, [sp, #100]	; 0x64
    b8e6:	f1a2 0730 	sub.w	r7, r2, #48	; 0x30
    b8ea:	9006      	str	r0, [sp, #24]
    b8ec:	9a19      	ldr	r2, [sp, #100]	; 0x64
    b8ee:	1c56      	adds	r6, r2, #1
    b8f0:	9619      	str	r6, [sp, #100]	; 0x64
    b8f2:	7852      	ldrb	r2, [r2, #1]
    b8f4:	960e      	str	r6, [sp, #56]	; 0x38
    b8f6:	f1a2 0630 	sub.w	r6, r2, #48	; 0x30
    b8fa:	2e09      	cmp	r6, #9
    b8fc:	d805      	bhi.n	b90a <_strtod_r+0x2ca>
    b8fe:	f04f 0c0a 	mov.w	r12, #10
    b902:	fb0c 2707 	mla	r7, r12, r7, r2
    b906:	3f30      	subs	r7, #48	; 0x30
    b908:	e7f0      	b.n	b8ec <_strtod_r+0x2ac>
    b90a:	980e      	ldr	r0, [sp, #56]	; 0x38
    b90c:	9e06      	ldr	r6, [sp, #24]
    b90e:	ebc6 0c00 	rsb	r12, r6, r0
    b912:	f1bc 0f08 	cmp.w	r12, #8
    b916:	f644 6c1f 	movw	r12, #19999	; 0x4e1f
    b91a:	dc02      	bgt.n	b922 <_strtod_r+0x2e2>
    b91c:	4567      	cmp	r7, r12
    b91e:	bfb8      	it	lt
    b920:	46bc      	movlt	r12, r7
    b922:	9f0f      	ldr	r7, [sp, #60]	; 0x3c
    b924:	b157      	cbz	r7, b93c <_strtod_r+0x2fc>
    b926:	f1cc 0c00 	rsb	r12, r12, #0
    b92a:	e007      	b.n	b93c <_strtod_r+0x2fc>
    b92c:	0000e14c 	.word	0x0000e14c
    b930:	7ff00000 	.word	0x7ff00000
    b934:	9e04      	ldr	r6, [sp, #16]
    b936:	9619      	str	r6, [sp, #100]	; 0x64
    b938:	f04f 0c00 	mov.w	r12, #0
    b93c:	2d00      	cmp	r5, #0
    b93e:	d14c      	bne.n	b9da <_strtod_r+0x39a>
    b940:	2b00      	cmp	r3, #0
    b942:	f040 846f 	bne.w	c224 <_strtod_r+0xbe4>
    b946:	9f05      	ldr	r7, [sp, #20]
    b948:	2f00      	cmp	r7, #0
    b94a:	f040 846b 	bne.w	c224 <_strtod_r+0xbe4>
    b94e:	980a      	ldr	r0, [sp, #40]	; 0x28
    b950:	2800      	cmp	r0, #0
    b952:	d13c      	bne.n	b9ce <_strtod_r+0x38e>
    b954:	2a4e      	cmp	r2, #78	; 0x4e
    b956:	d01b      	beq.n	b990 <_strtod_r+0x350>
    b958:	dc02      	bgt.n	b960 <_strtod_r+0x320>
    b95a:	2a49      	cmp	r2, #73	; 0x49
    b95c:	d005      	beq.n	b96a <_strtod_r+0x32a>
    b95e:	e036      	b.n	b9ce <_strtod_r+0x38e>
    b960:	2a69      	cmp	r2, #105	; 0x69
    b962:	d002      	beq.n	b96a <_strtod_r+0x32a>
    b964:	2a6e      	cmp	r2, #110	; 0x6e
    b966:	d013      	beq.n	b990 <_strtod_r+0x350>
    b968:	e031      	b.n	b9ce <_strtod_r+0x38e>
    b96a:	a819      	add	r0, sp, #100	; 0x64
    b96c:	49ac      	ldr	r1, [pc, #688]	; (bc20 <_strtod_r+0x5e0>)
    b96e:	f7ff fe33 	bl	b5d8 <match>
    b972:	b360      	cbz	r0, b9ce <_strtod_r+0x38e>
    b974:	9b19      	ldr	r3, [sp, #100]	; 0x64
    b976:	a819      	add	r0, sp, #100	; 0x64
    b978:	3b01      	subs	r3, #1
    b97a:	49aa      	ldr	r1, [pc, #680]	; (bc24 <_strtod_r+0x5e4>)
    b97c:	9319      	str	r3, [sp, #100]	; 0x64
    b97e:	f7ff fe2b 	bl	b5d8 <match>
    b982:	b910      	cbnz	r0, b98a <_strtod_r+0x34a>
    b984:	9b19      	ldr	r3, [sp, #100]	; 0x64
    b986:	3301      	adds	r3, #1
    b988:	9319      	str	r3, [sp, #100]	; 0x64
    b98a:	f8df b2b4 	ldr.w	r11, [pc, #692]	; bc40 <_strtod_r+0x600>
    b98e:	e01a      	b.n	b9c6 <_strtod_r+0x386>
    b990:	a819      	add	r0, sp, #100	; 0x64
    b992:	49a5      	ldr	r1, [pc, #660]	; (bc28 <_strtod_r+0x5e8>)
    b994:	f7ff fe20 	bl	b5d8 <match>
    b998:	b1c8      	cbz	r0, b9ce <_strtod_r+0x38e>
    b99a:	9b19      	ldr	r3, [sp, #100]	; 0x64
    b99c:	781b      	ldrb	r3, [r3, #0]
    b99e:	2b28      	cmp	r3, #40	; 0x28
    b9a0:	d10f      	bne.n	b9c2 <_strtod_r+0x382>
    b9a2:	a819      	add	r0, sp, #100	; 0x64
    b9a4:	49a1      	ldr	r1, [pc, #644]	; (bc2c <_strtod_r+0x5ec>)
    b9a6:	aa1c      	add	r2, sp, #112	; 0x70
    b9a8:	f000 ffec 	bl	c984 <__hexnan>
    b9ac:	2805      	cmp	r0, #5
    b9ae:	d108      	bne.n	b9c2 <_strtod_r+0x382>
    b9b0:	9b1d      	ldr	r3, [sp, #116]	; 0x74
    b9b2:	f8dd a070 	ldr.w	r10, [sp, #112]	; 0x70
    b9b6:	f043 4bff 	orr.w	r11, r3, #2139095040	; 0x7f800000
    b9ba:	f44b 0be0 	orr.w	r11, r11, #7340032	; 0x700000
    b9be:	f000 bc31 	b.w	c224 <_strtod_r+0xbe4>
    b9c2:	f8df b280 	ldr.w	r11, [pc, #640]	; bc44 <_strtod_r+0x604>
    b9c6:	f04f 0a00 	mov.w	r10, #0
    b9ca:	f000 bc2b 	b.w	c224 <_strtod_r+0xbe4>
    b9ce:	9b04      	ldr	r3, [sp, #16]
    b9d0:	9319      	str	r3, [sp, #100]	; 0x64
    b9d2:	2600      	movs	r6, #0
    b9d4:	9609      	str	r6, [sp, #36]	; 0x24
    b9d6:	f000 bc25 	b.w	c224 <_strtod_r+0xbe4>
    b9da:	ebc1 010c 	rsb	r1, r1, r12
    b9de:	9803      	ldr	r0, [sp, #12]
    b9e0:	2d10      	cmp	r5, #16
    b9e2:	bfb4      	ite	lt
    b9e4:	46ac      	movlt	r12, r5
    b9e6:	f04f 0c10 	movge.w	r12, #16
    b9ea:	f8cd c008 	str.w	r12, [sp, #8]
    b9ee:	9106      	str	r1, [sp, #24]
    b9f0:	f7fb f890 	bl	6b14 <__aeabi_ui2d>
    b9f4:	f8dd c008 	ldr.w	r12, [sp, #8]
    b9f8:	2c00      	cmp	r4, #0
    b9fa:	bf08      	it	eq
    b9fc:	462c      	moveq	r4, r5
    b9fe:	f1bc 0f09 	cmp.w	r12, #9
    ba02:	4682      	mov	r10, r0
    ba04:	468b      	mov	r11, r1
    ba06:	dd15      	ble.n	ba34 <_strtod_r+0x3f4>
    ba08:	4b89      	ldr	r3, [pc, #548]	; (bc30 <_strtod_r+0x5f0>)
    ba0a:	eb03 03cc 	add.w	r3, r3, r12, lsl #3
    ba0e:	e953 2312 	ldrd	r2, r3, [r3, #-72]	; 0x48
    ba12:	f7fb f8f5 	bl	6c00 <__aeabi_dmul>
    ba16:	4606      	mov	r6, r0
    ba18:	4640      	mov	r0, r8
    ba1a:	460f      	mov	r7, r1
    ba1c:	f7fb f87a 	bl	6b14 <__aeabi_ui2d>
    ba20:	4602      	mov	r2, r0
    ba22:	460b      	mov	r3, r1
    ba24:	4630      	mov	r0, r6
    ba26:	4639      	mov	r1, r7
    ba28:	f7fa ff38 	bl	689c <__adddf3>
    ba2c:	f8dd c008 	ldr.w	r12, [sp, #8]
    ba30:	4682      	mov	r10, r0
    ba32:	468b      	mov	r11, r1
    ba34:	2d0f      	cmp	r5, #15
    ba36:	dc37      	bgt.n	baa8 <_strtod_r+0x468>
    ba38:	9f06      	ldr	r7, [sp, #24]
    ba3a:	2f00      	cmp	r7, #0
    ba3c:	f000 83f2 	beq.w	c224 <_strtod_r+0xbe4>
    ba40:	dd23      	ble.n	ba8a <_strtod_r+0x44a>
    ba42:	2f16      	cmp	r7, #22
    ba44:	dc07      	bgt.n	ba56 <_strtod_r+0x416>
    ba46:	497a      	ldr	r1, [pc, #488]	; (bc30 <_strtod_r+0x5f0>)
    ba48:	4652      	mov	r2, r10
    ba4a:	eb01 01c7 	add.w	r1, r1, r7, lsl #3
    ba4e:	e9d1 0100 	ldrd	r0, r1, [r1]
    ba52:	465b      	mov	r3, r11
    ba54:	e014      	b.n	ba80 <_strtod_r+0x440>
    ba56:	9e06      	ldr	r6, [sp, #24]
    ba58:	f1c5 0325 	rsb	r3, r5, #37	; 0x25
    ba5c:	429e      	cmp	r6, r3
    ba5e:	dc23      	bgt.n	baa8 <_strtod_r+0x468>
    ba60:	4c73      	ldr	r4, [pc, #460]	; (bc30 <_strtod_r+0x5f0>)
    ba62:	f1c5 050f 	rsb	r5, r5, #15
    ba66:	eb04 03c5 	add.w	r3, r4, r5, lsl #3
    ba6a:	1b75      	subs	r5, r6, r5
    ba6c:	e9d3 0100 	ldrd	r0, r1, [r3]
    ba70:	4652      	mov	r2, r10
    ba72:	465b      	mov	r3, r11
    ba74:	eb04 04c5 	add.w	r4, r4, r5, lsl #3
    ba78:	f7fb f8c2 	bl	6c00 <__aeabi_dmul>
    ba7c:	e9d4 2300 	ldrd	r2, r3, [r4]
    ba80:	f7fb f8be 	bl	6c00 <__aeabi_dmul>
    ba84:	4682      	mov	r10, r0
    ba86:	468b      	mov	r11, r1
    ba88:	e3cc      	b.n	c224 <_strtod_r+0xbe4>
    ba8a:	9f06      	ldr	r7, [sp, #24]
    ba8c:	3716      	adds	r7, #22
    ba8e:	db0b      	blt.n	baa8 <_strtod_r+0x468>
    ba90:	f8dd c018 	ldr.w	r12, [sp, #24]
    ba94:	4f66      	ldr	r7, [pc, #408]	; (bc30 <_strtod_r+0x5f0>)
    ba96:	4650      	mov	r0, r10
    ba98:	eba7 07cc 	sub.w	r7, r7, r12, lsl #3
    ba9c:	4659      	mov	r1, r11
    ba9e:	e9d7 2300 	ldrd	r2, r3, [r7]
    baa2:	f7fb f9d7 	bl	6e54 <__aeabi_ddiv>
    baa6:	e7ed      	b.n	ba84 <_strtod_r+0x444>
    baa8:	9e06      	ldr	r6, [sp, #24]
    baaa:	ebcc 0805 	rsb	r8, r12, r5
    baae:	44b0      	add	r8, r6
    bab0:	f1b8 0f00 	cmp.w	r8, #0
    bab4:	dd61      	ble.n	bb7a <_strtod_r+0x53a>
    bab6:	f018 030f 	ands.w	r3, r8, #15
    baba:	d00a      	beq.n	bad2 <_strtod_r+0x492>
    babc:	4a5c      	ldr	r2, [pc, #368]	; (bc30 <_strtod_r+0x5f0>)
    babe:	eb02 03c3 	add.w	r3, r2, r3, lsl #3
    bac2:	e9d3 0100 	ldrd	r0, r1, [r3]
    bac6:	4652      	mov	r2, r10
    bac8:	465b      	mov	r3, r11
    baca:	f7fb f899 	bl	6c00 <__aeabi_dmul>
    bace:	4682      	mov	r10, r0
    bad0:	468b      	mov	r11, r1
    bad2:	f038 080f 	bics.w	r8, r8, #15
    bad6:	f000 80c8 	beq.w	bc6a <_strtod_r+0x62a>
    bada:	f5b8 7f9a 	cmp.w	r8, #308	; 0x134
    bade:	dd13      	ble.n	bb08 <_strtod_r+0x4c8>
    bae0:	f04f 0800 	mov.w	r8, #0
    bae4:	f8cd 800c 	str.w	r8, [sp, #12]
    bae8:	f8cd 801c 	str.w	r8, [sp, #28]
    baec:	f8cd 8014 	str.w	r8, [sp, #20]
    baf0:	9f07      	ldr	r7, [sp, #28]
    baf2:	2322      	movs	r3, #34	; 0x22
    baf4:	f8c9 3000 	str.w	r3, [r9]
    baf8:	f8df b144 	ldr.w	r11, [pc, #324]	; bc40 <_strtod_r+0x600>
    bafc:	f04f 0a00 	mov.w	r10, #0
    bb00:	2f00      	cmp	r7, #0
    bb02:	f040 837b 	bne.w	c1fc <_strtod_r+0xbbc>
    bb06:	e38d      	b.n	c224 <_strtod_r+0xbe4>
    bb08:	ea4f 1828 	mov.w	r8, r8, asr #4
    bb0c:	4650      	mov	r0, r10
    bb0e:	4659      	mov	r1, r11
    bb10:	2600      	movs	r6, #0
    bb12:	f1b8 0f01 	cmp.w	r8, #1
    bb16:	dd0d      	ble.n	bb34 <_strtod_r+0x4f4>
    bb18:	f018 0f01 	tst.w	r8, #1
    bb1c:	d006      	beq.n	bb2c <_strtod_r+0x4ec>
    bb1e:	4b45      	ldr	r3, [pc, #276]	; (bc34 <_strtod_r+0x5f4>)
    bb20:	eb03 03c6 	add.w	r3, r3, r6, lsl #3
    bb24:	e9d3 2300 	ldrd	r2, r3, [r3]
    bb28:	f7fb f86a 	bl	6c00 <__aeabi_dmul>
    bb2c:	3601      	adds	r6, #1
    bb2e:	ea4f 0868 	mov.w	r8, r8, asr #1
    bb32:	e7ee      	b.n	bb12 <_strtod_r+0x4d2>
    bb34:	4b3f      	ldr	r3, [pc, #252]	; (bc34 <_strtod_r+0x5f4>)
    bb36:	4682      	mov	r10, r0
    bb38:	f1a1 7b54 	sub.w	r11, r1, #55574528	; 0x3500000
    bb3c:	eb03 06c6 	add.w	r6, r3, r6, lsl #3
    bb40:	4652      	mov	r2, r10
    bb42:	465b      	mov	r3, r11
    bb44:	e9d6 0100 	ldrd	r0, r1, [r6]
    bb48:	f7fb f85a 	bl	6c00 <__aeabi_dmul>
    bb4c:	f021 4300 	bic.w	r3, r1, #2147483648	; 0x80000000
    bb50:	468b      	mov	r11, r1
    bb52:	0d1b      	lsrs	r3, r3, #20
    bb54:	4938      	ldr	r1, [pc, #224]	; (bc38 <_strtod_r+0x5f8>)
    bb56:	051b      	lsls	r3, r3, #20
    bb58:	428b      	cmp	r3, r1
    bb5a:	4682      	mov	r10, r0
    bb5c:	d8c0      	bhi.n	bae0 <_strtod_r+0x4a0>
    bb5e:	f5a1 1180 	sub.w	r1, r1, #1048576	; 0x100000
    bb62:	428b      	cmp	r3, r1
    bb64:	d906      	bls.n	bb74 <_strtod_r+0x534>
    bb66:	2600      	movs	r6, #0
    bb68:	f8df b0dc 	ldr.w	r11, [pc, #220]	; bc48 <_strtod_r+0x608>
    bb6c:	f04f 3aff 	mov.w	r10, #4294967295
    bb70:	9604      	str	r6, [sp, #16]
    bb72:	e07c      	b.n	bc6e <_strtod_r+0x62e>
    bb74:	f10b 7b54 	add.w	r11, r11, #55574528	; 0x3500000
    bb78:	e077      	b.n	bc6a <_strtod_r+0x62a>
    bb7a:	d076      	beq.n	bc6a <_strtod_r+0x62a>
    bb7c:	f1c8 0800 	rsb	r8, r8, #0
    bb80:	f018 030f 	ands.w	r3, r8, #15
    bb84:	d00a      	beq.n	bb9c <_strtod_r+0x55c>
    bb86:	4a2a      	ldr	r2, [pc, #168]	; (bc30 <_strtod_r+0x5f0>)
    bb88:	4650      	mov	r0, r10
    bb8a:	eb02 03c3 	add.w	r3, r2, r3, lsl #3
    bb8e:	4659      	mov	r1, r11
    bb90:	e9d3 2300 	ldrd	r2, r3, [r3]
    bb94:	f7fb f95e 	bl	6e54 <__aeabi_ddiv>
    bb98:	4682      	mov	r10, r0
    bb9a:	468b      	mov	r11, r1
    bb9c:	ea5f 1828 	movs.w	r8, r8, asr #4
    bba0:	d063      	beq.n	bc6a <_strtod_r+0x62a>
    bba2:	f1b8 0f1f 	cmp.w	r8, #31
    bba6:	dd08      	ble.n	bbba <_strtod_r+0x57a>
    bba8:	f04f 0800 	mov.w	r8, #0
    bbac:	f8cd 800c 	str.w	r8, [sp, #12]
    bbb0:	f8cd 801c 	str.w	r8, [sp, #28]
    bbb4:	f8cd 8014 	str.w	r8, [sp, #20]
    bbb8:	e11e      	b.n	bdf8 <_strtod_r+0x7b8>
    bbba:	f018 0f10 	tst.w	r8, #16
    bbbe:	bf14      	ite	ne
    bbc0:	266a      	movne	r6, #106	; 0x6a
    bbc2:	2600      	moveq	r6, #0
    bbc4:	9604      	str	r6, [sp, #16]
    bbc6:	4e1d      	ldr	r6, [pc, #116]	; (bc3c <_strtod_r+0x5fc>)
    bbc8:	4650      	mov	r0, r10
    bbca:	4659      	mov	r1, r11
    bbcc:	f1b8 0f00 	cmp.w	r8, #0
    bbd0:	dd0a      	ble.n	bbe8 <_strtod_r+0x5a8>
    bbd2:	f018 0f01 	tst.w	r8, #1
    bbd6:	d003      	beq.n	bbe0 <_strtod_r+0x5a0>
    bbd8:	e9d6 2300 	ldrd	r2, r3, [r6]
    bbdc:	f7fb f810 	bl	6c00 <__aeabi_dmul>
    bbe0:	ea4f 0868 	mov.w	r8, r8, asr #1
    bbe4:	3608      	adds	r6, #8
    bbe6:	e7f1      	b.n	bbcc <_strtod_r+0x58c>
    bbe8:	9f04      	ldr	r7, [sp, #16]
    bbea:	4682      	mov	r10, r0
    bbec:	468b      	mov	r11, r1
    bbee:	b39f      	cbz	r7, bc58 <_strtod_r+0x618>
    bbf0:	f3c1 530a 	ubfx	r3, r1, #20, #11
    bbf4:	f1c3 036b 	rsb	r3, r3, #107	; 0x6b
    bbf8:	2b00      	cmp	r3, #0
    bbfa:	dd2d      	ble.n	bc58 <_strtod_r+0x618>
    bbfc:	2b1f      	cmp	r3, #31
    bbfe:	dd25      	ble.n	bc4c <_strtod_r+0x60c>
    bc00:	2b34      	cmp	r3, #52	; 0x34
    bc02:	f04f 0a00 	mov.w	r10, #0
    bc06:	dd02      	ble.n	bc0e <_strtod_r+0x5ce>
    bc08:	f04f 7b5c 	mov.w	r11, #57671680	; 0x3700000
    bc0c:	e024      	b.n	bc58 <_strtod_r+0x618>
    bc0e:	3b20      	subs	r3, #32
    bc10:	f04f 31ff 	mov.w	r1, #4294967295
    bc14:	fa01 f303 	lsl.w	r3, r1, r3
    bc18:	ea03 0b0b 	and.w	r11, r3, r11
    bc1c:	e01c      	b.n	bc58 <_strtod_r+0x618>
    bc1e:	bf00      	nop
    bc20:	0000dede 	.word	0x0000dede
    bc24:	0000e03b 	.word	0x0000e03b
    bc28:	0000dee6 	.word	0x0000dee6
    bc2c:	0000e188 	.word	0x0000e188
    bc30:	0000e050 	.word	0x0000e050
    bc34:	0000e118 	.word	0x0000e118
    bc38:	7ca00000 	.word	0x7ca00000
    bc3c:	0000e160 	.word	0x0000e160
    bc40:	7ff00000 	.word	0x7ff00000
    bc44:	fff80000 	.word	0xfff80000
    bc48:	7fefffff 	.word	0x7fefffff
    bc4c:	f04f 32ff 	mov.w	r2, #4294967295
    bc50:	fa02 f303 	lsl.w	r3, r2, r3
    bc54:	ea03 0a00 	and.w	r10, r3, r0
    bc58:	4650      	mov	r0, r10
    bc5a:	4659      	mov	r1, r11
    bc5c:	2200      	movs	r2, #0
    bc5e:	2300      	movs	r3, #0
    bc60:	f000 ff80 	bl	cb64 <__aeabi_dcmpeq>
    bc64:	2800      	cmp	r0, #0
    bc66:	d19f      	bne.n	bba8 <_strtod_r+0x568>
    bc68:	e001      	b.n	bc6e <_strtod_r+0x62e>
    bc6a:	2700      	movs	r7, #0
    bc6c:	9704      	str	r7, [sp, #16]
    bc6e:	9e03      	ldr	r6, [sp, #12]
    bc70:	4648      	mov	r0, r9
    bc72:	9600      	str	r6, [sp, #0]
    bc74:	9907      	ldr	r1, [sp, #28]
    bc76:	4622      	mov	r2, r4
    bc78:	462b      	mov	r3, r5
    bc7a:	f7ff f896 	bl	adaa <__s2b>
    bc7e:	9007      	str	r0, [sp, #28]
    bc80:	2800      	cmp	r0, #0
    bc82:	f43f af2d 	beq.w	bae0 <_strtod_r+0x4a0>
    bc86:	9f06      	ldr	r7, [sp, #24]
    bc88:	f04f 0800 	mov.w	r8, #0
    bc8c:	427b      	negs	r3, r7
    bc8e:	2f00      	cmp	r7, #0
    bc90:	bfa8      	it	ge
    bc92:	2300      	movge	r3, #0
    bc94:	930e      	str	r3, [sp, #56]	; 0x38
    bc96:	f8cd 800c 	str.w	r8, [sp, #12]
    bc9a:	9e07      	ldr	r6, [sp, #28]
    bc9c:	4648      	mov	r0, r9
    bc9e:	6871      	ldr	r1, [r6, #4]
    bca0:	f7fe fffd 	bl	ac9e <_Balloc>
    bca4:	9005      	str	r0, [sp, #20]
    bca6:	2800      	cmp	r0, #0
    bca8:	f43f af22 	beq.w	baf0 <_strtod_r+0x4b0>
    bcac:	6932      	ldr	r2, [r6, #16]
    bcae:	f106 010c 	add.w	r1, r6, #12
    bcb2:	3202      	adds	r2, #2
    bcb4:	0092      	lsls	r2, r2, #2
    bcb6:	300c      	adds	r0, #12
    bcb8:	f7fc f93c 	bl	7f34 <memcpy>
    bcbc:	ab1b      	add	r3, sp, #108	; 0x6c
    bcbe:	9300      	str	r3, [sp, #0]
    bcc0:	ab1c      	add	r3, sp, #112	; 0x70
    bcc2:	9301      	str	r3, [sp, #4]
    bcc4:	4648      	mov	r0, r9
    bcc6:	4652      	mov	r2, r10
    bcc8:	465b      	mov	r3, r11
    bcca:	e9cd ab0a 	strd	r10, r11, [sp, #40]	; 0x28
    bcce:	f7ff fb30 	bl	b332 <__d2b>
    bcd2:	901a      	str	r0, [sp, #104]	; 0x68
    bcd4:	2800      	cmp	r0, #0
    bcd6:	f43f af0b 	beq.w	baf0 <_strtod_r+0x4b0>
    bcda:	4648      	mov	r0, r9
    bcdc:	2101      	movs	r1, #1
    bcde:	f7ff f8f3 	bl	aec8 <__i2b>
    bce2:	9003      	str	r0, [sp, #12]
    bce4:	2800      	cmp	r0, #0
    bce6:	f43f af03 	beq.w	baf0 <_strtod_r+0x4b0>
    bcea:	9b1b      	ldr	r3, [sp, #108]	; 0x6c
    bcec:	f8dd c018 	ldr.w	r12, [sp, #24]
    bcf0:	2b00      	cmp	r3, #0
    bcf2:	ea2c 77ec 	bic.w	r7, r12, r12, asr #31
    bcf6:	f2c0 808b 	blt.w	be10 <_strtod_r+0x7d0>
    bcfa:	9c0e      	ldr	r4, [sp, #56]	; 0x38
    bcfc:	463a      	mov	r2, r7
    bcfe:	441c      	add	r4, r3
    bd00:	9e04      	ldr	r6, [sp, #16]
    bd02:	9d1c      	ldr	r5, [sp, #112]	; 0x70
    bd04:	1b9b      	subs	r3, r3, r6
    bd06:	1959      	adds	r1, r3, r5
    bd08:	f46f 737f 	mvn.w	r3, #1020	; 0x3fc
    bd0c:	4299      	cmp	r1, r3
    bd0e:	f1c5 0536 	rsb	r5, r5, #54	; 0x36
    bd12:	f280 8087 	bge.w	be24 <_strtod_r+0x7e4>
    bd16:	1a5b      	subs	r3, r3, r1
    bd18:	2b1f      	cmp	r3, #31
    bd1a:	ebc3 0505 	rsb	r5, r3, r5
    bd1e:	f04f 0001 	mov.w	r0, #1
    bd22:	dc78      	bgt.n	be16 <_strtod_r+0x7d6>
    bd24:	4098      	lsls	r0, r3
    bd26:	2300      	movs	r3, #0
    bd28:	9014      	str	r0, [sp, #80]	; 0x50
    bd2a:	930f      	str	r3, [sp, #60]	; 0x3c
    bd2c:	9804      	ldr	r0, [sp, #16]
    bd2e:	1966      	adds	r6, r4, r5
    bd30:	4415      	add	r5, r2
    bd32:	42a6      	cmp	r6, r4
    bd34:	bfb4      	ite	lt
    bd36:	4633      	movlt	r3, r6
    bd38:	4623      	movge	r3, r4
    bd3a:	4405      	add	r5, r0
    bd3c:	42ab      	cmp	r3, r5
    bd3e:	bfa8      	it	ge
    bd40:	462b      	movge	r3, r5
    bd42:	2b00      	cmp	r3, #0
    bd44:	dd02      	ble.n	bd4c <_strtod_r+0x70c>
    bd46:	1af6      	subs	r6, r6, r3
    bd48:	1aed      	subs	r5, r5, r3
    bd4a:	1ae4      	subs	r4, r4, r3
    bd4c:	990e      	ldr	r1, [sp, #56]	; 0x38
    bd4e:	2900      	cmp	r1, #0
    bd50:	d16f      	bne.n	be32 <_strtod_r+0x7f2>
    bd52:	2e00      	cmp	r6, #0
    bd54:	f300 8087 	bgt.w	be66 <_strtod_r+0x826>
    bd58:	2f00      	cmp	r7, #0
    bd5a:	f040 808e 	bne.w	be7a <_strtod_r+0x83a>
    bd5e:	2d00      	cmp	r5, #0
    bd60:	f300 8095 	bgt.w	be8e <_strtod_r+0x84e>
    bd64:	2c00      	cmp	r4, #0
    bd66:	f300 809c 	bgt.w	bea2 <_strtod_r+0x862>
    bd6a:	4648      	mov	r0, r9
    bd6c:	991a      	ldr	r1, [sp, #104]	; 0x68
    bd6e:	9a05      	ldr	r2, [sp, #20]
    bd70:	f7ff fa0a 	bl	b188 <__mdiff>
    bd74:	4680      	mov	r8, r0
    bd76:	2800      	cmp	r0, #0
    bd78:	f43f aeba 	beq.w	baf0 <_strtod_r+0x4b0>
    bd7c:	68c6      	ldr	r6, [r0, #12]
    bd7e:	2300      	movs	r3, #0
    bd80:	60c3      	str	r3, [r0, #12]
    bd82:	9903      	ldr	r1, [sp, #12]
    bd84:	9608      	str	r6, [sp, #32]
    bd86:	f7ff f9e2 	bl	b14e <__mcmp>
    bd8a:	2800      	cmp	r0, #0
    bd8c:	f280 8098 	bge.w	bec0 <_strtod_r+0x880>
    bd90:	2e00      	cmp	r6, #0
    bd92:	f040 8220 	bne.w	c1d6 <_strtod_r+0xb96>
    bd96:	f1ba 0f00 	cmp.w	r10, #0
    bd9a:	f040 821c 	bne.w	c1d6 <_strtod_r+0xb96>
    bd9e:	f3cb 0313 	ubfx	r3, r11, #0, #20
    bda2:	2b00      	cmp	r3, #0
    bda4:	f040 8217 	bne.w	c1d6 <_strtod_r+0xb96>
    bda8:	f02b 4300 	bic.w	r3, r11, #2147483648	; 0x80000000
    bdac:	0d1b      	lsrs	r3, r3, #20
    bdae:	051b      	lsls	r3, r3, #20
    bdb0:	f1b3 6fd6 	cmp.w	r3, #112197632	; 0x6b00000
    bdb4:	f240 820f 	bls.w	c1d6 <_strtod_r+0xb96>
    bdb8:	f8d8 3014 	ldr.w	r3, [r8, #20]
    bdbc:	2b00      	cmp	r3, #0
    bdbe:	d07a      	beq.n	beb6 <_strtod_r+0x876>
    bdc0:	4641      	mov	r1, r8
    bdc2:	2201      	movs	r2, #1
    bdc4:	4648      	mov	r0, r9
    bdc6:	f7ff f96f 	bl	b0a8 <__lshift>
    bdca:	9903      	ldr	r1, [sp, #12]
    bdcc:	4680      	mov	r8, r0
    bdce:	f7ff f9be 	bl	b14e <__mcmp>
    bdd2:	2800      	cmp	r0, #0
    bdd4:	f340 81ff 	ble.w	c1d6 <_strtod_r+0xb96>
    bdd8:	f02b 4300 	bic.w	r3, r11, #2147483648	; 0x80000000
    bddc:	9f04      	ldr	r7, [sp, #16]
    bdde:	0d1b      	lsrs	r3, r3, #20
    bde0:	051b      	lsls	r3, r3, #20
    bde2:	2f00      	cmp	r7, #0
    bde4:	f000 809c 	beq.w	bf20 <_strtod_r+0x8e0>
    bde8:	f1b3 6fd6 	cmp.w	r3, #112197632	; 0x6b00000
    bdec:	f200 8098 	bhi.w	bf20 <_strtod_r+0x8e0>
    bdf0:	f1b3 7f5c 	cmp.w	r3, #57671680	; 0x3700000
    bdf4:	f200 81f1 	bhi.w	c1da <_strtod_r+0xb9a>
    bdf8:	9e07      	ldr	r6, [sp, #28]
    bdfa:	2322      	movs	r3, #34	; 0x22
    bdfc:	f04f 0a00 	mov.w	r10, #0
    be00:	f04f 0b00 	mov.w	r11, #0
    be04:	f8c9 3000 	str.w	r3, [r9]
    be08:	2e00      	cmp	r6, #0
    be0a:	f040 81f7 	bne.w	c1fc <_strtod_r+0xbbc>
    be0e:	e209      	b.n	c224 <_strtod_r+0xbe4>
    be10:	1afa      	subs	r2, r7, r3
    be12:	9c0e      	ldr	r4, [sp, #56]	; 0x38
    be14:	e774      	b.n	bd00 <_strtod_r+0x6c0>
    be16:	4e84      	ldr	r6, [pc, #528]	; (c028 <_strtod_r+0x9e8>)
    be18:	9014      	str	r0, [sp, #80]	; 0x50
    be1a:	1a76      	subs	r6, r6, r1
    be1c:	fa00 f606 	lsl.w	r6, r0, r6
    be20:	960f      	str	r6, [sp, #60]	; 0x3c
    be22:	e783      	b.n	bd2c <_strtod_r+0x6ec>
    be24:	2600      	movs	r6, #0
    be26:	f04f 0c01 	mov.w	r12, #1
    be2a:	960f      	str	r6, [sp, #60]	; 0x3c
    be2c:	f8cd c050 	str.w	r12, [sp, #80]	; 0x50
    be30:	e77c      	b.n	bd2c <_strtod_r+0x6ec>
    be32:	4648      	mov	r0, r9
    be34:	9903      	ldr	r1, [sp, #12]
    be36:	9a0e      	ldr	r2, [sp, #56]	; 0x38
    be38:	f7ff f8e8 	bl	b00c <__pow5mult>
    be3c:	9003      	str	r0, [sp, #12]
    be3e:	2800      	cmp	r0, #0
    be40:	f43f ae56 	beq.w	baf0 <_strtod_r+0x4b0>
    be44:	4648      	mov	r0, r9
    be46:	9903      	ldr	r1, [sp, #12]
    be48:	9a1a      	ldr	r2, [sp, #104]	; 0x68
    be4a:	f7ff f846 	bl	aeda <__multiply>
    be4e:	4603      	mov	r3, r0
    be50:	2800      	cmp	r0, #0
    be52:	f43f ae4d 	beq.w	baf0 <_strtod_r+0x4b0>
    be56:	4648      	mov	r0, r9
    be58:	991a      	ldr	r1, [sp, #104]	; 0x68
    be5a:	9302      	str	r3, [sp, #8]
    be5c:	f7fe ff54 	bl	ad08 <_Bfree>
    be60:	9b02      	ldr	r3, [sp, #8]
    be62:	931a      	str	r3, [sp, #104]	; 0x68
    be64:	e775      	b.n	bd52 <_strtod_r+0x712>
    be66:	4648      	mov	r0, r9
    be68:	991a      	ldr	r1, [sp, #104]	; 0x68
    be6a:	4632      	mov	r2, r6
    be6c:	f7ff f91c 	bl	b0a8 <__lshift>
    be70:	901a      	str	r0, [sp, #104]	; 0x68
    be72:	2800      	cmp	r0, #0
    be74:	f47f af70 	bne.w	bd58 <_strtod_r+0x718>
    be78:	e63a      	b.n	baf0 <_strtod_r+0x4b0>
    be7a:	4648      	mov	r0, r9
    be7c:	9905      	ldr	r1, [sp, #20]
    be7e:	463a      	mov	r2, r7
    be80:	f7ff f8c4 	bl	b00c <__pow5mult>
    be84:	9005      	str	r0, [sp, #20]
    be86:	2800      	cmp	r0, #0
    be88:	f47f af69 	bne.w	bd5e <_strtod_r+0x71e>
    be8c:	e630      	b.n	baf0 <_strtod_r+0x4b0>
    be8e:	4648      	mov	r0, r9
    be90:	9905      	ldr	r1, [sp, #20]
    be92:	462a      	mov	r2, r5
    be94:	f7ff f908 	bl	b0a8 <__lshift>
    be98:	9005      	str	r0, [sp, #20]
    be9a:	2800      	cmp	r0, #0
    be9c:	f47f af62 	bne.w	bd64 <_strtod_r+0x724>
    bea0:	e626      	b.n	baf0 <_strtod_r+0x4b0>
    bea2:	4648      	mov	r0, r9
    bea4:	9903      	ldr	r1, [sp, #12]
    bea6:	4622      	mov	r2, r4
    bea8:	f7ff f8fe 	bl	b0a8 <__lshift>
    beac:	9003      	str	r0, [sp, #12]
    beae:	2800      	cmp	r0, #0
    beb0:	f47f af5b 	bne.w	bd6a <_strtod_r+0x72a>
    beb4:	e61c      	b.n	baf0 <_strtod_r+0x4b0>
    beb6:	f8d8 3010 	ldr.w	r3, [r8, #16]
    beba:	2b01      	cmp	r3, #1
    bebc:	dc80      	bgt.n	bdc0 <_strtod_r+0x780>
    bebe:	e18a      	b.n	c1d6 <_strtod_r+0xb96>
    bec0:	d163      	bne.n	bf8a <_strtod_r+0x94a>
    bec2:	9f08      	ldr	r7, [sp, #32]
    bec4:	f3cb 0313 	ubfx	r3, r11, #0, #20
    bec8:	b32f      	cbz	r7, bf16 <_strtod_r+0x8d6>
    beca:	4958      	ldr	r1, [pc, #352]	; (c02c <_strtod_r+0x9ec>)
    becc:	465a      	mov	r2, r11
    bece:	428b      	cmp	r3, r1
    bed0:	d12f      	bne.n	bf32 <_strtod_r+0x8f2>
    bed2:	9e04      	ldr	r6, [sp, #16]
    bed4:	4651      	mov	r1, r10
    bed6:	b16e      	cbz	r6, bef4 <_strtod_r+0x8b4>
    bed8:	4b55      	ldr	r3, [pc, #340]	; (c030 <_strtod_r+0x9f0>)
    beda:	ea0b 0303 	and.w	r3, r11, r3
    bede:	f1b3 6fd4 	cmp.w	r3, #111149056	; 0x6a00000
    bee2:	d807      	bhi.n	bef4 <_strtod_r+0x8b4>
    bee4:	0d1b      	lsrs	r3, r3, #20
    bee6:	f1c3 036b 	rsb	r3, r3, #107	; 0x6b
    beea:	f04f 30ff 	mov.w	r0, #4294967295
    beee:	fa00 f303 	lsl.w	r3, r0, r3
    bef2:	e001      	b.n	bef8 <_strtod_r+0x8b8>
    bef4:	f04f 33ff 	mov.w	r3, #4294967295
    bef8:	4299      	cmp	r1, r3
    befa:	d11a      	bne.n	bf32 <_strtod_r+0x8f2>
    befc:	4b4d      	ldr	r3, [pc, #308]	; (c034 <_strtod_r+0x9f4>)
    befe:	429a      	cmp	r2, r3
    bf00:	d102      	bne.n	bf08 <_strtod_r+0x8c8>
    bf02:	3101      	adds	r1, #1
    bf04:	f43f adf4 	beq.w	baf0 <_strtod_r+0x4b0>
    bf08:	4b49      	ldr	r3, [pc, #292]	; (c030 <_strtod_r+0x9f0>)
    bf0a:	f04f 0a00 	mov.w	r10, #0
    bf0e:	4013      	ands	r3, r2
    bf10:	f503 1b80 	add.w	r11, r3, #1048576	; 0x100000
    bf14:	e15f      	b.n	c1d6 <_strtod_r+0xb96>
    bf16:	b963      	cbnz	r3, bf32 <_strtod_r+0x8f2>
    bf18:	f1ba 0f00 	cmp.w	r10, #0
    bf1c:	d109      	bne.n	bf32 <_strtod_r+0x8f2>
    bf1e:	e75b      	b.n	bdd8 <_strtod_r+0x798>
    bf20:	f5a3 1380 	sub.w	r3, r3, #1048576	; 0x100000
    bf24:	ea6f 5b13 	mvn.w	r11, r3, lsr #20
    bf28:	ea6f 5b0b 	mvn.w	r11, r11, lsl #20
    bf2c:	f04f 3aff 	mov.w	r10, #4294967295
    bf30:	e151      	b.n	c1d6 <_strtod_r+0xb96>
    bf32:	9b0f      	ldr	r3, [sp, #60]	; 0x3c
    bf34:	b113      	cbz	r3, bf3c <_strtod_r+0x8fc>
    bf36:	ea13 0f0b 	tst.w	r3, r11
    bf3a:	e002      	b.n	bf42 <_strtod_r+0x902>
    bf3c:	9e14      	ldr	r6, [sp, #80]	; 0x50
    bf3e:	ea16 0f0a 	tst.w	r6, r10
    bf42:	f000 8148 	beq.w	c1d6 <_strtod_r+0xb96>
    bf46:	9f08      	ldr	r7, [sp, #32]
    bf48:	4650      	mov	r0, r10
    bf4a:	4659      	mov	r1, r11
    bf4c:	9a04      	ldr	r2, [sp, #16]
    bf4e:	b157      	cbz	r7, bf66 <_strtod_r+0x926>
    bf50:	f7ff fb56 	bl	b600 <sulp>
    bf54:	4602      	mov	r2, r0
    bf56:	460b      	mov	r3, r1
    bf58:	e9dd 010a 	ldrd	r0, r1, [sp, #40]	; 0x28
    bf5c:	f7fa fc9e 	bl	689c <__adddf3>
    bf60:	4682      	mov	r10, r0
    bf62:	468b      	mov	r11, r1
    bf64:	e137      	b.n	c1d6 <_strtod_r+0xb96>
    bf66:	f7ff fb4b 	bl	b600 <sulp>
    bf6a:	4602      	mov	r2, r0
    bf6c:	460b      	mov	r3, r1
    bf6e:	e9dd 010a 	ldrd	r0, r1, [sp, #40]	; 0x28
    bf72:	f7fa fc91 	bl	6898 <__aeabi_dsub>
    bf76:	2200      	movs	r2, #0
    bf78:	2300      	movs	r3, #0
    bf7a:	4682      	mov	r10, r0
    bf7c:	468b      	mov	r11, r1
    bf7e:	f000 fdf1 	bl	cb64 <__aeabi_dcmpeq>
    bf82:	2800      	cmp	r0, #0
    bf84:	f47f af38 	bne.w	bdf8 <_strtod_r+0x7b8>
    bf88:	e125      	b.n	c1d6 <_strtod_r+0xb96>
    bf8a:	4640      	mov	r0, r8
    bf8c:	9903      	ldr	r1, [sp, #12]
    bf8e:	f7ff fa22 	bl	b3d6 <__ratio>
    bf92:	2200      	movs	r2, #0
    bf94:	f04f 4380 	mov.w	r3, #1073741824	; 0x40000000
    bf98:	4604      	mov	r4, r0
    bf9a:	460d      	mov	r5, r1
    bf9c:	f000 fdf6 	bl	cb8c <__aeabi_dcmple>
    bfa0:	2800      	cmp	r0, #0
    bfa2:	d032      	beq.n	c00a <_strtod_r+0x9ca>
    bfa4:	9e08      	ldr	r6, [sp, #32]
    bfa6:	b126      	cbz	r6, bfb2 <_strtod_r+0x972>
    bfa8:	4f23      	ldr	r7, [pc, #140]	; (c038 <_strtod_r+0x9f8>)
    bfaa:	2600      	movs	r6, #0
    bfac:	4634      	mov	r4, r6
    bfae:	463d      	mov	r5, r7
    bfb0:	e04c      	b.n	c04c <_strtod_r+0xa0c>
    bfb2:	f1ba 0f00 	cmp.w	r10, #0
    bfb6:	d103      	bne.n	bfc0 <_strtod_r+0x980>
    bfb8:	f3cb 0313 	ubfx	r3, r11, #0, #20
    bfbc:	b93b      	cbnz	r3, bfce <_strtod_r+0x98e>
    bfbe:	e00b      	b.n	bfd8 <_strtod_r+0x998>
    bfc0:	f1ba 0f01 	cmp.w	r10, #1
    bfc4:	d103      	bne.n	bfce <_strtod_r+0x98e>
    bfc6:	f1bb 0f00 	cmp.w	r11, #0
    bfca:	f43f af15 	beq.w	bdf8 <_strtod_r+0x7b8>
    bfce:	2600      	movs	r6, #0
    bfd0:	4f1a      	ldr	r7, [pc, #104]	; (c03c <_strtod_r+0x9fc>)
    bfd2:	2400      	movs	r4, #0
    bfd4:	4d18      	ldr	r5, [pc, #96]	; (c038 <_strtod_r+0x9f8>)
    bfd6:	e039      	b.n	c04c <_strtod_r+0xa0c>
    bfd8:	4620      	mov	r0, r4
    bfda:	4629      	mov	r1, r5
    bfdc:	2200      	movs	r2, #0
    bfde:	4b16      	ldr	r3, [pc, #88]	; (c038 <_strtod_r+0x9f8>)
    bfe0:	f000 fdca 	bl	cb78 <__aeabi_dcmplt>
    bfe4:	b940      	cbnz	r0, bff8 <_strtod_r+0x9b8>
    bfe6:	4620      	mov	r0, r4
    bfe8:	4629      	mov	r1, r5
    bfea:	2200      	movs	r2, #0
    bfec:	4b14      	ldr	r3, [pc, #80]	; (c040 <_strtod_r+0xa00>)
    bfee:	f7fa fe07 	bl	6c00 <__aeabi_dmul>
    bff2:	4604      	mov	r4, r0
    bff4:	460d      	mov	r5, r1
    bff6:	e001      	b.n	bffc <_strtod_r+0x9bc>
    bff8:	4d11      	ldr	r5, [pc, #68]	; (c040 <_strtod_r+0xa00>)
    bffa:	2400      	movs	r4, #0
    bffc:	f105 4700 	add.w	r7, r5, #2147483648	; 0x80000000
    c000:	9416      	str	r4, [sp, #88]	; 0x58
    c002:	9717      	str	r7, [sp, #92]	; 0x5c
    c004:	e9dd 6716 	ldrd	r6, r7, [sp, #88]	; 0x58
    c008:	e020      	b.n	c04c <_strtod_r+0xa0c>
    c00a:	4620      	mov	r0, r4
    c00c:	4629      	mov	r1, r5
    c00e:	2200      	movs	r2, #0
    c010:	4b0b      	ldr	r3, [pc, #44]	; (c040 <_strtod_r+0xa00>)
    c012:	f7fa fdf5 	bl	6c00 <__aeabi_dmul>
    c016:	9e08      	ldr	r6, [sp, #32]
    c018:	4604      	mov	r4, r0
    c01a:	460d      	mov	r5, r1
    c01c:	b996      	cbnz	r6, c044 <_strtod_r+0xa04>
    c01e:	f101 4700 	add.w	r7, r1, #2147483648	; 0x80000000
    c022:	9010      	str	r0, [sp, #64]	; 0x40
    c024:	9711      	str	r7, [sp, #68]	; 0x44
    c026:	e00f      	b.n	c048 <_strtod_r+0xa08>
    c028:	fffffbe3 	.word	0xfffffbe3
    c02c:	000fffff 	.word	0x000fffff
    c030:	7ff00000 	.word	0x7ff00000
    c034:	7fefffff 	.word	0x7fefffff
    c038:	3ff00000 	.word	0x3ff00000
    c03c:	bff00000 	.word	0xbff00000
    c040:	3fe00000 	.word	0x3fe00000
    c044:	e9cd 4510 	strd	r4, r5, [sp, #64]	; 0x40
    c048:	e9dd 6710 	ldrd	r6, r7, [sp, #64]	; 0x40
    c04c:	f02b 4c00 	bic.w	r12, r11, #2147483648	; 0x80000000
    c050:	ea4f 5c1c 	mov.w	r12, r12, lsr #20
    c054:	4b84      	ldr	r3, [pc, #528]	; (c268 <_strtod_r+0xc28>)
    c056:	ea4f 5c0c 	mov.w	r12, r12, lsl #20
    c05a:	459c      	cmp	r12, r3
    c05c:	d131      	bne.n	c0c2 <_strtod_r+0xa82>
    c05e:	e9dd 010a 	ldrd	r0, r1, [sp, #40]	; 0x28
    c062:	f1ab 7b54 	sub.w	r11, r11, #55574528	; 0x3500000
    c066:	e9cd 010c 	strd	r0, r1, [sp, #48]	; 0x30
    c06a:	4650      	mov	r0, r10
    c06c:	4659      	mov	r1, r11
    c06e:	f8cd c008 	str.w	r12, [sp, #8]
    c072:	f7ff f8e9 	bl	b248 <__ulp>
    c076:	4602      	mov	r2, r0
    c078:	460b      	mov	r3, r1
    c07a:	4630      	mov	r0, r6
    c07c:	4639      	mov	r1, r7
    c07e:	f7fa fdbf 	bl	6c00 <__aeabi_dmul>
    c082:	4602      	mov	r2, r0
    c084:	460b      	mov	r3, r1
    c086:	4650      	mov	r0, r10
    c088:	4659      	mov	r1, r11
    c08a:	f7fa fc07 	bl	689c <__adddf3>
    c08e:	f021 4300 	bic.w	r3, r1, #2147483648	; 0x80000000
    c092:	0d1b      	lsrs	r3, r3, #20
    c094:	4a75      	ldr	r2, [pc, #468]	; (c26c <_strtod_r+0xc2c>)
    c096:	051b      	lsls	r3, r3, #20
    c098:	4293      	cmp	r3, r2
    c09a:	4682      	mov	r10, r0
    c09c:	f8dd c008 	ldr.w	r12, [sp, #8]
    c0a0:	d90c      	bls.n	c0bc <_strtod_r+0xa7c>
    c0a2:	4b73      	ldr	r3, [pc, #460]	; (c270 <_strtod_r+0xc30>)
    c0a4:	990d      	ldr	r1, [sp, #52]	; 0x34
    c0a6:	4299      	cmp	r1, r3
    c0a8:	d103      	bne.n	c0b2 <_strtod_r+0xa72>
    c0aa:	9a0c      	ldr	r2, [sp, #48]	; 0x30
    c0ac:	3201      	adds	r2, #1
    c0ae:	f43f ad1f 	beq.w	baf0 <_strtod_r+0x4b0>
    c0b2:	f8df b1bc 	ldr.w	r11, [pc, #444]	; c270 <_strtod_r+0xc30>
    c0b6:	f04f 3aff 	mov.w	r10, #4294967295
    c0ba:	e07b      	b.n	c1b4 <_strtod_r+0xb74>
    c0bc:	f101 7b54 	add.w	r11, r1, #55574528	; 0x3500000
    c0c0:	e042      	b.n	c148 <_strtod_r+0xb08>
    c0c2:	9b04      	ldr	r3, [sp, #16]
    c0c4:	b353      	cbz	r3, c11c <_strtod_r+0xadc>
    c0c6:	f1bc 6fd4 	cmp.w	r12, #111149056	; 0x6a00000
    c0ca:	d827      	bhi.n	c11c <_strtod_r+0xadc>
    c0cc:	a35e      	add	r3, pc, #376	; (adr r3, c248 <_strtod_r+0xc08>)
    c0ce:	e9d3 2300 	ldrd	r2, r3, [r3]
    c0d2:	4620      	mov	r0, r4
    c0d4:	4629      	mov	r1, r5
    c0d6:	f8cd c008 	str.w	r12, [sp, #8]
    c0da:	f000 fd57 	bl	cb8c <__aeabi_dcmple>
    c0de:	f8dd c008 	ldr.w	r12, [sp, #8]
    c0e2:	b1b8      	cbz	r0, c114 <_strtod_r+0xad4>
    c0e4:	4629      	mov	r1, r5
    c0e6:	4620      	mov	r0, r4
    c0e8:	f000 fd6e 	bl	cbc8 <__aeabi_d2uiz>
    c0ec:	2800      	cmp	r0, #0
    c0ee:	bf08      	it	eq
    c0f0:	2001      	moveq	r0, #1
    c0f2:	f7fa fd0f 	bl	6b14 <__aeabi_ui2d>
    c0f6:	9e08      	ldr	r6, [sp, #32]
    c0f8:	4604      	mov	r4, r0
    c0fa:	460d      	mov	r5, r1
    c0fc:	f8dd c008 	ldr.w	r12, [sp, #8]
    c100:	b926      	cbnz	r6, c10c <_strtod_r+0xacc>
    c102:	f101 4700 	add.w	r7, r1, #2147483648	; 0x80000000
    c106:	9012      	str	r0, [sp, #72]	; 0x48
    c108:	9713      	str	r7, [sp, #76]	; 0x4c
    c10a:	e001      	b.n	c110 <_strtod_r+0xad0>
    c10c:	e9cd 4512 	strd	r4, r5, [sp, #72]	; 0x48
    c110:	e9dd 6712 	ldrd	r6, r7, [sp, #72]	; 0x48
    c114:	f107 63d6 	add.w	r3, r7, #112197632	; 0x6b00000
    c118:	ebcc 0703 	rsb	r7, r12, r3
    c11c:	e9dd 010a 	ldrd	r0, r1, [sp, #40]	; 0x28
    c120:	f8cd c008 	str.w	r12, [sp, #8]
    c124:	f7ff f890 	bl	b248 <__ulp>
    c128:	4602      	mov	r2, r0
    c12a:	460b      	mov	r3, r1
    c12c:	4630      	mov	r0, r6
    c12e:	4639      	mov	r1, r7
    c130:	f7fa fd66 	bl	6c00 <__aeabi_dmul>
    c134:	4602      	mov	r2, r0
    c136:	460b      	mov	r3, r1
    c138:	e9dd 010a 	ldrd	r0, r1, [sp, #40]	; 0x28
    c13c:	f7fa fbae 	bl	689c <__adddf3>
    c140:	f8dd c008 	ldr.w	r12, [sp, #8]
    c144:	4682      	mov	r10, r0
    c146:	468b      	mov	r11, r1
    c148:	9f04      	ldr	r7, [sp, #16]
    c14a:	2f00      	cmp	r7, #0
    c14c:	d132      	bne.n	c1b4 <_strtod_r+0xb74>
    c14e:	f02b 4300 	bic.w	r3, r11, #2147483648	; 0x80000000
    c152:	0d1b      	lsrs	r3, r3, #20
    c154:	051b      	lsls	r3, r3, #20
    c156:	459c      	cmp	r12, r3
    c158:	d12c      	bne.n	c1b4 <_strtod_r+0xb74>
    c15a:	4629      	mov	r1, r5
    c15c:	4620      	mov	r0, r4
    c15e:	f7fa ff61 	bl	7024 <__aeabi_d2iz>
    c162:	f7fa fce7 	bl	6b34 <__aeabi_i2d>
    c166:	4602      	mov	r2, r0
    c168:	460b      	mov	r3, r1
    c16a:	4620      	mov	r0, r4
    c16c:	4629      	mov	r1, r5
    c16e:	f7fa fb93 	bl	6898 <__aeabi_dsub>
    c172:	9f08      	ldr	r7, [sp, #32]
    c174:	4604      	mov	r4, r0
    c176:	460d      	mov	r5, r1
    c178:	b92f      	cbnz	r7, c186 <_strtod_r+0xb46>
    c17a:	f1ba 0f00 	cmp.w	r10, #0
    c17e:	d102      	bne.n	c186 <_strtod_r+0xb46>
    c180:	f3cb 0613 	ubfx	r6, r11, #0, #20
    c184:	b186      	cbz	r6, c1a8 <_strtod_r+0xb68>
    c186:	4620      	mov	r0, r4
    c188:	4629      	mov	r1, r5
    c18a:	a331      	add	r3, pc, #196	; (adr r3, c250 <_strtod_r+0xc10>)
    c18c:	e9d3 2300 	ldrd	r2, r3, [r3]
    c190:	f000 fcf2 	bl	cb78 <__aeabi_dcmplt>
    c194:	2800      	cmp	r0, #0
    c196:	d131      	bne.n	c1fc <_strtod_r+0xbbc>
    c198:	4620      	mov	r0, r4
    c19a:	4629      	mov	r1, r5
    c19c:	a32e      	add	r3, pc, #184	; (adr r3, c258 <_strtod_r+0xc18>)
    c19e:	e9d3 2300 	ldrd	r2, r3, [r3]
    c1a2:	f000 fd07 	bl	cbb4 <__aeabi_dcmpgt>
    c1a6:	e004      	b.n	c1b2 <_strtod_r+0xb72>
    c1a8:	a32d      	add	r3, pc, #180	; (adr r3, c260 <_strtod_r+0xc20>)
    c1aa:	e9d3 2300 	ldrd	r2, r3, [r3]
    c1ae:	f000 fce3 	bl	cb78 <__aeabi_dcmplt>
    c1b2:	bb18      	cbnz	r0, c1fc <_strtod_r+0xbbc>
    c1b4:	4648      	mov	r0, r9
    c1b6:	991a      	ldr	r1, [sp, #104]	; 0x68
    c1b8:	f7fe fda6 	bl	ad08 <_Bfree>
    c1bc:	4648      	mov	r0, r9
    c1be:	9905      	ldr	r1, [sp, #20]
    c1c0:	f7fe fda2 	bl	ad08 <_Bfree>
    c1c4:	4648      	mov	r0, r9
    c1c6:	9903      	ldr	r1, [sp, #12]
    c1c8:	f7fe fd9e 	bl	ad08 <_Bfree>
    c1cc:	4648      	mov	r0, r9
    c1ce:	4641      	mov	r1, r8
    c1d0:	f7fe fd9a 	bl	ad08 <_Bfree>
    c1d4:	e561      	b.n	bc9a <_strtod_r+0x65a>
    c1d6:	9e04      	ldr	r6, [sp, #16]
    c1d8:	b186      	cbz	r6, c1fc <_strtod_r+0xbbc>
    c1da:	4f26      	ldr	r7, [pc, #152]	; (c274 <_strtod_r+0xc34>)
    c1dc:	2000      	movs	r0, #0
    c1de:	900c      	str	r0, [sp, #48]	; 0x30
    c1e0:	970d      	str	r7, [sp, #52]	; 0x34
    c1e2:	4650      	mov	r0, r10
    c1e4:	4659      	mov	r1, r11
    c1e6:	e9dd 230c 	ldrd	r2, r3, [sp, #48]	; 0x30
    c1ea:	f7fa fd09 	bl	6c00 <__aeabi_dmul>
    c1ee:	4682      	mov	r10, r0
    c1f0:	468b      	mov	r11, r1
    c1f2:	b919      	cbnz	r1, c1fc <_strtod_r+0xbbc>
    c1f4:	b910      	cbnz	r0, c1fc <_strtod_r+0xbbc>
    c1f6:	2322      	movs	r3, #34	; 0x22
    c1f8:	f8c9 3000 	str.w	r3, [r9]
    c1fc:	4648      	mov	r0, r9
    c1fe:	991a      	ldr	r1, [sp, #104]	; 0x68
    c200:	f7fe fd82 	bl	ad08 <_Bfree>
    c204:	4648      	mov	r0, r9
    c206:	9905      	ldr	r1, [sp, #20]
    c208:	f7fe fd7e 	bl	ad08 <_Bfree>
    c20c:	4648      	mov	r0, r9
    c20e:	9903      	ldr	r1, [sp, #12]
    c210:	f7fe fd7a 	bl	ad08 <_Bfree>
    c214:	4648      	mov	r0, r9
    c216:	9907      	ldr	r1, [sp, #28]
    c218:	f7fe fd76 	bl	ad08 <_Bfree>
    c21c:	4648      	mov	r0, r9
    c21e:	4641      	mov	r1, r8
    c220:	f7fe fd72 	bl	ad08 <_Bfree>
    c224:	9e15      	ldr	r6, [sp, #84]	; 0x54
    c226:	b10e      	cbz	r6, c22c <_strtod_r+0xbec>
    c228:	9b19      	ldr	r3, [sp, #100]	; 0x64
    c22a:	6033      	str	r3, [r6, #0]
    c22c:	9f09      	ldr	r7, [sp, #36]	; 0x24
    c22e:	b11f      	cbz	r7, c238 <_strtod_r+0xbf8>
    c230:	4650      	mov	r0, r10
    c232:	f10b 4100 	add.w	r1, r11, #2147483648	; 0x80000000
    c236:	e001      	b.n	c23c <_strtod_r+0xbfc>
    c238:	4650      	mov	r0, r10
    c23a:	4659      	mov	r1, r11
    c23c:	b01f      	add	sp, #124	; 0x7c
    c23e:	e8bd 8ff0 	ldmia.w	sp!, {r4, r5, r6, r7, r8, r9, r10, r11, pc}
    c242:	bf00      	nop
    c244:	f3af 8000 	nop.w
    c248:	ffc00000 	.word	0xffc00000
    c24c:	41dfffff 	.word	0x41dfffff
    c250:	94a03595 	.word	0x94a03595
    c254:	3fdfffff 	.word	0x3fdfffff
    c258:	35afe535 	.word	0x35afe535
    c25c:	3fe00000 	.word	0x3fe00000
    c260:	94a03595 	.word	0x94a03595
    c264:	3fcfffff 	.word	0x3fcfffff
    c268:	7fe00000 	.word	0x7fe00000
    c26c:	7c9fffff 	.word	0x7c9fffff
    c270:	7fefffff 	.word	0x7fefffff
    c274:	39500000 	.word	0x39500000

0000c278 <_strtol_r>:
    c278:	4684      	mov	r12, r0
    c27a:	483f      	ldr	r0, [pc, #252]	; (c378 <_strtol_r+0x100>)
    c27c:	e92d 4ff0 	stmdb	sp!, {r4, r5, r6, r7, r8, r9, r10, r11, lr}
    c280:	f8d0 8000 	ldr.w	r8, [r0]
    c284:	460e      	mov	r6, r1
    c286:	4634      	mov	r4, r6
    c288:	f814 5b01 	ldrb.w	r5, [r4], #1
    c28c:	eb08 0005 	add.w	r0, r8, r5
    c290:	7840      	ldrb	r0, [r0, #1]
    c292:	f000 0008 	and.w	r0, r0, #8
    c296:	f000 07ff 	and.w	r7, r0, #255	; 0xff
    c29a:	b108      	cbz	r0, c2a0 <_strtol_r+0x28>
    c29c:	4626      	mov	r6, r4
    c29e:	e7f2      	b.n	c286 <_strtol_r+0xe>
    c2a0:	2d2d      	cmp	r5, #45	; 0x2d
    c2a2:	d103      	bne.n	c2ac <_strtol_r+0x34>
    c2a4:	1cb4      	adds	r4, r6, #2
    c2a6:	7875      	ldrb	r5, [r6, #1]
    c2a8:	2701      	movs	r7, #1
    c2aa:	e003      	b.n	c2b4 <_strtol_r+0x3c>
    c2ac:	2d2b      	cmp	r5, #43	; 0x2b
    c2ae:	bf04      	itt	eq
    c2b0:	7875      	ldrbeq	r5, [r6, #1]
    c2b2:	1cb4      	addeq	r4, r6, #2
    c2b4:	f033 0010 	bics.w	r0, r3, #16
    c2b8:	d10d      	bne.n	c2d6 <_strtol_r+0x5e>
    c2ba:	2d30      	cmp	r5, #48	; 0x30
    c2bc:	d108      	bne.n	c2d0 <_strtol_r+0x58>
    c2be:	7820      	ldrb	r0, [r4, #0]
    c2c0:	f000 00df 	and.w	r0, r0, #223	; 0xdf
    c2c4:	2858      	cmp	r0, #88	; 0x58
    c2c6:	d151      	bne.n	c36c <_strtol_r+0xf4>
    c2c8:	7865      	ldrb	r5, [r4, #1]
    c2ca:	2310      	movs	r3, #16
    c2cc:	3402      	adds	r4, #2
    c2ce:	e002      	b.n	c2d6 <_strtol_r+0x5e>
    c2d0:	2b00      	cmp	r3, #0
    c2d2:	bf08      	it	eq
    c2d4:	230a      	moveq	r3, #10
    c2d6:	2f00      	cmp	r7, #0
    c2d8:	bf0c      	ite	eq
    c2da:	f06f 4a00 	mvneq.w	r10, #2147483648	; 0x80000000
    c2de:	f04f 4a00 	movne.w	r10, #2147483648	; 0x80000000
    c2e2:	fbba f9f3 	udiv	r9, r10, r3
    c2e6:	fb03 aa19 	mls	r10, r3, r9, r10
    c2ea:	2600      	movs	r6, #0
    c2ec:	4630      	mov	r0, r6
    c2ee:	eb08 0b05 	add.w	r11, r8, r5
    c2f2:	f89b b001 	ldrb.w	r11, [r11, #1]
    c2f6:	f01b 0f04 	tst.w	r11, #4
    c2fa:	d001      	beq.n	c300 <_strtol_r+0x88>
    c2fc:	3d30      	subs	r5, #48	; 0x30
    c2fe:	e00b      	b.n	c318 <_strtol_r+0xa0>
    c300:	f01b 0b03 	ands.w	r11, r11, #3
    c304:	d01b      	beq.n	c33e <_strtol_r+0xc6>
    c306:	f1bb 0f01 	cmp.w	r11, #1
    c30a:	bf14      	ite	ne
    c30c:	f04f 0b57 	movne.w	r11, #87	; 0x57
    c310:	f04f 0b37 	moveq.w	r11, #55	; 0x37
    c314:	ebcb 0505 	rsb	r5, r11, r5
    c318:	429d      	cmp	r5, r3
    c31a:	da10      	bge.n	c33e <_strtol_r+0xc6>
    c31c:	f1b6 3fff 	cmp.w	r6, #4294967295
    c320:	d00a      	beq.n	c338 <_strtol_r+0xc0>
    c322:	4548      	cmp	r0, r9
    c324:	d806      	bhi.n	c334 <_strtol_r+0xbc>
    c326:	d101      	bne.n	c32c <_strtol_r+0xb4>
    c328:	4555      	cmp	r5, r10
    c32a:	dc03      	bgt.n	c334 <_strtol_r+0xbc>
    c32c:	fb03 5000 	mla	r0, r3, r0, r5
    c330:	2601      	movs	r6, #1
    c332:	e001      	b.n	c338 <_strtol_r+0xc0>
    c334:	f04f 36ff 	mov.w	r6, #4294967295
    c338:	f814 5b01 	ldrb.w	r5, [r4], #1
    c33c:	e7d7      	b.n	c2ee <_strtol_r+0x76>
    c33e:	1c73      	adds	r3, r6, #1
    c340:	d10c      	bne.n	c35c <_strtol_r+0xe4>
    c342:	2f00      	cmp	r7, #0
    c344:	f04f 0322 	mov.w	r3, #34	; 0x22
    c348:	bf0c      	ite	eq
    c34a:	f06f 4000 	mvneq.w	r0, #2147483648	; 0x80000000
    c34e:	f04f 4000 	movne.w	r0, #2147483648	; 0x80000000
    c352:	f8cc 3000 	str.w	r3, [r12]
    c356:	b92a      	cbnz	r2, c364 <_strtol_r+0xec>
    c358:	e8bd 8ff0 	ldmia.w	sp!, {r4, r5, r6, r7, r8, r9, r10, r11, pc}
    c35c:	b107      	cbz	r7, c360 <_strtol_r+0xe8>
    c35e:	4240      	negs	r0, r0
    c360:	b142      	cbz	r2, c374 <_strtol_r+0xfc>
    c362:	b106      	cbz	r6, c366 <_strtol_r+0xee>
    c364:	1e61      	subs	r1, r4, #1
    c366:	6011      	str	r1, [r2, #0]
    c368:	e8bd 8ff0 	ldmia.w	sp!, {r4, r5, r6, r7, r8, r9, r10, r11, pc}
    c36c:	2b00      	cmp	r3, #0
    c36e:	bf08      	it	eq
    c370:	2308      	moveq	r3, #8
    c372:	e7b0      	b.n	c2d6 <_strtol_r+0x5e>
    c374:	e8bd 8ff0 	ldmia.w	sp!, {r4, r5, r6, r7, r8, r9, r10, r11, pc}
    c378:	10000140 	.word	0x10000140

0000c37c <_strtoul_r>:
    c37c:	4684      	mov	r12, r0
    c37e:	483a      	ldr	r0, [pc, #232]	; (c468 <_strtoul_r+0xec>)
    c380:	e92d 4ff0 	stmdb	sp!, {r4, r5, r6, r7, r8, r9, r10, r11, lr}
    c384:	f8d0 8000 	ldr.w	r8, [r0]
    c388:	460e      	mov	r6, r1
    c38a:	4634      	mov	r4, r6
    c38c:	f814 5b01 	ldrb.w	r5, [r4], #1
    c390:	eb08 0005 	add.w	r0, r8, r5
    c394:	7840      	ldrb	r0, [r0, #1]
    c396:	f000 0008 	and.w	r0, r0, #8
    c39a:	f000 07ff 	and.w	r7, r0, #255	; 0xff
    c39e:	b108      	cbz	r0, c3a4 <_strtoul_r+0x28>
    c3a0:	4626      	mov	r6, r4
    c3a2:	e7f2      	b.n	c38a <_strtoul_r+0xe>
    c3a4:	2d2d      	cmp	r5, #45	; 0x2d
    c3a6:	d103      	bne.n	c3b0 <_strtoul_r+0x34>
    c3a8:	1cb4      	adds	r4, r6, #2
    c3aa:	7875      	ldrb	r5, [r6, #1]
    c3ac:	2701      	movs	r7, #1
    c3ae:	e003      	b.n	c3b8 <_strtoul_r+0x3c>
    c3b0:	2d2b      	cmp	r5, #43	; 0x2b
    c3b2:	bf04      	itt	eq
    c3b4:	7875      	ldrbeq	r5, [r6, #1]
    c3b6:	1cb4      	addeq	r4, r6, #2
    c3b8:	f033 0010 	bics.w	r0, r3, #16
    c3bc:	d10d      	bne.n	c3da <_strtoul_r+0x5e>
    c3be:	2d30      	cmp	r5, #48	; 0x30
    c3c0:	d108      	bne.n	c3d4 <_strtoul_r+0x58>
    c3c2:	7820      	ldrb	r0, [r4, #0]
    c3c4:	f000 00df 	and.w	r0, r0, #223	; 0xdf
    c3c8:	2858      	cmp	r0, #88	; 0x58
    c3ca:	d147      	bne.n	c45c <_strtoul_r+0xe0>
    c3cc:	7865      	ldrb	r5, [r4, #1]
    c3ce:	2310      	movs	r3, #16
    c3d0:	3402      	adds	r4, #2
    c3d2:	e002      	b.n	c3da <_strtoul_r+0x5e>
    c3d4:	2b00      	cmp	r3, #0
    c3d6:	bf08      	it	eq
    c3d8:	230a      	moveq	r3, #10
    c3da:	f04f 39ff 	mov.w	r9, #4294967295
    c3de:	fbb9 f9f3 	udiv	r9, r9, r3
    c3e2:	fb03 fa09 	mul.w	r10, r3, r9
    c3e6:	2600      	movs	r6, #0
    c3e8:	ea6f 0a0a 	mvn.w	r10, r10
    c3ec:	4630      	mov	r0, r6
    c3ee:	eb08 0b05 	add.w	r11, r8, r5
    c3f2:	f89b b001 	ldrb.w	r11, [r11, #1]
    c3f6:	f01b 0f04 	tst.w	r11, #4
    c3fa:	d001      	beq.n	c400 <_strtoul_r+0x84>
    c3fc:	3d30      	subs	r5, #48	; 0x30
    c3fe:	e00b      	b.n	c418 <_strtoul_r+0x9c>
    c400:	f01b 0b03 	ands.w	r11, r11, #3
    c404:	d01a      	beq.n	c43c <_strtoul_r+0xc0>
    c406:	f1bb 0f01 	cmp.w	r11, #1
    c40a:	bf14      	ite	ne
    c40c:	f04f 0b57 	movne.w	r11, #87	; 0x57
    c410:	f04f 0b37 	moveq.w	r11, #55	; 0x37
    c414:	ebcb 0505 	rsb	r5, r11, r5
    c418:	429d      	cmp	r5, r3
    c41a:	da0f      	bge.n	c43c <_strtoul_r+0xc0>
    c41c:	2e00      	cmp	r6, #0
    c41e:	db08      	blt.n	c432 <_strtoul_r+0xb6>
    c420:	4548      	cmp	r0, r9
    c422:	d806      	bhi.n	c432 <_strtoul_r+0xb6>
    c424:	d101      	bne.n	c42a <_strtoul_r+0xae>
    c426:	4555      	cmp	r5, r10
    c428:	dc03      	bgt.n	c432 <_strtoul_r+0xb6>
    c42a:	fb03 5000 	mla	r0, r3, r0, r5
    c42e:	2601      	movs	r6, #1
    c430:	e001      	b.n	c436 <_strtoul_r+0xba>
    c432:	f04f 36ff 	mov.w	r6, #4294967295
    c436:	f814 5b01 	ldrb.w	r5, [r4], #1
    c43a:	e7d8      	b.n	c3ee <_strtoul_r+0x72>
    c43c:	2e00      	cmp	r6, #0
    c43e:	da05      	bge.n	c44c <_strtoul_r+0xd0>
    c440:	2322      	movs	r3, #34	; 0x22
    c442:	f8cc 3000 	str.w	r3, [r12]
    c446:	f04f 30ff 	mov.w	r0, #4294967295
    c44a:	e001      	b.n	c450 <_strtoul_r+0xd4>
    c44c:	b107      	cbz	r7, c450 <_strtoul_r+0xd4>
    c44e:	4240      	negs	r0, r0
    c450:	b142      	cbz	r2, c464 <_strtoul_r+0xe8>
    c452:	b106      	cbz	r6, c456 <_strtoul_r+0xda>
    c454:	1e61      	subs	r1, r4, #1
    c456:	6011      	str	r1, [r2, #0]
    c458:	e8bd 8ff0 	ldmia.w	sp!, {r4, r5, r6, r7, r8, r9, r10, r11, pc}
    c45c:	2b00      	cmp	r3, #0
    c45e:	bf08      	it	eq
    c460:	2308      	moveq	r3, #8
    c462:	e7ba      	b.n	c3da <_strtoul_r+0x5e>
    c464:	e8bd 8ff0 	ldmia.w	sp!, {r4, r5, r6, r7, r8, r9, r10, r11, pc}
    c468:	10000140 	.word	0x10000140

0000c46c <rshift>:
    c46c:	b5f0      	push	{r4, r5, r6, r7, lr}
    c46e:	6906      	ldr	r6, [r0, #16]
    c470:	114b      	asrs	r3, r1, #5
    c472:	42b3      	cmp	r3, r6
    c474:	f100 0214 	add.w	r2, r0, #20
    c478:	da26      	bge.n	c4c8 <rshift+0x5c>
    c47a:	f011 011f 	ands.w	r1, r1, #31
    c47e:	eb02 0686 	add.w	r6, r2, r6, lsl #2
    c482:	eb02 0483 	add.w	r4, r2, r3, lsl #2
    c486:	d101      	bne.n	c48c <rshift+0x20>
    c488:	4613      	mov	r3, r2
    c48a:	e016      	b.n	c4ba <rshift+0x4e>
    c48c:	f852 5023 	ldr.w	r5, [r2, r3, lsl #2]
    c490:	f1c1 0c20 	rsb	r12, r1, #32
    c494:	40cd      	lsrs	r5, r1
    c496:	3404      	adds	r4, #4
    c498:	4613      	mov	r3, r2
    c49a:	42b4      	cmp	r4, r6
    c49c:	d209      	bcs.n	c4b2 <rshift+0x46>
    c49e:	6827      	ldr	r7, [r4, #0]
    c4a0:	fa07 f70c 	lsl.w	r7, r7, r12
    c4a4:	433d      	orrs	r5, r7
    c4a6:	f843 5b04 	str.w	r5, [r3], #4
    c4aa:	f854 5b04 	ldr.w	r5, [r4], #4
    c4ae:	40cd      	lsrs	r5, r1
    c4b0:	e7f3      	b.n	c49a <rshift+0x2e>
    c4b2:	601d      	str	r5, [r3, #0]
    c4b4:	b14d      	cbz	r5, c4ca <rshift+0x5e>
    c4b6:	3304      	adds	r3, #4
    c4b8:	e007      	b.n	c4ca <rshift+0x5e>
    c4ba:	42b4      	cmp	r4, r6
    c4bc:	d205      	bcs.n	c4ca <rshift+0x5e>
    c4be:	f854 1b04 	ldr.w	r1, [r4], #4
    c4c2:	f843 1b04 	str.w	r1, [r3], #4
    c4c6:	e7f8      	b.n	c4ba <rshift+0x4e>
    c4c8:	4613      	mov	r3, r2
    c4ca:	1a9b      	subs	r3, r3, r2
    c4cc:	109b      	asrs	r3, r3, #2
    c4ce:	6103      	str	r3, [r0, #16]
    c4d0:	b903      	cbnz	r3, c4d4 <rshift+0x68>
    c4d2:	6143      	str	r3, [r0, #20]
    c4d4:	bdf0      	pop	{r4, r5, r6, r7, pc}

0000c4d6 <__hexdig_fun>:
    c4d6:	f1a0 0330 	sub.w	r3, r0, #48	; 0x30
    c4da:	2b09      	cmp	r3, #9
    c4dc:	d801      	bhi.n	c4e2 <__hexdig_fun+0xc>
    c4de:	3820      	subs	r0, #32
    c4e0:	e00a      	b.n	c4f8 <__hexdig_fun+0x22>
    c4e2:	f1a0 0361 	sub.w	r3, r0, #97	; 0x61
    c4e6:	2b05      	cmp	r3, #5
    c4e8:	d801      	bhi.n	c4ee <__hexdig_fun+0x18>
    c4ea:	3847      	subs	r0, #71	; 0x47
    c4ec:	e004      	b.n	c4f8 <__hexdig_fun+0x22>
    c4ee:	f1a0 0341 	sub.w	r3, r0, #65	; 0x41
    c4f2:	2b05      	cmp	r3, #5
    c4f4:	d802      	bhi.n	c4fc <__hexdig_fun+0x26>
    c4f6:	3827      	subs	r0, #39	; 0x27
    c4f8:	b2c0      	uxtb	r0, r0
    c4fa:	4770      	bx	lr
    c4fc:	2000      	movs	r0, #0
    c4fe:	4770      	bx	lr

0000c500 <__gethex>:
    c500:	e92d 4ff0 	stmdb	sp!, {r4, r5, r6, r7, r8, r9, r10, r11, lr}
    c504:	b089      	sub	sp, #36	; 0x24
    c506:	9105      	str	r1, [sp, #20]
    c508:	9306      	str	r3, [sp, #24]
    c50a:	4690      	mov	r8, r2
    c50c:	9003      	str	r0, [sp, #12]
    c50e:	f7fe fb95 	bl	ac3c <_localeconv_r>
    c512:	6800      	ldr	r0, [r0, #0]
    c514:	f04f 0b00 	mov.w	r11, #0
    c518:	9004      	str	r0, [sp, #16]
    c51a:	f7fb fffc 	bl	8516 <strlen>
    c51e:	9b04      	ldr	r3, [sp, #16]
    c520:	9905      	ldr	r1, [sp, #20]
    c522:	4403      	add	r3, r0
    c524:	f813 3c01 	ldrb.w	r3, [r3, #-1]
    c528:	9002      	str	r0, [sp, #8]
    c52a:	9307      	str	r3, [sp, #28]
    c52c:	680b      	ldr	r3, [r1, #0]
    c52e:	3302      	adds	r3, #2
    c530:	461f      	mov	r7, r3
    c532:	f813 0b01 	ldrb.w	r0, [r3], #1
    c536:	2830      	cmp	r0, #48	; 0x30
    c538:	d102      	bne.n	c540 <__gethex+0x40>
    c53a:	f10b 0b01 	add.w	r11, r11, #1
    c53e:	e7f7      	b.n	c530 <__gethex+0x30>
    c540:	f7ff ffc9 	bl	c4d6 <__hexdig_fun>
    c544:	4606      	mov	r6, r0
    c546:	b9f8      	cbnz	r0, c588 <__gethex+0x88>
    c548:	4638      	mov	r0, r7
    c54a:	9904      	ldr	r1, [sp, #16]
    c54c:	9a02      	ldr	r2, [sp, #8]
    c54e:	f7fb ffea 	bl	8526 <strncmp>
    c552:	2800      	cmp	r0, #0
    c554:	d139      	bne.n	c5ca <__gethex+0xca>
    c556:	9b02      	ldr	r3, [sp, #8]
    c558:	9d02      	ldr	r5, [sp, #8]
    c55a:	5cf8      	ldrb	r0, [r7, r3]
    c55c:	443d      	add	r5, r7
    c55e:	f7ff ffba 	bl	c4d6 <__hexdig_fun>
    c562:	2800      	cmp	r0, #0
    c564:	d033      	beq.n	c5ce <__gethex+0xce>
    c566:	462b      	mov	r3, r5
    c568:	7818      	ldrb	r0, [r3, #0]
    c56a:	461f      	mov	r7, r3
    c56c:	2830      	cmp	r0, #48	; 0x30
    c56e:	f103 0301 	add.w	r3, r3, #1
    c572:	d0f9      	beq.n	c568 <__gethex+0x68>
    c574:	f7ff ffaf 	bl	c4d6 <__hexdig_fun>
    c578:	f1d0 0401 	rsbs	r4, r0, #1
    c57c:	bf38      	it	cc
    c57e:	2400      	movcc	r4, #0
    c580:	462e      	mov	r6, r5
    c582:	f04f 0b01 	mov.w	r11, #1
    c586:	e001      	b.n	c58c <__gethex+0x8c>
    c588:	2400      	movs	r4, #0
    c58a:	4626      	mov	r6, r4
    c58c:	46b9      	mov	r9, r7
    c58e:	464d      	mov	r5, r9
    c590:	7828      	ldrb	r0, [r5, #0]
    c592:	f109 0901 	add.w	r9, r9, #1
    c596:	f7ff ff9e 	bl	c4d6 <__hexdig_fun>
    c59a:	2800      	cmp	r0, #0
    c59c:	d1f7      	bne.n	c58e <__gethex+0x8e>
    c59e:	4628      	mov	r0, r5
    c5a0:	9904      	ldr	r1, [sp, #16]
    c5a2:	9a02      	ldr	r2, [sp, #8]
    c5a4:	f7fb ffbf 	bl	8526 <strncmp>
    c5a8:	b958      	cbnz	r0, c5c2 <__gethex+0xc2>
    c5aa:	b95e      	cbnz	r6, c5c4 <__gethex+0xc4>
    c5ac:	9e02      	ldr	r6, [sp, #8]
    c5ae:	442e      	add	r6, r5
    c5b0:	46b1      	mov	r9, r6
    c5b2:	464d      	mov	r5, r9
    c5b4:	7828      	ldrb	r0, [r5, #0]
    c5b6:	f109 0901 	add.w	r9, r9, #1
    c5ba:	f7ff ff8c 	bl	c4d6 <__hexdig_fun>
    c5be:	2800      	cmp	r0, #0
    c5c0:	d1f7      	bne.n	c5b2 <__gethex+0xb2>
    c5c2:	b136      	cbz	r6, c5d2 <__gethex+0xd2>
    c5c4:	1b76      	subs	r6, r6, r5
    c5c6:	00b6      	lsls	r6, r6, #2
    c5c8:	e003      	b.n	c5d2 <__gethex+0xd2>
    c5ca:	463d      	mov	r5, r7
    c5cc:	e000      	b.n	c5d0 <__gethex+0xd0>
    c5ce:	4606      	mov	r6, r0
    c5d0:	2401      	movs	r4, #1
    c5d2:	782b      	ldrb	r3, [r5, #0]
    c5d4:	2b50      	cmp	r3, #80	; 0x50
    c5d6:	d001      	beq.n	c5dc <__gethex+0xdc>
    c5d8:	2b70      	cmp	r3, #112	; 0x70
    c5da:	d134      	bne.n	c646 <__gethex+0x146>
    c5dc:	786b      	ldrb	r3, [r5, #1]
    c5de:	2b2b      	cmp	r3, #43	; 0x2b
    c5e0:	d005      	beq.n	c5ee <__gethex+0xee>
    c5e2:	2b2d      	cmp	r3, #45	; 0x2d
    c5e4:	d005      	beq.n	c5f2 <__gethex+0xf2>
    c5e6:	f105 0901 	add.w	r9, r5, #1
    c5ea:	2100      	movs	r1, #0
    c5ec:	e004      	b.n	c5f8 <__gethex+0xf8>
    c5ee:	2100      	movs	r1, #0
    c5f0:	e000      	b.n	c5f4 <__gethex+0xf4>
    c5f2:	2101      	movs	r1, #1
    c5f4:	f105 0902 	add.w	r9, r5, #2
    c5f8:	f899 0000 	ldrb.w	r0, [r9]
    c5fc:	9101      	str	r1, [sp, #4]
    c5fe:	f7ff ff6a 	bl	c4d6 <__hexdig_fun>
    c602:	1e43      	subs	r3, r0, #1
    c604:	b2db      	uxtb	r3, r3
    c606:	2b18      	cmp	r3, #24
    c608:	9901      	ldr	r1, [sp, #4]
    c60a:	d81c      	bhi.n	c646 <__gethex+0x146>
    c60c:	f1a0 0a10 	sub.w	r10, r0, #16
    c610:	f109 0301 	add.w	r3, r9, #1
    c614:	4699      	mov	r9, r3
    c616:	f899 0000 	ldrb.w	r0, [r9]
    c61a:	3301      	adds	r3, #1
    c61c:	9101      	str	r1, [sp, #4]
    c61e:	9300      	str	r3, [sp, #0]
    c620:	f7ff ff59 	bl	c4d6 <__hexdig_fun>
    c624:	1e42      	subs	r2, r0, #1
    c626:	b2d2      	uxtb	r2, r2
    c628:	2a18      	cmp	r2, #24
    c62a:	9901      	ldr	r1, [sp, #4]
    c62c:	9b00      	ldr	r3, [sp, #0]
    c62e:	d805      	bhi.n	c63c <__gethex+0x13c>
    c630:	220a      	movs	r2, #10
    c632:	fb02 0a0a 	mla	r10, r2, r10, r0
    c636:	f1aa 0a10 	sub.w	r10, r10, #16
    c63a:	e7eb      	b.n	c614 <__gethex+0x114>
    c63c:	b109      	cbz	r1, c642 <__gethex+0x142>
    c63e:	f1ca 0a00 	rsb	r10, r10, #0
    c642:	4456      	add	r6, r10
    c644:	e000      	b.n	c648 <__gethex+0x148>
    c646:	46a9      	mov	r9, r5
    c648:	9905      	ldr	r1, [sp, #20]
    c64a:	f8c1 9000 	str.w	r9, [r1]
    c64e:	b12c      	cbz	r4, c65c <__gethex+0x15c>
    c650:	f1bb 0f00 	cmp.w	r11, #0
    c654:	bf0c      	ite	eq
    c656:	2006      	moveq	r0, #6
    c658:	2000      	movne	r0, #0
    c65a:	e17d      	b.n	c958 <__gethex+0x458>
    c65c:	1beb      	subs	r3, r5, r7
    c65e:	3b01      	subs	r3, #1
    c660:	4621      	mov	r1, r4
    c662:	2b07      	cmp	r3, #7
    c664:	dd02      	ble.n	c66c <__gethex+0x16c>
    c666:	3101      	adds	r1, #1
    c668:	105b      	asrs	r3, r3, #1
    c66a:	e7fa      	b.n	c662 <__gethex+0x162>
    c66c:	9803      	ldr	r0, [sp, #12]
    c66e:	f7fe fb16 	bl	ac9e <_Balloc>
    c672:	f04f 0900 	mov.w	r9, #0
    c676:	f100 0a14 	add.w	r10, r0, #20
    c67a:	4604      	mov	r4, r0
    c67c:	4653      	mov	r3, r10
    c67e:	46cb      	mov	r11, r9
    c680:	42bd      	cmp	r5, r7
    c682:	d933      	bls.n	c6ec <__gethex+0x1ec>
    c684:	1e6a      	subs	r2, r5, #1
    c686:	9205      	str	r2, [sp, #20]
    c688:	9907      	ldr	r1, [sp, #28]
    c68a:	f815 2c01 	ldrb.w	r2, [r5, #-1]
    c68e:	428a      	cmp	r2, r1
    c690:	d009      	beq.n	c6a6 <__gethex+0x1a6>
    c692:	f1bb 0f20 	cmp.w	r11, #32
    c696:	d117      	bne.n	c6c8 <__gethex+0x1c8>
    c698:	f8c3 9000 	str.w	r9, [r3]
    c69c:	f04f 0900 	mov.w	r9, #0
    c6a0:	3304      	adds	r3, #4
    c6a2:	46cb      	mov	r11, r9
    c6a4:	e010      	b.n	c6c8 <__gethex+0x1c8>
    c6a6:	9a02      	ldr	r2, [sp, #8]
    c6a8:	9905      	ldr	r1, [sp, #20]
    c6aa:	f1c2 0c01 	rsb	r12, r2, #1
    c6ae:	448c      	add	r12, r1
    c6b0:	45bc      	cmp	r12, r7
    c6b2:	d3ee      	bcc.n	c692 <__gethex+0x192>
    c6b4:	4660      	mov	r0, r12
    c6b6:	9904      	ldr	r1, [sp, #16]
    c6b8:	e88d 1008 	stmia.w	sp, {r3, r12}
    c6bc:	f7fb ff33 	bl	8526 <strncmp>
    c6c0:	e89d 1008 	ldmia.w	sp, {r3, r12}
    c6c4:	b180      	cbz	r0, c6e8 <__gethex+0x1e8>
    c6c6:	e7e4      	b.n	c692 <__gethex+0x192>
    c6c8:	f815 0c01 	ldrb.w	r0, [r5, #-1]
    c6cc:	9300      	str	r3, [sp, #0]
    c6ce:	f7ff ff02 	bl	c4d6 <__hexdig_fun>
    c6d2:	f000 000f 	and.w	r0, r0, #15
    c6d6:	fa00 f00b 	lsl.w	r0, r0, r11
    c6da:	f8dd c014 	ldr.w	r12, [sp, #20]
    c6de:	9b00      	ldr	r3, [sp, #0]
    c6e0:	ea49 0900 	orr.w	r9, r9, r0
    c6e4:	f10b 0b04 	add.w	r11, r11, #4
    c6e8:	4665      	mov	r5, r12
    c6ea:	e7c9      	b.n	c680 <__gethex+0x180>
    c6ec:	f843 9b04 	str.w	r9, [r3], #4
    c6f0:	ebca 0303 	rsb	r3, r10, r3
    c6f4:	109b      	asrs	r3, r3, #2
    c6f6:	6123      	str	r3, [r4, #16]
    c6f8:	4648      	mov	r0, r9
    c6fa:	015f      	lsls	r7, r3, #5
    c6fc:	f7fe fb97 	bl	ae2e <__hi0bits>
    c700:	f8d8 5000 	ldr.w	r5, [r8]
    c704:	1a38      	subs	r0, r7, r0
    c706:	42a8      	cmp	r0, r5
    c708:	dd26      	ble.n	c758 <__gethex+0x258>
    c70a:	1b47      	subs	r7, r0, r5
    c70c:	4639      	mov	r1, r7
    c70e:	4620      	mov	r0, r4
    c710:	f7fe fe9f 	bl	b452 <__any_on>
    c714:	b1c8      	cbz	r0, c74a <__gethex+0x24a>
    c716:	1e7b      	subs	r3, r7, #1
    c718:	f003 011f 	and.w	r1, r3, #31
    c71c:	f04f 0901 	mov.w	r9, #1
    c720:	fa09 f101 	lsl.w	r1, r9, r1
    c724:	115a      	asrs	r2, r3, #5
    c726:	f85a 2022 	ldr.w	r2, [r10, r2, lsl #2]
    c72a:	4211      	tst	r1, r2
    c72c:	d00e      	beq.n	c74c <__gethex+0x24c>
    c72e:	454b      	cmp	r3, r9
    c730:	dc02      	bgt.n	c738 <__gethex+0x238>
    c732:	f04f 0902 	mov.w	r9, #2
    c736:	e009      	b.n	c74c <__gethex+0x24c>
    c738:	4620      	mov	r0, r4
    c73a:	1eb9      	subs	r1, r7, #2
    c73c:	f7fe fe89 	bl	b452 <__any_on>
    c740:	2800      	cmp	r0, #0
    c742:	d0f6      	beq.n	c732 <__gethex+0x232>
    c744:	f04f 0903 	mov.w	r9, #3
    c748:	e000      	b.n	c74c <__gethex+0x24c>
    c74a:	4681      	mov	r9, r0
    c74c:	4620      	mov	r0, r4
    c74e:	4639      	mov	r1, r7
    c750:	f7ff fe8c 	bl	c46c <rshift>
    c754:	443e      	add	r6, r7
    c756:	e00c      	b.n	c772 <__gethex+0x272>
    c758:	da09      	bge.n	c76e <__gethex+0x26e>
    c75a:	1a2f      	subs	r7, r5, r0
    c75c:	4621      	mov	r1, r4
    c75e:	9803      	ldr	r0, [sp, #12]
    c760:	463a      	mov	r2, r7
    c762:	f7fe fca1 	bl	b0a8 <__lshift>
    c766:	1bf6      	subs	r6, r6, r7
    c768:	4604      	mov	r4, r0
    c76a:	f100 0a14 	add.w	r10, r0, #20
    c76e:	f04f 0900 	mov.w	r9, #0
    c772:	f8d8 3008 	ldr.w	r3, [r8, #8]
    c776:	429e      	cmp	r6, r3
    c778:	dd08      	ble.n	c78c <__gethex+0x28c>
    c77a:	9803      	ldr	r0, [sp, #12]
    c77c:	4621      	mov	r1, r4
    c77e:	f7fe fac3 	bl	ad08 <_Bfree>
    c782:	9a12      	ldr	r2, [sp, #72]	; 0x48
    c784:	2300      	movs	r3, #0
    c786:	6013      	str	r3, [r2, #0]
    c788:	20a3      	movs	r0, #163	; 0xa3
    c78a:	e0e5      	b.n	c958 <__gethex+0x458>
    c78c:	f8d8 3004 	ldr.w	r3, [r8, #4]
    c790:	429e      	cmp	r6, r3
    c792:	da54      	bge.n	c83e <__gethex+0x33e>
    c794:	1b9e      	subs	r6, r3, r6
    c796:	42ae      	cmp	r6, r5
    c798:	db2e      	blt.n	c7f8 <__gethex+0x2f8>
    c79a:	f8d8 300c 	ldr.w	r3, [r8, #12]
    c79e:	2b02      	cmp	r3, #2
    c7a0:	d01a      	beq.n	c7d8 <__gethex+0x2d8>
    c7a2:	2b03      	cmp	r3, #3
    c7a4:	d01c      	beq.n	c7e0 <__gethex+0x2e0>
    c7a6:	2b01      	cmp	r3, #1
    c7a8:	d11d      	bne.n	c7e6 <__gethex+0x2e6>
    c7aa:	42ae      	cmp	r6, r5
    c7ac:	d11b      	bne.n	c7e6 <__gethex+0x2e6>
    c7ae:	2d01      	cmp	r5, #1
    c7b0:	dc0b      	bgt.n	c7ca <__gethex+0x2ca>
    c7b2:	f8d8 3004 	ldr.w	r3, [r8, #4]
    c7b6:	9906      	ldr	r1, [sp, #24]
    c7b8:	2062      	movs	r0, #98	; 0x62
    c7ba:	600b      	str	r3, [r1, #0]
    c7bc:	2301      	movs	r3, #1
    c7be:	6123      	str	r3, [r4, #16]
    c7c0:	f8ca 3000 	str.w	r3, [r10]
    c7c4:	9b12      	ldr	r3, [sp, #72]	; 0x48
    c7c6:	601c      	str	r4, [r3, #0]
    c7c8:	e0c6      	b.n	c958 <__gethex+0x458>
    c7ca:	4620      	mov	r0, r4
    c7cc:	1e69      	subs	r1, r5, #1
    c7ce:	f7fe fe40 	bl	b452 <__any_on>
    c7d2:	2800      	cmp	r0, #0
    c7d4:	d1ed      	bne.n	c7b2 <__gethex+0x2b2>
    c7d6:	e006      	b.n	c7e6 <__gethex+0x2e6>
    c7d8:	9b13      	ldr	r3, [sp, #76]	; 0x4c
    c7da:	2b00      	cmp	r3, #0
    c7dc:	d0e9      	beq.n	c7b2 <__gethex+0x2b2>
    c7de:	e002      	b.n	c7e6 <__gethex+0x2e6>
    c7e0:	9b13      	ldr	r3, [sp, #76]	; 0x4c
    c7e2:	2b00      	cmp	r3, #0
    c7e4:	d1e5      	bne.n	c7b2 <__gethex+0x2b2>
    c7e6:	9803      	ldr	r0, [sp, #12]
    c7e8:	4621      	mov	r1, r4
    c7ea:	f7fe fa8d 	bl	ad08 <_Bfree>
    c7ee:	9912      	ldr	r1, [sp, #72]	; 0x48
    c7f0:	2300      	movs	r3, #0
    c7f2:	600b      	str	r3, [r1, #0]
    c7f4:	2050      	movs	r0, #80	; 0x50
    c7f6:	e0af      	b.n	c958 <__gethex+0x458>
    c7f8:	1e77      	subs	r7, r6, #1
    c7fa:	f1b9 0f00 	cmp.w	r9, #0
    c7fe:	d107      	bne.n	c810 <__gethex+0x310>
    c800:	2f00      	cmp	r7, #0
    c802:	dd07      	ble.n	c814 <__gethex+0x314>
    c804:	4620      	mov	r0, r4
    c806:	4639      	mov	r1, r7
    c808:	f7fe fe23 	bl	b452 <__any_on>
    c80c:	4681      	mov	r9, r0
    c80e:	e001      	b.n	c814 <__gethex+0x314>
    c810:	f04f 0901 	mov.w	r9, #1
    c814:	117b      	asrs	r3, r7, #5
    c816:	2201      	movs	r2, #1
    c818:	f007 071f 	and.w	r7, r7, #31
    c81c:	fa02 f707 	lsl.w	r7, r2, r7
    c820:	f85a 3023 	ldr.w	r3, [r10, r3, lsl #2]
    c824:	4631      	mov	r1, r6
    c826:	421f      	tst	r7, r3
    c828:	4620      	mov	r0, r4
    c82a:	bf18      	it	ne
    c82c:	f049 0902 	orrne.w	r9, r9, #2
    c830:	1bad      	subs	r5, r5, r6
    c832:	f7ff fe1b 	bl	c46c <rshift>
    c836:	2702      	movs	r7, #2
    c838:	f8d8 6004 	ldr.w	r6, [r8, #4]
    c83c:	e000      	b.n	c840 <__gethex+0x340>
    c83e:	2701      	movs	r7, #1
    c840:	f1b9 0f00 	cmp.w	r9, #0
    c844:	f000 8083 	beq.w	c94e <__gethex+0x44e>
    c848:	f8d8 300c 	ldr.w	r3, [r8, #12]
    c84c:	2b02      	cmp	r3, #2
    c84e:	d00e      	beq.n	c86e <__gethex+0x36e>
    c850:	2b03      	cmp	r3, #3
    c852:	d010      	beq.n	c876 <__gethex+0x376>
    c854:	2b01      	cmp	r3, #1
    c856:	d178      	bne.n	c94a <__gethex+0x44a>
    c858:	f019 0f02 	tst.w	r9, #2
    c85c:	d075      	beq.n	c94a <__gethex+0x44a>
    c85e:	f8da 3000 	ldr.w	r3, [r10]
    c862:	ea49 0903 	orr.w	r9, r9, r3
    c866:	f019 0f01 	tst.w	r9, #1
    c86a:	d107      	bne.n	c87c <__gethex+0x37c>
    c86c:	e06d      	b.n	c94a <__gethex+0x44a>
    c86e:	9b13      	ldr	r3, [sp, #76]	; 0x4c
    c870:	f1c3 0301 	rsb	r3, r3, #1
    c874:	9313      	str	r3, [sp, #76]	; 0x4c
    c876:	9b13      	ldr	r3, [sp, #76]	; 0x4c
    c878:	2b00      	cmp	r3, #0
    c87a:	d066      	beq.n	c94a <__gethex+0x44a>
    c87c:	f8d4 9010 	ldr.w	r9, [r4, #16]
    c880:	f104 0314 	add.w	r3, r4, #20
    c884:	ea4f 0a89 	mov.w	r10, r9, lsl #2
    c888:	eb03 010a 	add.w	r1, r3, r10
    c88c:	4618      	mov	r0, r3
    c88e:	f853 2b04 	ldr.w	r2, [r3], #4
    c892:	f1b2 3fff 	cmp.w	r2, #4294967295
    c896:	d002      	beq.n	c89e <__gethex+0x39e>
    c898:	3201      	adds	r2, #1
    c89a:	6002      	str	r2, [r0, #0]
    c89c:	e021      	b.n	c8e2 <__gethex+0x3e2>
    c89e:	2200      	movs	r2, #0
    c8a0:	428b      	cmp	r3, r1
    c8a2:	f843 2c04 	str.w	r2, [r3, #-4]
    c8a6:	d3f1      	bcc.n	c88c <__gethex+0x38c>
    c8a8:	68a3      	ldr	r3, [r4, #8]
    c8aa:	4599      	cmp	r9, r3
    c8ac:	db12      	blt.n	c8d4 <__gethex+0x3d4>
    c8ae:	6861      	ldr	r1, [r4, #4]
    c8b0:	9803      	ldr	r0, [sp, #12]
    c8b2:	3101      	adds	r1, #1
    c8b4:	f7fe f9f3 	bl	ac9e <_Balloc>
    c8b8:	6922      	ldr	r2, [r4, #16]
    c8ba:	f104 010c 	add.w	r1, r4, #12
    c8be:	3202      	adds	r2, #2
    c8c0:	4683      	mov	r11, r0
    c8c2:	0092      	lsls	r2, r2, #2
    c8c4:	300c      	adds	r0, #12
    c8c6:	f7fb fb35 	bl	7f34 <memcpy>
    c8ca:	4621      	mov	r1, r4
    c8cc:	9803      	ldr	r0, [sp, #12]
    c8ce:	f7fe fa1b 	bl	ad08 <_Bfree>
    c8d2:	465c      	mov	r4, r11
    c8d4:	6923      	ldr	r3, [r4, #16]
    c8d6:	1c5a      	adds	r2, r3, #1
    c8d8:	6122      	str	r2, [r4, #16]
    c8da:	eb04 0383 	add.w	r3, r4, r3, lsl #2
    c8de:	2201      	movs	r2, #1
    c8e0:	615a      	str	r2, [r3, #20]
    c8e2:	2f02      	cmp	r7, #2
    c8e4:	f104 0314 	add.w	r3, r4, #20
    c8e8:	d111      	bne.n	c90e <__gethex+0x40e>
    c8ea:	f8d8 2000 	ldr.w	r2, [r8]
    c8ee:	3a01      	subs	r2, #1
    c8f0:	4295      	cmp	r5, r2
    c8f2:	d127      	bne.n	c944 <__gethex+0x444>
    c8f4:	116a      	asrs	r2, r5, #5
    c8f6:	2101      	movs	r1, #1
    c8f8:	f005 051f 	and.w	r5, r5, #31
    c8fc:	fa01 f505 	lsl.w	r5, r1, r5
    c900:	f853 3022 	ldr.w	r3, [r3, r2, lsl #2]
    c904:	421d      	tst	r5, r3
    c906:	bf0c      	ite	eq
    c908:	2702      	moveq	r7, #2
    c90a:	460f      	movne	r7, r1
    c90c:	e01a      	b.n	c944 <__gethex+0x444>
    c90e:	6922      	ldr	r2, [r4, #16]
    c910:	454a      	cmp	r2, r9
    c912:	dd0a      	ble.n	c92a <__gethex+0x42a>
    c914:	4620      	mov	r0, r4
    c916:	2101      	movs	r1, #1
    c918:	f7ff fda8 	bl	c46c <rshift>
    c91c:	f8d8 3008 	ldr.w	r3, [r8, #8]
    c920:	3601      	adds	r6, #1
    c922:	429e      	cmp	r6, r3
    c924:	f73f af29 	bgt.w	c77a <__gethex+0x27a>
    c928:	e00b      	b.n	c942 <__gethex+0x442>
    c92a:	f015 051f 	ands.w	r5, r5, #31
    c92e:	d008      	beq.n	c942 <__gethex+0x442>
    c930:	4453      	add	r3, r10
    c932:	f853 0c04 	ldr.w	r0, [r3, #-4]
    c936:	f7fe fa7a 	bl	ae2e <__hi0bits>
    c93a:	f1c5 0520 	rsb	r5, r5, #32
    c93e:	42a8      	cmp	r0, r5
    c940:	dbe8      	blt.n	c914 <__gethex+0x414>
    c942:	2701      	movs	r7, #1
    c944:	f047 0720 	orr.w	r7, r7, #32
    c948:	e001      	b.n	c94e <__gethex+0x44e>
    c94a:	f047 0710 	orr.w	r7, r7, #16
    c94e:	9b12      	ldr	r3, [sp, #72]	; 0x48
    c950:	4638      	mov	r0, r7
    c952:	601c      	str	r4, [r3, #0]
    c954:	9b06      	ldr	r3, [sp, #24]
    c956:	601e      	str	r6, [r3, #0]
    c958:	b009      	add	sp, #36	; 0x24
    c95a:	e8bd 8ff0 	ldmia.w	sp!, {r4, r5, r6, r7, r8, r9, r10, r11, pc}

0000c95e <L_shift>:
    c95e:	f1c2 0208 	rsb	r2, r2, #8
    c962:	0092      	lsls	r2, r2, #2
    c964:	b570      	push	{r4, r5, r6, lr}
    c966:	f1c2 0420 	rsb	r4, r2, #32
    c96a:	6805      	ldr	r5, [r0, #0]
    c96c:	f850 3f04 	ldr.w	r3, [r0, #4]!
    c970:	fa03 f604 	lsl.w	r6, r3, r4
    c974:	40d3      	lsrs	r3, r2
    c976:	4335      	orrs	r5, r6
    c978:	4288      	cmp	r0, r1
    c97a:	f840 5c04 	str.w	r5, [r0, #-4]
    c97e:	6003      	str	r3, [r0, #0]
    c980:	d3f3      	bcc.n	c96a <L_shift+0xc>
    c982:	bd70      	pop	{r4, r5, r6, pc}

0000c984 <__hexnan>:
    c984:	e92d 4ff0 	stmdb	sp!, {r4, r5, r6, r7, r8, r9, r10, r11, lr}
    c988:	680b      	ldr	r3, [r1, #0]
    c98a:	b085      	sub	sp, #20
    c98c:	115e      	asrs	r6, r3, #5
    c98e:	9003      	str	r0, [sp, #12]
    c990:	f013 031f 	ands.w	r3, r3, #31
    c994:	eb02 0686 	add.w	r6, r2, r6, lsl #2
    c998:	9302      	str	r3, [sp, #8]
    c99a:	9b03      	ldr	r3, [sp, #12]
    c99c:	bf18      	it	ne
    c99e:	3604      	addne	r6, #4
    c9a0:	f1a6 0804 	sub.w	r8, r6, #4
    c9a4:	4615      	mov	r5, r2
    c9a6:	f8d3 9000 	ldr.w	r9, [r3]
    c9aa:	2200      	movs	r2, #0
    c9ac:	f846 2c04 	str.w	r2, [r6, #-4]
    c9b0:	4647      	mov	r7, r8
    c9b2:	4644      	mov	r4, r8
    c9b4:	4692      	mov	r10, r2
    c9b6:	4693      	mov	r11, r2
    c9b8:	f899 1001 	ldrb.w	r1, [r9, #1]
    c9bc:	2900      	cmp	r1, #0
    c9be:	d03a      	beq.n	ca36 <__hexnan+0xb2>
    c9c0:	4608      	mov	r0, r1
    c9c2:	e88d 0006 	stmia.w	sp, {r1, r2}
    c9c6:	f7ff fd86 	bl	c4d6 <__hexdig_fun>
    c9ca:	e89d 0006 	ldmia.w	sp, {r1, r2}
    c9ce:	b9d8      	cbnz	r0, ca08 <__hexnan+0x84>
    c9d0:	2920      	cmp	r1, #32
    c9d2:	d812      	bhi.n	c9fa <__hexnan+0x76>
    c9d4:	45da      	cmp	r10, r11
    c9d6:	da2b      	bge.n	ca30 <__hexnan+0xac>
    c9d8:	42bc      	cmp	r4, r7
    c9da:	d205      	bcs.n	c9e8 <__hexnan+0x64>
    c9dc:	2a07      	cmp	r2, #7
    c9de:	dc03      	bgt.n	c9e8 <__hexnan+0x64>
    c9e0:	4620      	mov	r0, r4
    c9e2:	4639      	mov	r1, r7
    c9e4:	f7ff ffbb 	bl	c95e <L_shift>
    c9e8:	42ac      	cmp	r4, r5
    c9ea:	d920      	bls.n	ca2e <__hexnan+0xaa>
    c9ec:	1f27      	subs	r7, r4, #4
    c9ee:	2200      	movs	r2, #0
    c9f0:	f844 2c04 	str.w	r2, [r4, #-4]
    c9f4:	46da      	mov	r10, r11
    c9f6:	463c      	mov	r4, r7
    c9f8:	e01a      	b.n	ca30 <__hexnan+0xac>
    c9fa:	2929      	cmp	r1, #41	; 0x29
    c9fc:	d14c      	bne.n	ca98 <__hexnan+0x114>
    c9fe:	9b03      	ldr	r3, [sp, #12]
    ca00:	f109 0102 	add.w	r1, r9, #2
    ca04:	6019      	str	r1, [r3, #0]
    ca06:	e016      	b.n	ca36 <__hexnan+0xb2>
    ca08:	3201      	adds	r2, #1
    ca0a:	2a08      	cmp	r2, #8
    ca0c:	f10b 0b01 	add.w	r11, r11, #1
    ca10:	dd06      	ble.n	ca20 <__hexnan+0x9c>
    ca12:	42ac      	cmp	r4, r5
    ca14:	d90c      	bls.n	ca30 <__hexnan+0xac>
    ca16:	2200      	movs	r2, #0
    ca18:	f844 2c04 	str.w	r2, [r4, #-4]
    ca1c:	3c04      	subs	r4, #4
    ca1e:	2201      	movs	r2, #1
    ca20:	6821      	ldr	r1, [r4, #0]
    ca22:	f000 000f 	and.w	r0, r0, #15
    ca26:	ea40 1101 	orr.w	r1, r0, r1, lsl #4
    ca2a:	6021      	str	r1, [r4, #0]
    ca2c:	e000      	b.n	ca30 <__hexnan+0xac>
    ca2e:	2208      	movs	r2, #8
    ca30:	f109 0901 	add.w	r9, r9, #1
    ca34:	e7c0      	b.n	c9b8 <__hexnan+0x34>
    ca36:	f1bb 0f00 	cmp.w	r11, #0
    ca3a:	d02d      	beq.n	ca98 <__hexnan+0x114>
    ca3c:	42bc      	cmp	r4, r7
    ca3e:	d205      	bcs.n	ca4c <__hexnan+0xc8>
    ca40:	2a07      	cmp	r2, #7
    ca42:	dc03      	bgt.n	ca4c <__hexnan+0xc8>
    ca44:	4620      	mov	r0, r4
    ca46:	4639      	mov	r1, r7
    ca48:	f7ff ff89 	bl	c95e <L_shift>
    ca4c:	42ac      	cmp	r4, r5
    ca4e:	d90c      	bls.n	ca6a <__hexnan+0xe6>
    ca50:	462b      	mov	r3, r5
    ca52:	f854 2b04 	ldr.w	r2, [r4], #4
    ca56:	4544      	cmp	r4, r8
    ca58:	f843 2b04 	str.w	r2, [r3], #4
    ca5c:	d9f9      	bls.n	ca52 <__hexnan+0xce>
    ca5e:	2200      	movs	r2, #0
    ca60:	f843 2b04 	str.w	r2, [r3], #4
    ca64:	4543      	cmp	r3, r8
    ca66:	d9fa      	bls.n	ca5e <__hexnan+0xda>
    ca68:	e00d      	b.n	ca86 <__hexnan+0x102>
    ca6a:	9b02      	ldr	r3, [sp, #8]
    ca6c:	b15b      	cbz	r3, ca86 <__hexnan+0x102>
    ca6e:	f1c3 0920 	rsb	r9, r3, #32
    ca72:	f04f 33ff 	mov.w	r3, #4294967295
    ca76:	fa23 f909 	lsr.w	r9, r3, r9
    ca7a:	f856 3c04 	ldr.w	r3, [r6, #-4]
    ca7e:	ea03 0309 	and.w	r3, r3, r9
    ca82:	f846 3c04 	str.w	r3, [r6, #-4]
    ca86:	f856 3c04 	ldr.w	r3, [r6, #-4]
    ca8a:	3e04      	subs	r6, #4
    ca8c:	b933      	cbnz	r3, ca9c <__hexnan+0x118>
    ca8e:	42b5      	cmp	r5, r6
    ca90:	d1f9      	bne.n	ca86 <__hexnan+0x102>
    ca92:	2301      	movs	r3, #1
    ca94:	602b      	str	r3, [r5, #0]
    ca96:	e001      	b.n	ca9c <__hexnan+0x118>
    ca98:	2004      	movs	r0, #4
    ca9a:	e000      	b.n	ca9e <__hexnan+0x11a>
    ca9c:	2005      	movs	r0, #5
    ca9e:	b005      	add	sp, #20
    caa0:	e8bd 8ff0 	ldmia.w	sp!, {r4, r5, r6, r7, r8, r9, r10, r11, pc}

0000caa4 <_malloc_usable_size_r>:
    caa4:	f851 0c04 	ldr.w	r0, [r1, #-4]
    caa8:	2800      	cmp	r0, #0
    caaa:	da02      	bge.n	cab2 <_malloc_usable_size_r+0xe>
    caac:	3904      	subs	r1, #4
    caae:	580b      	ldr	r3, [r1, r0]
    cab0:	4418      	add	r0, r3
    cab2:	3804      	subs	r0, #4
    cab4:	4770      	bx	lr
	...

0000cab8 <__gedf2>:
    cab8:	f04f 3cff 	mov.w	r12, #4294967295
    cabc:	e006      	b.n	cacc <__cmpdf2+0x4>
    cabe:	bf00      	nop

0000cac0 <__ledf2>:
    cac0:	f04f 0c01 	mov.w	r12, #1
    cac4:	e002      	b.n	cacc <__cmpdf2+0x4>
    cac6:	bf00      	nop

0000cac8 <__cmpdf2>:
    cac8:	f04f 0c01 	mov.w	r12, #1
    cacc:	f84d cd04 	str.w	r12, [sp, #-4]!
    cad0:	ea4f 0c41 	mov.w	r12, r1, lsl #1
    cad4:	ea7f 5c6c 	mvns.w	r12, r12, asr #21
    cad8:	ea4f 0c43 	mov.w	r12, r3, lsl #1
    cadc:	bf18      	it	ne
    cade:	ea7f 5c6c 	mvnsne.w	r12, r12, asr #21
    cae2:	d01b      	beq.n	cb1c <__cmpdf2+0x54>
    cae4:	b001      	add	sp, #4
    cae6:	ea50 0c41 	orrs.w	r12, r0, r1, lsl #1
    caea:	bf0c      	ite	eq
    caec:	ea52 0c43 	orrseq.w	r12, r2, r3, lsl #1
    caf0:	ea91 0f03 	teqne	r1, r3
    caf4:	bf02      	ittt	eq
    caf6:	ea90 0f02 	teqeq	r0, r2
    cafa:	2000      	moveq	r0, #0
    cafc:	4770      	bxeq	lr
    cafe:	f110 0f00 	cmn.w	r0, #0
    cb02:	ea91 0f03 	teq	r1, r3
    cb06:	bf58      	it	pl
    cb08:	4299      	cmppl	r1, r3
    cb0a:	bf08      	it	eq
    cb0c:	4290      	cmpeq	r0, r2
    cb0e:	bf2c      	ite	cs
    cb10:	17d8      	asrcs	r0, r3, #31
    cb12:	ea6f 70e3 	mvncc.w	r0, r3, asr #31
    cb16:	f040 0001 	orr.w	r0, r0, #1
    cb1a:	4770      	bx	lr
    cb1c:	ea4f 0c41 	mov.w	r12, r1, lsl #1
    cb20:	ea7f 5c6c 	mvns.w	r12, r12, asr #21
    cb24:	d102      	bne.n	cb2c <__cmpdf2+0x64>
    cb26:	ea50 3c01 	orrs.w	r12, r0, r1, lsl #12
    cb2a:	d107      	bne.n	cb3c <__cmpdf2+0x74>
    cb2c:	ea4f 0c43 	mov.w	r12, r3, lsl #1
    cb30:	ea7f 5c6c 	mvns.w	r12, r12, asr #21
    cb34:	d1d6      	bne.n	cae4 <__cmpdf2+0x1c>
    cb36:	ea52 3c03 	orrs.w	r12, r2, r3, lsl #12
    cb3a:	d0d3      	beq.n	cae4 <__cmpdf2+0x1c>
    cb3c:	f85d 0b04 	ldr.w	r0, [sp], #4
    cb40:	4770      	bx	lr
    cb42:	bf00      	nop

0000cb44 <__aeabi_cdrcmple>:
    cb44:	4684      	mov	r12, r0
    cb46:	4610      	mov	r0, r2
    cb48:	4662      	mov	r2, r12
    cb4a:	468c      	mov	r12, r1
    cb4c:	4619      	mov	r1, r3
    cb4e:	4663      	mov	r3, r12
    cb50:	e000      	b.n	cb54 <__aeabi_cdcmpeq>
    cb52:	bf00      	nop

0000cb54 <__aeabi_cdcmpeq>:
    cb54:	b501      	push	{r0, lr}
    cb56:	f7ff ffb7 	bl	cac8 <__cmpdf2>
    cb5a:	2800      	cmp	r0, #0
    cb5c:	bf48      	it	mi
    cb5e:	f110 0f00 	cmnmi.w	r0, #0
    cb62:	bd01      	pop	{r0, pc}

0000cb64 <__aeabi_dcmpeq>:
    cb64:	f84d ed08 	str.w	lr, [sp, #-8]!
    cb68:	f7ff fff4 	bl	cb54 <__aeabi_cdcmpeq>
    cb6c:	bf0c      	ite	eq
    cb6e:	2001      	moveq	r0, #1
    cb70:	2000      	movne	r0, #0
    cb72:	f85d fb08 	ldr.w	pc, [sp], #8
    cb76:	bf00      	nop

0000cb78 <__aeabi_dcmplt>:
    cb78:	f84d ed08 	str.w	lr, [sp, #-8]!
    cb7c:	f7ff ffea 	bl	cb54 <__aeabi_cdcmpeq>
    cb80:	bf34      	ite	cc
    cb82:	2001      	movcc	r0, #1
    cb84:	2000      	movcs	r0, #0
    cb86:	f85d fb08 	ldr.w	pc, [sp], #8
    cb8a:	bf00      	nop

0000cb8c <__aeabi_dcmple>:
    cb8c:	f84d ed08 	str.w	lr, [sp, #-8]!
    cb90:	f7ff ffe0 	bl	cb54 <__aeabi_cdcmpeq>
    cb94:	bf94      	ite	ls
    cb96:	2001      	movls	r0, #1
    cb98:	2000      	movhi	r0, #0
    cb9a:	f85d fb08 	ldr.w	pc, [sp], #8
    cb9e:	bf00      	nop

0000cba0 <__aeabi_dcmpge>:
    cba0:	f84d ed08 	str.w	lr, [sp, #-8]!
    cba4:	f7ff ffce 	bl	cb44 <__aeabi_cdrcmple>
    cba8:	bf94      	ite	ls
    cbaa:	2001      	movls	r0, #1
    cbac:	2000      	movhi	r0, #0
    cbae:	f85d fb08 	ldr.w	pc, [sp], #8
    cbb2:	bf00      	nop

0000cbb4 <__aeabi_dcmpgt>:
    cbb4:	f84d ed08 	str.w	lr, [sp, #-8]!
    cbb8:	f7ff ffc4 	bl	cb44 <__aeabi_cdrcmple>
    cbbc:	bf34      	ite	cc
    cbbe:	2001      	movcc	r0, #1
    cbc0:	2000      	movcs	r0, #0
    cbc2:	f85d fb08 	ldr.w	pc, [sp], #8
    cbc6:	bf00      	nop

0000cbc8 <__aeabi_d2uiz>:
    cbc8:	004a      	lsls	r2, r1, #1
    cbca:	d211      	bcs.n	cbf0 <__aeabi_d2uiz+0x28>
    cbcc:	f512 1200 	adds.w	r2, r2, #2097152	; 0x200000
    cbd0:	d211      	bcs.n	cbf6 <__aeabi_d2uiz+0x2e>
    cbd2:	d50d      	bpl.n	cbf0 <__aeabi_d2uiz+0x28>
    cbd4:	f46f 7378 	mvn.w	r3, #992	; 0x3e0
    cbd8:	ebb3 5262 	subs.w	r2, r3, r2, asr #21
    cbdc:	d40e      	bmi.n	cbfc <__aeabi_d2uiz+0x34>
    cbde:	ea4f 23c1 	mov.w	r3, r1, lsl #11
    cbe2:	f043 4300 	orr.w	r3, r3, #2147483648	; 0x80000000
    cbe6:	ea43 5350 	orr.w	r3, r3, r0, lsr #21
    cbea:	fa23 f002 	lsr.w	r0, r3, r2
    cbee:	4770      	bx	lr
    cbf0:	f04f 0000 	mov.w	r0, #0
    cbf4:	4770      	bx	lr
    cbf6:	ea50 3001 	orrs.w	r0, r0, r1, lsl #12
    cbfa:	d102      	bne.n	cc02 <__aeabi_d2uiz+0x3a>
    cbfc:	f04f 30ff 	mov.w	r0, #4294967295
    cc00:	4770      	bx	lr
    cc02:	f04f 0000 	mov.w	r0, #0
    cc06:	4770      	bx	lr

0000cc08 <_init>:
    cc08:	b5f8      	push	{r3, r4, r5, r6, r7, lr}
    cc0a:	bf00      	nop
    cc0c:	bcf8      	pop	{r3, r4, r5, r6, r7}
    cc0e:	bc08      	pop	{r3}
    cc10:	469e      	mov	lr, r3
    cc12:	4770      	bx	lr

0000cc14 <_fini>:
    cc14:	b5f8      	push	{r3, r4, r5, r6, r7, lr}
    cc16:	bf00      	nop
    cc18:	bcf8      	pop	{r3, r4, r5, r6, r7}
    cc1a:	bc08      	pop	{r3}
    cc1c:	469e      	mov	lr, r3
    cc1e:	4770      	bx	lr
    cc20:	252c6425 	.word	0x252c6425
    cc24:	64252c64 	.word	0x64252c64
    cc28:	2c64252c 	.word	0x2c64252c
    cc2c:	252c6425 	.word	0x252c6425
    cc30:	000a0d64 	.word	0x000a0d64
    cc34:	00000000 	.word	0x00000000

0000cc38 <vtable for mbed::SerialBase>:
	...
    cc40:	00000301 00000329 5f49524d 54524155     ....)...MRI_UART
    cc50:	45424d5f 53555f44 00000042              _MBED_USB...

0000cc5c <commandTable.5711>:
    cc5c:	000036f5 0000003f 000030e1 00000063     .6..?....0..c...
    cc6c:	000033bd 00000046 0000371d 00000067     .3..F....7..g...
    cc7c:	0000372d 00000047 00003411 0000006d     -7..G....4..m...
    cc8c:	0000344d 0000004d 000035f5 00000071     M4..M....5..q...
    cc9c:	00003759 00000073 000034a5 00000058     Y7..s....4..X...
    ccac:	00002fe9 0000007a 00002f7d 0000005a     ./..z...}/..Z...
    ccbc:	00343045                                E04.

0000ccc0 <NibbleToHexChar>:
    ccc0:	33323130 37363534 62613938 66656463     0123456789abcdef
    ccd0:	3c000920                                          ..

0000ccd3 <g_targetXml>:
    ccd3:	6d783f3c 6576206c 6f697372 31223d6e     <?xml version="1
    cce3:	3f22302e 213c0a3e 54434f44 20455059     .0"?>.<!DOCTYPE 
    ccf3:	74616566 20657275 54535953 22204d45     feature SYSTEM "
    cd03:	2d626467 67726174 642e7465 3e226474     gdb-target.dtd">
    cd13:	61743c0a 74656772 663c0a3e 75746165     .<target>.<featu
    cd23:	6e206572 3d656d61 67726f22 756e672e     re name="org.gnu
    cd33:	6264672e 6d72612e 702d6d2e 69666f72     .gdb.arm.m-profi
    cd43:	3e22656c 65723c0a 616e2067 223d656d     le">.<reg name="
    cd53:	20223072 73746962 3d657a69 22323322     r0" bitsize="32"
    cd63:	3c0a3e2f 20676572 656d616e 3172223d     />.<reg name="r1
    cd73:	69622022 7a697374 33223d65 3e2f2232     " bitsize="32"/>
    cd83:	65723c0a 616e2067 223d656d 20223272     .<reg name="r2" 
    cd93:	73746962 3d657a69 22323322 3c0a3e2f     bitsize="32"/>.<
    cda3:	20676572 656d616e 3372223d 69622022     reg name="r3" bi
    cdb3:	7a697374 33223d65 3e2f2232 65723c0a     tsize="32"/>.<re
    cdc3:	616e2067 223d656d 20223472 73746962     g name="r4" bits
    cdd3:	3d657a69 22323322 3c0a3e2f 20676572     ize="32"/>.<reg 
    cde3:	656d616e 3572223d 69622022 7a697374     name="r5" bitsiz
    cdf3:	33223d65 3e2f2232 65723c0a 616e2067     e="32"/>.<reg na
    ce03:	223d656d 20223672 73746962 3d657a69     me="r6" bitsize=
    ce13:	22323322 3c0a3e2f 20676572 656d616e     "32"/>.<reg name
    ce23:	3772223d 69622022 7a697374 33223d65     ="r7" bitsize="3
    ce33:	3e2f2232 65723c0a 616e2067 223d656d     2"/>.<reg name="
    ce43:	20223872 73746962 3d657a69 22323322     r8" bitsize="32"
    ce53:	3c0a3e2f 20676572 656d616e 3972223d     />.<reg name="r9
    ce63:	69622022 7a697374 33223d65 3e2f2232     " bitsize="32"/>
    ce73:	65723c0a 616e2067 223d656d 22303172     .<reg name="r10"
    ce83:	74696220 657a6973 3233223d 0a3e2f22      bitsize="32"/>.
    ce93:	6765723c 6d616e20 72223d65 20223131     <reg name="r11" 
    cea3:	73746962 3d657a69 22323322 3c0a3e2f     bitsize="32"/>.<
    ceb3:	20676572 656d616e 3172223d 62202232     reg name="r12" b
    cec3:	69737469 223d657a 2f223233 723c0a3e     itsize="32"/>.<r
    ced3:	6e206765 3d656d61 22707322 74696220     eg name="sp" bit
    cee3:	657a6973 3233223d 79742022 223d6570     size="32" type="
    cef3:	61746164 7274705f 0a3e2f22 6765723c     data_ptr"/>.<reg
    cf03:	6d616e20 6c223d65 62202272 69737469      name="lr" bitsi
    cf13:	223d657a 2f223233 723c0a3e 6e206765     ze="32"/>.<reg n
    cf23:	3d656d61 22637022 74696220 657a6973     ame="pc" bitsize
    cf33:	3233223d 79742022 223d6570 65646f63     ="32" type="code
    cf43:	7274705f 0a3e2f22 6765723c 6d616e20     _ptr"/>.<reg nam
    cf53:	78223d65 22727370 74696220 657a6973     e="xpsr" bitsize
    cf63:	3233223d 65722022 6d756e67 3532223d     ="32" regnum="25
    cf73:	0a3e2f22 65662f3c 72757461 3c0a3e65     "/>.</feature>.<
    cf83:	7261742f 3e746567 0000000a 00001000              /target>.....

0000cf90 <debugEventToSignalMap.7086>:
    cf90:	00000010 00000011 00000004 00000005     ................
    cfa0:	00000002 00000005 00000001 00000005     ................

0000cfb0 <__mriCortexMFakeStack>:
    cfb0:	deaddead deaddead deaddead deaddead     ................
    cfc0:	deaddead deaddead deaddead deaddead     ................
    cfd0:	4d2a2a0a 46205550 746c7561 0a002a2a     .**MPU Fault**..
    cfe0:	74532020 73757461 67655220 65747369       Status Registe
    cff0:	00203a72 2020200a 75614620 4120746c     r: ..    Fault A
    d000:	65726464 203a7373 20200a00 50462020     ddress: ..    FP
    d010:	7a614c20 72502079 72657365 69746176      Lazy Preservati
    d020:	0a006e6f 20202020 63617453 676e696b     on..    Stacking
    d030:	72724520 7720726f 5053202f 00203d20      Error w/ SP = .
    d040:	2020200a 736e5520 6b636174 20676e69     .    Unstacking 
    d050:	6f727245 2f772072 20505320 0a00203d     Error w/ SP = ..
    d060:	20202020 61746144 63634120 00737365         Data Access.
    d070:	2020200a 736e4920 63757274 6e6f6974     .    Instruction
    d080:	74654620 0a006863 75422a2a 61462073      Fetch..**Bus Fa
    d090:	2a746c75 200a002a 49202020 6572706d     ult**..    Impre
    d0a0:	65736963 74614420 63412061 73736563     cise Data Access
    d0b0:	20200a00 72502020 73696365 61442065     ..    Precise Da
    d0c0:	41206174 73656363 200a0073 49202020     ta Access..    I
    d0d0:	7274736e 69746375 50206e6f 65666572     nstruction Prefe
    d0e0:	00686374 552a2a0a 65676173 75614620     tch..**Usage Fau
    d0f0:	2a2a746c 20200a00 69442020 65646976     lt**..    Divide
    d100:	20796220 6f72655a 20200a00 6e552020      by Zero..    Un
    d110:	67696c61 2064656e 65636341 0a007373     aligned Access..
    d120:	20202020 72706f43 7365636f 20726f73         Coprocessor 
    d130:	65636341 0a007373 20202020 61766e49     Access..    Inva
    d140:	2064696c 65637845 6f697470 6552206e     lid Exception Re
    d150:	6e727574 61745320 0a006574 20202020     turn State..    
    d160:	61766e49 2064696c 74617453 200a0065     Invalid State.. 
    d170:	55202020 6665646e 64656e69 736e4920        Undefined Ins
    d180:	63757274 6e6f6974 2a2a0a00 64726148     truction..**Hard
    d190:	75614620 2a2a746c 20200a00 65442020      Fault**..    De
    d1a0:	20677562 6e657645 200a0074 56202020     bug Event..    V
    d1b0:	6f746365 61542072 20656c62 64616552     ector Table Read
    d1c0:	20200a00 6f462020 64656372 06000a00              ..    Forced...

0000d1cf <CSWTCH.129>:
    d1cf:	00070506 0fc1a800                                .....

0000d1d4 <g_uartConfigurations>:
    d1d4:	400fc1a8 4002c000 4002c000 4000c000     ...@...@...@...@
    d1e4:	00000008 000000c0 00000030 000000c0     ........0.......
    d1f4:	55555555 400fc1a8 4002c000 4002c004     UUUU...@...@...@
    d204:	40010000 00000010 00000300 c0000000     ...@............
    d214:	00000003 55555555 400fc1ac 4002c000     ....UUUU...@...@
    d224:	4002c000 40098000 01000000 00030000     ...@...@........
    d234:	00300000 00c00000 55555555 400fc1ac     ..0.....UUUU...@
    d244:	4002c000 4002c000 4009c000 02000000     ...@...@...@....
    d254:	000c0000 00000003 0000000c aaaaaaaa     ................
    d264:	5f49524d 54524155 45424d5f 53555f44     MRI_UART_MBED_US
    d274:	524d0042 41555f49 4d5f5452 5f444542     B.MRI_UART_MBED_
    d284:	505f3950 4d003031 555f4952 5f545241     P9_P10.MRI_UART_
    d294:	4445424d 3331505f 3431505f 49524d00     MBED_P13_P14.MRI
    d2a4:	5241555f 424d5f54 505f4445 505f3832     _UART_MBED_P28_P
    d2b4:	4d003732 555f4952 5f545241 524d0030     27.MRI_UART_0.MR
    d2c4:	41555f49 315f5452 49524d00 5241555f     I_UART_1.MRI_UAR
    d2d4:	00325f54 5f49524d 54524155 4d00335f     T_2.MRI_UART_3.M
    d2e4:	555f4952 5f545241 52414853 524d0045              RI_UART_SHARE.

0000d2f2 <baudRatePrefix.7404>:
    d2f2:	5f49524d 54524155 5541425f 31003d44     MRI_UART_BAUD=.1
    d302:	30303130 30303030 30303030 30303030     0100000000000000
    d312:	30303030 46323030 30304637 00303030     0000002F7F00000.
    d322:	30000000                                         ...

0000d325 <NibbleToHexChar>:
    d325:	33323130 37363534 62613938 66656463     0123456789abcdef
    d335:	00313045 00353045 2c004b4f                       E01.E05.OK.

0000d340 <controlCFlag.4725>:
    d340:	4600432c                                         ,C.

0000d343 <gdbWriteCommand.4684>:
    d343:	69727746 002c6574                       Fwrite,.

0000d34b <gdbOpenCommand.4679>:
    d34b:	65706f46 46002c6e                                Fopen,.

0000d352 <gdbReadCommand.4689>:
    d352:	61657246 46002c64                                Fread,.

0000d359 <gdbSeekCommand.4699>:
    d359:	65736c46 002c6b65                       Flseek,.

0000d361 <gdbStatCommand.4705>:
    d361:	74736646 002c7461                       Ffstat,.

0000d369 <gdbUnlinkCommand.4710>:
    d369:	6c6e7546 2c6b6e69 6c634600                       Funlink,.

0000d372 <gdbCloseCommand.4694>:
    d372:	6f6c6346 002c6573                       Fclose,.

0000d37a <gdbStatCommand.4715>:
    d37a:	61747346 46002c74                                Fstat,.

0000d381 <gdbCommand.4720>:
    d381:	6e657246 2c656d61 33304500 61656600              Frename,.E03.

0000d38e <featureObject.4783>:
    d38e:	74616566 73657275 6d656d00                       features.

0000d397 <memoryMapObject.4782>:
    d397:	6f6d656d 6d2d7972 72007061                       memory-map.

0000d3a2 <readCommand.4794>:
    d3a2:	64616572 65665800                                read.

0000d3a7 <qXferCommand.4771>:
    d3a7:	72656658 72617400 2e746567 006c6d78     Xfer.target.xml.

0000d3b7 <qSupportedCommand.4770>:
    d3b7:	70707553 6574726f 58710064                       Supported.

0000d3c1 <querySupportResponse.4775>:
    d3c1:	65665871 656d3a72 79726f6d 70616d2d     qXfer:memory-map
    d3d1:	6165723a 713b2b64 72656658 6165663a     :read+;qXfer:fea
    d3e1:	65727574 65723a73 3b2b6461 6b636150     tures:read+;Pack
    d3f1:	69537465 003d657a                       etSize=.

0000d3f9 <targetXmlAnnex.4799>:
    d3f9:	67726174 782e7465 30006c6d 3f3c0078              target.xml.0x.

0000d407 <g_memoryMapXml>:
    d407:	6d783f3c 6576206c 6f697372 31223d6e     <?xml version="1
    d417:	3f22302e 44213c3e 5954434f 6d204550     .0"?><!DOCTYPE m
    d427:	726f6d65 616d2d79 55502070 43494c42     emory-map PUBLIC
    d437:	2f2b2220 4e44492f 756e6720 67726f2e      "+//IDN gnu.org
    d447:	54442f2f 44472044 654d2042 79726f6d     //DTD GDB Memory
    d457:	70614d20 2e315620 452f2f30 2220224e      Map V1.0//EN" "
    d467:	70747468 732f2f3a 6372756f 72617765     http://sourcewar
    d477:	726f2e65 64672f67 64672f62 656d2d62     e.org/gdb/gdb-me
    d487:	79726f6d 70616d2d 6474642e 6d3c3e22     mory-map.dtd"><m
    d497:	726f6d65 616d2d79 6d3c3e70 726f6d65     emory-map><memor
    d4a7:	79742079 223d6570 73616c66 73202268     y type="flash" s
    d4b7:	74726174 7830223d 6c202230 74676e65     tart="0x0" lengt
    d4c7:	30223d68 30303178 3e223030 72703c20     h="0x10000"> <pr
    d4d7:	7265706f 6e207974 3d656d61 6f6c6222     operty name="blo
    d4e7:	69736b63 3e22657a 30317830 2f3c3030     cksize">0x1000</
    d4f7:	706f7270 79747265 6d2f3c3e 726f6d65     property></memor
    d507:	6d3c3e79 726f6d65 79742079 223d6570     y><memory type="
    d517:	73616c66 73202268 74726174 7830223d     flash" start="0x
    d527:	30303031 6c202230 74676e65 30223d68     10000" length="0
    d537:	30303778 3e223030 72703c20 7265706f     x70000"> <proper
    d547:	6e207974 3d656d61 6f6c6222 69736b63     ty name="blocksi
    d557:	3e22657a 30387830 2f3c3030 706f7270     ze">0x8000</prop
    d567:	79747265 6d2f3c3e 726f6d65 6d3c3e79     erty></memory><m
    d577:	726f6d65 79742079 223d6570 226d6172     emory type="ram"
    d587:	61747320 223d7472 30317830 30303030      start="0x100000
    d597:	20223030 676e656c 223d6874 30387830     00" length="0x80
    d5a7:	3e223030 6d2f3c20 726f6d65 6d3c3e79     00"> </memory><m
    d5b7:	726f6d65 79742079 223d6570 226d6f72     emory type="rom"
    d5c7:	61747320 223d7472 46317830 30304646      start="0x1FFF00
    d5d7:	20223030 676e656c 223d6874 30327830     00" length="0x20
    d5e7:	3e223030 6d2f3c20 726f6d65 6d3c3e79     00"> </memory><m
    d5f7:	726f6d65 79742079 223d6570 226d6172     emory type="ram"
    d607:	61747320 223d7472 30327830 30433730      start="0x2007C0
    d617:	20223030 676e656c 223d6874 30387830     00" length="0x80
    d627:	3e223030 6d2f3c20 726f6d65 6d3c3e79     00"> </memory><m
    d637:	726f6d65 79742079 223d6570 226d6172     emory type="ram"
    d647:	61747320 223d7472 30327830 30433930      start="0x2009C0
    d657:	20223030 676e656c 223d6874 30347830     00" length="0x40
    d667:	3e223030 6d2f3c20 726f6d65 6d3c3e79     00"> </memory><m
    d677:	726f6d65 79742079 223d6570 226d6172     emory type="ram"
    d687:	61747320 223d7472 32327830 30303030      start="0x220000
    d697:	20223030 676e656c 223d6874 30327830     00" length="0x20
    d6a7:	30303030 203e2230 656d2f3c 79726f6d     00000"> </memory
    d6b7:	656d3c3e 79726f6d 70797420 72223d65     ><memory type="r
    d6c7:	20226d61 72617473 30223d74 30303478     am" start="0x400
    d6d7:	30303030 6c202230 74676e65 30223d68     00000" length="0
    d6e7:	30343178 3e223030 6d2f3c20 726f6d65     x14000"> </memor
    d6f7:	6d3c3e79 726f6d65 79742079 223d6570     y><memory type="
    d707:	226d6172 61747320 223d7472 30347830     ram" start="0x40
    d717:	30383130 20223030 676e656c 223d6874     018000" length="
    d727:	34337830 22303030 2f3c203e 6f6d656d     0x34000"> </memo
    d737:	3c3e7972 6f6d656d 74207972 3d657079     ry><memory type=
    d747:	6d617222 74732022 3d747261 34783022     "ram" start="0x4
    d757:	43353030 22303030 6e656c20 3d687467     005C000" length=
    d767:	34783022 22303030 2f3c203e 6f6d656d     "0x4000"> </memo
    d777:	3c3e7972 6f6d656d 74207972 3d657079     ry><memory type=
    d787:	6d617222 74732022 3d747261 34783022     "ram" start="0x4
    d797:	38383030 22303030 6e656c20 3d687467     0088000" length=
    d7a7:	31783022 30303043 3c203e22 6d656d2f     "0x1C000"> </mem
    d7b7:	3e79726f 6d656d3c 2079726f 65707974     ory><memory type
    d7c7:	6172223d 7320226d 74726174 7830223d     ="ram" start="0x
    d7d7:	41303034 30303038 656c2022 6874676e     400A8000" length
    d7e7:	7830223d 30303034 3c203e22 6d656d2f     ="0x4000"> </mem
    d7f7:	3e79726f 6d656d3c 2079726f 65707974     ory><memory type
    d807:	6172223d 7320226d 74726174 7830223d     ="ram" start="0x
    d817:	42303034 30303030 656c2022 6874676e     400B0000" length
    d827:	7830223d 30303034 3c203e22 6d656d2f     ="0x4000"> </mem
    d837:	3e79726f 6d656d3c 2079726f 65707974     ory><memory type
    d847:	6172223d 7320226d 74726174 7830223d     ="ram" start="0x
    d857:	42303034 30303038 656c2022 6874676e     400B8000" length
    d867:	7830223d 30303038 3c203e22 6d656d2f     ="0x8000"> </mem
    d877:	3e79726f 6d656d3c 2079726f 65707974     ory><memory type
    d887:	6172223d 7320226d 74726174 7830223d     ="ram" start="0x
    d897:	46303034 30303043 656c2022 6874676e     400FC000" length
    d8a7:	7830223d 30303034 3c203e22 6d656d2f     ="0x4000"> </mem
    d8b7:	3e79726f 6d656d3c 2079726f 65707974     ory><memory type
    d8c7:	6172223d 7320226d 74726174 7830223d     ="ram" start="0x
    d8d7:	30303234 30303030 656c2022 6874676e     42000000" length
    d8e7:	7830223d 30303032 22303030 2f3c203e     ="0x2000000"> </
    d8f7:	6f6d656d 3c3e7972 6f6d656d 74207972     memory><memory t
    d907:	3d657079 6d617222 74732022 3d747261     ype="ram" start=
    d917:	35783022 30303030 22303030 6e656c20     "0x50000000" len
    d927:	3d687467 38783022 22303030 2f3c203e     gth="0x8000"> </
    d937:	6f6d656d 3c3e7972 6f6d656d 74207972     memory><memory t
    d947:	3d657079 6d617222 74732022 3d747261     ype="ram" start=
    d957:	35783022 43303030 22303030 6e656c20     "0x5000C000" len
    d967:	3d687467 34783022 22303030 2f3c203e     gth="0x4000"> </
    d977:	6f6d656d 3c3e7972 6f6d656d 74207972     memory><memory t
    d987:	3d657079 6d617222 74732022 3d747261     ype="ram" start=
    d997:	45783022 30303030 22303030 6e656c20     "0xE0000000" len
    d9a7:	3d687467 31783022 30303030 203e2230     gth="0x100000"> 
    d9b7:	656d2f3c 79726f6d 6d2f3c3e 726f6d65     </memory></memor
    d9c7:	616d2d79 00003e70 09c01700                       y-map>...

0000d9d0 <PinMap_ADC>:
    d9d0:	2009c017 00000000 00000001 2009c018     ... ........... 
    d9e0:	00000001 00000001 2009c019 00000002     ........... ....
    d9f0:	00000001 2009c01a 00000003 00000001     ....... ........
    da00:	2009c03e 00000004 00000003 2009c03f     >.. ........?.. 
    da10:	00000005 00000003 2009c002 00000007     ........... ....
    da20:	00000002 2009c003 00000006 00000002     ....... ........
    da30:	ffffffff ffffffff 00000000 20434441     ............ADC 
    da40:	206e6970 7070616d 20676e69 6c696166     pin mapping fail
    da50:	00006465                                ed..

0000da54 <PinMap_DAC>:
    da54:	2009c01a 00000000 00000002 ffffffff     ... ............
    da64:	ffffffff 00000000 20434144 206e6970     ........DAC pin 
    da74:	7070616d 20676e69 6c696166 00006465     mapping failed..
    da84:	6c756f63 6f6e2064 69702074 74756f6e     could not pinout
    da94:	00000000 6d6e6970 6d207061 6d2d7369     ....pinmap mis-m
    daa4:	68637461 00000000 6d6e6970 6e207061     atch....pinmap n
    dab4:	6620746f 646e756f 726f6620 72657020     ot found for per
    dac4:	65687069 006c6172 00000000              ipheral.....

0000dad0 <vtable for mbed::InterruptIn>:
	...
    dad8:	0000429d 000042cd                       .B...B..

0000dae0 <__stdin_name>:
    dae0:	6474732f 00006e69                       /stdin..

0000dae8 <__stdout_name>:
    dae8:	6474732f 0074756f                       /stdout.

0000daf0 <__stderr_name>:
    daf0:	6474732f 00727265 0070253a 65637845     /stderr.:%p.Exce
    db00:	6f697470 0000006e                       ption...

0000db08 <vtable for mbed::FileHandle>:
	...
    db10:	000011cd 000011cd 000011cd 000011cd     ................
    db20:	000011cd 000011cd 000043a9 000043fd     .........C...C..
    db30:	00004455 00000000                       UD......

0000db38 <vtable for mbed::Serial>:
	...
    db40:	00000e1d 00000e79 00004895 000048b5     ....y....H...H..
    db50:	ffffffb8 00000000 00004b99 00004b8d     .........K...K..
    db60:	00004bf1 00004c55 00004c45 00004c61     .K..UL..EL..aL..
    db70:	00004c6d 00000e71 00000e9d 000048d1     mL..q........H..
    db80:	000048ad ffffffb4 00000000 00000e69     .H..........i...
    db90:	00000e95 00000000 0070253a 00002b77     ........:%p.w+..

0000dba0 <vtable for mbed::Stream>:
	...
    dba8:	00004b99 00004b8d 00004bf1 00004c55     .K...K...K..UL..
    dbb8:	00004c45 00004c61 00004c6d 00004ad1     EL..aL..mL...J..
    dbc8:	00004b1d 000011cd 000011cd fffffffc     .K..............
    dbd8:	00000000 00004b15 00004b39 00000000     .....K..9K......

0000dbe8 <vtable for mbed::Ticker>:
	...
    dbf0:	00000ea5 00000ed5 00004ca9 00000000     .........L......

0000dc00 <vtable for mbed::TimerEvent>:
	...
    dc08:	00004e19 00004e45 000011cd 00000000     .N..EN..........
    dc18:	736e6970 206e6f20 73696874 726f7020     pins on this por
    dc28:	61632074 746f6e6e 6e656720 74617265     t cannot generat
    dc38:	6e692065 72726574 73747075 00000000     e interrupts....

0000dc48 <PinMap_UART_TX>:
    dc48:	2009c000 4009c000 00000002 2009c002     ... ...@....... 
    dc58:	4000c000 00000001 2009c00a 40098000     ...@....... ...@
    dc68:	00000001 2009c00f 40010000 00000001     ....... ...@....
    dc78:	2009c019 4009c000 00000003 2009c040     ... ...@....@.. 
    dc88:	40010000 00000002 2009c048 40098000     ...@....H.. ...@
    dc98:	00000002 2009c09c 4009c000 00000003     ....... ...@....
    dca8:	ffffffff ffffffff 00000000              ............

0000dcb4 <PinMap_UART_RX>:
    dcb4:	2009c001 4009c000 00000002 2009c003     ... ...@....... 
    dcc4:	4000c000 00000001 2009c00b 40098000     ...@....... ...@
    dcd4:	00000001 2009c010 40010000 00000001     ....... ...@....
    dce4:	2009c01a 4009c000 00000003 2009c041     ... ...@....A.. 
    dcf4:	40010000 00000002 2009c049 40098000     ...@....I.. ...@
    dd04:	00000002 2009c09d 4009c000 00000003     ....... ...@....
    dd14:	ffffffff ffffffff 00000000              ............

0000dd20 <PinMap_UART_RTS>:
    dd20:	2009c016 40010000 00000001 2009c047     ... ...@....G.. 
    dd30:	40010000 00000002 ffffffff ffffffff     ...@............
    dd40:	00000000                                ....

0000dd44 <PinMap_UART_CTS>:
    dd44:	2009c011 40010000 00000001 2009c042     ... ...@....B.. 
    dd54:	40010000 00000002 ffffffff ffffffff     ...@............
    dd64:	00000000 69726553 70206c61 756f6e69     ....Serial pinou
    dd74:	616d2074 6e697070 61662067 64656c69     t mapping failed
    dd84:	00000000 69726573 625f6c61 00647561     ....serial_baud.
    dd94:	61766e49 2064696c 706f7473 74696220     Invalid stop bit
    dda4:	70732073 66696365 00646569 61766e49     s specified.Inva
    ddb4:	2064696c 626d756e 6f207265 69622066     lid number of bi
    ddc4:	28207374 20296425 73206e69 61697265     ts (%d) in seria
    ddd4:	6f66206c 74616d72 6873202c 646c756f     l format, should
    dde4:	20656220 382e2e35 00000000 61766e49      be 5..8....Inva
    ddf4:	2064696c 69726573 70206c61 74697261     lid serial parit
    de04:	65732079 6e697474 00000067              y setting...

0000de10 <vtable for mbed::FileLike>:
	...
    de18:	000011cd 000011cd 000011cd 000011cd     ................
    de28:	000011cd 000011cd 000043a9 00006561     .........C..ae..
    de38:	000065ad fffffffc 00000000 000065a5     .e...........e..
    de48:	000065c9 00000000                       .e......

0000de50 <vtable for mbed::FileBase>:
	...
    de58:	0000678d 000067f5                       .g...g..

0000de60 <__sf_fake_stdin>:
	...

0000de80 <__sf_fake_stdout>:
	...

0000dea0 <__sf_fake_stderr>:
	...
    dec0:	00000043                                C...

0000dec4 <_global_impure_ptr>:
    dec4:	100000dc 2b302d23 6c680020 6665004c     ....#-0+ .hlL.ef
    ded4:	47464567 464e4900 666e6900 4e414e00     gEFG.INF.inf.NAN
    dee4:	6e616e00 32313000 36353433 41393837     .nan.0123456789A
    def4:	45444342 31300046 35343332 39383736     BCDEF.0123456789
    df04:	64636261 65006665 00646c25 0000df2e     abcdef.e%ld.....
    df14:	0000df31 0000df34 61462d41 3938662d     1...4...A-Fa-f89
    df24:	33323130 37363534 2d2b005d 00303000     01234567].+-.00.
    df34:	00005878                                         xX.

0000df37 <_ctype_>:
    df37:	20202000 20202020 28282020 20282828     .         ((((( 
    df47:	20202020 20202020 20202020 20202020                     
    df57:	10108820 10101010 10101010 10101010      ...............
    df67:	04040410 04040404 10040404 10101010     ................
    df77:	41411010 41414141 01010101 01010101     ..AAAAAA........
    df87:	01010101 01010101 01010101 10101010     ................
    df97:	42421010 42424242 02020202 02020202     ..BBBBBB........
    dfa7:	02020202 02020202 02020202 10101010     ................
    dfb7:	00000020 00000000 00000000 00000000      ...............
	...
    e037:	666e4900 74696e69 614e0079 4f50004e     .Infinity.NaN.PO
    e047:	00584953 0000002e 00000000                       SIX......

0000e050 <__mprec_tens>:
    e050:	00000000 3ff00000 00000000 40240000     .......?......$@
    e060:	00000000 40590000 00000000 408f4000     ......Y@.....@.@
    e070:	00000000 40c38800 00000000 40f86a00     .......@.....j.@
    e080:	00000000 412e8480 00000000 416312d0     .......A......cA
    e090:	00000000 4197d784 00000000 41cdcd65     .......A....e..A
    e0a0:	20000000 4202a05f e8000000 42374876     ... _..B....vH7B
    e0b0:	a2000000 426d1a94 e5400000 42a2309c     ......mB..@..0.B
    e0c0:	1e900000 42d6bcc4 26340000 430c6bf5     .......B..4&.k.C
    e0d0:	37e08000 4341c379 85d8a000 43763457     ...7y.AC....W4vC
    e0e0:	674ec800 43abc16d 60913d00 43e158e4     ..Ngm..C.=.`.X.C
    e0f0:	78b58c40 4415af1d d6e2ef50 444b1ae4     @..x...DP.....KD
    e100:	064dd592 4480f0cf c7e14af6 44b52d02     ..M....D.J...-.D
    e110:	79d99db4 44ea7843                       ...yCx.D

0000e118 <__mprec_bigtens>:
    e118:	37e08000 4341c379 b5056e17 4693b8b5     ...7y.AC.n.....F
    e128:	e93ff9f5 4d384f03 f9301d32 5a827748     ..?..O8M2.0.Hw.Z
    e138:	7f73bf3c 75154fdd                       <.s..O.u

0000e140 <p05.5278>:
    e140:	00000005 00000019 0000007d              ........}...

0000e14c <fpi.5243>:
    e14c:	00000035 fffffbce 000003cb 00000001     5...............
    e15c:	00000000                                ....

0000e160 <tinytens>:
    e160:	97d889bc 3c9cd2b2 d5a8a733 3949f623     .......<3...#.I9
    e170:	44f4a73d 32a50ffd cf8c979d 255bba08     =..D...2......[%
    e180:	64ac6f43 11680628                       Co.d(.h.

0000e188 <fpinan.5279>:
    e188:	00000034 fffffbce 000003cb 00000001     4...............
    e198:	00000000                                ....

0000e19c <__EH_FRAME_BEGIN__>:
    e19c:	00000000                                ....
